Archive member included to satisfy reference by file (symbol)

arch/arm/lib/lib.a(ashldi3.o)
                              drivers/built-in.o (__aeabi_llsl)
arch/arm/lib/lib.a(lib1funcs.o)
                              arch/arm/mach-imx/built-in.o (__aeabi_uidiv)
arch/arm/lib/lib.a(lshrdi3.o)
                              fs/built-in.o (__aeabi_llsr)
arch/arm/lib/lib.a(uldivmod.o)
                              common/built-in.o (__aeabi_uldivmod)
arch/arm/lib/lib.a(div0.o)    arch/arm/lib/lib.a(lib1funcs.o) (__div0)

Discarded input sections

 .data          0x0000000000000000        0x0 arch/arm/cpu/armv7/start.o
 .bss           0x0000000000000000        0x0 arch/arm/cpu/armv7/start.o
 .text.v7_outer_cache_enable
                0x0000000000000000        0x4 arch/arm/cpu/armv7/built-in.o
 .text.v7_outer_cache_disable
                0x0000000000000000        0x4 arch/arm/cpu/armv7/built-in.o
 .text.v7_outer_cache_flush_all
                0x0000000000000000        0x4 arch/arm/cpu/armv7/built-in.o
 .text.v7_outer_cache_inval_all
                0x0000000000000000        0x4 arch/arm/cpu/armv7/built-in.o
 .text.v7_outer_cache_flush_range
                0x0000000000000000        0x4 arch/arm/cpu/armv7/built-in.o
 .text.v7_outer_cache_inval_range
                0x0000000000000000        0x4 arch/arm/cpu/armv7/built-in.o
 .text.v7_arch_cp15_set_l2aux_ctrl
                0x0000000000000000        0x8 arch/arm/cpu/armv7/built-in.o
 .text.v7_arch_cp15_set_acr
                0x0000000000000000        0x8 arch/arm/cpu/armv7/built-in.o
 .text.sdelay   0x0000000000000000        0xc arch/arm/cpu/armv7/built-in.o
 .text.wait_on_value
                0x0000000000000000       0x38 arch/arm/cpu/armv7/built-in.o
 .text.s_init   0x0000000000000000        0x4 arch/arm/cpu/armv7/built-in.o
 .data          0x0000000000000000        0x0 arch/arm/cpu/armv7/built-in.o
 .bss           0x0000000000000000        0x0 arch/arm/cpu/armv7/built-in.o
 .text.armv7_boot_nonsec_default
                0x0000000000000000        0x8 arch/arm/lib/built-in.o
 .text.reset_misc
                0x0000000000000000        0x4 arch/arm/lib/built-in.o
 .text.enable_caches
                0x0000000000000000        0xc arch/arm/lib/built-in.o
 .text.invalidate_dcache_range
                0x0000000000000000        0x4 arch/arm/lib/built-in.o
 .text.flush_dcache_range
                0x0000000000000000        0x4 arch/arm/lib/built-in.o
 .text.flush_dcache_all
                0x0000000000000000        0xc arch/arm/lib/built-in.o
 .text.arm_init_before_mmu
                0x0000000000000000        0x4 arch/arm/lib/built-in.o
 .text.mmu_page_table_flush
                0x0000000000000000        0x4 arch/arm/lib/built-in.o
 .text.fdt_psci
                0x0000000000000000        0x8 arch/arm/lib/built-in.o
 .rodata.pl310  0x0000000000000000        0x4 arch/arm/lib/built-in.o
 .rodata.enable_caches.str1.1
                0x0000000000000000       0x1d arch/arm/lib/built-in.o
 .data          0x0000000000000000        0x0 arch/arm/lib/built-in.o
 .__secure_end  0x0000000000000000        0x0 arch/arm/lib/built-in.o
 .__secure_stack_end
                0x0000000000000000        0x0 arch/arm/lib/built-in.o
 .__secure_stack_start
                0x0000000000000000        0x0 arch/arm/lib/built-in.o
 .__secure_start
                0x0000000000000000        0x0 arch/arm/lib/built-in.o
 .bss           0x0000000000000000        0x0 arch/arm/lib/built-in.o
 .text          0x0000000000000000        0x0 arch/arm/mach-imx/built-in.o
 .text.get_imx_reset_cause
                0x0000000000000000       0x10 arch/arm/mach-imx/built-in.o
 .text.cpu_eth_init
                0x0000000000000000        0x4 arch/arm/mach-imx/built-in.o
 .text.cpu_mmc_init
                0x0000000000000000        0x4 arch/arm/mach-imx/built-in.o
 .text.set_chipselect_size
                0x0000000000000000       0x84 arch/arm/mach-imx/built-in.o
 .text.nxp_board_rev
                0x0000000000000000       0x18 arch/arm/mach-imx/built-in.o
 .text.nxp_board_rev_string
                0x0000000000000000       0x14 arch/arm/mach-imx/built-in.o
 .text.usec2ticks
                0x0000000000000000       0x90 arch/arm/mach-imx/built-in.o
 .text.force_idle_bus
                0x0000000000000000      0x1c4 arch/arm/mach-imx/built-in.o
 .text.setup_i2c
                0x0000000000000000       0xb0 arch/arm/mach-imx/built-in.o
 .text.mxs_wait_mask_set
                0x0000000000000000       0x40 arch/arm/mach-imx/built-in.o
 .text.mxs_wait_mask_clr
                0x0000000000000000       0x40 arch/arm/mach-imx/built-in.o
 .text.mxs_reset_block
                0x0000000000000000       0xa4 arch/arm/mach-imx/built-in.o
 .text.imx6_src_get_boot_mode
                0x0000000000000000       0x1c arch/arm/mach-imx/built-in.o
 .text.detect_hdmi
                0x0000000000000000       0x1c arch/arm/mach-imx/built-in.o
 .text.board_mmc_get_env_dev
                0x0000000000000000        0x8 arch/arm/mach-imx/built-in.o
 .text.set_arm_freq_400M
                0x0000000000000000       0x34 arch/arm/mach-imx/built-in.o
 .text.gpr_init
                0x0000000000000000       0x78 arch/arm/mach-imx/built-in.o
 .text.enable_enet_clk
                0x0000000000000000       0x78 arch/arm/mach-imx/built-in.o
 .text.enable_uart_clk
                0x0000000000000000       0x70 arch/arm/mach-imx/built-in.o
 .text.enable_usdhc_clk
                0x0000000000000000       0x54 arch/arm/mach-imx/built-in.o
 .text.enable_spi_clk
                0x0000000000000000       0x44 arch/arm/mach-imx/built-in.o
 .text.select_ldb_di_clock_source
                0x0000000000000000      0x208 arch/arm/mach-imx/built-in.o
 .rodata.set_chipselect_size.str1.1
                0x0000000000000000       0x1e arch/arm/mach-imx/built-in.o
 .rodata.__func__.9510
                0x0000000000000000        0xf arch/arm/mach-imx/built-in.o
 .rodata.force_idle_bus.str1.1
                0x0000000000000000       0x53 arch/arm/mach-imx/built-in.o
 .rodata.setup_i2c.str1.1
                0x0000000000000000       0x18 arch/arm/mach-imx/built-in.o
 .data          0x0000000000000000        0x0 arch/arm/mach-imx/built-in.o
 .bss           0x0000000000000000        0x0 arch/arm/mach-imx/built-in.o
 .text          0x0000000000000000        0x0 board/freescale/common/built-in.o
 .text.mmc_map_to_kernel_blk
                0x0000000000000000        0x4 board/freescale/common/built-in.o
 .data          0x0000000000000000        0x0 board/freescale/common/built-in.o
 .bss           0x0000000000000000        0x0 board/freescale/common/built-in.o
 .text          0x0000000000000000        0x0 board/freescale/mx6sabresd/built-in.o
 .text.board_mmc_getcd
                0x0000000000000000       0x60 board/freescale/mx6sabresd/built-in.o
 .text.board_mmc_init
                0x0000000000000000       0xdc board/freescale/mx6sabresd/built-in.o
 .text.board_eth_init
                0x0000000000000000       0x28 board/freescale/mx6sabresd/built-in.o
 .rodata.board_mmc_init.str1.1
                0x0000000000000000       0x14 board/freescale/mx6sabresd/built-in.o
 .rodata.enet_pads
                0x0000000000000000       0x80 board/freescale/mx6sabresd/built-in.o
 .rodata.usdhc2_pads
                0x0000000000000000       0x58 board/freescale/mx6sabresd/built-in.o
 .rodata.usdhc3_pads
                0x0000000000000000       0x58 board/freescale/mx6sabresd/built-in.o
 .rodata.usdhc4_pads
                0x0000000000000000       0x50 board/freescale/mx6sabresd/built-in.o
 .data          0x0000000000000000        0x0 board/freescale/mx6sabresd/built-in.o
 .data.usdhc_cfg
                0x0000000000000000       0x90 board/freescale/mx6sabresd/built-in.o
 .bss           0x0000000000000000        0x0 board/freescale/mx6sabresd/built-in.o
 .text          0x0000000000000000        0x0 cmd/built-in.o
 .text.bootz_setup
                0x0000000000000000       0x18 cmd/built-in.o
 .text.invalidate_icache_all
                0x0000000000000000        0xc cmd/built-in.o
 .text.flush_dcache_all
                0x0000000000000000        0xc cmd/built-in.o
 .text.name_to_gpio
                0x0000000000000000        0xc cmd/built-in.o
 .text.i2c_init_board
                0x0000000000000000        0x4 cmd/built-in.o
 .rodata.bootz_setup.str1.1
                0x0000000000000000       0x34 cmd/built-in.o
 .rodata.flush_dcache_all.str1.1
                0x0000000000000000       0x2e cmd/built-in.o
 .rodata.invalidate_icache_all.str1.1
                0x0000000000000000       0x33 cmd/built-in.o
 .data          0x0000000000000000        0x0 cmd/built-in.o
 .bss           0x0000000000000000        0x0 cmd/built-in.o
 .text          0x0000000000000000        0x0 common/built-in.o
 .text.hash_progressive_lookup_algo
                0x0000000000000000       0x3c common/built-in.o
 .text.hash_parse_string
                0x0000000000000000       0x68 common/built-in.o
 .text.hash_block
                0x0000000000000000       0x6c common/built-in.o
 .text.unset_local_var
                0x0000000000000000       0xa0 common/built-in.o
 .text.arch_cpu_init
                0x0000000000000000        0x8 common/built-in.o
 .text.red_led_off
                0x0000000000000000        0x4 common/built-in.o
 .text.green_led_on
                0x0000000000000000        0x4 common/built-in.o
 .text.green_led_off
                0x0000000000000000        0x4 common/built-in.o
 .text.yellow_led_on
                0x0000000000000000        0x4 common/built-in.o
 .text.yellow_led_off
                0x0000000000000000        0x4 common/built-in.o
 .text.blue_led_on
                0x0000000000000000        0x4 common/built-in.o
 .text.blue_led_off
                0x0000000000000000        0x4 common/built-in.o
 .text.arch_reserve_stacks
                0x0000000000000000        0x8 common/built-in.o
 .text.power_init_board
                0x0000000000000000        0x8 common/built-in.o
 .text.board_flash_wp_on
                0x0000000000000000        0x8 common/built-in.o
 .text.fixup_cpu
                0x0000000000000000        0x8 common/built-in.o
 .text.checkboard
                0x0000000000000000        0x8 common/built-in.o
 .text.arch_preboot_os
                0x0000000000000000        0x4 common/built-in.o
 .text.fdt_read_prop
                0x0000000000000000       0x64 common/built-in.o
 .text.fdt_getprop_u32_default_node
                0x0000000000000000       0x40 common/built-in.o
 .text.fdt_getprop_u32_default
                0x0000000000000000       0x3c common/built-in.o
 .text.do_fixup_by_path_u32
                0x0000000000000000       0x2c common/built-in.o
 .text.do_fixup_by_prop
                0x0000000000000000       0x9c common/built-in.o
 .text.do_fixup_by_prop_u32
                0x0000000000000000       0x38 common/built-in.o
 .text.do_fixup_by_compat
                0x0000000000000000       0x8c common/built-in.o
 .text.do_fixup_by_compat_u32
                0x0000000000000000       0x2c common/built-in.o
 .text.fdt_record_loadable
                0x0000000000000000      0x16c common/built-in.o
 .text.fdt_increase_size
                0x0000000000000000       0x14 common/built-in.o
 .text.fdt_del_node_and_alias
                0x0000000000000000       0x44 common/built-in.o
 .text.fdt_node_offset_by_compat_reg
                0x0000000000000000       0x8c common/built-in.o
 .text.fdt_alloc_phandle
                0x0000000000000000       0x58 common/built-in.o
 .text.fdt_set_phandle
                0x0000000000000000       0x60 common/built-in.o
 .text.fdt_create_phandle
                0x0000000000000000       0x64 common/built-in.o
 .text.fdt_set_node_status
                0x0000000000000000       0xe8 common/built-in.o
 .text.fdt_set_status_by_alias
                0x0000000000000000       0x2c common/built-in.o
 .text.fdt_add_edid
                0x0000000000000000       0xac common/built-in.o
 .text.fdt_verify_alias_address
                0x0000000000000000       0xcc common/built-in.o
 .text.fdt_get_base_address
                0x0000000000000000       0x40 common/built-in.o
 .text.fdt_read_range
                0x0000000000000000      0x13c common/built-in.o
 .text.fdt_setup_simplefb_node
                0x0000000000000000      0x208 common/built-in.o
 .text.fdt_fixup_display
                0x0000000000000000       0xd4 common/built-in.o
 .text.mdio_register_seq
                0x0000000000000000       0x34 common/built-in.o
 .text.usb_submit_int_msg
                0x0000000000000000        0x4 common/built-in.o
 .text.usb_set_protocol
                0x0000000000000000       0x4c common/built-in.o
 .text.usb_set_idle
                0x0000000000000000       0x54 common/built-in.o
 .text.usb_get_report
                0x0000000000000000       0x5c common/built-in.o
 .text.usb_get_class_descriptor
                0x0000000000000000       0x5c common/built-in.o
 .text.usb_hub_probe
                0x0000000000000000       0x54 common/built-in.o
 .text.cli_simple_parse_line
                0x0000000000000000       0x88 common/built-in.o
 .text.cli_simple_process_macros
                0x0000000000000000      0x20c common/built-in.o
 .text.cli_simple_run_command
                0x0000000000000000      0x158 common/built-in.o
 .text.cli_simple_loop
                0x0000000000000000       0x80 common/built-in.o
 .text.cli_simple_run_command_list
                0x0000000000000000       0x74 common/built-in.o
 .text.bounce_buffer_start
                0x0000000000000000       0x8c common/built-in.o
 .text.bounce_buffer_stop
                0x0000000000000000       0x54 common/built-in.o
 .text.fputc    0x0000000000000000       0x1c common/built-in.o
 .text.fprintf  0x0000000000000000       0x4c common/built-in.o
 .text.console_announce_r
                0x0000000000000000       0x58 common/built-in.o
 .text.valloc   0x0000000000000000        0xc common/built-in.o
 .text.pvalloc  0x0000000000000000       0x18 common/built-in.o
 .text.cfree    0x0000000000000000        0x4 common/built-in.o
 .text.malloc_usable_size
                0x0000000000000000       0x44 common/built-in.o
 .text.mallopt  0x0000000000000000       0x54 common/built-in.o
 .text.memalign_simple
                0x0000000000000000       0x44 common/built-in.o
 .text.genimg_get_short_name
                0x0000000000000000       0x1c common/built-in.o
 .text.genimg_get_cat_name
                0x0000000000000000       0x5c common/built-in.o
 .text.genimg_get_cat_short_name
                0x0000000000000000       0x5c common/built-in.o
 .text.genimg_get_cat_count
                0x0000000000000000       0x18 common/built-in.o
 .text.genimg_get_cat_desc
                0x0000000000000000       0x18 common/built-in.o
 .text.genimg_get_type_short_name
                0x0000000000000000       0x10 common/built-in.o
 .text.genimg_get_comp_short_name
                0x0000000000000000       0x10 common/built-in.o
 .text.genimg_get_os_short_name
                0x0000000000000000       0x10 common/built-in.o
 .text.genimg_get_arch_short_name
                0x0000000000000000       0x10 common/built-in.o
 .text.get_table_entry_id
                0x0000000000000000       0x4c common/built-in.o
 .text.genimg_get_os_id
                0x0000000000000000       0x18 common/built-in.o
 .text.genimg_get_arch_id
                0x0000000000000000       0x18 common/built-in.o
 .text.genimg_get_type_id
                0x0000000000000000       0x18 common/built-in.o
 .text.genimg_get_comp_id
                0x0000000000000000       0x18 common/built-in.o
 .text.genimg_get_kernel_addr
                0x0000000000000000       0x24 common/built-in.o
 .text.image_arm64
                0x0000000000000000       0x1c common/built-in.o
 .text.arch_fixup_fdt
                0x0000000000000000        0x8 common/built-in.o
 .text.get_ram_size
                0x0000000000000000       0xdc common/built-in.o
 .text.stdio_init
                0x0000000000000000       0x14 common/built-in.o
 .text.fb_mmc_sparse_reserve
                0x0000000000000000        0x8 common/built-in.o
 .text.fb_mmc_sparse_write
                0x0000000000000000        0xc common/built-in.o
 .text.part_get_info_by_name_or_alias
                0x0000000000000000       0x6c common/built-in.o
 .text.fb_mmc_flash_write
                0x0000000000000000      0x650 common/built-in.o
 .text.fb_mmc_erase
                0x0000000000000000      0x12c common/built-in.o
 .text.run_command_repeatable
                0x0000000000000000       0x1c common/built-in.o
 .rodata.__func__.9602
                0x0000000000000000       0x14 common/built-in.o
 .rodata.fdt_add_edid.str1.1
                0x0000000000000000       0x3b common/built-in.o
 .rodata.fdt_create_phandle.str1.1
                0x0000000000000000       0x1a common/built-in.o
 .rodata.fdt_fixup_display.str1.1
                0x0000000000000000       0x1c common/built-in.o
 .rodata.fdt_read_range.str1.1
                0x0000000000000000        0xf common/built-in.o
 .rodata.fdt_record_loadable.str1.1
                0x0000000000000000       0x2e common/built-in.o
 .rodata.fdt_set_node_status.str1.1
                0x0000000000000000       0x3a common/built-in.o
 .rodata.fdt_set_phandle.str1.1
                0x0000000000000000       0x16 common/built-in.o
 .rodata.fdt_setup_simplefb_node.str1.1
                0x0000000000000000       0x2c common/built-in.o
 .rodata.fdt_verify_alias_address.str1.1
                0x0000000000000000       0xcd common/built-in.o
 .rodata.mdio_register_seq.str1.1
                0x0000000000000000        0x6 common/built-in.o
 .rodata.cli_simple_loop.str1.1
                0x0000000000000000       0x11 common/built-in.o
 .rodata.cli_simple_parse_line.str1.1
                0x0000000000000000       0x1f common/built-in.o
 .rodata.cli_simple_run_command.str1.1
                0x0000000000000000       0x16 common/built-in.o
 .rodata.genimg_get_arch_id.str1.1
                0x0000000000000000        0x4 common/built-in.o
 .rodata.genimg_get_comp_id.str1.1
                0x0000000000000000        0xc common/built-in.o
 .rodata.genimg_get_os_id.str1.1
                0x0000000000000000        0x3 common/built-in.o
 .rodata.genimg_get_short_name.str1.1
                0x0000000000000000        0x8 common/built-in.o
 .rodata.genimg_get_type_id.str1.1
                0x0000000000000000        0x6 common/built-in.o
 .rodata.table_info
                0x0000000000000000       0x30 common/built-in.o
 .rodata.unknown_str.9589
                0x0000000000000000        0x9 common/built-in.o
 .rodata.__func__.8505
                0x0000000000000000       0x13 common/built-in.o
 .rodata.fb_mmc_erase.str1.1
                0x0000000000000000       0xa6 common/built-in.o
 .rodata.fb_mmc_flash_write.str1.1
                0x0000000000000000      0x460 common/built-in.o
 .rodata.part_get_info_by_name_or_alias.str1.1
                0x0000000000000000       0x1a common/built-in.o
 .data          0x0000000000000000        0x0 common/built-in.o
 .bss           0x0000000000000000        0x0 common/built-in.o
 .bss.lastcommand.7924
                0x0000000000000000      0x201 common/built-in.o
 .bss.msg.9590  0x0000000000000000       0x1e common/built-in.o
 .bss.save_addr
                0x0000000000000000        0x4 common/built-in.o
 .bss.save_size
                0x0000000000000000        0x4 common/built-in.o
 .text          0x0000000000000000        0x0 disk/built-in.o
 .text.part_get_info_by_name_type
                0x0000000000000000       0xb8 disk/built-in.o
 .text.part_get_info_by_name
                0x0000000000000000        0x8 disk/built-in.o
 .text.is_valid_dos_buf
                0x0000000000000000       0x18 disk/built-in.o
 .text.write_mbr_partition
                0x0000000000000000       0x64 disk/built-in.o
 .text.get_disk_guid
                0x0000000000000000       0xdc disk/built-in.o
 .text.write_gpt_table
                0x0000000000000000      0x488 disk/built-in.o
 .text.gpt_fill_pte
                0x0000000000000000      0x334 disk/built-in.o
 .text.gpt_fill_header
                0x0000000000000000      0x238 disk/built-in.o
 .text.gpt_restore
                0x0000000000000000      0x124 disk/built-in.o
 .text.gpt_verify_headers
                0x0000000000000000       0x7c disk/built-in.o
 .text.gpt_verify_partitions
                0x0000000000000000      0x21c disk/built-in.o
 .text.write_mbr_and_gpt_partitions
                0x0000000000000000      0x3b8 disk/built-in.o
 .rodata        0x0000000000000000       0x10 disk/built-in.o
 .rodata.__func__.7944
                0x0000000000000000       0x14 disk/built-in.o
 .rodata.write_mbr_partition.str1.1
                0x0000000000000000       0x2d disk/built-in.o
 .rodata.__func__.9163
                0x0000000000000000        0xe disk/built-in.o
 .rodata.__func__.9196
                0x0000000000000000       0x13 disk/built-in.o
 .rodata.__func__.9259
                0x0000000000000000        0xc disk/built-in.o
 .rodata.__func__.9277
                0x0000000000000000       0x13 disk/built-in.o
 .rodata.__func__.9310
                0x0000000000000000       0x1d disk/built-in.o
 .rodata.gpt_fill_header.str1.1
                0x0000000000000000       0x24 disk/built-in.o
 .rodata.gpt_fill_pte.str1.1
                0x0000000000000000       0x5b disk/built-in.o
 .rodata.gpt_verify_partitions.str1.1
                0x0000000000000000       0xa3 disk/built-in.o
 .rodata.write_gpt_table.str1.1
                0x0000000000000000       0x55 disk/built-in.o
 .data          0x0000000000000000        0x0 disk/built-in.o
 .bss           0x0000000000000000        0x0 disk/built-in.o
 .text          0x0000000000000000        0x0 drivers/built-in.o
 .text._device_find_global_by_of_offset
                0x0000000000000000       0x50 drivers/built-in.o
 .text.device_get_child
                0x0000000000000000       0x50 drivers/built-in.o
 .text.device_find_child_by_seq
                0x0000000000000000       0x68 drivers/built-in.o
 .text.device_get_child_by_seq
                0x0000000000000000       0x58 drivers/built-in.o
 .text.device_find_child_by_of_offset
                0x0000000000000000       0x4c drivers/built-in.o
 .text.device_get_child_by_of_offset
                0x0000000000000000       0x3c drivers/built-in.o
 .text.device_get_global_by_of_offset
                0x0000000000000000       0x40 drivers/built-in.o
 .text.dev_get_uclass_name
                0x0000000000000000       0x14 drivers/built-in.o
 .text.device_has_children
                0x0000000000000000       0x14 drivers/built-in.o
 .text.device_set_name
                0x0000000000000000       0x30 drivers/built-in.o
 .text.device_is_compatible
                0x0000000000000000       0x24 drivers/built-in.o
 .text.of_machine_is_compatible
                0x0000000000000000       0x24 drivers/built-in.o
 .text.devfdt_get_addr_size_index
                0x0000000000000000       0x40 drivers/built-in.o
 .text.devfdt_get_addr_name
                0x0000000000000000       0x34 drivers/built-in.o
 .text.devfdt_get_addr_ptr
                0x0000000000000000        0x8 drivers/built-in.o
 .text.devfdt_map_physmem
                0x0000000000000000       0x14 drivers/built-in.o
 .text.dm_fixup_for_gd_move
                0x0000000000000000       0x20 drivers/built-in.o
 .text.dm_set_translation_offset
                0x0000000000000000       0x18 drivers/built-in.o
 .text.dm_uninit
                0x0000000000000000       0x20 drivers/built-in.o
 .text.uclass_destroy
                0x0000000000000000       0x9c drivers/built-in.o
 .text.uclass_get_name
                0x0000000000000000       0x28 drivers/built-in.o
 .text.uclass_get_by_name
                0x0000000000000000       0x4c drivers/built-in.o
 .text.uclass_get_device_by_driver
                0x0000000000000000       0x6c drivers/built-in.o
 .text.uclass_first_device_err
                0x0000000000000000       0x24 drivers/built-in.o
 .text.list_count_items
                0x0000000000000000       0x28 drivers/built-in.o
 .text.devres_get
                0x0000000000000000       0x44 drivers/built-in.o
 .text.devres_release
                0x0000000000000000       0x3c drivers/built-in.o
 .text.simple_bus_translate
                0x0000000000000000       0x38 drivers/built-in.o
 .text.of_read_fmap_entry
                0x0000000000000000       0xc0 drivers/built-in.o
 .text.ofnode_read_s32_default
                0x0000000000000000       0x20 drivers/built-in.o
 .text.ofnode_get_parent
                0x0000000000000000       0x18 drivers/built-in.o
 .text.ofnode_get_by_phandle
                0x0000000000000000       0x18 drivers/built-in.o
 .text.ofnode_read_size
                0x0000000000000000       0x30 drivers/built-in.o
 .text.decode_timing_property
                0x0000000000000000       0x70 drivers/built-in.o
 .text.ofnode_get_addr_index
                0x0000000000000000       0x18 drivers/built-in.o
 .text.ofnode_get_addr
                0x0000000000000000        0x8 drivers/built-in.o
 .text.ofnode_stringlist_search
                0x0000000000000000       0x38 drivers/built-in.o
 .text.ofnode_read_string_index
                0x0000000000000000       0x44 drivers/built-in.o
 .text.ofnode_read_string_count
                0x0000000000000000       0x14 drivers/built-in.o
 .text.ofnode_count_phandle_with_args
                0x0000000000000000       0x34 drivers/built-in.o
 .text.ofnode_get_chosen_prop
                0x0000000000000000       0x20 drivers/built-in.o
 .text.ofnode_get_chosen_node
                0x0000000000000000       0x20 drivers/built-in.o
 .text.ofnode_decode_display_timing
                0x0000000000000000      0x2b8 drivers/built-in.o
 .text.ofnode_is_available
                0x0000000000000000       0x20 drivers/built-in.o
 .text.ofnode_get_addr_size
                0x0000000000000000       0x18 drivers/built-in.o
 .text.ofnode_read_u8_array_ptr
                0x0000000000000000       0x18 drivers/built-in.o
 .text.ofnode_read_pci_addr
                0x0000000000000000       0xa8 drivers/built-in.o
 .text.ofnode_read_simple_addr_cells
                0x0000000000000000       0x10 drivers/built-in.o
 .text.ofnode_read_addr_cells
                0x0000000000000000        0x4 drivers/built-in.o
 .text.ofnode_read_simple_size_cells
                0x0000000000000000       0x10 drivers/built-in.o
 .text.ofnode_read_size_cells
                0x0000000000000000        0x4 drivers/built-in.o
 .text.ofnode_read_resource
                0x0000000000000000       0x64 drivers/built-in.o
 .text.ofnode_read_resource_byname
                0x0000000000000000       0x34 drivers/built-in.o
 .text.ofnode_translate_address
                0x0000000000000000       0x14 drivers/built-in.o
 .text.pinctrl_decode_pin_config
                0x0000000000000000       0x4c drivers/built-in.o
 .text.pinctrl_request
                0x0000000000000000       0x20 drivers/built-in.o
 .text.pinctrl_request_noflags
                0x0000000000000000        0x8 drivers/built-in.o
 .text.pinctrl_get_periph_id
                0x0000000000000000       0x20 drivers/built-in.o
 .text.pinctrl_get_gpio_mux
                0x0000000000000000       0x20 drivers/built-in.o
 .text.pinctrl_generic_set_state_subnode
                0x0000000000000000      0x2b0 drivers/built-in.o
 .text.pinctrl_generic_set_state
                0x0000000000000000       0x60 drivers/built-in.o
 .text.blk_unbind_all
                0x0000000000000000       0xa0 drivers/built-in.o
 .text.secmem_set_cmd_1
                0x0000000000000000       0x1c drivers/built-in.o
 .text.caam_decap_blob
                0x0000000000000000       0xc4 drivers/built-in.o
 .text.caam_gen_blob
                0x0000000000000000       0xd4 drivers/built-in.o
 .text.caam_hwrng
                0x0000000000000000       0x98 drivers/built-in.o
 .text.cpu_mmc_init
                0x0000000000000000        0x8 drivers/built-in.o
 .text.board_mmc_init
                0x0000000000000000        0x8 drivers/built-in.o
 .text.mmc_set_preinit
                0x0000000000000000        0x8 drivers/built-in.o
 .text.mmc_of_parse
                0x0000000000000000      0x1f4 drivers/built-in.o
 .text.mmc_get_next_devnum
                0x0000000000000000        0x8 drivers/built-in.o
 .text.mmc_unbind
                0x0000000000000000       0x34 drivers/built-in.o
 .text.esdhc_status_fixup
                0x0000000000000000        0x8 drivers/built-in.o
 .text.fdt_fixup_esdhc
                0x0000000000000000       0x44 drivers/built-in.o
 .text.dfu_usb_get_reset
                0x0000000000000000        0x8 drivers/built-in.o
 .text.dfu_get_alt
                0x0000000000000000       0xa8 drivers/built-in.o
 .text.dfu_write_from_mem_addr
                0x0000000000000000       0xa0 drivers/built-in.o
 .text.board_video_skip
                0x0000000000000000        0x8 drivers/built-in.o
 .text.video_position_cursor
                0x0000000000000000       0x60 drivers/built-in.o
 .text.video_get_pixel_width
                0x0000000000000000       0x14 drivers/built-in.o
 .text.video_get_pixel_height
                0x0000000000000000       0x14 drivers/built-in.o
 .text.video_get_screen_rows
                0x0000000000000000       0x28 drivers/built-in.o
 .text.video_get_screen_columns
                0x0000000000000000       0x18 drivers/built-in.o
 .text.ipu_set_ldb_clock
                0x0000000000000000       0x18 drivers/built-in.o
 .text._input_send_keycodes
                0x0000000000000000      0x408 drivers/built-in.o
 .text.input_tstc
                0x0000000000000000       0x48 drivers/built-in.o
 .text.input_getc
                0x0000000000000000       0x5c drivers/built-in.o
 .text.input_send_keycodes
                0x0000000000000000        0x8 drivers/built-in.o
 .text.input_add_keycode
                0x0000000000000000       0x84 drivers/built-in.o
 .text.input_add_table
                0x0000000000000000       0x40 drivers/built-in.o
 .text.input_set_delays
                0x0000000000000000        0xc drivers/built-in.o
 .text.input_allow_repeats
                0x0000000000000000        0x8 drivers/built-in.o
 .text.input_leds_changed
                0x0000000000000000       0x14 drivers/built-in.o
 .text.input_add_tables
                0x0000000000000000       0xb0 drivers/built-in.o
 .text.input_init
                0x0000000000000000       0x24 drivers/built-in.o
 .text.input_stdio_register
                0x0000000000000000       0x68 drivers/built-in.o
 .text.create_keymap
                0x0000000000000000       0x90 drivers/built-in.o
 .text.key_matrix_decode
                0x0000000000000000       0xe8 drivers/built-in.o
 .text.key_matrix_decode_fdt
                0x0000000000000000       0xb0 drivers/built-in.o
 .text.key_matrix_init
                0x0000000000000000       0x3c drivers/built-in.o
 .rodata.devfdt_get_addr_name.str1.1
                0x0000000000000000        0xa drivers/built-in.o
 .rodata.of_read_fmap_entry.str1.1
                0x0000000000000000       0x1b drivers/built-in.o
 .rodata.ofnode_decode_display_timing.str1.1
                0x0000000000000000       0xca drivers/built-in.o
 .rodata.ofnode_get_chosen_prop.str1.1
                0x0000000000000000        0x8 drivers/built-in.o
 .rodata.ofnode_read_resource.str1.1
                0x0000000000000000        0x4 drivers/built-in.o
 .rodata.ofnode_read_resource_byname.str1.1
                0x0000000000000000        0xa drivers/built-in.o
 .rodata.pinctrl_decode_pin_config.str1.1
                0x0000000000000000       0x1c drivers/built-in.o
 .rodata.pinctrl_generic_set_state_subnode.str1.1
                0x0000000000000000       0x15 drivers/built-in.o
 .rodata.caam_decap_blob.str1.1
                0x0000000000000000       0x23 drivers/built-in.o
 .rodata.caam_gen_blob.str1.1
                0x0000000000000000       0x23 drivers/built-in.o
 .rodata.caam_hwrng.str1.1
                0x0000000000000000       0x21 drivers/built-in.o
 .rodata.mmc_of_parse.str1.1
                0x0000000000000000       0xd4 drivers/built-in.o
 .rodata.dfu_write_from_mem_addr.str1.1
                0x0000000000000000       0x24 drivers/built-in.o
 .rodata.CSWTCH.35
                0x0000000000000000        0xd drivers/built-in.o
 .rodata.input_stdio_register.str1.1
                0x0000000000000000        0x6 drivers/built-in.o
 .rodata.kbd_plain_xlate
                0x0000000000000000       0x64 drivers/built-in.o
 .rodata.kbd_plain_xlate_german
                0x0000000000000000       0x84 drivers/built-in.o
 .rodata.kbd_to_ansi364
                0x0000000000000000       0x20 drivers/built-in.o
 .rodata.key_matrix_decode_fdt.str1.1
                0x0000000000000000       0x1d drivers/built-in.o
 .data          0x0000000000000000        0x0 drivers/built-in.o
 .data.skeymod  0x0000000000000000       0x10 drivers/built-in.o
 .data.kbd_ctrl_xlate
                0x0000000000000000       0x64 drivers/built-in.o
 .data.kbd_entry
                0x0000000000000000       0x8c drivers/built-in.o
 .data.kbd_right_alt_xlate_german
                0x0000000000000000       0x58 drivers/built-in.o
 .data.kbd_shift_xlate
                0x0000000000000000       0x64 drivers/built-in.o
 .data.kbd_shift_xlate_german
                0x0000000000000000       0x84 drivers/built-in.o
 .bss           0x0000000000000000        0x0 drivers/built-in.o
 .text          0x0000000000000000        0x0 drivers/gpio/built-in.o
 .text.gpio_requestf
                0x0000000000000000       0x44 drivers/gpio/built-in.o
 .text.dm_gpio_get_open_drain
                0x0000000000000000       0x50 drivers/gpio/built-in.o
 .text.dm_gpio_set_open_drain
                0x0000000000000000       0x4c drivers/gpio/built-in.o
 .text.dm_gpio_set_dir
                0x0000000000000000        0x8 drivers/gpio/built-in.o
 .text.gpio_claim_vector
                0x0000000000000000       0x80 drivers/gpio/built-in.o
 .text.gpio_get_values_as_int
                0x0000000000000000       0x44 drivers/gpio/built-in.o
 .text.dm_gpio_get_values_as_int
                0x0000000000000000       0x4c drivers/gpio/built-in.o
 .text.gpio_get_list_count
                0x0000000000000000       0x38 drivers/gpio/built-in.o
 .text.dm_gpio_free
                0x0000000000000000       0x10 drivers/gpio/built-in.o
 .text.gpio_free_list
                0x0000000000000000       0x3c drivers/gpio/built-in.o
 .text.gpio_free_list_nodev
                0x0000000000000000       0x10 drivers/gpio/built-in.o
 .text.gpio_request_list_by_name_nodev
                0x0000000000000000       0xa8 drivers/gpio/built-in.o
 .text.gpio_request_list_by_name
                0x0000000000000000       0x1c drivers/gpio/built-in.o
 .text.gpio_get_number
                0x0000000000000000       0x20 drivers/gpio/built-in.o
 .rodata.dm_gpio_get_open_drain.str1.1
                0x0000000000000000        0xf drivers/gpio/built-in.o
 .rodata.dm_gpio_set_open_drain.str1.1
                0x0000000000000000        0xf drivers/gpio/built-in.o
 .data          0x0000000000000000        0x0 drivers/gpio/built-in.o
 .bss           0x0000000000000000        0x0 drivers/gpio/built-in.o
 .text          0x0000000000000000        0x0 drivers/i2c/built-in.o
 .text.i2c_dump_msgs
                0x0000000000000000       0x8c drivers/i2c/built-in.o
 .text.dm_i2c_xfer
                0x0000000000000000       0x3c drivers/i2c/built-in.o
 .text.dm_i2c_reg_read
                0x0000000000000000       0x20 drivers/i2c/built-in.o
 .text.dm_i2c_reg_write
                0x0000000000000000       0x20 drivers/i2c/built-in.o
 .text.i2c_get_chip_for_busnum
                0x0000000000000000       0x44 drivers/i2c/built-in.o
 .rodata.i2c_dump_msgs.str1.1
                0x0000000000000000       0x1b drivers/i2c/built-in.o
 .data          0x0000000000000000        0x0 drivers/i2c/built-in.o
 .bss           0x0000000000000000        0x0 drivers/i2c/built-in.o
 .text          0x0000000000000000        0x0 drivers/mtd/built-in.o
 .text.mtd_ooblayout_ecc
                0x0000000000000000       0x70 drivers/mtd/built-in.o
 .text.mtd_ooblayout_free
                0x0000000000000000       0x70 drivers/mtd/built-in.o
 .text.mtd_ooblayout_find_region
                0x0000000000000000       0x80 drivers/mtd/built-in.o
 .text.mtd_ooblayout_get_bytes
                0x0000000000000000       0x94 drivers/mtd/built-in.o
 .text.mtd_ooblayout_set_bytes
                0x0000000000000000       0x94 drivers/mtd/built-in.o
 .text.idr_remove
                0x0000000000000000       0x14 drivers/mtd/built-in.o
 .text.idr_find
                0x0000000000000000       0x14 drivers/mtd/built-in.o
 .text.idr_get_next
                0x0000000000000000       0x44 drivers/mtd/built-in.o
 .text.idr_alloc
                0x0000000000000000       0x3c drivers/mtd/built-in.o
 .text.__mtd_next_device
                0x0000000000000000       0x20 drivers/mtd/built-in.o
 .text.del_mtd_device
                0x0000000000000000       0x70 drivers/mtd/built-in.o
 .text.__get_mtd_device
                0x0000000000000000       0x38 drivers/mtd/built-in.o
 .text.get_mtd_device
                0x0000000000000000       0x88 drivers/mtd/built-in.o
 .text.get_mtd_device_nm
                0x0000000000000000       0x5c drivers/mtd/built-in.o
 .text.__put_mtd_device
                0x0000000000000000       0x54 drivers/mtd/built-in.o
 .text.put_mtd_device
                0x0000000000000000        0x4 drivers/mtd/built-in.o
 .text.mtd_erase
                0x0000000000000000       0x90 drivers/mtd/built-in.o
 .text.mtd_get_unmapped_area
                0x0000000000000000       0x60 drivers/mtd/built-in.o
 .text.mtd_read
                0x0000000000000000       0xa4 drivers/mtd/built-in.o
 .text.mtd_write
                0x0000000000000000       0x9c drivers/mtd/built-in.o
 .text.mtd_panic_write
                0x0000000000000000       0xa0 drivers/mtd/built-in.o
 .text.mtd_read_oob
                0x0000000000000000       0x60 drivers/mtd/built-in.o
 .text.mtd_ooblayout_find_eccregion
                0x0000000000000000       0x1c drivers/mtd/built-in.o
 .text.mtd_ooblayout_get_eccbytes
                0x0000000000000000       0x24 drivers/mtd/built-in.o
 .text.mtd_ooblayout_set_eccbytes
                0x0000000000000000       0x24 drivers/mtd/built-in.o
 .text.mtd_ooblayout_get_databytes
                0x0000000000000000       0x24 drivers/mtd/built-in.o
 .text.mtd_ooblayout_set_databytes
                0x0000000000000000       0x24 drivers/mtd/built-in.o
 .text.mtd_ooblayout_count_freebytes
                0x0000000000000000       0x44 drivers/mtd/built-in.o
 .text.mtd_ooblayout_count_eccbytes
                0x0000000000000000       0x44 drivers/mtd/built-in.o
 .text.mtd_get_fact_prot_info
                0x0000000000000000       0x34 drivers/mtd/built-in.o
 .text.mtd_read_fact_prot_reg
                0x0000000000000000       0x48 drivers/mtd/built-in.o
 .text.mtd_get_user_prot_info
                0x0000000000000000       0x34 drivers/mtd/built-in.o
 .text.mtd_read_user_prot_reg
                0x0000000000000000       0x48 drivers/mtd/built-in.o
 .text.mtd_write_user_prot_reg
                0x0000000000000000       0x64 drivers/mtd/built-in.o
 .text.mtd_lock_user_prot_reg
                0x0000000000000000       0x38 drivers/mtd/built-in.o
 .text.mtd_lock
                0x0000000000000000       0x74 drivers/mtd/built-in.o
 .text.mtd_unlock
                0x0000000000000000       0x74 drivers/mtd/built-in.o
 .text.add_mtd_device
                0x0000000000000000      0x1d4 drivers/mtd/built-in.o
 .text.mtd_is_locked
                0x0000000000000000       0x74 drivers/mtd/built-in.o
 .text.mtd_block_isreserved
                0x0000000000000000       0x50 drivers/mtd/built-in.o
 .text.mtd_block_isbad
                0x0000000000000000       0x50 drivers/mtd/built-in.o
 .text.mtd_block_markbad
                0x0000000000000000       0x64 drivers/mtd/built-in.o
 .rodata.__func__.9713
                0x0000000000000000        0xf drivers/mtd/built-in.o
 .rodata.__func__.9752
                0x0000000000000000       0x11 drivers/mtd/built-in.o
 .rodata.__put_mtd_device.str1.1
                0x0000000000000000       0x2f drivers/mtd/built-in.o
 .rodata.add_mtd_device.str1.1
                0x0000000000000000       0x28 drivers/mtd/built-in.o
 .rodata.del_mtd_device.str1.1
                0x0000000000000000       0x30 drivers/mtd/built-in.o
 .data          0x0000000000000000        0x0 drivers/mtd/built-in.o
 .bss           0x0000000000000000        0x0 drivers/mtd/built-in.o
 .bss.mtd_idr   0x0000000000000000      0x200 drivers/mtd/built-in.o
 .bss.mtd_table
                0x0000000000000000       0x80 drivers/mtd/built-in.o
 .text          0x0000000000000000        0x0 drivers/mtd/spi/built-in.o
 .text.spi_flash_decode_fdt
                0x0000000000000000        0x8 drivers/mtd/spi/built-in.o
 .data          0x0000000000000000        0x0 drivers/mtd/spi/built-in.o
 .bss           0x0000000000000000        0x0 drivers/mtd/spi/built-in.o
 .text          0x0000000000000000        0x0 drivers/net/built-in.o
 .data          0x0000000000000000        0x0 drivers/net/built-in.o
 .bss           0x0000000000000000        0x0 drivers/net/built-in.o
 .text          0x0000000000000000        0x0 drivers/net/phy/built-in.o
 .text.phy_set_supported
                0x0000000000000000       0x5c drivers/net/phy/built-in.o
 .text.miiphy_reset
                0x0000000000000000       0x24 drivers/net/phy/built-in.o
 .text.phy_connect
                0x0000000000000000       0x50 drivers/net/phy/built-in.o
 .text.board_phy_config
                0x0000000000000000       0x1c drivers/net/phy/built-in.o
 .text.phy_shutdown
                0x0000000000000000       0x28 drivers/net/phy/built-in.o
 .rodata.phy_connect.str1.1
                0x0000000000000000       0x23 drivers/net/phy/built-in.o
 .data          0x0000000000000000        0x0 drivers/net/phy/built-in.o
 .bss           0x0000000000000000        0x0 drivers/net/phy/built-in.o
 .text          0x0000000000000000        0x0 drivers/power/pmic/built-in.o
 .text.pmic_reg_count
                0x0000000000000000       0x34 drivers/power/pmic/built-in.o
 .data          0x0000000000000000        0x0 drivers/power/pmic/built-in.o
 .bss           0x0000000000000000        0x0 drivers/power/pmic/built-in.o
 .text          0x0000000000000000        0x0 drivers/power/regulator/built-in.o
 .text.regulator_show
                0x0000000000000000       0x94 drivers/power/regulator/built-in.o
 .text.regulator_mode
                0x0000000000000000       0x2c drivers/power/regulator/built-in.o
 .text.regulator_set_value
                0x0000000000000000       0x70 drivers/power/regulator/built-in.o
 .text.regulator_set_value_force
                0x0000000000000000       0x3c drivers/power/regulator/built-in.o
 .text.regulator_get_current
                0x0000000000000000       0x34 drivers/power/regulator/built-in.o
 .text.regulator_set_current
                0x0000000000000000       0x70 drivers/power/regulator/built-in.o
 .text.regulator_get_enable
                0x0000000000000000       0x34 drivers/power/regulator/built-in.o
 .text.regulator_get_mode
                0x0000000000000000       0x34 drivers/power/regulator/built-in.o
 .text.regulator_set_mode
                0x0000000000000000       0x3c drivers/power/regulator/built-in.o
 .text.regulator_get_by_platname
                0x0000000000000000       0x80 drivers/power/regulator/built-in.o
 .text.regulator_get_by_devname
                0x0000000000000000       0x10 drivers/power/regulator/built-in.o
 .text.regulator_autoset
                0x0000000000000000       0x84 drivers/power/regulator/built-in.o
 .text.regulator_autoset_by_name
                0x0000000000000000       0x34 drivers/power/regulator/built-in.o
 .text.regulator_list_autoset
                0x0000000000000000       0x84 drivers/power/regulator/built-in.o
 .text.regulators_enable_boot_on
                0x0000000000000000       0x80 drivers/power/regulator/built-in.o
 .rodata.regulator_show.str1.1
                0x0000000000000000       0x36 drivers/power/regulator/built-in.o
 .data          0x0000000000000000        0x0 drivers/power/regulator/built-in.o
 .bss           0x0000000000000000        0x0 drivers/power/regulator/built-in.o
 .text          0x0000000000000000        0x0 drivers/serial/built-in.o
 .text.serial_reinit_all
                0x0000000000000000       0x2c drivers/serial/built-in.o
 .data          0x0000000000000000        0x0 drivers/serial/built-in.o
 .bss           0x0000000000000000        0x0 drivers/serial/built-in.o
 .text          0x0000000000000000        0x0 drivers/spi/built-in.o
 .text.spi_set_wordlen
                0x0000000000000000       0x30 drivers/spi/built-in.o
 .text.board_spi_cs_gpio
                0x0000000000000000        0x8 drivers/spi/built-in.o
 .text.get_cspi_div
                0x0000000000000000       0x24 drivers/spi/built-in.o
 .text.spi_init
                0x0000000000000000        0x4 drivers/spi/built-in.o
 .rodata.spi_set_wordlen.str1.1
                0x0000000000000000       0x19 drivers/spi/built-in.o
 .data          0x0000000000000000        0x0 drivers/spi/built-in.o
 .bss           0x0000000000000000        0x0 drivers/spi/built-in.o
 .text          0x0000000000000000        0x0 drivers/usb/common/built-in.o
 .text.usb_get_dr_mode
                0x0000000000000000       0x74 drivers/usb/common/built-in.o
 .rodata.str1.1
                0x0000000000000000       0x15 drivers/usb/common/built-in.o
 .rodata.usb_dr_modes
                0x0000000000000000       0x10 drivers/usb/common/built-in.o
 .rodata.usb_get_dr_mode.str1.1
                0x0000000000000000       0x1f drivers/usb/common/built-in.o
 .data          0x0000000000000000        0x0 drivers/usb/common/built-in.o
 .bss           0x0000000000000000        0x0 drivers/usb/common/built-in.o
 .comment       0x0000000000000000       0x25 drivers/usb/common/built-in.o
 .note.GNU-stack
                0x0000000000000000        0x0 drivers/usb/common/built-in.o
 .ARM.attributes
                0x0000000000000000       0x2d drivers/usb/common/built-in.o
 .debug_aranges
                0x0000000000000000       0x20 drivers/usb/common/built-in.o
 .debug_info    0x0000000000000000      0xf87 drivers/usb/common/built-in.o
 .debug_abbrev  0x0000000000000000      0x29a drivers/usb/common/built-in.o
 .debug_line    0x0000000000000000      0x20c drivers/usb/common/built-in.o
 .debug_frame   0x0000000000000000       0x2c drivers/usb/common/built-in.o
 .debug_str     0x0000000000000000     0x1036 drivers/usb/common/built-in.o
 .debug_loc     0x0000000000000000       0x5d drivers/usb/common/built-in.o
 .debug_ranges  0x0000000000000000       0x10 drivers/usb/common/built-in.o
 .text          0x0000000000000000        0x0 drivers/usb/eth/built-in.o
 .data          0x0000000000000000        0x0 drivers/usb/eth/built-in.o
 .bss           0x0000000000000000        0x0 drivers/usb/eth/built-in.o
 .text          0x0000000000000000        0x0 drivers/usb/gadget/built-in.o
 .text.usb_gadget_config_buf
                0x0000000000000000       0x90 drivers/usb/gadget/built-in.o
 .text.usb_function_deactivate
                0x0000000000000000       0x58 drivers/usb/gadget/built-in.o
 .text.usb_function_activate
                0x0000000000000000       0x58 drivers/usb/gadget/built-in.o
 .text.usb_string_ids_tab
                0x0000000000000000       0x3c drivers/usb/gadget/built-in.o
 .text.usb_string_ids_n
                0x0000000000000000       0x2c drivers/usb/gadget/built-in.o
 .text.board_usb_init
                0x0000000000000000        0x8 drivers/usb/gadget/built-in.o
 .text.board_usb_cleanup
                0x0000000000000000        0x8 drivers/usb/gadget/built-in.o
 .text.set_bit  0x0000000000000000       0x1c drivers/usb/gadget/built-in.o
 .text.clear_bit
                0x0000000000000000       0x1c drivers/usb/gadget/built-in.o
 .text.read_from_partition_multi
                0x0000000000000000      0x224 drivers/usb/gadget/built-in.o
 .text.fastboot_flash_find_index
                0x0000000000000000       0x38 drivers/usb/gadget/built-in.o
 .text.fastboot_flash_get_ptn
                0x0000000000000000       0x28 drivers/usb/gadget/built-in.o
 .text.fastboot_flash_get_ptn_count
                0x0000000000000000       0x10 drivers/usb/gadget/built-in.o
 .rodata.fastboot_flash_find_index.str1.1
                0x0000000000000000       0x24 drivers/usb/gadget/built-in.o
 .rodata.read_from_partition_multi.str1.1
                0x0000000000000000       0x43 drivers/usb/gadget/built-in.o
 .data          0x0000000000000000        0x0 drivers/usb/gadget/built-in.o
 .bss           0x0000000000000000        0x0 drivers/usb/gadget/built-in.o
 .text          0x0000000000000000        0x0 drivers/usb/host/built-in.o
 .text.create_int_queue
                0x0000000000000000       0x54 drivers/usb/host/built-in.o
 .text.poll_int_queue
                0x0000000000000000       0x30 drivers/usb/host/built-in.o
 .text.destroy_int_queue
                0x0000000000000000       0x30 drivers/usb/host/built-in.o
 .text.usb_detect_change
                0x0000000000000000       0xb0 drivers/usb/host/built-in.o
 .text.usb_phy_mode
                0x0000000000000000       0x1c drivers/usb/host/built-in.o
 .text.board_usb_phy_mode
                0x0000000000000000        0x4 drivers/usb/host/built-in.o
 .text.board_ehci_hcd_init
                0x0000000000000000        0x8 drivers/usb/host/built-in.o
 .text.board_ehci_power
                0x0000000000000000        0x8 drivers/usb/host/built-in.o
 .data          0x0000000000000000        0x0 drivers/usb/host/built-in.o
 .bss           0x0000000000000000        0x0 drivers/usb/host/built-in.o
 .text          0x0000000000000000        0x0 env/built-in.o
 .text.env_flags_parse_varaccess_from_binflags
                0x0000000000000000       0x54 env/built-in.o
 .text.mmc_get_env_dev
                0x0000000000000000        0x8 env/built-in.o
 .text.mmc_get_env_part
                0x0000000000000000        0x8 env/built-in.o
 .rodata.env_flags_parse_varaccess_from_binflags.str1.1
                0x0000000000000000       0x2c env/built-in.o
 .data          0x0000000000000000        0x0 env/built-in.o
 .bss           0x0000000000000000        0x0 env/built-in.o
 .text          0x0000000000000000        0x0 fs/built-in.o
 .text.fs_uuid  0x0000000000000000       0x28 fs/built-in.o
 .text.do_fs_uuid
                0x0000000000000000       0x8c fs/built-in.o
 .text.print_revoke_blks
                0x0000000000000000       0x54 fs/built-in.o
 .text.fat_register_device
                0x0000000000000000       0x8c fs/built-in.o
 .text.file_fat_read
                0x0000000000000000       0x38 fs/built-in.o
 .rodata.print_revoke_blks.str1.1
                0x0000000000000000       0x25 fs/built-in.o
 .rodata.fat_register_device.str1.1
                0x0000000000000000       0x2b fs/built-in.o
 .data          0x0000000000000000        0x0 fs/built-in.o
 .bss           0x0000000000000000        0x0 fs/built-in.o
 .bss.ext4fs_symlinknest
                0x0000000000000000        0x4 fs/built-in.o
 .text          0x0000000000000000        0x0 lib/built-in.o
 .text.invalidate_icache_all
                0x0000000000000000        0x4 lib/built-in.o
 .text.indent_string
                0x0000000000000000       0x30 lib/built-in.o
 .text.__efi_nesting
                0x0000000000000000       0x10 lib/built-in.o
 .text.__efi_nesting_inc
                0x0000000000000000       0x18 lib/built-in.o
 .text.__efi_nesting_dec
                0x0000000000000000       0x18 lib/built-in.o
 .text.efi_add_runtime_mmio
                0x0000000000000000       0x88 lib/built-in.o
 .text.efi_dp_append
                0x0000000000000000       0x84 lib/built-in.o
 .text.efi_dp_from_dev
                0x0000000000000000       0x3c lib/built-in.o
 .text.utf16_strcpy
                0x0000000000000000       0x18 lib/built-in.o
 .text.utf16_strdup
                0x0000000000000000       0x38 lib/built-in.o
 .text.crc7     0x0000000000000000       0x28 lib/built-in.o
 .text.crc8     0x0000000000000000       0x4c lib/built-in.o
 .text.lmb_dump_all
                0x0000000000000000        0x4 lib/built-in.o
 .text.lmb_is_reserved
                0x0000000000000000       0x58 lib/built-in.o
 .text.board_lmb_reserve
                0x0000000000000000        0x4 lib/built-in.o
 .text.arch_lmb_reserve
                0x0000000000000000        0x4 lib/built-in.o
 .text.ldiv     0x0000000000000000       0x50 lib/built-in.o
 .text.rc4_encode
                0x0000000000000000       0xe8 lib/built-in.o
 .text.inflateInit_
                0x0000000000000000       0x10 lib/built-in.o
 .text.fdt_setprop_inplace_namelen_partial
                0x0000000000000000       0x54 lib/built-in.o
 .text.fdt_setprop_inplace
                0x0000000000000000       0x74 lib/built-in.o
 .text.fdt_nop_property
                0x0000000000000000       0x40 lib/built-in.o
 .text.fdt_nop_node
                0x0000000000000000       0x50 lib/built-in.o
 .text._fdt_sw_check_header
                0x0000000000000000       0x1c lib/built-in.o
 .text._fdt_grab_space
                0x0000000000000000       0x60 lib/built-in.o
 .text.fdt_create
                0x0000000000000000       0x64 lib/built-in.o
 .text.fdt_resize
                0x0000000000000000       0xbc lib/built-in.o
 .text.fdt_add_reservemap_entry
                0x0000000000000000       0x8c lib/built-in.o
 .text.fdt_finish_reservemap
                0x0000000000000000       0x1c lib/built-in.o
 .text.fdt_begin_node
                0x0000000000000000       0x64 lib/built-in.o
 .text.fdt_end_node
                0x0000000000000000       0x38 lib/built-in.o
 .text.fdt_property_placeholder
                0x0000000000000000      0x110 lib/built-in.o
 .text.fdt_property
                0x0000000000000000       0x3c lib/built-in.o
 .text.fdt_finish
                0x0000000000000000      0x100 lib/built-in.o
 .text.fdt_set_name
                0x0000000000000000       0x88 lib/built-in.o
 .text.fdt_appendprop
                0x0000000000000000       0xdc lib/built-in.o
 .text.fdt_pack
                0x0000000000000000       0x5c lib/built-in.o
 .text.fdt_create_empty_tree
                0x0000000000000000       0x74 lib/built-in.o
 .text.fdt_get_max_phandle
                0x0000000000000000       0x74 lib/built-in.o
 .text.fdt_get_alias
                0x0000000000000000       0x28 lib/built-in.o
 .text.fdt_get_path
                0x0000000000000000      0x138 lib/built-in.o
 .text.fdt_node_offset_by_prop_value
                0x0000000000000000       0x98 lib/built-in.o
 .text.fdt_stringlist_count
                0x0000000000000000       0x64 lib/built-in.o
 .text.fdt_stringlist_get
                0x0000000000000000       0xac lib/built-in.o
 .text.fdt_add_region
                0x0000000000000000       0x94 lib/built-in.o
 .text.fdt_find_regions
                0x0000000000000000      0x394 lib/built-in.o
 .text.fdt_add_alias_regions
                0x0000000000000000      0x1a0 lib/built-in.o
 .text.fdt_next_region
                0x0000000000000000      0x52c lib/built-in.o
 .text.fdt_first_region
                0x0000000000000000       0x48 lib/built-in.o
 .text.fdtdec_get_uint
                0x0000000000000000       0x34 lib/built-in.o
 .text.fdtdec_get_compatible
                0x0000000000000000       0x10 lib/built-in.o
 .text.fdtdec_get_uint64
                0x0000000000000000       0x40 lib/built-in.o
 .text.fdtdec_lookup
                0x0000000000000000       0x48 lib/built-in.o
 .text.fdtdec_next_compatible
                0x0000000000000000       0x10 lib/built-in.o
 .text.fdtdec_next_compatible_subnode
                0x0000000000000000       0x64 lib/built-in.o
 .text.fdtdec_next_alias
                0x0000000000000000       0x94 lib/built-in.o
 .text.fdtdec_add_aliases_for_id
                0x0000000000000000      0x254 lib/built-in.o
 .text.fdtdec_find_aliases_for_id
                0x0000000000000000       0x44 lib/built-in.o
 .text.fdtdec_get_chosen_prop
                0x0000000000000000       0x34 lib/built-in.o
 .text.fdtdec_get_chosen_node
                0x0000000000000000       0x28 lib/built-in.o
 .text.fdtdec_check_fdt
                0x0000000000000000       0x10 lib/built-in.o
 .text.decode_timing_property
                0x0000000000000000       0x80 lib/built-in.o
 .text.fdtdec_locate_array
                0x0000000000000000       0x28 lib/built-in.o
 .text.fdtdec_get_child_count
                0x0000000000000000       0x34 lib/built-in.o
 .text.fdtdec_get_byte_array
                0x0000000000000000       0x40 lib/built-in.o
 .text.fdtdec_locate_byte_array
                0x0000000000000000       0x24 lib/built-in.o
 .text.fdtdec_get_config_bool
                0x0000000000000000       0x44 lib/built-in.o
 .text.fdtdec_decode_region
                0x0000000000000000       0x54 lib/built-in.o
 .text.fdtdec_get_addr_size_auto_parent
                0x0000000000000000       0x6c lib/built-in.o
 .text.fdtdec_get_addr_size_auto_noparent
                0x0000000000000000       0x54 lib/built-in.o
 .text.fdt_get_resource
                0x0000000000000000       0xe0 lib/built-in.o
 .text.fdt_get_named_resource
                0x0000000000000000       0x40 lib/built-in.o
 .text.fdtdec_decode_memory_region
                0x0000000000000000      0x130 lib/built-in.o
 .text.fdtdec_decode_display_timing
                0x0000000000000000      0x2d4 lib/built-in.o
 .text.fdtdec_setup_memory_size
                0x0000000000000000       0x64 lib/built-in.o
 .text.fdtdec_setup_memory_banksize
                0x0000000000000000       0xd8 lib/built-in.o
 .text.print_freq
                0x0000000000000000      0x1b0 lib/built-in.o
 .text.div64_u64_rem
                0x0000000000000000      0x180 lib/built-in.o
 .text.div64_u64
                0x0000000000000000      0x144 lib/built-in.o
 .text.div64_s64
                0x0000000000000000       0x54 lib/built-in.o
 .text.iter_div_u64_rem
                0x0000000000000000       0x38 lib/built-in.o
 .text.copy_from_user
                0x0000000000000000       0x10 lib/built-in.o
 .text.get_mem  0x0000000000000000       0x1c lib/built-in.o
 .text.kmem_cache_alloc
                0x0000000000000000        0xc lib/built-in.o
 .text.membuff_purge
                0x0000000000000000       0x10 lib/built-in.o
 .text.membuff_putraw
                0x0000000000000000       0xbc lib/built-in.o
 .text.membuff_putbyte
                0x0000000000000000       0x30 lib/built-in.o
 .text.membuff_getraw
                0x0000000000000000       0x98 lib/built-in.o
 .text.membuff_getbyte
                0x0000000000000000       0x34 lib/built-in.o
 .text.membuff_peekbyte
                0x0000000000000000       0x30 lib/built-in.o
 .text.membuff_get
                0x0000000000000000       0x80 lib/built-in.o
 .text.membuff_put
                0x0000000000000000       0x60 lib/built-in.o
 .text.membuff_isempty
                0x0000000000000000       0x18 lib/built-in.o
 .text.membuff_avail
                0x0000000000000000       0x54 lib/built-in.o
 .text.membuff_size
                0x0000000000000000        0xc lib/built-in.o
 .text.membuff_makecontig
                0x0000000000000000       0x80 lib/built-in.o
 .text.membuff_free
                0x0000000000000000       0x30 lib/built-in.o
 .text.membuff_readline
                0x0000000000000000       0xb0 lib/built-in.o
 .text.membuff_extend_by
                0x0000000000000000       0xc4 lib/built-in.o
 .text.membuff_init
                0x0000000000000000       0x18 lib/built-in.o
 .text.membuff_new
                0x0000000000000000       0x38 lib/built-in.o
 .text.membuff_uninit
                0x0000000000000000       0x18 lib/built-in.o
 .text.membuff_dispose
                0x0000000000000000       0x24 lib/built-in.o
 .text.strcasecmp
                0x0000000000000000        0x8 lib/built-in.o
 .text.strchrnul
                0x0000000000000000       0x20 lib/built-in.o
 .text.strlcpy  0x0000000000000000       0x50 lib/built-in.o
 .text.strcspn  0x0000000000000000       0x40 lib/built-in.o
 .text.strswab  0x0000000000000000       0x48 lib/built-in.o
 .text.memscan  0x0000000000000000       0x2c lib/built-in.o
 .text.memchr_inv
                0x0000000000000000      0x130 lib/built-in.o
 .text.table_compute_checksum
                0x0000000000000000       0x2c lib/built-in.o
 .text.timer_init
                0x0000000000000000        0x8 lib/built-in.o
 .text.vsnprintf
                0x0000000000000000        0x4 lib/built-in.o
 .text.scnprintf
                0x0000000000000000       0x28 lib/built-in.o
 .text.__assert_fail
                0x0000000000000000       0x14 lib/built-in.o
 .text.print_grouped_ull
                0x0000000000000000       0x8c lib/built-in.o
 .text.str2long
                0x0000000000000000       0x3c lib/built-in.o
 .text.panic_str
                0x0000000000000000        0xc lib/built-in.o
 .text.strmhz   0x0000000000000000       0x64 lib/built-in.o
 .rodata.indent_string.str1.1
                0x0000000000000000       0x15 lib/built-in.o
 .rodata.crc7_syndrome_table
                0x0000000000000000      0x100 lib/built-in.o
 .rodata.z_errmsg
                0x0000000000000000       0x28 lib/built-in.o
 .rodata.fdt_create_empty_tree.str1.1
                0x0000000000000000        0x1 lib/built-in.o
 .rodata.fdt_add_alias_regions.str1.1
                0x0000000000000000        0x8 lib/built-in.o
 .rodata.compat_names
                0x0000000000000000       0xa8 lib/built-in.o
 .rodata.fdtdec_decode_display_timing.str1.1
                0x0000000000000000       0xca lib/built-in.o
 .rodata.fdtdec_decode_memory_region.str1.1
                0x0000000000000000       0x25 lib/built-in.o
 .rodata.fdtdec_get_chosen_prop.str1.1
                0x0000000000000000        0x8 lib/built-in.o
 .rodata.fdtdec_next_alias.str1.1
                0x0000000000000000        0x7 lib/built-in.o
 .rodata.fdtdec_setup_memory_banksize.str1.1
                0x0000000000000000       0x13 lib/built-in.o
 .rodata.names.8024
                0x0000000000000000        0x3 lib/built-in.o
 .rodata.__assert_fail.str1.1
                0x0000000000000000       0x22 lib/built-in.o
 .rodata.print_grouped_ull.str1.1
                0x0000000000000000        0xb lib/built-in.o
 .rodata.strmhz.str1.1
                0x0000000000000000        0xb lib/built-in.o
 .data          0x0000000000000000        0x0 lib/built-in.o
 .data.cur      0x0000000000000000        0x4 lib/built-in.o
 .data.current  0x0000000000000000        0x4 lib/built-in.o
 .bss           0x0000000000000000        0x0 lib/built-in.o
 .bss.nesting_level
                0x0000000000000000        0x4 lib/built-in.o
 .text          0x0000000000000000        0x0 net/built-in.o
 .text.add_ip_checksums
                0x0000000000000000       0x3c net/built-in.o
 .text.eth_init_state_only
                0x0000000000000000       0x38 net/built-in.o
 .text.eth_is_active
                0x0000000000000000       0x38 net/built-in.o
 .text.net_get_udp_handler
                0x0000000000000000       0x10 net/built-in.o
 .text.net_set_arp_handler
                0x0000000000000000       0x20 net/built-in.o
 .text.random_port
                0x0000000000000000       0x18 net/built-in.o
 .text.vlan_to_string
                0x0000000000000000       0x44 net/built-in.o
 .text.env_get_vlan
                0x0000000000000000       0x10 net/built-in.o
 .rodata.vlan_to_string.str1.1
                0x0000000000000000        0x8 net/built-in.o
 .data          0x0000000000000000        0x0 net/built-in.o
 .data.tftp_timeout_ms
                0x0000000000000000        0x4 net/built-in.o
 .bss           0x0000000000000000        0x0 net/built-in.o
 .bss.net_busy_flag
                0x0000000000000000        0x4 net/built-in.o
 .text          0x0000000000000000        0x0 test/dm/built-in.o
 .data          0x0000000000000000        0x0 test/dm/built-in.o
 .bss           0x0000000000000000        0x0 test/dm/built-in.o
 .text          0x0000000000000000        0x0 arch/arm/lib/eabi_compat.o
 .data          0x0000000000000000        0x0 arch/arm/lib/eabi_compat.o
 .bss           0x0000000000000000        0x0 arch/arm/lib/eabi_compat.o
 .text.raise    0x0000000000000000       0x1c arch/arm/lib/eabi_compat.o
 .text.__aeabi_unwind_cpp_pr0
                0x0000000000000000        0x4 arch/arm/lib/eabi_compat.o
 .text.__aeabi_unwind_cpp_pr1
                0x0000000000000000        0x4 arch/arm/lib/eabi_compat.o
 .text.__aeabi_memcpy
                0x0000000000000000        0x4 arch/arm/lib/eabi_compat.o
 .text.__aeabi_memset
                0x0000000000000000       0x10 arch/arm/lib/eabi_compat.o
 .rodata.raise.str1.1
                0x0000000000000000       0x1b arch/arm/lib/eabi_compat.o
 .debug_info    0x0000000000000000      0xa6e arch/arm/lib/eabi_compat.o
 .debug_abbrev  0x0000000000000000      0x250 arch/arm/lib/eabi_compat.o
 .debug_loc     0x0000000000000000      0x108 arch/arm/lib/eabi_compat.o
 .debug_aranges
                0x0000000000000000       0x38 arch/arm/lib/eabi_compat.o
 .debug_ranges  0x0000000000000000       0x28 arch/arm/lib/eabi_compat.o
 .debug_line    0x0000000000000000      0x180 arch/arm/lib/eabi_compat.o
 .debug_str     0x0000000000000000      0x92e arch/arm/lib/eabi_compat.o
 .comment       0x0000000000000000       0x25 arch/arm/lib/eabi_compat.o
 .note.GNU-stack
                0x0000000000000000        0x0 arch/arm/lib/eabi_compat.o
 .debug_frame   0x0000000000000000       0x68 arch/arm/lib/eabi_compat.o
 .ARM.attributes
                0x0000000000000000       0x2d arch/arm/lib/eabi_compat.o
 .text          0x0000000000000000        0x0 arch/arm/lib/lib.a(ashldi3.o)
 .data          0x0000000000000000        0x0 arch/arm/lib/lib.a(ashldi3.o)
 .bss           0x0000000000000000        0x0 arch/arm/lib/lib.a(ashldi3.o)
 .text          0x0000000000000000        0x0 arch/arm/lib/lib.a(lib1funcs.o)
 .data          0x0000000000000000        0x0 arch/arm/lib/lib.a(lib1funcs.o)
 .bss           0x0000000000000000        0x0 arch/arm/lib/lib.a(lib1funcs.o)
 .text.__umodsi3
                0x0000000000000000       0xa0 arch/arm/lib/lib.a(lib1funcs.o)
 .text.__modsi3
                0x0000000000000000       0xb8 arch/arm/lib/lib.a(lib1funcs.o)
 .text          0x0000000000000000        0x0 arch/arm/lib/lib.a(lshrdi3.o)
 .data          0x0000000000000000        0x0 arch/arm/lib/lib.a(lshrdi3.o)
 .bss           0x0000000000000000        0x0 arch/arm/lib/lib.a(lshrdi3.o)
 .text          0x0000000000000000        0x0 arch/arm/lib/lib.a(uldivmod.o)
 .data          0x0000000000000000        0x0 arch/arm/lib/lib.a(uldivmod.o)
 .bss           0x0000000000000000        0x0 arch/arm/lib/lib.a(uldivmod.o)
 .text          0x0000000000000000        0x0 arch/arm/lib/lib.a(div0.o)
 .data          0x0000000000000000        0x0 arch/arm/lib/lib.a(div0.o)
 .bss           0x0000000000000000        0x0 arch/arm/lib/lib.a(div0.o)

Memory Configuration

Name             Origin             Length             Attributes
*default*        0x0000000000000000 0xffffffffffffffff

Linker script and memory map

Address of section .text set to 0x17800000
                0x0000000000000000                . = 0x0
                0x0000000000000000                . = ALIGN (0x4)

.text           0x0000000017800000    0x60e94
 *(.__image_copy_start)
 .__image_copy_start
                0x0000000017800000        0x0 arch/arm/lib/built-in.o
                0x0000000017800000                __image_copy_start
 *(.vectors)
 .vectors       0x0000000017800000      0x2e8 arch/arm/lib/built-in.o
                0x0000000017800000                _start
                0x0000000017800020                _undefined_instruction
                0x0000000017800024                _software_interrupt
                0x0000000017800028                _prefetch_abort
                0x000000001780002c                _data_abort
                0x0000000017800030                _not_used
                0x0000000017800034                _irq
                0x0000000017800038                _fiq
                0x0000000017800040                IRQ_STACK_START_IN
 arch/arm/cpu/armv7/start.o(.text*)
 .text          0x00000000178002e8       0xec arch/arm/cpu/armv7/start.o
                0x00000000178002e8                reset
                0x00000000178002ec                save_boot_params_ret
                0x0000000017800328                c_runtime_cpu_setup
                0x0000000017800338                save_boot_params
                0x000000001780033c                cpu_init_cp15
                0x00000000178003cc                cpu_init_crit
 *(.text*)
 .text          0x00000000178003d4      0x148 arch/arm/cpu/armv7/built-in.o
                0x00000000178003d4                __v7_flush_dcache_all
                0x0000000017800468                v7_flush_dcache_all
                0x0000000017800478                __v7_invalidate_dcache_all
                0x000000001780050c                v7_invalidate_dcache_all
 .text.invalidate_icache_all
                0x000000001780051c       0x18 arch/arm/cpu/armv7/built-in.o
                0x000000001780051c                invalidate_icache_all
 .text.flush_dcache_all
                0x0000000017800534       0x10 arch/arm/cpu/armv7/built-in.o
                0x0000000017800534                flush_dcache_all
 .text.invalidate_dcache_all
                0x0000000017800544       0x10 arch/arm/cpu/armv7/built-in.o
                0x0000000017800544                invalidate_dcache_all
 .text.arm_init_before_mmu
                0x0000000017800554       0x28 arch/arm/cpu/armv7/built-in.o
                0x0000000017800554                arm_init_before_mmu
 .text.flush_dcache_range
                0x000000001780057c       0x54 arch/arm/cpu/armv7/built-in.o
                0x000000001780057c                flush_dcache_range
 .text.mmu_page_table_flush
                0x00000000178005d0       0x24 arch/arm/cpu/armv7/built-in.o
                0x00000000178005d0                mmu_page_table_flush
 .text.invalidate_dcache_range
                0x00000000178005f4       0x64 arch/arm/cpu/armv7/built-in.o
                0x00000000178005f4                invalidate_dcache_range
 .text.cpu_cache_initialization
                0x0000000017800658        0x4 arch/arm/cpu/armv7/built-in.o
                0x0000000017800658                cpu_cache_initialization
 .text.cleanup_before_linux_select
                0x000000001780065c       0x4c arch/arm/cpu/armv7/built-in.o
                0x000000001780065c                cleanup_before_linux_select
 .text.cleanup_before_linux
                0x00000000178006a8        0x8 arch/arm/cpu/armv7/built-in.o
                0x00000000178006a8                cleanup_before_linux
 .text.lowlevel_init
                0x00000000178006b0       0x24 arch/arm/cpu/armv7/built-in.o
                0x00000000178006b0                lowlevel_init
 *fill*         0x00000000178006d4        0xc 
 .text          0x00000000178006e0      0x528 arch/arm/lib/built-in.o
                0x00000000178006e0                _main
                0x0000000017800780                memset
                0x000000001780085c                memcpy
 .text.setjmp   0x0000000017800c08       0x10 arch/arm/lib/built-in.o
                0x0000000017800c08                setjmp
 .text.longjmp  0x0000000017800c18       0x1c arch/arm/lib/built-in.o
                0x0000000017800c18                longjmp
 .text.relocate_vectors
                0x0000000017800c34       0x70 arch/arm/lib/built-in.o
                0x0000000017800c34                relocate_vectors
                0x0000000017800c40                relocate_code
 .text.arch_fixup_fdt
                0x0000000017800ca4       0x38 arch/arm/lib/built-in.o
                0x0000000017800ca4                arch_fixup_fdt
 .text.arch_lmb_reserve
                0x0000000017800cdc       0x3c arch/arm/lib/built-in.o
                0x0000000017800cdc                arch_lmb_reserve
 .text.board_quiesce_devices
                0x0000000017800d18        0x4 arch/arm/lib/built-in.o
                0x0000000017800d18                board_quiesce_devices
 .text.boot_jump_linux
                0x0000000017800d1c       0xd0 arch/arm/lib/built-in.o
 .text.setup_board_tags
                0x0000000017800dec        0x4 arch/arm/lib/built-in.o
                0x0000000017800dec                setup_board_tags
 .text.boot_prep_linux
                0x0000000017800df0      0x200 arch/arm/lib/built-in.o
 .text.do_bootm_linux
                0x0000000017800ff0       0x58 arch/arm/lib/built-in.o
                0x0000000017800ff0                do_bootm_linux
 .text.boot_prep_vxworks
                0x0000000017801048       0x50 arch/arm/lib/built-in.o
                0x0000000017801048                boot_prep_vxworks
 .text.boot_jump_vxworks
                0x0000000017801098        0xc arch/arm/lib/built-in.o
                0x0000000017801098                boot_jump_vxworks
 .text.bootz_setup
                0x00000000178010a4       0xa0 arch/arm/lib/built-in.o
                0x00000000178010a4                bootz_setup
 .text.pl310_background_op_all_ways
                0x0000000017801144       0x48 arch/arm/lib/built-in.o
 .text.v7_outer_cache_inval_all
                0x000000001780118c        0xc arch/arm/lib/built-in.o
                0x000000001780118c                v7_outer_cache_inval_all
 .text.v7_outer_cache_flush_all
                0x0000000017801198        0xc arch/arm/lib/built-in.o
                0x0000000017801198                v7_outer_cache_flush_all
 .text.v7_outer_cache_flush_range
                0x00000000178011a4       0x34 arch/arm/lib/built-in.o
                0x00000000178011a4                v7_outer_cache_flush_range
 .text.v7_outer_cache_inval_range
                0x00000000178011d8       0x84 arch/arm/lib/built-in.o
                0x00000000178011d8                v7_outer_cache_inval_range
 .text.arch_reserve_stacks
                0x000000001780125c       0x1c arch/arm/lib/built-in.o
                0x000000001780125c                arch_reserve_stacks
 .text.interrupt_init
                0x0000000017801278       0x1c arch/arm/lib/built-in.o
                0x0000000017801278                interrupt_init
 .text.enable_interrupts
                0x0000000017801294        0x4 arch/arm/lib/built-in.o
                0x0000000017801294                enable_interrupts
 .text.disable_interrupts
                0x0000000017801298        0x8 arch/arm/lib/built-in.o
                0x0000000017801298                disable_interrupts
 .text.bad_mode
                0x00000000178012a0       0x10 arch/arm/lib/built-in.o
                0x00000000178012a0                bad_mode
 .text.show_regs
                0x00000000178012b0      0x174 arch/arm/lib/built-in.o
                0x00000000178012b0                show_regs
 .text.do_undefined_instruction
                0x0000000017801424       0x30 arch/arm/lib/built-in.o
                0x0000000017801424                do_undefined_instruction
 .text.do_software_interrupt
                0x0000000017801454       0x30 arch/arm/lib/built-in.o
                0x0000000017801454                do_software_interrupt
 .text.do_prefetch_abort
                0x0000000017801484       0x30 arch/arm/lib/built-in.o
                0x0000000017801484                do_prefetch_abort
 .text.do_data_abort
                0x00000000178014b4       0x30 arch/arm/lib/built-in.o
                0x00000000178014b4                do_data_abort
 .text.do_not_used
                0x00000000178014e4       0x30 arch/arm/lib/built-in.o
                0x00000000178014e4                do_not_used
 .text.do_fiq   0x0000000017801514       0x30 arch/arm/lib/built-in.o
                0x0000000017801514                do_fiq
 .text.do_irq   0x0000000017801544       0x30 arch/arm/lib/built-in.o
                0x0000000017801544                do_irq
 .text.do_reset
                0x0000000017801574       0x30 arch/arm/lib/built-in.o
                0x0000000017801574                do_reset
 .text.flush_cache
                0x00000000178015a4        0x8 arch/arm/lib/built-in.o
                0x00000000178015a4                flush_cache
 .text.check_cache_range
                0x00000000178015ac       0x38 arch/arm/lib/built-in.o
                0x00000000178015ac                check_cache_range
 .text.cache_disable
                0x00000000178015e4       0x54 arch/arm/lib/built-in.o
 .text.arm_init_domains
                0x0000000017801638        0x4 arch/arm/lib/built-in.o
                0x0000000017801638                arm_init_domains
 .text.set_section_dcache
                0x000000001780163c       0x14 arch/arm/lib/built-in.o
                0x000000001780163c                set_section_dcache
 .text.mmu_set_region_dcache_behaviour
                0x0000000017801650       0x58 arch/arm/lib/built-in.o
                0x0000000017801650                mmu_set_region_dcache_behaviour
 .text.dram_bank_mmu_setup
                0x00000000178016a8       0x44 arch/arm/lib/built-in.o
                0x00000000178016a8                dram_bank_mmu_setup
 .text.icache_enable
                0x00000000178016ec       0x14 arch/arm/lib/built-in.o
                0x00000000178016ec                icache_enable
 .text.icache_disable
                0x0000000017801700        0x8 arch/arm/lib/built-in.o
                0x0000000017801700                icache_disable
 .text.icache_status
                0x0000000017801708        0xc arch/arm/lib/built-in.o
                0x0000000017801708                icache_status
 .text.dcache_enable
                0x0000000017801714       0x80 arch/arm/lib/built-in.o
                0x0000000017801714                dcache_enable
 .text.dcache_disable
                0x0000000017801794        0x8 arch/arm/lib/built-in.o
                0x0000000017801794                dcache_disable
 .text.dcache_status
                0x000000001780179c        0xc arch/arm/lib/built-in.o
                0x000000001780179c                dcache_status
 .text.imx_iomux_v3_setup_pad
                0x00000000178017a8       0xc4 arch/arm/mach-imx/built-in.o
                0x00000000178017a8                imx_iomux_v3_setup_pad
 .text.imx_iomux_v3_setup_multiple_pads
                0x000000001780186c       0x2c arch/arm/mach-imx/built-in.o
                0x000000001780186c                imx_iomux_v3_setup_multiple_pads
 .text.imx_iomux_set_gpr_register
                0x0000000017801898       0x48 arch/arm/mach-imx/built-in.o
                0x0000000017801898                imx_iomux_set_gpr_register
 .text.get_reset_cause
                0x00000000178018e0       0xf0 arch/arm/mach-imx/built-in.o
 .text.get_reboot_reason
                0x00000000178019d0       0x38 arch/arm/mach-imx/built-in.o
                0x00000000178019d0                get_reboot_reason
 .text.imx_ddr_size
                0x0000000017801a08       0x6c arch/arm/mach-imx/built-in.o
                0x0000000017801a08                imx_ddr_size
 .text.get_imx_type
                0x0000000017801a74       0x20 arch/arm/mach-imx/built-in.o
                0x0000000017801a74                get_imx_type
 .text.print_cpuinfo
                0x0000000017801a94      0x158 arch/arm/mach-imx/built-in.o
                0x0000000017801a94                print_cpuinfo
 .text.get_ahb_clk
                0x0000000017801bec       0x24 arch/arm/mach-imx/built-in.o
                0x0000000017801bec                get_ahb_clk
 .text.arch_preboot_os
                0x0000000017801c10       0x14 arch/arm/mach-imx/built-in.o
                0x0000000017801c10                arch_preboot_os
 .text.get_clocks
                0x0000000017801c24       0x1c arch/arm/mach-imx/built-in.o
                0x0000000017801c24                get_clocks
 .text.timer_init
                0x0000000017801c40      0x1cc arch/arm/mach-imx/built-in.o
                0x0000000017801c40                timer_init
 .text.timer_read_counter
                0x0000000017801e0c       0x10 arch/arm/mach-imx/built-in.o
                0x0000000017801e0c                timer_read_counter
 .text.get_tbclk
                0x0000000017801e1c       0xf4 arch/arm/mach-imx/built-in.o
                0x0000000017801e1c                get_tbclk
 .text.imx_sec_init
                0x0000000017801f10        0x4 arch/arm/mach-imx/built-in.o
                0x0000000017801f10                imx_sec_init
 .text.board_lmb_reserve
                0x0000000017801f14       0x3c arch/arm/mach-imx/built-in.o
                0x0000000017801f14                board_lmb_reserve
 .text.enable_caches
                0x0000000017801f50       0x60 arch/arm/mach-imx/built-in.o
                0x0000000017801f50                enable_caches
 .text.v7_outer_cache_enable
                0x0000000017801fb0       0xe4 arch/arm/mach-imx/built-in.o
                0x0000000017801fb0                v7_outer_cache_enable
 .text.v7_outer_cache_disable
                0x0000000017802094       0x18 arch/arm/mach-imx/built-in.o
                0x0000000017802094                v7_outer_cache_disable
 .text.init_aips
                0x00000000178020ac      0x124 arch/arm/mach-imx/built-in.o
                0x00000000178020ac                init_aips
 .text.imx_wdog_disable_powerdown
                0x00000000178021d0       0xcc arch/arm/mach-imx/built-in.o
                0x00000000178021d0                imx_wdog_disable_powerdown
 .text.init_src
                0x000000001780229c       0x20 arch/arm/mach-imx/built-in.o
                0x000000001780229c                init_src
 .text.boot_mode_apply
                0x00000000178022bc       0x30 arch/arm/mach-imx/built-in.o
                0x00000000178022bc                boot_mode_apply
 .text.imx_get_mac_from_fuse
                0x00000000178022ec      0x118 arch/arm/mach-imx/built-in.o
                0x00000000178022ec                imx_get_mac_from_fuse
 .text.board_video_skip
                0x0000000017802404      0x194 arch/arm/mach-imx/built-in.o
                0x0000000017802404                board_video_skip
 .text.create_usage
                0x0000000017802598       0xa0 arch/arm/mach-imx/built-in.o
 .text.do_boot_mode
                0x0000000017802638       0xd4 arch/arm/mach-imx/built-in.o
 .text.add_board_boot_modes
                0x000000001780270c       0x60 arch/arm/mach-imx/built-in.o
                0x000000001780270c                add_board_boot_modes
 .text.get_nr_cpus
                0x000000001780276c       0x14 arch/arm/mach-imx/built-in.o
                0x000000001780276c                get_nr_cpus
 .text.get_cpu_rev
                0x0000000017802780       0xe4 arch/arm/mach-imx/built-in.o
                0x0000000017802780                get_cpu_rev
 .text.set_ldo_voltage
                0x0000000017802864       0xe8 arch/arm/mach-imx/built-in.o
 .text.get_cpu_speed_grade_hz
                0x000000001780294c      0x164 arch/arm/mach-imx/built-in.o
                0x000000001780294c                get_cpu_speed_grade_hz
 .text.get_cpu_temp_grade
                0x0000000017802ab0       0x6c arch/arm/mach-imx/built-in.o
                0x0000000017802ab0                get_cpu_temp_grade
 .text.get_board_rev
                0x0000000017802b1c       0x30 arch/arm/mach-imx/built-in.o
                0x0000000017802b1c                get_board_rev
 .text.is_usb_boot
                0x0000000017802b4c        0xc arch/arm/mach-imx/built-in.o
                0x0000000017802b4c                is_usb_boot
 .text.mmc_get_boot_dev
                0x0000000017802b58       0x34 arch/arm/mach-imx/built-in.o
 .text.arch_cpu_init
                0x0000000017802b8c      0x4f8 arch/arm/mach-imx/built-in.o
                0x0000000017802b8c                arch_cpu_init
 .text.mmc_get_env_dev
                0x0000000017803084       0x30 arch/arm/mach-imx/built-in.o
                0x0000000017803084                mmc_get_env_dev
 .text.board_mmc_get_env_part
                0x00000000178030b4        0x8 arch/arm/mach-imx/built-in.o
                0x00000000178030b4                board_mmc_get_env_part
 .text.mmc_get_env_part
                0x00000000178030bc       0x20 arch/arm/mach-imx/built-in.o
                0x00000000178030bc                mmc_get_env_part
 .text.board_postclk_init
                0x00000000178030dc       0x28 arch/arm/mach-imx/built-in.o
                0x00000000178030dc                board_postclk_init
 .text.get_board_serial
                0x0000000017803104       0x1c arch/arm/mach-imx/built-in.o
                0x0000000017803104                get_board_serial
 .text.get_boot_device
                0x0000000017803120       0xa0 arch/arm/mach-imx/built-in.o
                0x0000000017803120                get_boot_device
 .text.set_wdog_reset
                0x00000000178031c0       0x24 arch/arm/mach-imx/built-in.o
                0x00000000178031c0                set_wdog_reset
 .text.reset_misc
                0x00000000178031e4        0x4 arch/arm/mach-imx/built-in.o
                0x00000000178031e4                reset_misc
 .text.s_init   0x00000000178031e8       0xd0 arch/arm/mach-imx/built-in.o
                0x00000000178031e8                s_init
 .text.imx_enable_hdmi_phy
                0x00000000178032b8       0x60 arch/arm/mach-imx/built-in.o
                0x00000000178032b8                imx_enable_hdmi_phy
 .text.imx_setup_hdmi
                0x0000000017803318       0x98 arch/arm/mach-imx/built-in.o
                0x0000000017803318                imx_setup_hdmi
 .text.check_ldo_bypass
                0x00000000178033b0       0x78 arch/arm/mach-imx/built-in.o
                0x00000000178033b0                check_ldo_bypass
 .text.check_1_2G
                0x0000000017803428       0x5c arch/arm/mach-imx/built-in.o
                0x0000000017803428                check_1_2G
 .text.prep_anatop_bypass
                0x0000000017803484       0x68 arch/arm/mach-imx/built-in.o
                0x0000000017803484                prep_anatop_bypass
 .text.set_anatop_bypass
                0x00000000178034ec       0x60 arch/arm/mach-imx/built-in.o
                0x00000000178034ec                set_anatop_bypass
 .text.finish_anatop_bypass
                0x000000001780354c       0x28 arch/arm/mach-imx/built-in.o
                0x000000001780354c                finish_anatop_bypass
 .text.get_ipg_clk
                0x0000000017803574       0x28 arch/arm/mach-imx/built-in.o
 .text.get_uart_clk
                0x000000001780359c       0xe8 arch/arm/mach-imx/built-in.o
 .text.mxc_get_pll_pfd
                0x0000000017803684       0xec arch/arm/mach-imx/built-in.o
 .text.get_usdhc_clk
                0x0000000017803770       0xf8 arch/arm/mach-imx/built-in.o
 .text.enable_ocotp_clk
                0x0000000017803868       0x24 arch/arm/mach-imx/built-in.o
                0x0000000017803868                enable_ocotp_clk
 .text.enable_usboh3_clk
                0x000000001780388c       0x24 arch/arm/mach-imx/built-in.o
                0x000000001780388c                enable_usboh3_clk
 .text.enable_i2c_clk
                0x00000000178038b0       0xe8 arch/arm/mach-imx/built-in.o
                0x00000000178038b0                enable_i2c_clk
 .text.get_periph_clk
                0x0000000017803998       0xc8 arch/arm/mach-imx/built-in.o
                0x0000000017803998                get_periph_clk
 .text.get_axi_clk
                0x0000000017803a60       0x4c arch/arm/mach-imx/built-in.o
 .text.enable_fec_anatop_clock
                0x0000000017803aac      0x108 arch/arm/mach-imx/built-in.o
                0x0000000017803aac                enable_fec_anatop_clock
 .text.imx_get_uartclk
                0x0000000017803bb4        0x4 arch/arm/mach-imx/built-in.o
                0x0000000017803bb4                imx_get_uartclk
 .text.enable_thermal_clk
                0x0000000017803bb8       0x5c arch/arm/mach-imx/built-in.o
                0x0000000017803bb8                enable_thermal_clk
 .text.mxc_get_clock
                0x0000000017803c14      0x4ec arch/arm/mach-imx/built-in.o
                0x0000000017803c14                mxc_get_clock
 .text.imx_get_fecclk
                0x0000000017804100        0x8 arch/arm/mach-imx/built-in.o
                0x0000000017804100                imx_get_fecclk
 .text.do_mx6_showclocks
                0x0000000017804108      0x268 arch/arm/mach-imx/built-in.o
                0x0000000017804108                do_mx6_showclocks
 .text.enable_ipu_clock
                0x0000000017804370       0xc0 arch/arm/mach-imx/built-in.o
                0x0000000017804370                enable_ipu_clock
 .text.cpu_reset
                0x0000000017804430       0x28 arch/arm/mach-imx/built-in.o
                0x0000000017804430                cpu_reset
 .text.cpu_status
                0x0000000017804458       0x40 arch/arm/mach-imx/built-in.o
                0x0000000017804458                cpu_status
 .text.cpu_release
                0x0000000017804498       0x80 arch/arm/mach-imx/built-in.o
                0x0000000017804498                cpu_release
 .text.is_core_valid
                0x0000000017804518       0x1c arch/arm/mach-imx/built-in.o
                0x0000000017804518                is_core_valid
 .text.cpu_disable
                0x0000000017804534       0x28 arch/arm/mach-imx/built-in.o
                0x0000000017804534                cpu_disable
 .text.pfuze_mode_init
                0x000000001780455c       0xc0 board/freescale/common/built-in.o
                0x000000001780455c                pfuze_mode_init
 .text.pfuze_common_init
                0x000000001780461c       0xdc board/freescale/common/built-in.o
                0x000000001780461c                pfuze_common_init
 .text.board_late_mmc_env_init
                0x00000000178046f8       0x9c board/freescale/common/built-in.o
                0x00000000178046f8                board_late_mmc_env_init
 .text.enable_backlight
                0x0000000017804794       0x34 board/freescale/mx6sabresd/built-in.o
 .text.enable_rgb
                0x00000000178047c8       0x1c board/freescale/mx6sabresd/built-in.o
 .text.enable_lvds
                0x00000000178047e4        0x4 board/freescale/mx6sabresd/built-in.o
 .text.fec_phy_reset
                0x00000000178047e8       0x50 board/freescale/mx6sabresd/built-in.o
 .text.do_enable_hdmi
                0x0000000017804838       0x20 board/freescale/mx6sabresd/built-in.o
 .text.dram_init
                0x0000000017804858       0x18 board/freescale/mx6sabresd/built-in.o
                0x0000000017804858                dram_init
 .text.board_spi_cs_gpio
                0x0000000017804870       0x10 board/freescale/mx6sabresd/built-in.o
                0x0000000017804870                board_spi_cs_gpio
 .text.board_mmc_get_env_dev
                0x0000000017804880        0x8 board/freescale/mx6sabresd/built-in.o
                0x0000000017804880                board_mmc_get_env_dev
 .text.mmc_map_to_kernel_blk
                0x0000000017804888        0x8 board/freescale/mx6sabresd/built-in.o
                0x0000000017804888                mmc_map_to_kernel_blk
 .text.board_phy_config
                0x0000000017804890      0x188 board/freescale/mx6sabresd/built-in.o
                0x0000000017804890                board_phy_config
 .text.overwrite_console
                0x0000000017804a18        0x8 board/freescale/mx6sabresd/built-in.o
                0x0000000017804a18                overwrite_console
 .text.board_ehci_hcd_init
                0x0000000017804a20       0x4c board/freescale/mx6sabresd/built-in.o
                0x0000000017804a20                board_ehci_hcd_init
 .text.board_early_init_f
                0x0000000017804a6c       0xb8 board/freescale/mx6sabresd/built-in.o
                0x0000000017804a6c                board_early_init_f
 .text.board_init
                0x0000000017804b24       0x98 board/freescale/mx6sabresd/built-in.o
                0x0000000017804b24                board_init
 .text.power_init_board
                0x0000000017804bbc      0x1d8 board/freescale/mx6sabresd/built-in.o
                0x0000000017804bbc                power_init_board
 .text.ldo_mode_set
                0x0000000017804d94      0x1ec board/freescale/mx6sabresd/built-in.o
                0x0000000017804d94                ldo_mode_set
 .text.board_late_init
                0x0000000017804f80       0xe4 board/freescale/mx6sabresd/built-in.o
                0x0000000017804f80                board_late_init
 .text.checkboard
                0x0000000017805064       0x18 board/freescale/mx6sabresd/built-in.o
                0x0000000017805064                checkboard
 .text.do_go_exec
                0x000000001780507c       0x10 cmd/built-in.o
                0x000000001780507c                do_go_exec
 .text.do_go    0x000000001780508c       0x6c cmd/built-in.o
 .text.do_bootm
                0x00000000178050f8      0x108 cmd/built-in.o
                0x00000000178050f8                do_bootm
 .text.do_bootd
                0x0000000017805200       0x20 cmd/built-in.o
                0x0000000017805200                do_bootd
 .text.image_info
                0x0000000017805220       0xec cmd/built-in.o
 .text.do_iminfo
                0x000000001780530c       0x5c cmd/built-in.o
 .text.bootm_maybe_autostart
                0x0000000017805368       0x78 cmd/built-in.o
                0x0000000017805368                bootm_maybe_autostart
 .text.do_help  0x00000000178053e0       0x44 cmd/built-in.o
 .text.do_version
                0x0000000017805424       0x40 cmd/built-in.o
 .text.blk_common_cmd
                0x0000000017805464      0x310 cmd/built-in.o
                0x0000000017805464                blk_common_cmd
 .text.source   0x0000000017805774       0xd4 cmd/built-in.o
                0x0000000017805774                source
 .text.do_source
                0x0000000017805848       0x44 cmd/built-in.o
 .text.print_num
                0x000000001780588c       0x14 cmd/built-in.o
 .text.do_bdinfo
                0x00000000178058a0      0x10c cmd/built-in.o
 .text.efi_init_obj_list
                0x00000000178059ac       0x38 cmd/built-in.o
 .text.do_bootefi_exec
                0x00000000178059e4      0x424 cmd/built-in.o
 .text.do_bootefi
                0x0000000017805e08      0x144 cmd/built-in.o
 .text.efi_set_bootdev
                0x0000000017805f4c      0x11c cmd/built-in.o
                0x0000000017805f4c                efi_set_bootdev
 .text.do_bootz
                0x0000000017806068       0xfc cmd/built-in.o
                0x0000000017806068                do_bootz
 .text.parse_argv
                0x0000000017806164       0x64 cmd/built-in.o
 .text.do_icache
                0x00000000178061c8       0x88 cmd/built-in.o
 .text.do_dcache
                0x0000000017806250       0x88 cmd/built-in.o
 .text.do_coninfo
                0x00000000178062d8       0xb0 cmd/built-in.o
 .text.do_echo  0x0000000017806388       0xb4 cmd/built-in.o
 .text.load_elf_image_shdr
                0x000000001780643c       0x8c cmd/built-in.o
 .text.valid_elf_image
                0x00000000178064c8       0x4c cmd/built-in.o
                0x00000000178064c8                valid_elf_image
 .text.do_bootelf
                0x0000000017806514      0x1c4 cmd/built-in.o
                0x0000000017806514                do_bootelf
 .text.do_bootvx
                0x00000000178066d8      0x330 cmd/built-in.o
                0x00000000178066d8                do_bootvx
 .text.do_exit  0x0000000017806a08       0x48 cmd/built-in.o
 .text.do_ext4_size
                0x0000000017806a50       0x18 cmd/built-in.o
                0x0000000017806a50                do_ext4_size
 .text.do_ext4_load
                0x0000000017806a68       0x18 cmd/built-in.o
                0x0000000017806a68                do_ext4_load
 .text.do_ext4_ls
                0x0000000017806a80       0x18 cmd/built-in.o
                0x0000000017806a80                do_ext4_ls
 .text.do_ext4_write
                0x0000000017806a98       0x18 cmd/built-in.o
                0x0000000017806a98                do_ext4_write
 .text.do_ext2load
                0x0000000017806ab0       0x18 cmd/built-in.o
                0x0000000017806ab0                do_ext2load
 .text.do_ext2ls
                0x0000000017806ac8       0x18 cmd/built-in.o
 .text.do_fat_size
                0x0000000017806ae0       0x18 cmd/built-in.o
                0x0000000017806ae0                do_fat_size
 .text.do_fat_fsload
                0x0000000017806af8       0x18 cmd/built-in.o
                0x0000000017806af8                do_fat_fsload
 .text.do_fat_ls
                0x0000000017806b10       0x18 cmd/built-in.o
 .text.do_fat_fsinfo
                0x0000000017806b28       0x8c cmd/built-in.o
 .text.do_fat_fswrite
                0x0000000017806bb4      0x124 cmd/built-in.o
 .text.fdt_valid
                0x0000000017806cd8       0xbc cmd/built-in.o
 .text.is_printable_string
                0x0000000017806d94       0x88 cmd/built-in.o
 .text.print_data
                0x0000000017806e1c      0x170 cmd/built-in.o
 .text.set_working_fdt_addr
                0x0000000017806f8c       0x1c cmd/built-in.o
                0x0000000017806f8c                set_working_fdt_addr
 .text.do_fdt   0x0000000017806fa8      0xf44 cmd/built-in.o
 .text.do_size_wrapper
                0x0000000017807eec       0x18 cmd/built-in.o
 .text.do_load_wrapper
                0x0000000017807f04       0x64 cmd/built-in.o
 .text.do_save_wrapper
                0x0000000017807f68       0x18 cmd/built-in.o
 .text.do_ls_wrapper
                0x0000000017807f80       0x18 cmd/built-in.o
 .text.do_fstype_wrapper
                0x0000000017807f98        0x4 cmd/built-in.o
 .text.strtou32
                0x0000000017807f9c       0x44 cmd/built-in.o
 .text.do_fuse  0x0000000017807fe0      0x364 cmd/built-in.o
 .text.gpio_get_description
                0x0000000017808344       0xcc cmd/built-in.o
 .text.do_gpio  0x0000000017808410      0x360 cmd/built-in.o
 .text.do_i2c   0x0000000017808770       0x68 cmd/built-in.o
 .text.i2c_get_cur_bus
                0x00000000178087d8       0x38 cmd/built-in.o
 .text.do_i2c_bus_speed
                0x0000000017808810       0x98 cmd/built-in.o
 .text.do_i2c_reset
                0x00000000178088a8       0x3c cmd/built-in.o
 .text.i2c_get_cur_bus_chip
                0x00000000178088e4       0x38 cmd/built-in.o
 .text.do_i2c_olen
                0x000000001780891c       0xb4 cmd/built-in.o
 .text.do_i2c_flags
                0x00000000178089d0       0xb8 cmd/built-in.o
 .text.do_i2c_probe
                0x0000000017808a88       0xc4 cmd/built-in.o
 .text.do_i2c_bus_num
                0x0000000017808b4c       0xa4 cmd/built-in.o
 .text.show_bus
                0x0000000017808bf0       0x9c cmd/built-in.o
 .text.do_i2c_show_bus
                0x0000000017808c8c       0xb0 cmd/built-in.o
 .text.get_alen.constprop.4
                0x0000000017808d3c       0x3c cmd/built-in.o
 .text.do_i2c_crc
                0x0000000017808d78      0x16c cmd/built-in.o
 .text.mod_i2c_mem.isra.1
                0x0000000017808ee4      0x224 cmd/built-in.o
 .text.do_i2c_nm
                0x0000000017809108        0x8 cmd/built-in.o
 .text.do_i2c_mm
                0x0000000017809110        0x8 cmd/built-in.o
 .text.do_i2c_md
                0x0000000017809118      0x220 cmd/built-in.o
 .text.do_i2c_read
                0x0000000017809338       0xf4 cmd/built-in.o
 .text.do_i2c_mw
                0x000000001780942c      0x134 cmd/built-in.o
 .text.do_i2c_write
                0x0000000017809560      0x1a0 cmd/built-in.o
 .text.do_i2c_loop
                0x0000000017809700      0x144 cmd/built-in.o
 .text.evalexp  0x0000000017809844       0x7c cmd/built-in.o
 .text.evalstr  0x00000000178098c0       0x64 cmd/built-in.o
 .text.binary_test
                0x0000000017809924      0x1c0 cmd/built-in.o
 .text.do_itest
                0x0000000017809ae4       0x88 cmd/built-in.o
 .text.bin_data_init
                0x0000000017809b6c       0x2c cmd/built-in.o
 .text.k_data_save
                0x0000000017809b98       0x4c cmd/built-in.o
 .text.k_data_restore
                0x0000000017809be4       0x4c cmd/built-in.o
 .text.getcxmodem
                0x0000000017809c30       0x20 cmd/built-in.o
 .text.load_serial_ymodem
                0x0000000017809c50       0xcc cmd/built-in.o
 .text.bin_data_char
                0x0000000017809d1c       0x2c cmd/built-in.o
 .text.chk1.constprop.1
                0x0000000017809d48       0x30 cmd/built-in.o
 .text.s1_sendpacket.constprop.2
                0x0000000017809d78       0x50 cmd/built-in.o
 .text.load_serial
                0x0000000017809dc8      0x1e4 cmd/built-in.o
 .text.do_load_serial
                0x0000000017809fac       0xdc cmd/built-in.o
 .text.do_load_serial_bin
                0x000000001780a088      0x79c cmd/built-in.o
 .text.do_mem_mw
                0x000000001780a824       0xc0 cmd/built-in.o
 .text.do_mem_loop
                0x000000001780a8e4       0xec cmd/built-in.o
 .text.do_mem_md
                0x000000001780a9d0       0xe8 cmd/built-in.o
 .text.do_mem_cmp
                0x000000001780aab8      0x154 cmd/built-in.o
 .text.do_mem_base
                0x000000001780ac0c       0x40 cmd/built-in.o
 .text.do_mem_cp
                0x000000001780ac4c       0xa8 cmd/built-in.o
 .text.do_mem_crc
                0x000000001780acf4       0x48 cmd/built-in.o
 .text.do_mem_mtest
                0x000000001780ad3c      0x228 cmd/built-in.o
 .text.mod_mem.isra.0
                0x000000001780af64      0x170 cmd/built-in.o
 .text.do_mem_mm
                0x000000001780b0d4        0x8 cmd/built-in.o
 .text.do_mem_nm
                0x000000001780b0dc        0x8 cmd/built-in.o
 .text.extract_range
                0x000000001780b0e4       0xe4 cmd/built-in.o
 .text.do_mii   0x000000001780b1c8      0x90c cmd/built-in.o
 .text.do_mdio  0x000000001780bad4      0x4e4 cmd/built-in.o
 .text.do_sleep
                0x000000001780bfb8       0xd0 cmd/built-in.o
 .text.do_mmcops
                0x000000001780c088       0xb8 cmd/built-in.o
 .text.init_mmc_device
                0x000000001780c140       0x50 cmd/built-in.o
 .text.do_mmc_rescan
                0x000000001780c190       0x24 cmd/built-in.o
 .text.do_mmc_rst_func
                0x000000001780c1b4       0x9c cmd/built-in.o
 .text.do_mmc_partconf
                0x000000001780c250       0xfc cmd/built-in.o
 .text.do_mmc_boot_resize
                0x000000001780c34c       0xc8 cmd/built-in.o
 .text.do_mmc_bootbus
                0x000000001780c414       0xb0 cmd/built-in.o
 .text.do_mmc_hwpartition
                0x000000001780c4c4      0x510 cmd/built-in.o
 .text.do_mmc_list
                0x000000001780c9d4       0x14 cmd/built-in.o
 .text.do_mmc_dev
                0x000000001780c9e8      0x134 cmd/built-in.o
 .text.do_mmc_part
                0x000000001780cb1c       0x60 cmd/built-in.o
 .text.do_mmc_erase
                0x000000001780cb7c       0xe8 cmd/built-in.o
 .text.do_mmc_write
                0x000000001780cc64      0x100 cmd/built-in.o
 .text.do_mmc_read
                0x000000001780cd64       0xe0 cmd/built-in.o
 .text.do_mmcinfo
                0x000000001780ce44      0x3a8 cmd/built-in.o
 .text.do_mmc_setdsr
                0x000000001780d1ec       0xa8 cmd/built-in.o
 .text.cpu_cmd  0x000000001780d294      0x158 cmd/built-in.o
 .text.netboot_common
                0x000000001780d3ec      0x288 cmd/built-in.o
 .text.do_bootp
                0x000000001780d674        0xc cmd/built-in.o
 .text.do_dhcp  0x000000001780d680        0xc cmd/built-in.o
 .text.do_nfs   0x000000001780d68c        0xc cmd/built-in.o
 .text.do_tftpb
                0x000000001780d698       0x40 cmd/built-in.o
                0x000000001780d698                do_tftpb
 .text.do_ping  0x000000001780d6d8       0x78 cmd/built-in.o
 .text.do_raw_read
                0x000000001780d750      0x160 cmd/built-in.o
                0x000000001780d750                do_raw_read
 .text.bytes_per_second
                0x000000001780d8b0       0x50 cmd/built-in.o
 .text.do_spi_flash
                0x000000001780d900      0x84c cmd/built-in.o
 .text.substitute
                0x000000001780e14c       0xf0 cmd/built-in.o
 .text.get_arg  0x000000001780e23c       0x58 cmd/built-in.o
 .text.regex_sub
                0x000000001780e294      0x454 cmd/built-in.o
 .text.do_setexpr
                0x000000001780e6e8      0x180 cmd/built-in.o
 .text.do_false
                0x000000001780e868        0x8 cmd/built-in.o
 .text.do_true  0x000000001780e870        0x8 cmd/built-in.o
 .text.do_test  0x000000001780e878      0x32c cmd/built-in.o
 .text.usb_get_class_desc
                0x000000001780eba4       0xbc cmd/built-in.o
 .text.usb_display_class_sub
                0x000000001780ec60      0x170 cmd/built-in.o
 .text.usb_display_desc
                0x000000001780edd0      0x150 cmd/built-in.o
 .text.usb_show_tree_graph
                0x000000001780ef20      0x22c cmd/built-in.o
 .text.usb_show_subtree
                0x000000001780f14c       0x30 cmd/built-in.o
 .text.usb_for_each_root_dev
                0x000000001780f17c       0x6c cmd/built-in.o
 .text.usb_display_string
                0x000000001780f1e8       0x44 cmd/built-in.o
 .text.usb_display_config
                0x000000001780f22c      0x228 cmd/built-in.o
 .text.usb_show_info
                0x000000001780f454       0x74 cmd/built-in.o
 .text.usb_find_device
                0x000000001780f4c8       0xb4 cmd/built-in.o
 .text.do_usbboot
                0x000000001780f57c        0xc cmd/built-in.o
 .text.do_usb_start
                0x000000001780f588       0x30 cmd/built-in.o
 .text.usb_show_tree
                0x000000001780f5b8        0xc cmd/built-in.o
                0x000000001780f5b8                usb_show_tree
 .text.do_usb   0x000000001780f5c4      0x3e0 cmd/built-in.o
 .text.common_diskboot
                0x000000001780f9a4      0x228 cmd/built-in.o
                0x000000001780f9a4                common_diskboot
 .text.do_fastboot
                0x000000001780fbcc       0xb8 cmd/built-in.o
 .text.ums_fini
                0x000000001780fc84       0x58 cmd/built-in.o
 .text.ums_write_sector
                0x000000001780fcdc       0x10 cmd/built-in.o
 .text.ums_read_sector
                0x000000001780fcec       0x10 cmd/built-in.o
 .text.do_usb_mass_storage
                0x000000001780fcfc      0x350 cmd/built-in.o
 .text.do_imgextract
                0x000000001781004c      0x280 cmd/built-in.o
 .text.do_dfu   0x00000000178102cc       0x80 cmd/built-in.o
 .text.do_env_delete
                0x000000001781034c       0x9c cmd/built-in.o
 .text.do_env_exists
                0x00000000178103e8       0x64 cmd/built-in.o
 .text.do_env_save
                0x000000001781044c       0x14 cmd/built-in.o
 .text.do_env   0x0000000017810460       0x68 cmd/built-in.o
 .text.env_print
                0x00000000178104c8       0xc4 cmd/built-in.o
 .text.do_env_print
                0x000000001781058c       0xc0 cmd/built-in.o
 .text.do_env_import
                0x000000001781064c      0x26c cmd/built-in.o
 .text.do_env_default
                0x00000000178108b8       0x9c cmd/built-in.o
 .text._do_env_set.isra.0
                0x0000000017810954      0x1ac cmd/built-in.o
 .text.do_env_set
                0x0000000017810b00       0x20 cmd/built-in.o
 .text.get_env_id
                0x0000000017810b20       0x10 cmd/built-in.o
                0x0000000017810b20                get_env_id
 .text.env_set  0x0000000017810b30       0x60 cmd/built-in.o
                0x0000000017810b30                env_set
 .text.env_set_ulong
                0x0000000017810b90       0x20 cmd/built-in.o
                0x0000000017810b90                env_set_ulong
 .text.env_set_hex
                0x0000000017810bb0       0x34 cmd/built-in.o
                0x0000000017810bb0                env_set_hex
 .text.do_env_export
                0x0000000017810be4      0x224 cmd/built-in.o
 .text.envmatch
                0x0000000017810e08       0x64 cmd/built-in.o
                0x0000000017810e08                envmatch
 .text.env_get_f
                0x0000000017810e6c       0xdc cmd/built-in.o
                0x0000000017810e6c                env_get_f
 .text.env_get  0x0000000017810f48       0x78 cmd/built-in.o
                0x0000000017810f48                env_get
 .text.env_get_hex
                0x0000000017810fc0       0x3c cmd/built-in.o
                0x0000000017810fc0                env_get_hex
 .text.env_get_ulong
                0x0000000017810ffc       0x30 cmd/built-in.o
                0x0000000017810ffc                env_get_ulong
 .text.do_env_edit.part.2
                0x000000001781102c       0xa4 cmd/built-in.o
 .text.do_env_edit
                0x00000000178110d0       0x2c cmd/built-in.o
 .text.board_init_f_alloc_reserve
                0x00000000178110fc        0xc common/built-in.o
                0x00000000178110fc                board_init_f_alloc_reserve
 .text.board_init_f_init_reserve
                0x0000000017811108       0x20 common/built-in.o
                0x0000000017811108                board_init_f_init_reserve
 .text.show_boot_progress
                0x0000000017811128        0x8 common/built-in.o
                0x0000000017811128                show_boot_progress
 .text.main_loop
                0x0000000017811130       0x4c common/built-in.o
                0x0000000017811130                main_loop
 .text.mdelay   0x000000001781117c       0x24 common/built-in.o
 .text.dummy    0x00000000178111a0        0x4 common/built-in.o
 .text.get_version
                0x00000000178111a4        0x8 common/built-in.o
                0x00000000178111a4                get_version
 .text.jumptable_init
                0x00000000178111ac      0x1e0 common/built-in.o
                0x00000000178111ac                jumptable_init
 .text.hash_finish_crc32
                0x000000001781138c       0x30 common/built-in.o
 .text.hash_update_crc32
                0x00000000178113bc       0x24 common/built-in.o
 .text.hash_init_crc32
                0x00000000178113e0       0x24 common/built-in.o
 .text.hash_lookup_algo
                0x0000000017811404       0x28 common/built-in.o
                0x0000000017811404                hash_lookup_algo
 .text.hash_command
                0x000000001781142c       0xb0 common/built-in.o
                0x000000001781142c                hash_command
 .text.b_reset  0x00000000178114dc       0x1c common/built-in.o
 .text.static_get
                0x00000000178114f8       0x1c common/built-in.o
 .text.file_peek
                0x0000000017811514        0xc common/built-in.o
 .text.mapset   0x0000000017811520       0x24 common/built-in.o
 .text.syntax_err
                0x0000000017811544        0xc common/built-in.o
 .text.free_pipe_list
                0x0000000017811550       0xf0 common/built-in.o
 .text.xmalloc  0x0000000017811640       0x20 common/built-in.o
 .text.new_pipe
                0x0000000017811660       0x28 common/built-in.o
 .text.xrealloc
                0x0000000017811688       0x20 common/built-in.o
 .text.done_command
                0x00000000178116a8       0x88 common/built-in.o
 .text.done_pipe
                0x0000000017811730       0x48 common/built-in.o
 .text.done_word
                0x0000000017811778      0x2d4 common/built-in.o
 .text.do_showvar
                0x0000000017811a4c      0x100 common/built-in.o
 .text.is_assignment
                0x0000000017811b4c       0x5c common/built-in.o
 .text.file_get
                0x0000000017811ba8      0x1ec common/built-in.o
 .text.b_addchr
                0x0000000017811d94       0x80 common/built-in.o
 .text.b_addqchr
                0x0000000017811e14       0x50 common/built-in.o
 .text.static_peek
                0x0000000017811e64        0xc common/built-in.o
 .text.get_local_var
                0x0000000017811e70       0x94 common/built-in.o
                0x0000000017811e70                get_local_var
 .text.set_local_var
                0x0000000017811f04      0x1a8 common/built-in.o
                0x0000000017811f04                set_local_var
 .text.insert_var_value_sub
                0x00000000178120ac      0x2bc common/built-in.o
 .text.parse_string_outer
                0x0000000017812368       0xe8 common/built-in.o
                0x0000000017812368                parse_string_outer
 .text.run_list_real
                0x0000000017812450      0x7a8 common/built-in.o
 .text.parse_stream_outer
                0x0000000017812bf8      0x6b0 common/built-in.o
 .text.parse_file_outer
                0x00000000178132a8       0x44 common/built-in.o
                0x00000000178132a8                parse_file_outer
 .text.u_boot_hush_start
                0x00000000178132ec       0x54 common/built-in.o
                0x00000000178132ec                u_boot_hush_start
 .text.bootdelay_process
                0x0000000017813340      0x180 common/built-in.o
                0x0000000017813340                bootdelay_process
 .text.autoboot_command
                0x00000000178134c0       0xf4 common/built-in.o
                0x00000000178134c0                autoboot_command
 .text.log_init
                0x00000000178135b4       0x10 common/built-in.o
 .text.setup_mon_len
                0x00000000178135c4       0x20 common/built-in.o
 .text.reserve_round_4k
                0x00000000178135e4       0x18 common/built-in.o
 .text.reserve_mmu
                0x00000000178135fc       0x38 common/built-in.o
                0x00000000178135fc                reserve_mmu
 .text.reserve_uboot
                0x0000000017813634       0x30 common/built-in.o
 .text.reserve_malloc
                0x0000000017813664       0x18 common/built-in.o
 .text.setup_machine
                0x000000001781367c       0x14 common/built-in.o
 .text.reserve_global_data
                0x0000000017813690       0x1c common/built-in.o
 .text.reserve_fdt
                0x00000000178136ac       0x4c common/built-in.o
 .text.initf_console_record
                0x00000000178136f8        0x8 common/built-in.o
 .text.arch_cpu_init_dm
                0x0000000017813700        0x8 common/built-in.o
                0x0000000017813700                arch_cpu_init_dm
 .text.dram_init_banksize
                0x0000000017813708       0x24 common/built-in.o
                0x0000000017813708                dram_init_banksize
 .text.setup_reloc
                0x000000001781372c       0x3c common/built-in.o
 .text.reloc_fdt
                0x0000000017813768       0x44 common/built-in.o
 .text.reserve_board
                0x00000000178137ac       0x40 common/built-in.o
 .text.announce_dram_init
                0x00000000178137ec       0x18 common/built-in.o
 .text.init_baud_rate
                0x0000000017813804       0x2c common/built-in.o
 .text.initf_dm
                0x0000000017813830        0x8 common/built-in.o
 .text.initf_bootstage
                0x0000000017813838       0x14 common/built-in.o
 .text.reserve_arch
                0x000000001781384c        0x8 common/built-in.o
                0x000000001781384c                reserve_arch
 .text.display_text_info
                0x0000000017813854        0x8 common/built-in.o
 .text.mach_cpu_init
                0x000000001781385c        0x8 common/built-in.o
                0x000000001781385c                mach_cpu_init
 .text.reserve_video
                0x0000000017813864        0x8 common/built-in.o
 .text.reserve_trace
                0x000000001781386c        0x8 common/built-in.o
 .text.reserve_bootstage
                0x0000000017813874        0x8 common/built-in.o
 .text.display_new_sp
                0x000000001781387c        0x8 common/built-in.o
 .text.reloc_bootstage
                0x0000000017813884        0x8 common/built-in.o
 .text.coloured_LED_init
                0x000000001781388c        0x4 common/built-in.o
                0x000000001781388c                coloured_LED_init
 .text.red_led_on
                0x0000000017813890        0x4 common/built-in.o
                0x0000000017813890                red_led_on
 .text.board_add_ram_info
                0x0000000017813894        0x4 common/built-in.o
                0x0000000017813894                board_add_ram_info
 .text.show_dram_config
                0x0000000017813898       0x38 common/built-in.o
 .text.board_get_usable_ram_top
                0x00000000178138d0       0x14 common/built-in.o
                0x00000000178138d0                board_get_usable_ram_top
 .text.setup_dest_addr
                0x00000000178138e4       0x3c common/built-in.o
 .text.reserve_stacks
                0x0000000017813920       0x1c common/built-in.o
 .text.board_init_f
                0x000000001781393c       0x28 common/built-in.o
                0x000000001781393c                board_init_f
 .text.bootstage_relocate
                0x0000000017813964        0x8 common/built-in.o
 .text.initr_reloc
                0x000000001781396c       0x18 common/built-in.o
 .text.initr_announce
                0x0000000017813984        0x8 common/built-in.o
 .text.run_main_loop
                0x000000001781398c        0xc common/built-in.o
 .text.initr_check_fastboot
                0x0000000017813998       0x10 common/built-in.o
 .text.initr_net
                0x00000000178139a8       0x1c common/built-in.o
 .text.initr_fastboot_setup
                0x00000000178139c4       0x10 common/built-in.o
 .text.initr_ethaddr
                0x00000000178139d4       0x20 common/built-in.o
 .text.initr_enable_interrupts
                0x00000000178139f4       0x10 common/built-in.o
 .text.initr_jumptable
                0x0000000017813a04       0x10 common/built-in.o
 .text.initr_env
                0x0000000017813a14       0x64 common/built-in.o
 .text.initr_mmc
                0x0000000017813a78       0x20 common/built-in.o
 .text.initr_serial
                0x0000000017813a98       0x10 common/built-in.o
 .text.initr_dm
                0x0000000017813aa8       0x14 common/built-in.o
 .text.initr_bootstage
                0x0000000017813abc       0x14 common/built-in.o
 .text.initr_malloc
                0x0000000017813ad0       0x24 common/built-in.o
 .text.initr_reloc_global_data
                0x0000000017813af4       0x38 common/built-in.o
 .text.initr_caches
                0x0000000017813b2c       0x10 common/built-in.o
 .text.initr_trace
                0x0000000017813b3c        0x8 common/built-in.o
 .text.initr_barrier
                0x0000000017813b44        0x8 common/built-in.o
 .text.initr_console_record
                0x0000000017813b4c        0x8 common/built-in.o
 .text.cpu_secondary_init_r
                0x0000000017813b54        0x4 common/built-in.o
                0x0000000017813b54                cpu_secondary_init_r
 .text.initr_secondary_cpu
                0x0000000017813b58       0x10 common/built-in.o
 .text.board_init_r
                0x0000000017813b68       0x20 common/built-in.o
                0x0000000017813b68                board_init_r
 .text.show_board_info
                0x0000000017813b88       0x38 common/built-in.o
                0x0000000017813b88                show_board_info
 .text.bootm_find_images
                0x0000000017813bc0       0xa8 common/built-in.o
                0x0000000017813bc0                bootm_find_images
 .text.bootm_decomp_image
                0x0000000017813c68      0x140 common/built-in.o
                0x0000000017813c68                bootm_decomp_image
 .text.bootm_disable_interrupts
                0x0000000017813da8       0x18 common/built-in.o
                0x0000000017813da8                bootm_disable_interrupts
 .text.do_bootm_states
                0x0000000017813dc0      0x7a4 common/built-in.o
                0x0000000017813dc0                do_bootm_states
 .text.copy_args
                0x0000000017814564       0x50 common/built-in.o
 .text.do_bootm_rtems
                0x00000000178145b4       0x40 common/built-in.o
 .text.do_bootm_plan9
                0x00000000178145f4       0xa4 common/built-in.o
 .text.do_bootm_standalone
                0x0000000017814698       0x64 common/built-in.o
 .text.do_bootm_qnxelf
                0x00000000178146fc       0x78 common/built-in.o
 .text.do_bootm_netbsd
                0x0000000017814774       0xf8 common/built-in.o
 .text.do_bootvx_fdt
                0x000000001781486c      0x118 common/built-in.o
                0x000000001781486c                do_bootvx_fdt
 .text.do_bootm_vxworks
                0x0000000017814984       0x24 common/built-in.o
 .text.boot_selected_os
                0x00000000178149a8       0x58 common/built-in.o
                0x00000000178149a8                boot_selected_os
 .text.bootm_os_get_boot_func
                0x0000000017814a00       0x10 common/built-in.o
                0x0000000017814a00                bootm_os_get_boot_func
 .text.of_bus_default_map
                0x0000000017814a10       0xdc common/built-in.o
 .text.fdt_support_default_count_cells
                0x0000000017814aec       0x58 common/built-in.o
                0x0000000017814aec                fdt_support_default_count_cells
 .text.of_bus_default_translate
                0x0000000017814b44       0xa8 common/built-in.o
 .text.fdt_find_and_setprop
                0x0000000017814bec       0x70 common/built-in.o
                0x0000000017814bec                fdt_find_and_setprop
 .text.fdt_find_or_add_subnode
                0x0000000017814c5c       0x60 common/built-in.o
                0x0000000017814c5c                fdt_find_or_add_subnode
 .text.fdt_root
                0x0000000017814cbc       0x90 common/built-in.o
                0x0000000017814cbc                fdt_root
 .text.fdt_initrd
                0x0000000017814d4c      0x1c8 common/built-in.o
                0x0000000017814d4c                fdt_initrd
 .text.fdt_chosen
                0x0000000017814f14       0xa8 common/built-in.o
                0x0000000017814f14                fdt_chosen
 .text.do_fixup_by_path
                0x0000000017814fbc       0x54 common/built-in.o
                0x0000000017814fbc                do_fixup_by_path
 .text.fdt_fixup_memory_banks
                0x0000000017815010      0x210 common/built-in.o
                0x0000000017815010                fdt_fixup_memory_banks
 .text.fdt_fixup_memory
                0x0000000017815220       0x20 common/built-in.o
                0x0000000017815220                fdt_fixup_memory
 .text.fdt_fixup_ethernet
                0x0000000017815240      0x1b0 common/built-in.o
                0x0000000017815240                fdt_fixup_ethernet
 .text.fdt_shrink_to_minimum
                0x00000000178153f0       0xd0 common/built-in.o
                0x00000000178153f0                fdt_shrink_to_minimum
 .text.fdt_translate_address
                0x00000000178154c0      0x298 common/built-in.o
                0x00000000178154c0                fdt_translate_address
 .text.miiphy_get_dev_by_name
                0x0000000017815758       0x58 common/built-in.o
                0x0000000017815758                miiphy_get_dev_by_name
 .text.miiphy_init
                0x00000000178157b0       0x24 common/built-in.o
                0x00000000178157b0                miiphy_init
 .text.mdio_alloc
                0x00000000178157d4       0x30 common/built-in.o
                0x00000000178157d4                mdio_alloc
 .text.mdio_free
                0x0000000017815804        0x4 common/built-in.o
                0x0000000017815804                mdio_free
 .text.mdio_register
                0x0000000017815808       0x88 common/built-in.o
                0x0000000017815808                mdio_register
 .text.mdio_unregister
                0x0000000017815890       0x3c common/built-in.o
                0x0000000017815890                mdio_unregister
 .text.mdio_list_devices
                0x00000000178158cc       0xb0 common/built-in.o
                0x00000000178158cc                mdio_list_devices
 .text.miiphy_set_current_dev
                0x000000001781597c       0x40 common/built-in.o
                0x000000001781597c                miiphy_set_current_dev
 .text.miiphy_get_active_dev
                0x00000000178159bc       0x54 common/built-in.o
 .text.mdio_get_current_dev
                0x0000000017815a10       0x10 common/built-in.o
                0x0000000017815a10                mdio_get_current_dev
 .text.mdio_phydev_for_ethname
                0x0000000017815a20       0x8c common/built-in.o
                0x0000000017815a20                mdio_phydev_for_ethname
 .text.miiphy_get_current_dev
                0x0000000017815aac       0x18 common/built-in.o
                0x0000000017815aac                miiphy_get_current_dev
 .text.miiphy_read
                0x0000000017815ac4       0x4c common/built-in.o
                0x0000000017815ac4                miiphy_read
 .text.miiphy_write
                0x0000000017815b10       0x40 common/built-in.o
                0x0000000017815b10                miiphy_write
 .text.miiphy_listdev
                0x0000000017815b50       0x78 common/built-in.o
                0x0000000017815b50                miiphy_listdev
 .text.miiphy_info
                0x0000000017815bc8       0x88 common/built-in.o
                0x0000000017815bc8                miiphy_info
 .text.miiphy_speed
                0x0000000017815c50       0xc4 common/built-in.o
                0x0000000017815c50                miiphy_speed
 .text.miiphy_duplex
                0x0000000017815d14       0xbc common/built-in.o
                0x0000000017815d14                miiphy_duplex
 .text.miiphy_is_1000base_x
                0x0000000017815dd0        0x8 common/built-in.o
                0x0000000017815dd0                miiphy_is_1000base_x
 .text.usb_set_maxpacket_ep
                0x0000000017815dd8       0x78 common/built-in.o
 .text.usb_control_msg
                0x0000000017815e50       0x9c common/built-in.o
                0x0000000017815e50                usb_control_msg
 .text.usb_get_descriptor
                0x0000000017815eec       0x58 common/built-in.o
 .text.get_descriptor_len
                0x0000000017815f44       0x90 common/built-in.o
 .text.usb_setup_descriptor
                0x0000000017815fd4       0xd8 common/built-in.o
 .text.usb_get_string
                0x00000000178160ac       0x74 common/built-in.o
 .text.usb_string_sub
                0x0000000017816120      0x104 common/built-in.o
 .text.usb_bulk_msg
                0x0000000017816224       0x70 common/built-in.o
                0x0000000017816224                usb_bulk_msg
 .text.usb_maxpacket
                0x0000000017816294       0x1c common/built-in.o
                0x0000000017816294                usb_maxpacket
 .text.usb_clear_halt
                0x00000000178162b0       0x90 common/built-in.o
                0x00000000178162b0                usb_clear_halt
 .text.usb_get_configuration_len
                0x0000000017816340       0x74 common/built-in.o
                0x0000000017816340                usb_get_configuration_len
 .text.usb_get_configuration_no
                0x00000000178163b4       0x34 common/built-in.o
                0x00000000178163b4                usb_get_configuration_no
 .text.usb_set_interface
                0x00000000178163e8       0xb4 common/built-in.o
                0x00000000178163e8                usb_set_interface
 .text.usb_string
                0x000000001781649c      0x100 common/built-in.o
                0x000000001781649c                usb_string
 .text.usb_select_config
                0x000000001781659c      0x474 common/built-in.o
                0x000000001781659c                usb_select_config
 .text.usb_setup_device
                0x0000000017816a10      0x100 common/built-in.o
                0x0000000017816a10                usb_setup_device
 .text.board_usb_init
                0x0000000017816b10        0x8 common/built-in.o
                0x0000000017816b10                board_usb_init
 .text.board_usb_cleanup
                0x0000000017816b18        0x8 common/built-in.o
                0x0000000017816b18                board_usb_cleanup
 .text.usb_device_has_child_on_port
                0x0000000017816b20        0x8 common/built-in.o
                0x0000000017816b20                usb_device_has_child_on_port
 .text.usb_find_usb2_hub_address_port
                0x0000000017816b28       0x74 common/built-in.o
                0x0000000017816b28                usb_find_usb2_hub_address_port
 .text.usb_set_port_feature
                0x0000000017816b9c       0x4c common/built-in.o
 .text.usb_clear_port_feature
                0x0000000017816be8       0x4c common/built-in.o
 .text.usb_get_hub_descriptor
                0x0000000017816c34       0x5c common/built-in.o
 .text.usb_hub_reset_devices
                0x0000000017816c90        0x4 common/built-in.o
                0x0000000017816c90                usb_hub_reset_devices
 .text.usb_hub_is_root_hub
                0x0000000017816c94       0x18 common/built-in.o
                0x0000000017816c94                usb_hub_is_root_hub
 .text.usb_get_port_status
                0x0000000017816cac       0xac common/built-in.o
                0x0000000017816cac                usb_get_port_status
 .text.usb_hub_port_connect_change
                0x0000000017816d58      0x170 common/built-in.o
                0x0000000017816d58                usb_hub_port_connect_change
 .text.usb_hub_configure
                0x0000000017816ec8      0x5c4 common/built-in.o
 .text.usb_hub_scan
                0x000000001781748c       0x10 common/built-in.o
                0x000000001781748c                usb_hub_scan
 .text.usb_hub_post_probe
                0x000000001781749c        0x4 common/built-in.o
 .text.usb_stor_irq
                0x00000000178174a0       0x1c common/built-in.o
 .text.usb_stor_BBB_reset
                0x00000000178174bc      0x108 common/built-in.o
 .text.usb_stor_CB_reset
                0x00000000178175c4       0xe4 common/built-in.o
 .text.usb_stor_BBB_clear_endpt_stall.isra.0
                0x00000000178176a8       0x40 common/built-in.o
 .text.usb_stor_BBB_transport
                0x00000000178176e8      0x270 common/built-in.o
 .text.usb_stor_CB_comdat
                0x0000000017817958      0x218 common/built-in.o
 .text.usb_stor_CBI_get_status.isra.2
                0x0000000017817b70       0xd4 common/built-in.o
 .text.usb_stor_CB_transport
                0x0000000017817c44      0x228 common/built-in.o
 .text.usb_request_sense.constprop.11
                0x0000000017817e6c       0x70 common/built-in.o
 .text.usb_stor_read
                0x0000000017817edc      0x164 common/built-in.o
 .text.usb_stor_write
                0x0000000017818040      0x164 common/built-in.o
 .text.usb_stor_info
                0x00000000178181a4       0x74 common/built-in.o
                0x00000000178181a4                usb_stor_info
 .text.usb_stor_reset
                0x0000000017818218       0x14 common/built-in.o
                0x0000000017818218                usb_stor_reset
 .text.usb_stor_scan
                0x000000001781822c       0x48 common/built-in.o
                0x000000001781822c                usb_stor_scan
 .text.usb_storage_probe
                0x0000000017818274      0x24c common/built-in.o
                0x0000000017818274                usb_storage_probe
 .text.usb_stor_get_info
                0x00000000178184c0      0x324 common/built-in.o
                0x00000000178184c0                usb_stor_get_info
 .text.usb_mass_storage_probe
                0x00000000178187e4      0x178 common/built-in.o
 .text.splash_screen_prepare
                0x000000001781895c        0x8 common/built-in.o
                0x000000001781895c                splash_screen_prepare
 .text.splash_get_pos
                0x0000000017818964       0x88 common/built-in.o
                0x0000000017818964                splash_get_pos
 .text.delete_char.part.0
                0x00000000178189ec       0xd4 common/built-in.o
 .text.cread_add_char
                0x0000000017818ac0       0xe8 common/built-in.o
 .text.cli_readline_into_buffer
                0x0000000017818ba8      0xa1c common/built-in.o
                0x0000000017818ba8                cli_readline_into_buffer
 .text.cli_readline
                0x00000000178195c4       0x14 common/built-in.o
                0x00000000178195c4                cli_readline
 .text.console_setfile
                0x00000000178195d8       0xbc common/built-in.o
 .text.serial_printf
                0x0000000017819694       0x44 common/built-in.o
                0x0000000017819694                serial_printf
 .text.putc     0x00000000178196d8       0x34 common/built-in.o
                0x00000000178196d8                putc
 .text.puts     0x000000001781970c       0x34 common/built-in.o
                0x000000001781970c                puts
 .text.fgetc    0x0000000017819740       0x24 common/built-in.o
                0x0000000017819740                fgetc
 .text.getc     0x0000000017819764       0x24 common/built-in.o
                0x0000000017819764                getc
 .text.ftstc    0x0000000017819788       0x24 common/built-in.o
                0x0000000017819788                ftstc
 .text.tstc     0x00000000178197ac       0x24 common/built-in.o
                0x00000000178197ac                tstc
 .text.fputs    0x00000000178197d0       0x1c common/built-in.o
                0x00000000178197d0                fputs
 .text.ctrlc    0x00000000178197ec       0x58 common/built-in.o
                0x00000000178197ec                ctrlc
 .text.confirm_yesno
                0x0000000017819844       0xcc common/built-in.o
                0x0000000017819844                confirm_yesno
 .text.disable_ctrlc
                0x0000000017819910       0x18 common/built-in.o
                0x0000000017819910                disable_ctrlc
 .text.had_ctrlc
                0x0000000017819928       0x10 common/built-in.o
                0x0000000017819928                had_ctrlc
 .text.clear_ctrlc
                0x0000000017819938       0x14 common/built-in.o
                0x0000000017819938                clear_ctrlc
 .text.search_device
                0x000000001781994c       0x28 common/built-in.o
                0x000000001781994c                search_device
 .text.console_assign
                0x0000000017819974       0x40 common/built-in.o
                0x0000000017819974                console_assign
 .text.on_console
                0x00000000178199b4       0xb8 common/built-in.o
 .text.console_init_f
                0x0000000017819a6c       0x10 common/built-in.o
                0x0000000017819a6c                console_init_f
 .text.stdio_print_current_devices
                0x0000000017819a7c       0xb0 common/built-in.o
                0x0000000017819a7c                stdio_print_current_devices
 .text.console_init_r
                0x0000000017819b2c      0x190 common/built-in.o
                0x0000000017819b2c                console_init_r
 .text.sbrk     0x0000000017819cbc       0x6c common/built-in.o
                0x0000000017819cbc                sbrk
 .text.mem_malloc_init
                0x0000000017819d28       0x34 common/built-in.o
                0x0000000017819d28                mem_malloc_init
 .text.malloc_trim
                0x0000000017819d5c       0xd0 common/built-in.o
                0x0000000017819d5c                malloc_trim
 .text.free     0x0000000017819e2c      0x240 common/built-in.o
                0x0000000017819e2c                free
 .text.malloc   0x000000001781a06c      0x610 common/built-in.o
                0x000000001781a06c                malloc
 .text.calloc   0x000000001781a67c      0x140 common/built-in.o
                0x000000001781a67c                calloc
 .text.realloc  0x000000001781a7bc      0x43c common/built-in.o
                0x000000001781a7bc                realloc
 .text.memalign
                0x000000001781abf8      0x170 common/built-in.o
                0x000000001781abf8                memalign
 .text.initf_malloc
                0x000000001781ad68       0x18 common/built-in.o
                0x000000001781ad68                initf_malloc
 .text.malloc_simple
                0x000000001781ad80       0x30 common/built-in.o
                0x000000001781ad80                malloc_simple
 .text.on_loadaddr
                0x000000001781adb0       0x40 common/built-in.o
 .text.image_check_hcrc
                0x000000001781adf0       0x4c common/built-in.o
                0x000000001781adf0                image_check_hcrc
 .text.image_check_dcrc
                0x000000001781ae3c       0x38 common/built-in.o
                0x000000001781ae3c                image_check_dcrc
 .text.image_multi_count
                0x000000001781ae74       0x20 common/built-in.o
                0x000000001781ae74                image_multi_count
 .text.image_multi_getimg
                0x000000001781ae94       0x80 common/built-in.o
                0x000000001781ae94                image_multi_getimg
 .text.env_get_bootm_low
                0x000000001781af14       0x30 common/built-in.o
                0x000000001781af14                env_get_bootm_low
 .text.env_get_bootm_size
                0x000000001781af44       0x68 common/built-in.o
                0x000000001781af44                env_get_bootm_size
 .text.env_get_bootm_mapsize
                0x000000001781afac       0x30 common/built-in.o
                0x000000001781afac                env_get_bootm_mapsize
 .text.memmove_wd
                0x000000001781afdc        0xc common/built-in.o
                0x000000001781afdc                memmove_wd
 .text.genimg_print_size
                0x000000001781afe8       0x30 common/built-in.o
                0x000000001781afe8                genimg_print_size
 .text.get_table_entry
                0x000000001781b018       0x24 common/built-in.o
                0x000000001781b018                get_table_entry
 .text.get_table_entry_name
                0x000000001781b03c       0x20 common/built-in.o
                0x000000001781b03c                get_table_entry_name
 .text.genimg_get_os_name
                0x000000001781b05c       0x18 common/built-in.o
                0x000000001781b05c                genimg_get_os_name
 .text.genimg_get_arch_name
                0x000000001781b074       0x18 common/built-in.o
                0x000000001781b074                genimg_get_arch_name
 .text.genimg_get_type_name
                0x000000001781b08c       0x18 common/built-in.o
                0x000000001781b08c                genimg_get_type_name
 .text.genimg_get_comp_name
                0x000000001781b0a4       0x18 common/built-in.o
                0x000000001781b0a4                genimg_get_comp_name
 .text.image_print_contents
                0x000000001781b0bc      0x1b0 common/built-in.o
                0x000000001781b0bc                image_print_contents
 .text.genimg_get_kernel_addr_fit
                0x000000001781b26c       0x24 common/built-in.o
                0x000000001781b26c                genimg_get_kernel_addr_fit
 .text.genimg_get_format
                0x000000001781b290       0x50 common/built-in.o
                0x000000001781b290                genimg_get_format
 .text.genimg_has_config
                0x000000001781b2e0        0x8 common/built-in.o
                0x000000001781b2e0                genimg_has_config
 .text.boot_get_ramdisk
                0x000000001781b2e8      0x2bc common/built-in.o
                0x000000001781b2e8                boot_get_ramdisk
 .text.boot_ramdisk_high
                0x000000001781b5a4      0x140 common/built-in.o
                0x000000001781b5a4                boot_ramdisk_high
 .text.boot_get_setup
                0x000000001781b6e4        0x8 common/built-in.o
                0x000000001781b6e4                boot_get_setup
 .text.image_setup_linux
                0x000000001781b6ec       0x64 common/built-in.o
                0x000000001781b6ec                image_setup_linux
 .text.android_image_get_kernel
                0x000000001781b750      0x610 common/built-in.o
                0x000000001781b750                android_image_get_kernel
 .text.android_image_check_header
                0x000000001781bd60       0x14 common/built-in.o
                0x000000001781bd60                android_image_check_header
 .text.android_image_get_end
                0x000000001781bd74       0xb0 common/built-in.o
                0x000000001781bd74                android_image_get_end
 .text.android_image_get_kload
                0x000000001781be24       0x50 common/built-in.o
                0x000000001781be24                android_image_get_kload
 .text.android_image_get_ramdisk
                0x000000001781be74       0xf0 common/built-in.o
                0x000000001781be74                android_image_get_ramdisk
 .text.android_image_get_second
                0x000000001781bf64       0xf4 common/built-in.o
                0x000000001781bf64                android_image_get_second
 .text.android_print_contents
                0x000000001781c058      0x210 common/built-in.o
                0x000000001781c058                android_print_contents
 .text.fdt_error
                0x000000001781c268       0x2c common/built-in.o
 .text.boot_fdt_add_mem_rsv_regions
                0x000000001781c294       0x8c common/built-in.o
                0x000000001781c294                boot_fdt_add_mem_rsv_regions
 .text.boot_relocate_fdt
                0x000000001781c320      0x194 common/built-in.o
                0x000000001781c320                boot_relocate_fdt
 .text.boot_get_fdt
                0x000000001781c4b4      0x2b4 common/built-in.o
                0x000000001781c4b4                boot_get_fdt
 .text.ft_verify_fdt
                0x000000001781c768        0x8 common/built-in.o
                0x000000001781c768                ft_verify_fdt
 .text.image_setup_libfdt
                0x000000001781c770      0x110 common/built-in.o
                0x000000001781c770                image_setup_libfdt
 .text.get_effective_memsize
                0x000000001781c880        0x8 common/built-in.o
                0x000000001781c880                get_effective_memsize
 .text.nulldev_putc
                0x000000001781c888        0x4 common/built-in.o
 .text.nulldev_puts
                0x000000001781c88c        0x4 common/built-in.o
 .text.nulldev_input
                0x000000001781c890        0x8 common/built-in.o
 .text.stdio_serial_tstc
                0x000000001781c898        0x4 common/built-in.o
 .text.stdio_serial_getc
                0x000000001781c89c        0x4 common/built-in.o
 .text.stdio_serial_puts
                0x000000001781c8a0        0x8 common/built-in.o
 .text.stdio_serial_putc
                0x000000001781c8a8        0x8 common/built-in.o
 .text.stdio_get_list
                0x000000001781c8b0        0xc common/built-in.o
                0x000000001781c8b0                stdio_get_list
 .text.stdio_get_by_name
                0x000000001781c8bc       0x4c common/built-in.o
                0x000000001781c8bc                stdio_get_by_name
 .text.stdio_clone
                0x000000001781c908       0x38 common/built-in.o
                0x000000001781c908                stdio_clone
 .text.stdio_register_dev
                0x000000001781c940       0x50 common/built-in.o
                0x000000001781c940                stdio_register_dev
 .text.stdio_register
                0x000000001781c990        0x8 common/built-in.o
                0x000000001781c990                stdio_register
 .text.stdio_init_tables
                0x000000001781c998       0x1c common/built-in.o
                0x000000001781c998                stdio_init_tables
 .text.stdio_add_devices
                0x000000001781c9b4       0xd0 common/built-in.o
                0x000000001781c9b4                stdio_add_devices
 .text.write_sparse_image
                0x000000001781ca84      0x40c common/built-in.o
                0x000000001781ca84                write_sparse_image
 .text.run_command
                0x000000001781ce90       0x10 common/built-in.o
                0x000000001781ce90                run_command
 .text.run_command_list
                0x000000001781cea0       0x7c common/built-in.o
                0x000000001781cea0                run_command_list
 .text.do_run   0x000000001781cf1c       0x74 common/built-in.o
                0x000000001781cf1c                do_run
 .text.cli_process_fdt
                0x000000001781cf90       0x40 common/built-in.o
                0x000000001781cf90                cli_process_fdt
 .text.cli_secure_boot_cmd
                0x000000001781cfd0       0x78 common/built-in.o
                0x000000001781cfd0                cli_secure_boot_cmd
 .text.cli_loop
                0x000000001781d048        0xc common/built-in.o
                0x000000001781d048                cli_loop
 .text.cli_init
                0x000000001781d054        0x4 common/built-in.o
                0x000000001781d054                cli_init
 .text.run_usb_dnl_gadget
                0x000000001781d058      0x11c common/built-in.o
                0x000000001781d058                run_usb_dnl_gadget
 .text.find_cmd_tbl
                0x000000001781d174       0xa0 common/built-in.o
                0x000000001781d174                find_cmd_tbl
 .text.find_cmd
                0x000000001781d214       0x28 common/built-in.o
                0x000000001781d214                find_cmd
 .text.cmd_usage
                0x000000001781d23c       0x5c common/built-in.o
                0x000000001781d23c                cmd_usage
 .text._do_help
                0x000000001781d298      0x188 common/built-in.o
                0x000000001781d298                _do_help
 .text.var_complete
                0x000000001781d420       0x94 common/built-in.o
                0x000000001781d420                var_complete
 .text.cmd_auto_complete
                0x000000001781d4b4      0x4cc common/built-in.o
                0x000000001781d4b4                cmd_auto_complete
 .text.cmd_get_data_size
                0x000000001781d980       0x50 common/built-in.o
                0x000000001781d980                cmd_get_data_size
 .text.cmd_process
                0x000000001781d9d0       0xec common/built-in.o
                0x000000001781d9d0                cmd_process
 .text.cmd_process_error
                0x000000001781dabc       0x30 common/built-in.o
                0x000000001781dabc                cmd_process_error
 .text.hex1_bin
                0x000000001781daec       0x40 common/built-in.o
 .text.hex2_bin
                0x000000001781db2c       0x38 common/built-in.o
 .text.srec_decode
                0x000000001781db64      0x24c common/built-in.o
                0x000000001781db64                srec_decode
 .text.CYGACC_COMM_IF_GETC_TIMEOUT.isra.0
                0x000000001781ddb0       0x4c common/built-in.o
 .text.xyzModem_flush
                0x000000001781ddfc       0x1c common/built-in.o
 .text.xyzModem_get_hdr
                0x000000001781de18      0x220 common/built-in.o
 .text.xyzModem_stream_open
                0x000000001781e038      0x228 common/built-in.o
                0x000000001781e038                xyzModem_stream_open
 .text.xyzModem_stream_read
                0x000000001781e260      0x24c common/built-in.o
                0x000000001781e260                xyzModem_stream_read
 .text.xyzModem_stream_close
                0x000000001781e4ac       0x54 common/built-in.o
                0x000000001781e4ac                xyzModem_stream_close
 .text.xyzModem_stream_terminate
                0x000000001781e500       0x94 common/built-in.o
                0x000000001781e500                xyzModem_stream_terminate
 .text.xyzModem_error
                0x000000001781e594       0x20 common/built-in.o
                0x000000001781e594                xyzModem_error
 .text.blk_get_dev
                0x000000001781e5b4       0x30 disk/built-in.o
                0x000000001781e5b4                blk_get_dev
 .text.dev_print
                0x000000001781e5e4      0x220 disk/built-in.o
                0x000000001781e5e4                dev_print
 .text.part_init
                0x000000001781e804       0x54 disk/built-in.o
                0x000000001781e804                part_init
 .text.part_print
                0x000000001781e858      0x138 disk/built-in.o
                0x000000001781e858                part_print
 .text.part_get_info
                0x000000001781e990       0x6c disk/built-in.o
                0x000000001781e990                part_get_info
 .text.part_get_info_whole_disk
                0x000000001781e9fc       0x50 disk/built-in.o
                0x000000001781e9fc                part_get_info_whole_disk
 .text.blk_get_device_by_str
                0x000000001781ea4c      0x154 disk/built-in.o
                0x000000001781ea4c                blk_get_device_by_str
 .text.blk_get_device_part_str
                0x000000001781eba0      0x3cc disk/built-in.o
                0x000000001781eba0                blk_get_device_part_str
 .text.part_set_generic_name
                0x000000001781ef6c       0x4c disk/built-in.o
                0x000000001781ef6c                part_set_generic_name
 .text.test_block_type
                0x000000001781efb8       0x84 disk/built-in.o
 .text.print_partition_extended
                0x000000001781f03c      0x270 disk/built-in.o
 .text.part_print_dos
                0x000000001781f2ac       0x34 disk/built-in.o
                0x000000001781f2ac                part_print_dos
 .text.part_test_dos
                0x000000001781f2e0       0x6c disk/built-in.o
 .text.part_get_info_extended
                0x000000001781f34c      0x2d0 disk/built-in.o
 .text.part_get_info_dos
                0x000000001781f61c       0x24 disk/built-in.o
                0x000000001781f61c                part_get_info_dos
 .text.print_efiname
                0x000000001781f640       0x88 disk/built-in.o
 .text.part_test_efi
                0x000000001781f6c8       0xcc disk/built-in.o
 *fill*         0x000000001781f794        0x4 
 .text.validate_gpt_header
                0x000000001781f798      0x228 disk/built-in.o
 .text.is_gpt_valid
                0x000000001781f9c0      0x2e0 disk/built-in.o
 .text.is_pte_valid
                0x000000001781fca0       0x58 disk/built-in.o
 .text.part_print_efi
                0x000000001781fcf8      0x284 disk/built-in.o
                0x000000001781fcf8                part_print_efi
 .text.part_get_info_efi
                0x000000001781ff7c      0x1d4 disk/built-in.o
                0x000000001781ff7c                part_get_info_efi
 .text.is_valid_gpt_buf
                0x0000000017820150       0xc0 disk/built-in.o
                0x0000000017820150                is_valid_gpt_buf
 .text.write_backup_gpt_partitions
                0x0000000017820210      0x2f4 disk/built-in.o
                0x0000000017820210                write_backup_gpt_partitions
 .text.device_bind_common.isra.0
                0x0000000017820504      0x364 drivers/built-in.o
 .text.alloc_priv
                0x0000000017820868       0x54 drivers/built-in.o
 .text.device_bind_with_driver_data
                0x00000000178208bc       0x24 drivers/built-in.o
                0x00000000178208bc                device_bind_with_driver_data
 .text.device_bind
                0x00000000178208e0       0x28 drivers/built-in.o
                0x00000000178208e0                device_bind
 .text.device_bind_by_name
                0x0000000017820908       0x6c drivers/built-in.o
                0x0000000017820908                device_bind_by_name
 .text.device_probe
                0x0000000017820974      0x280 drivers/built-in.o
                0x0000000017820974                device_probe
 .text.dev_get_platdata
                0x0000000017820bf4       0x30 drivers/built-in.o
                0x0000000017820bf4                dev_get_platdata
 .text.dev_get_parent_platdata
                0x0000000017820c24       0x30 drivers/built-in.o
                0x0000000017820c24                dev_get_parent_platdata
 .text.dev_get_uclass_platdata
                0x0000000017820c54       0x30 drivers/built-in.o
                0x0000000017820c54                dev_get_uclass_platdata
 .text.dev_get_priv
                0x0000000017820c84       0x30 drivers/built-in.o
                0x0000000017820c84                dev_get_priv
 .text.dev_get_uclass_priv
                0x0000000017820cb4       0x30 drivers/built-in.o
                0x0000000017820cb4                dev_get_uclass_priv
 .text.dev_get_parent_priv
                0x0000000017820ce4       0x30 drivers/built-in.o
                0x0000000017820ce4                dev_get_parent_priv
 .text.device_find_first_child
                0x0000000017820d14       0x1c drivers/built-in.o
                0x0000000017820d14                device_find_first_child
 .text.device_find_next_child
                0x0000000017820d30       0x28 drivers/built-in.o
                0x0000000017820d30                device_find_next_child
 .text.dev_get_parent
                0x0000000017820d58        0x8 drivers/built-in.o
                0x0000000017820d58                dev_get_parent
 .text.dev_get_driver_data
                0x0000000017820d60        0x8 drivers/built-in.o
                0x0000000017820d60                dev_get_driver_data
 .text.dev_get_driver_ops
                0x0000000017820d68       0x10 drivers/built-in.o
                0x0000000017820d68                dev_get_driver_ops
 .text.device_get_uclass_id
                0x0000000017820d78       0x10 drivers/built-in.o
                0x0000000017820d78                device_get_uclass_id
 .text.device_has_active_children
                0x0000000017820d88       0x40 drivers/built-in.o
                0x0000000017820d88                device_has_active_children
 .text.device_is_last_sibling
                0x0000000017820dc8       0x24 drivers/built-in.o
                0x0000000017820dc8                device_is_last_sibling
 .text.device_set_name_alloced
                0x0000000017820dec       0x10 drivers/built-in.o
                0x0000000017820dec                device_set_name_alloced
 .text.devfdt_get_addr_index
                0x0000000017820dfc       0xd4 drivers/built-in.o
                0x0000000017820dfc                devfdt_get_addr_index
 .text.devfdt_get_addr
                0x0000000017820ed0        0x8 drivers/built-in.o
                0x0000000017820ed0                devfdt_get_addr
 .text.lists_driver_lookup_name
                0x0000000017820ed8       0x48 drivers/built-in.o
                0x0000000017820ed8                lists_driver_lookup_name
 .text.lists_uclass_lookup
                0x0000000017820f20       0x38 drivers/built-in.o
                0x0000000017820f20                lists_uclass_lookup
 .text.lists_bind_drivers
                0x0000000017820f58       0x8c drivers/built-in.o
                0x0000000017820f58                lists_bind_drivers
 .text.device_bind_driver_to_node
                0x0000000017820fe4       0x48 drivers/built-in.o
                0x0000000017820fe4                device_bind_driver_to_node
 .text.device_bind_driver
                0x000000001782102c       0x18 drivers/built-in.o
                0x000000001782102c                device_bind_driver
 .text.lists_bind_fdt
                0x0000000017821044      0x180 drivers/built-in.o
                0x0000000017821044                lists_bind_fdt
 .text.dm_scan_fdt_node
                0x00000000178211c4       0xf8 drivers/built-in.o
 .text.dm_root  0x00000000178212bc       0x2c drivers/built-in.o
                0x00000000178212bc                dm_root
 .text.dm_get_translation_offset
                0x00000000178212e8       0x14 drivers/built-in.o
                0x00000000178212e8                dm_get_translation_offset
 .text.dm_init  0x00000000178212fc       0x60 drivers/built-in.o
                0x00000000178212fc                dm_init
 .text.dm_remove_devices_flags
                0x000000001782135c       0x1c drivers/built-in.o
                0x000000001782135c                dm_remove_devices_flags
 .text.dm_scan_platdata
                0x0000000017821378       0x2c drivers/built-in.o
                0x0000000017821378                dm_scan_platdata
 .text.dm_scan_fdt_dev
                0x00000000178213a4       0x28 drivers/built-in.o
                0x00000000178213a4                dm_scan_fdt_dev
 .text.dm_scan_fdt
                0x00000000178213cc       0x18 drivers/built-in.o
                0x00000000178213cc                dm_scan_fdt
 .text.dm_extended_scan_fdt
                0x00000000178213e4       0x48 drivers/built-in.o
                0x00000000178213e4                dm_extended_scan_fdt
 .text.dm_scan_other
                0x000000001782142c        0x8 drivers/built-in.o
                0x000000001782142c                dm_scan_other
 .text.dm_init_and_scan
                0x0000000017821434       0x48 drivers/built-in.o
                0x0000000017821434                dm_init_and_scan
 .text.uclass_find
                0x000000001782147c       0x4c drivers/built-in.o
                0x000000001782147c                uclass_find
 .text.uclass_get
                0x00000000178214c8      0x118 drivers/built-in.o
                0x00000000178214c8                uclass_get
 .text.uclass_find_device
                0x00000000178215e0       0x74 drivers/built-in.o
                0x00000000178215e0                uclass_find_device
 .text.uclass_find_first_device
                0x0000000017821654       0x3c drivers/built-in.o
                0x0000000017821654                uclass_find_first_device
 .text.uclass_find_next_device
                0x0000000017821690       0x2c drivers/built-in.o
                0x0000000017821690                uclass_find_next_device
 .text.uclass_find_device_by_name
                0x00000000178216bc       0x88 drivers/built-in.o
                0x00000000178216bc                uclass_find_device_by_name
 .text.uclass_find_device_by_seq
                0x0000000017821744       0x7c drivers/built-in.o
                0x0000000017821744                uclass_find_device_by_seq
 .text.uclass_find_device_by_of_offset
                0x00000000178217c0       0x68 drivers/built-in.o
                0x00000000178217c0                uclass_find_device_by_of_offset
 .text.uclass_find_device_by_ofnode
                0x0000000017821828       0x6c drivers/built-in.o
                0x0000000017821828                uclass_find_device_by_ofnode
 .text.uclass_get_device_tail
                0x0000000017821894       0x30 drivers/built-in.o
                0x0000000017821894                uclass_get_device_tail
 .text.uclass_get_device
                0x00000000178218c4       0x30 drivers/built-in.o
                0x00000000178218c4                uclass_get_device
 .text.uclass_get_device_by_name
                0x00000000178218f4       0x30 drivers/built-in.o
                0x00000000178218f4                uclass_get_device_by_name
 .text.uclass_get_device_by_seq
                0x0000000017821924       0x54 drivers/built-in.o
                0x0000000017821924                uclass_get_device_by_seq
 .text.uclass_get_device_by_of_offset
                0x0000000017821978       0x30 drivers/built-in.o
                0x0000000017821978                uclass_get_device_by_of_offset
 .text.uclass_get_device_by_ofnode
                0x00000000178219a8       0x30 drivers/built-in.o
                0x00000000178219a8                uclass_get_device_by_ofnode
 .text.uclass_get_device_by_phandle
                0x00000000178219d8       0xa4 drivers/built-in.o
                0x00000000178219d8                uclass_get_device_by_phandle
 .text.uclass_first_device
                0x0000000017821a7c       0x38 drivers/built-in.o
                0x0000000017821a7c                uclass_first_device
 .text.uclass_next_device
                0x0000000017821ab4       0x40 drivers/built-in.o
                0x0000000017821ab4                uclass_next_device
 .text.uclass_first_device_check
                0x0000000017821af4       0x34 drivers/built-in.o
                0x0000000017821af4                uclass_first_device_check
 .text.uclass_next_device_check
                0x0000000017821b28       0x2c drivers/built-in.o
                0x0000000017821b28                uclass_next_device_check
 .text.uclass_bind_device
                0x0000000017821b54       0x7c drivers/built-in.o
                0x0000000017821b54                uclass_bind_device
 .text.uclass_unbind_device
                0x0000000017821bd0       0x4c drivers/built-in.o
                0x0000000017821bd0                uclass_unbind_device
 .text.uclass_resolve_seq
                0x0000000017821c1c       0xb4 drivers/built-in.o
                0x0000000017821c1c                uclass_resolve_seq
 .text.uclass_pre_probe_device
                0x0000000017821cd0       0x64 drivers/built-in.o
                0x0000000017821cd0                uclass_pre_probe_device
 .text.uclass_post_probe_device
                0x0000000017821d34       0x20 drivers/built-in.o
                0x0000000017821d34                uclass_post_probe_device
 .text.uclass_pre_remove_device
                0x0000000017821d54       0x20 drivers/built-in.o
                0x0000000017821d54                uclass_pre_remove_device
 .text.dm_warn  0x0000000017821d74       0x28 drivers/built-in.o
                0x0000000017821d74                dm_warn
 .text.dm_fdt_pre_reloc
                0x0000000017821d9c       0x68 drivers/built-in.o
                0x0000000017821d9c                dm_fdt_pre_reloc
 .text.devm_kmalloc_release
                0x0000000017821e04        0x4 drivers/built-in.o
 .text.devm_kmalloc_match
                0x0000000017821e08       0x10 drivers/built-in.o
 .text.release_nodes
                0x0000000017821e18       0x74 drivers/built-in.o
 .text._devres_alloc
                0x0000000017821e8c       0x28 drivers/built-in.o
                0x0000000017821e8c                _devres_alloc
 .text.devres_free
                0x0000000017821eb4       0x4c drivers/built-in.o
                0x0000000017821eb4                devres_free
 .text.devres_add
                0x0000000017821f00       0x68 drivers/built-in.o
                0x0000000017821f00                devres_add
 .text.devres_find
                0x0000000017821f68       0x6c drivers/built-in.o
                0x0000000017821f68                devres_find
 .text.devres_remove
                0x0000000017821fd4       0x30 drivers/built-in.o
                0x0000000017821fd4                devres_remove
 .text.devres_destroy
                0x0000000017822004       0x24 drivers/built-in.o
                0x0000000017822004                devres_destroy
 .text.devres_release_probe
                0x0000000017822028        0xc drivers/built-in.o
                0x0000000017822028                devres_release_probe
 .text.devres_release_all
                0x0000000017822034        0xc drivers/built-in.o
                0x0000000017822034                devres_release_all
 .text.devm_kmalloc
                0x0000000017822040       0x30 drivers/built-in.o
                0x0000000017822040                devm_kmalloc
 .text.devm_kfree
                0x0000000017822070       0x48 drivers/built-in.o
                0x0000000017822070                devm_kfree
 .text.device_unbind
                0x00000000178220b8      0x14c drivers/built-in.o
                0x00000000178220b8                device_unbind
 .text.device_free
                0x0000000017822204       0x98 drivers/built-in.o
                0x0000000017822204                device_free
 .text.device_remove
                0x000000001782229c      0x164 drivers/built-in.o
                0x000000001782229c                device_remove
 .text.simple_bus_post_bind
                0x0000000017822400       0x58 drivers/built-in.o
 .text.show_devices
                0x0000000017822458       0xf0 drivers/built-in.o
 .text.dm_dump_all
                0x0000000017822548       0x3c drivers/built-in.o
                0x0000000017822548                dm_dump_all
 .text.dm_dump_uclass
                0x0000000017822584       0xec drivers/built-in.o
                0x0000000017822584                dm_dump_uclass
 .text.ofnode_read_u32
                0x0000000017822670       0x54 drivers/built-in.o
                0x0000000017822670                ofnode_read_u32
 .text.ofnode_read_u32_default
                0x00000000178226c4       0x20 drivers/built-in.o
                0x00000000178226c4                ofnode_read_u32_default
 .text.ofnode_read_string
                0x00000000178226e4       0x54 drivers/built-in.o
                0x00000000178226e4                ofnode_read_string
 .text.ofnode_find_subnode
                0x0000000017822738       0x1c drivers/built-in.o
                0x0000000017822738                ofnode_find_subnode
 .text.ofnode_read_u32_array
                0x0000000017822754       0x28 drivers/built-in.o
                0x0000000017822754                ofnode_read_u32_array
 .text.ofnode_first_subnode
                0x000000001782277c       0x18 drivers/built-in.o
                0x000000001782277c                ofnode_first_subnode
 .text.ofnode_next_subnode
                0x0000000017822794       0x18 drivers/built-in.o
                0x0000000017822794                ofnode_next_subnode
 .text.ofnode_get_name
                0x00000000178227ac       0x14 drivers/built-in.o
                0x00000000178227ac                ofnode_get_name
 .text.ofnode_parse_phandle_with_args
                0x00000000178227c0       0x68 drivers/built-in.o
                0x00000000178227c0                ofnode_parse_phandle_with_args
 .text.ofnode_path
                0x0000000017822828       0x18 drivers/built-in.o
                0x0000000017822828                ofnode_path
 .text.ofnode_get_property
                0x0000000017822840       0x18 drivers/built-in.o
                0x0000000017822840                ofnode_get_property
 .text.ofnode_read_bool
                0x0000000017822858       0x18 drivers/built-in.o
                0x0000000017822858                ofnode_read_bool
 .text.ofnode_pre_reloc
                0x0000000017822870       0x50 drivers/built-in.o
                0x0000000017822870                ofnode_pre_reloc
 .text.pinconfig_post_bind
                0x00000000178228c0       0xc8 drivers/built-in.o
 .text.pinctrl_post_bind
                0x0000000017822988       0x30 drivers/built-in.o
 .text.pinctrl_select_state
                0x00000000178229b8      0x190 drivers/built-in.o
                0x00000000178229b8                pinctrl_select_state
 .text.imx_pinctrl_set_state
                0x0000000017822b48      0x31c drivers/built-in.o
 .text.imx_pinctrl_probe
                0x0000000017822e64      0x128 drivers/built-in.o
                0x0000000017822e64                imx_pinctrl_probe
 .text.imx_pinctrl_remove
                0x0000000017822f8c       0x10 drivers/built-in.o
                0x0000000017822f8c                imx_pinctrl_remove
 .text.imx6_pinctrl_probe
                0x0000000017822f9c       0x1c drivers/built-in.o
 .text.get_desc
                0x0000000017822fb8       0xac drivers/built-in.o
 .text.blk_get_if_type_name
                0x0000000017823064       0x10 drivers/built-in.o
                0x0000000017823064                blk_get_if_type_name
 .text.blk_get_devnum_by_typename
                0x0000000017823074       0xe8 drivers/built-in.o
                0x0000000017823074                blk_get_devnum_by_typename
 .text.blk_list_part
                0x000000001782315c       0x74 drivers/built-in.o
                0x000000001782315c                blk_list_part
 .text.blk_print_part_devnum
                0x00000000178231d0       0x38 drivers/built-in.o
                0x00000000178231d0                blk_print_part_devnum
 .text.blk_list_devices
                0x0000000017823208       0x68 drivers/built-in.o
                0x0000000017823208                blk_list_devices
 .text.blk_print_device_num
                0x0000000017823270       0x3c drivers/built-in.o
                0x0000000017823270                blk_print_device_num
 .text.blk_show_device
                0x00000000178232ac       0x78 drivers/built-in.o
                0x00000000178232ac                blk_show_device
 .text.blk_select_hwpart
                0x0000000017823324       0x30 drivers/built-in.o
                0x0000000017823324                blk_select_hwpart
 .text.blk_dselect_hwpart
                0x0000000017823354        0x8 drivers/built-in.o
                0x0000000017823354                blk_dselect_hwpart
 .text.blk_first_device
                0x000000001782335c       0x60 drivers/built-in.o
                0x000000001782335c                blk_first_device
 .text.blk_next_device
                0x00000000178233bc       0x50 drivers/built-in.o
                0x00000000178233bc                blk_next_device
 .text.blk_find_device
                0x000000001782340c       0x80 drivers/built-in.o
                0x000000001782340c                blk_find_device
 .text.blk_get_device
                0x000000001782348c       0x20 drivers/built-in.o
                0x000000001782348c                blk_get_device
 .text.blk_get_devnum_by_type
                0x00000000178234ac       0x28 drivers/built-in.o
                0x00000000178234ac                blk_get_devnum_by_type
 .text.blk_select_hwpart_devnum
                0x00000000178234d4       0x2c drivers/built-in.o
                0x00000000178234d4                blk_select_hwpart_devnum
 .text.blk_dread
                0x0000000017823500       0x30 drivers/built-in.o
                0x0000000017823500                blk_dread
 .text.blk_read_devnum
                0x0000000017823530       0x38 drivers/built-in.o
                0x0000000017823530                blk_read_devnum
 .text.blk_dwrite
                0x0000000017823568       0x30 drivers/built-in.o
                0x0000000017823568                blk_dwrite
 .text.blk_write_devnum
                0x0000000017823598       0x38 drivers/built-in.o
                0x0000000017823598                blk_write_devnum
 .text.blk_derase
                0x00000000178235d0       0x24 drivers/built-in.o
                0x00000000178235d0                blk_derase
 .text.blk_prepare_device
                0x00000000178235f4       0x14 drivers/built-in.o
                0x00000000178235f4                blk_prepare_device
 .text.blk_get_from_parent
                0x0000000017823608       0x4c drivers/built-in.o
                0x0000000017823608                blk_get_from_parent
 .text.blk_find_max_devnum
                0x0000000017823654       0x78 drivers/built-in.o
                0x0000000017823654                blk_find_max_devnum
 .text.blk_create_device
                0x00000000178236cc      0x15c drivers/built-in.o
                0x00000000178236cc                blk_create_device
 .text.blk_create_devicef
                0x0000000017823828       0xa0 drivers/built-in.o
                0x0000000017823828                blk_create_devicef
 .text.do_job   0x00000000178238c8       0xa0 drivers/built-in.o
 .text.jr_reset
                0x0000000017823968       0xa8 drivers/built-in.o
 .text.caam_open
                0x0000000017823a10      0x3cc drivers/built-in.o
                0x0000000017823a10                caam_open
 .text.finish_access
                0x0000000017823ddc       0x34 drivers/built-in.o
 .text.wait_busy
                0x0000000017823e10       0x2c drivers/built-in.o
 .text.prepare_access
                0x0000000017823e3c       0xd4 drivers/built-in.o
 .text.setup_direct_access
                0x0000000017823f10      0x12c drivers/built-in.o
 .text.fuse_bank_physical
                0x000000001782403c       0xfc drivers/built-in.o
                0x000000001782403c                fuse_bank_physical
 .text.fuse_word_physical
                0x0000000017824138       0x50 drivers/built-in.o
                0x0000000017824138                fuse_word_physical
 .text.fuse_read
                0x0000000017824188       0x84 drivers/built-in.o
                0x0000000017824188                fuse_read
 .text.fuse_sense
                0x000000001782420c       0xe4 drivers/built-in.o
                0x000000001782420c                fuse_sense
 .text.fuse_prog
                0x00000000178242f0       0x80 drivers/built-in.o
                0x00000000178242f0                fuse_prog
 .text.fuse_override
                0x0000000017824370       0x7c drivers/built-in.o
                0x0000000017824370                fuse_override
 .text.mmc_send_ext_csd
                0x00000000178243ec       0x4c drivers/built-in.o
 .text.mmc_send_op_cond_iter
                0x0000000017824438       0x78 drivers/built-in.o
 .text.mmc_go_idle
                0x00000000178244b0       0x4c drivers/built-in.o
 .text.mmc_set_capacity
                0x00000000178244fc       0xb0 drivers/built-in.o
 .text.mmc_read_and_compare_ext_csd
                0x00000000178245ac       0xa8 drivers/built-in.o
 .text.mmc_power_on.isra.3
                0x0000000017824654       0x30 drivers/built-in.o
 .text.mmc_mode_name
                0x0000000017824684       0x1c drivers/built-in.o
                0x0000000017824684                mmc_mode_name
 .text.mmc_send_status
                0x00000000178246a0       0xcc drivers/built-in.o
                0x00000000178246a0                mmc_send_status
 .text.__mmc_switch.isra.5
                0x000000001782476c       0x94 drivers/built-in.o
 .text.mmc_startup_v4
                0x0000000017824800      0x334 drivers/built-in.o
 .text.mmc_set_card_speed.constprop.12
                0x0000000017824b34       0xa8 drivers/built-in.o
 .text.mmc_set_blocklen
                0x0000000017824bdc       0x84 drivers/built-in.o
                0x0000000017824bdc                mmc_set_blocklen
 .text.mmc_bread
                0x0000000017824c60      0x168 drivers/built-in.o
                0x0000000017824c60                mmc_bread
 .text.mmc_switch
                0x0000000017824dc8       0x10 drivers/built-in.o
                0x0000000017824dc8                mmc_switch
 .text.mmc_switch_part
                0x0000000017824dd8       0x64 drivers/built-in.o
                0x0000000017824dd8                mmc_switch_part
 .text.mmc_hwpart_config
                0x0000000017824e3c      0x434 drivers/built-in.o
                0x0000000017824e3c                mmc_hwpart_config
 .text.sd_select_bus_width
                0x0000000017825270       0x94 drivers/built-in.o
                0x0000000017825270                sd_select_bus_width
 .text.mmc_set_clock
                0x0000000017825304       0x30 drivers/built-in.o
                0x0000000017825304                mmc_set_clock
 .text.mmc_startup
                0x0000000017825334      0xbbc drivers/built-in.o
 .text.mmc_dump_capabilities
                0x0000000017825ef0        0x4 drivers/built-in.o
                0x0000000017825ef0                mmc_dump_capabilities
 .text.mmc_start_init
                0x0000000017825ef4      0x2e4 drivers/built-in.o
                0x0000000017825ef4                mmc_start_init
 .text.mmc_init
                0x00000000178261d8      0x104 drivers/built-in.o
                0x00000000178261d8                mmc_init
 .text.mmc_set_dsr
                0x00000000178262dc        0xc drivers/built-in.o
                0x00000000178262dc                mmc_set_dsr
 .text.mmc_initialize
                0x00000000178262e8       0xd0 drivers/built-in.o
                0x00000000178262e8                mmc_initialize
 .text.mmc_blk_probe
                0x00000000178263b8       0x18 drivers/built-in.o
 .text.dm_mmc_set_ios
                0x00000000178263d0       0x20 drivers/built-in.o
                0x00000000178263d0                dm_mmc_set_ios
 .text.mmc_set_ios
                0x00000000178263f0        0x8 drivers/built-in.o
                0x00000000178263f0                mmc_set_ios
 .text.dm_mmc_send_init_stream
                0x00000000178263f8       0x18 drivers/built-in.o
                0x00000000178263f8                dm_mmc_send_init_stream
 .text.mmc_send_init_stream
                0x0000000017826410        0x8 drivers/built-in.o
                0x0000000017826410                mmc_send_init_stream
 .text.dm_mmc_get_wp
                0x0000000017826418       0x20 drivers/built-in.o
                0x0000000017826418                dm_mmc_get_wp
 .text.mmc_getwp
                0x0000000017826438        0x8 drivers/built-in.o
                0x0000000017826438                mmc_getwp
 .text.dm_mmc_get_cd
                0x0000000017826440       0x20 drivers/built-in.o
                0x0000000017826440                dm_mmc_get_cd
 .text.mmc_getcd
                0x0000000017826460        0x8 drivers/built-in.o
                0x0000000017826460                mmc_getcd
 .text.mmc_get_mmc_dev
                0x0000000017826468       0x24 drivers/built-in.o
                0x0000000017826468                mmc_get_mmc_dev
 .text.dm_mmc_send_cmd
                0x000000001782648c       0x44 drivers/built-in.o
                0x000000001782648c                dm_mmc_send_cmd
 .text.mmc_send_cmd
                0x00000000178264d0        0x8 drivers/built-in.o
                0x00000000178264d0                mmc_send_cmd
 .text.mmc_select_hwpart
                0x00000000178264d8       0x58 drivers/built-in.o
 .text.find_mmc_device
                0x0000000017826530       0x4c drivers/built-in.o
                0x0000000017826530                find_mmc_device
 .text.get_mmc_num
                0x000000001782657c       0x18 drivers/built-in.o
                0x000000001782657c                get_mmc_num
 .text.mmc_get_blk_desc
                0x0000000017826594       0x28 drivers/built-in.o
                0x0000000017826594                mmc_get_blk_desc
 .text.mmc_do_preinit
                0x00000000178265bc       0x68 drivers/built-in.o
                0x00000000178265bc                mmc_do_preinit
 .text.print_mmc_devices
                0x0000000017826624       0xe8 drivers/built-in.o
                0x0000000017826624                print_mmc_devices
 .text.mmc_bind
                0x000000001782670c       0xc4 drivers/built-in.o
                0x000000001782670c                mmc_bind
 .text.mmc_berase
                0x00000000178267d0      0x1b8 drivers/built-in.o
                0x00000000178267d0                mmc_berase
 .text.mmc_bwrite
                0x0000000017826988      0x190 drivers/built-in.o
                0x0000000017826988                mmc_bwrite
 .text.mmc_boot_partition_size_change
                0x0000000017826b18       0xc4 drivers/built-in.o
                0x0000000017826b18                mmc_boot_partition_size_change
 .text.mmc_set_boot_bus_width
                0x0000000017826bdc       0x18 drivers/built-in.o
                0x0000000017826bdc                mmc_set_boot_bus_width
 .text.mmc_set_part_conf
                0x0000000017826bf4       0x30 drivers/built-in.o
                0x0000000017826bf4                mmc_set_part_conf
 .text.mmc_set_rst_n_function
                0x0000000017826c24       0x10 drivers/built-in.o
                0x0000000017826c24                mmc_set_rst_n_function
 .text.fsl_esdhc_get_cd
                0x0000000017826c34       0x68 drivers/built-in.o
 .text.fsl_esdhc_set_ios
                0x0000000017826c9c      0x170 drivers/built-in.o
 .text.fsl_esdhc_bind
                0x0000000017826e0c       0x20 drivers/built-in.o
 .text.check_and_invalidate_dcache_range.isra.1
                0x0000000017826e2c       0x30 drivers/built-in.o
 .text.fsl_esdhc_send_cmd
                0x0000000017826e5c      0x44c drivers/built-in.o
 .text.init_clk_usdhc
                0x00000000178272a8        0x4 drivers/built-in.o
                0x00000000178272a8                init_clk_usdhc
 .text.fsl_esdhc_probe
                0x00000000178272ac      0x4a4 drivers/built-in.o
 .text.dfu_write_buffer_drain
                0x0000000017827750       0xa8 drivers/built-in.o
 .text.dfu_free_buf
                0x00000000178277f8       0x20 drivers/built-in.o
                0x00000000178277f8                dfu_free_buf
 .text.dfu_get_buf_size
                0x0000000017827818       0x10 drivers/built-in.o
                0x0000000017827818                dfu_get_buf_size
 .text.dfu_get_buf
                0x0000000017827828       0xb0 drivers/built-in.o
                0x0000000017827828                dfu_get_buf
 .text.dfu_transaction_cleanup
                0x00000000178278d8       0x4c drivers/built-in.o
                0x00000000178278d8                dfu_transaction_cleanup
 .text.dfu_transaction_initiate
                0x0000000017827924       0x84 drivers/built-in.o
                0x0000000017827924                dfu_transaction_initiate
 .text.dfu_flush
                0x00000000178279a8       0x64 drivers/built-in.o
                0x00000000178279a8                dfu_flush
 .text.dfu_write
                0x0000000017827a0c      0x100 drivers/built-in.o
                0x0000000017827a0c                dfu_write
 .text.dfu_read
                0x0000000017827b0c      0x1c4 drivers/built-in.o
                0x0000000017827b0c                dfu_read
 .text.dfu_free_entities
                0x0000000017827cd0       0x9c drivers/built-in.o
                0x0000000017827cd0                dfu_free_entities
 .text.dfu_config_entities
                0x0000000017827d6c      0x23c drivers/built-in.o
                0x0000000017827d6c                dfu_config_entities
 .text.dfu_init_env_entities
                0x0000000017827fa8       0x70 drivers/built-in.o
                0x0000000017827fa8                dfu_init_env_entities
 .text.dfu_get_dev_type
                0x0000000017828018       0x3c drivers/built-in.o
                0x0000000017828018                dfu_get_dev_type
 .text.dfu_get_layout
                0x0000000017828054       0x3c drivers/built-in.o
                0x0000000017828054                dfu_get_layout
 .text.dfu_show_entities
                0x0000000017828090       0x78 drivers/built-in.o
                0x0000000017828090                dfu_show_entities
 .text.dfu_get_alt_number
                0x0000000017828108       0x10 drivers/built-in.o
                0x0000000017828108                dfu_get_alt_number
 .text.dfu_get_entity
                0x0000000017828118       0x40 drivers/built-in.o
                0x0000000017828118                dfu_get_entity
 .text.mmc_block_op
                0x0000000017828158      0x1d4 drivers/built-in.o
 .text.mmc_file_op
                0x000000001782832c      0x1e8 drivers/built-in.o
 .text.dfu_free_entity_mmc
                0x0000000017828514       0x28 drivers/built-in.o
                0x0000000017828514                dfu_free_entity_mmc
 .text.dfu_write_medium_mmc
                0x000000001782853c       0xc8 drivers/built-in.o
                0x000000001782853c                dfu_write_medium_mmc
 .text.dfu_flush_medium_mmc
                0x0000000017828604       0x4c drivers/built-in.o
                0x0000000017828604                dfu_flush_medium_mmc
 .text.dfu_get_medium_size_mmc
                0x0000000017828650       0xac drivers/built-in.o
                0x0000000017828650                dfu_get_medium_size_mmc
 .text.dfu_read_medium_mmc
                0x00000000178286fc       0xe4 drivers/built-in.o
                0x00000000178286fc                dfu_read_medium_mmc
 .text.dfu_fill_entity_mmc
                0x00000000178287e0      0x2c0 drivers/built-in.o
                0x00000000178287e0                dfu_fill_entity_mmc
 .text.dfu_get_medium_size_sf
                0x0000000017828aa0       0x10 drivers/built-in.o
 .text.dfu_read_medium_sf
                0x0000000017828ab0       0x30 drivers/built-in.o
 .text.dfu_flush_medium_sf
                0x0000000017828ae0        0x8 drivers/built-in.o
 .text.dfu_polltimeout_sf
                0x0000000017828ae8        0x8 drivers/built-in.o
 .text.dfu_free_entity_sf
                0x0000000017828af0        0x8 drivers/built-in.o
 .text.dfu_write_medium_sf
                0x0000000017828af8       0x98 drivers/built-in.o
 .text.dfu_fill_entity_sf
                0x0000000017828b90      0x2f0 drivers/built-in.o
                0x0000000017828b90                dfu_fill_entity_sf
 .text.video_drawchars
                0x0000000017828e80      0x448 drivers/built-in.o
 .text.draw_bitmap
                0x00000000178292c8       0xdc drivers/built-in.o
 .text.console_newline.constprop.2
                0x00000000178293a4       0xe4 drivers/built-in.o
 .text.cfb_video_putc
                0x0000000017829488      0x194 drivers/built-in.o
 .text.cfb_video_puts
                0x000000001782961c       0x7c drivers/built-in.o
 .text.board_cfb_skip
                0x0000000017829698        0x8 drivers/built-in.o
                0x0000000017829698                board_cfb_skip
 .text.video_set_lut
                0x00000000178296a0        0x4 drivers/built-in.o
                0x00000000178296a0                video_set_lut
 .text.display_rle8_bitmap
                0x00000000178296a4      0x368 drivers/built-in.o
 .text.plot_logo_or_black
                0x0000000017829a0c      0x294 drivers/built-in.o
 .text.do_clrlogo
                0x0000000017829ca0       0x44 drivers/built-in.o
 .text.video_display_bitmap
                0x0000000017829ce4      0x988 drivers/built-in.o
                0x0000000017829ce4                video_display_bitmap
 .text.video_clear
                0x000000001782a66c       0x58 drivers/built-in.o
                0x000000001782a66c                video_clear
 .text.drv_video_init
                0x000000001782a6c4      0x428 drivers/built-in.o
                0x000000001782a6c4                drv_video_init
 .text.mxcfb_map_video_memory
                0x000000001782aaec       0x88 drivers/built-in.o
 .text.ipuv3_fb_shutdown
                0x000000001782ab74       0x6c drivers/built-in.o
                0x000000001782ab74                ipuv3_fb_shutdown
 .text.video_hw_init
                0x000000001782abe0      0x5d8 drivers/built-in.o
                0x000000001782abe0                video_hw_init
 .text.ipuv3_fb_init
                0x000000001782b1b8       0x2c drivers/built-in.o
                0x000000001782b1b8                ipuv3_fb_init
 .text.clk_ldb_clk_enable
                0x000000001782b1e4       0x20 drivers/built-in.o
 .text.clk_ipu_enable
                0x000000001782b204        0x4 drivers/built-in.o
 .text.clk_ldb_clk_disable
                0x000000001782b208       0x1c drivers/built-in.o
 .text.clk_ipu_disable
                0x000000001782b224        0x4 drivers/built-in.o
 .text.ipu_pixel_clk_enable
                0x000000001782b228       0x28 drivers/built-in.o
 .text.ipu_pixel_clk_disable
                0x000000001782b250       0x24 drivers/built-in.o
 .text.ipu_pixel_clk_round_rate
                0x000000001782b274      0x11c drivers/built-in.o
 .text.ipu_pixel_clk_set_rate
                0x000000001782b390      0x120 drivers/built-in.o
 .text.ipu_pixel_clk_recalc
                0x000000001782b4b0       0x7c drivers/built-in.o
 .text.ipu_pixel_clk_set_parent
                0x000000001782b52c       0x78 drivers/built-in.o
 .text.clk_enable
                0x000000001782b5a4       0x24 drivers/built-in.o
                0x000000001782b5a4                clk_enable
 .text.clk_disable
                0x000000001782b5c8       0x30 drivers/built-in.o
                0x000000001782b5c8                clk_disable
 .text.clk_get_usecount
                0x000000001782b5f8        0xc drivers/built-in.o
                0x000000001782b5f8                clk_get_usecount
 .text.clk_get_rate
                0x000000001782b604        0xc drivers/built-in.o
                0x000000001782b604                clk_get_rate
 .text.clk_get_parent
                0x000000001782b610        0xc drivers/built-in.o
                0x000000001782b610                clk_get_parent
 .text.clk_set_rate
                0x000000001782b61c       0x2c drivers/built-in.o
                0x000000001782b61c                clk_set_rate
 .text.clk_round_rate
                0x000000001782b648       0x20 drivers/built-in.o
                0x000000001782b648                clk_round_rate
 .text.clk_set_parent
                0x000000001782b668       0x1c drivers/built-in.o
                0x000000001782b668                clk_set_parent
 .text.ipu_probe
                0x000000001782b684      0x184 drivers/built-in.o
                0x000000001782b684                ipu_probe
 .text.ipu_dump_registers
                0x000000001782b808        0x4 drivers/built-in.o
                0x000000001782b808                ipu_dump_registers
 .text.ipu_init_channel
                0x000000001782b80c      0x1fc drivers/built-in.o
                0x000000001782b80c                ipu_init_channel
 .text.ipu_uninit_channel
                0x000000001782ba08      0x228 drivers/built-in.o
                0x000000001782ba08                ipu_uninit_channel
 .text.ipu_enable_channel
                0x000000001782bc30       0xe0 drivers/built-in.o
                0x000000001782bc30                ipu_enable_channel
 .text.ipu_clear_buffer_ready
                0x000000001782bd10       0x7c drivers/built-in.o
                0x000000001782bd10                ipu_clear_buffer_ready
 .text.ipu_disable_channel
                0x000000001782bd8c      0x198 drivers/built-in.o
                0x000000001782bd8c                ipu_disable_channel
 .text.bytes_per_pixel
                0x000000001782bf24       0xe4 drivers/built-in.o
                0x000000001782bf24                bytes_per_pixel
 .text.ipu_init_channel_buffer
                0x000000001782c008      0x5ac drivers/built-in.o
                0x000000001782c008                ipu_init_channel_buffer
 .text.format_to_colorspace
                0x000000001782c5b4       0xc0 drivers/built-in.o
                0x000000001782c5b4                format_to_colorspace
 .text.ipu_clk_enabled
                0x000000001782c674       0x18 drivers/built-in.o
                0x000000001782c674                ipu_clk_enabled
 .text.ipu_dc_map_config
                0x000000001782c68c       0x70 drivers/built-in.o
 .text.rgb_to_yuv
                0x000000001782c6fc       0x60 drivers/built-in.o
 .text.ipu_dc_link_event
                0x000000001782c75c      0x158 drivers/built-in.o
 .text.ipu_dp_csc_setup.isra.0
                0x000000001782c8b4      0x110 drivers/built-in.o
 .text.ipu_di_sync_config.constprop.3
                0x000000001782c9c4       0xe0 drivers/built-in.o
 .text.ipu_dmfc_init
                0x000000001782caa4      0x150 drivers/built-in.o
                0x000000001782caa4                ipu_dmfc_init
 .text.ipu_dmfc_set_wait4eot
                0x000000001782cbf4      0x128 drivers/built-in.o
                0x000000001782cbf4                ipu_dmfc_set_wait4eot
 .text.ipu_dp_init
                0x000000001782cd1c      0x1f4 drivers/built-in.o
                0x000000001782cd1c                ipu_dp_init
 .text.ipu_dp_uninit
                0x000000001782cf10       0x7c drivers/built-in.o
                0x000000001782cf10                ipu_dp_uninit
 .text.ipu_dc_init
                0x000000001782cf8c      0x2b4 drivers/built-in.o
                0x000000001782cf8c                ipu_dc_init
 .text.ipu_dc_uninit
                0x000000001782d240      0x1b8 drivers/built-in.o
                0x000000001782d240                ipu_dc_uninit
 .text.ipu_dp_dc_enable
                0x000000001782d3f8      0x22c drivers/built-in.o
                0x000000001782d3f8                ipu_dp_dc_enable
 .text.ipu_dp_dc_disable
                0x000000001782d624      0x348 drivers/built-in.o
                0x000000001782d624                ipu_dp_dc_disable
 .text.ipu_init_dc_mappings
                0x000000001782d96c      0x180 drivers/built-in.o
                0x000000001782d96c                ipu_init_dc_mappings
 .text.ipu_init_sync_panel
                0x000000001782daec      0x7b0 drivers/built-in.o
                0x000000001782daec                ipu_init_sync_panel
 .text.ipu_disp_set_global_alpha
                0x000000001782e29c       0xfc drivers/built-in.o
                0x000000001782e29c                ipu_disp_set_global_alpha
 .text.ipu_disp_set_color_key
                0x000000001782e398      0x1a8 drivers/built-in.o
                0x000000001782e398                ipu_disp_set_color_key
 .text.reset_cpu
                0x000000001782e540       0x38 drivers/built-in.o
                0x000000001782e540                reset_cpu
 .text.thermal_get_temp
                0x000000001782e578       0x20 drivers/built-in.o
                0x000000001782e578                thermal_get_temp
 .text.read_cpu_temperature
                0x000000001782e598      0x158 drivers/built-in.o
 .text.imx_thermal_get_temp
                0x000000001782e6f0       0x74 drivers/built-in.o
                0x000000001782e6f0                imx_thermal_get_temp
 .text.imx_thermal_probe
                0x000000001782e764       0xc0 drivers/built-in.o
 .text.get_function
                0x000000001782e824       0xac drivers/gpio/built-in.o
 .text.gpio_to_device
                0x000000001782e8d0       0x80 drivers/gpio/built-in.o
 .text.check_reserved
                0x000000001782e950       0x74 drivers/gpio/built-in.o
 .text.gpio_renumber
                0x000000001782e9c4       0x84 drivers/gpio/built-in.o
 .text.gpio_pre_remove
                0x000000001782ea48       0x50 drivers/gpio/built-in.o
 .text.gpio_post_probe
                0x000000001782ea98       0x38 drivers/gpio/built-in.o
 .text.dm_gpio_lookup_name
                0x000000001782ead0      0x108 drivers/gpio/built-in.o
                0x000000001782ead0                dm_gpio_lookup_name
 .text.gpio_lookup_name
                0x000000001782ebd8       0x70 drivers/gpio/built-in.o
                0x000000001782ebd8                gpio_lookup_name
 .text.gpio_xlate_offs_flags
                0x000000001782ec48       0x44 drivers/gpio/built-in.o
                0x000000001782ec48                gpio_xlate_offs_flags
 .text.dm_gpio_request
                0x000000001782ec8c       0x98 drivers/gpio/built-in.o
                0x000000001782ec8c                dm_gpio_request
 .text.dm_gpio_requestf
                0x000000001782ed24       0x44 drivers/gpio/built-in.o
 .text.gpio_request
                0x000000001782ed68       0x2c drivers/gpio/built-in.o
                0x000000001782ed68                gpio_request
 .text._dm_gpio_free
                0x000000001782ed94       0x74 drivers/gpio/built-in.o
                0x000000001782ed94                _dm_gpio_free
 .text.gpio_free
                0x000000001782ee08       0x28 drivers/gpio/built-in.o
                0x000000001782ee08                gpio_free
 .text.gpio_direction_input
                0x000000001782ee30       0x4c drivers/gpio/built-in.o
                0x000000001782ee30                gpio_direction_input
 .text.gpio_direction_output
                0x000000001782ee7c       0x54 drivers/gpio/built-in.o
                0x000000001782ee7c                gpio_direction_output
 .text.dm_gpio_get_value
                0x000000001782eed0       0x48 drivers/gpio/built-in.o
                0x000000001782eed0                dm_gpio_get_value
 .text.dm_gpio_set_value
                0x000000001782ef18       0x54 drivers/gpio/built-in.o
                0x000000001782ef18                dm_gpio_set_value
 .text.dm_gpio_set_dir_flags
                0x000000001782ef6c       0x98 drivers/gpio/built-in.o
                0x000000001782ef6c                dm_gpio_set_dir_flags
 .text.gpio_request_tail
                0x000000001782f004       0xe8 drivers/gpio/built-in.o
 .text.gpio_get_value
                0x000000001782f0ec       0x24 drivers/gpio/built-in.o
                0x000000001782f0ec                gpio_get_value
 .text.gpio_set_value
                0x000000001782f110       0x2c drivers/gpio/built-in.o
                0x000000001782f110                gpio_set_value
 .text.gpio_get_bank_info
                0x000000001782f13c       0x1c drivers/gpio/built-in.o
                0x000000001782f13c                gpio_get_bank_info
 .text.gpio_get_function
                0x000000001782f158        0xc drivers/gpio/built-in.o
                0x000000001782f158                gpio_get_function
 .text.gpio_get_raw_function
                0x000000001782f164        0xc drivers/gpio/built-in.o
                0x000000001782f164                gpio_get_raw_function
 .text.gpio_get_status
                0x000000001782f170      0x114 drivers/gpio/built-in.o
                0x000000001782f170                gpio_get_status
 .text.gpio_request_by_name_nodev
                0x000000001782f284       0x64 drivers/gpio/built-in.o
                0x000000001782f284                gpio_request_by_name_nodev
 .text.gpio_request_by_name
                0x000000001782f2e8       0x68 drivers/gpio/built-in.o
                0x000000001782f2e8                gpio_request_by_name
 .text.mxc_gpio_get_function
                0x000000001782f350       0x2c drivers/gpio/built-in.o
 .text.mxc_gpio_get_value
                0x000000001782f37c       0x24 drivers/gpio/built-in.o
 .text.mxc_gpio_direction_input
                0x000000001782f3a0       0x30 drivers/gpio/built-in.o
 .text.mxc_gpio_probe
                0x000000001782f3d0       0x74 drivers/gpio/built-in.o
 .text.mxc_gpio_bind
                0x000000001782f444       0x60 drivers/gpio/built-in.o
 .text.mxc_gpio_direction_output
                0x000000001782f4a4       0x58 drivers/gpio/built-in.o
 .text.mxc_gpio_set_value
                0x000000001782f4fc       0x3c drivers/gpio/built-in.o
 .text.i2c_setup_offset
                0x000000001782f538       0x5c drivers/i2c/built-in.o
 .text.dm_i2c_read
                0x000000001782f594      0x168 drivers/i2c/built-in.o
                0x000000001782f594                dm_i2c_read
 .text.dm_i2c_write
                0x000000001782f6fc      0x1d4 drivers/i2c/built-in.o
                0x000000001782f6fc                dm_i2c_write
 .text.i2c_get_chip
                0x000000001782f8d0       0xf0 drivers/i2c/built-in.o
                0x000000001782f8d0                i2c_get_chip
 .text.dm_i2c_probe
                0x000000001782f9c0       0xa4 drivers/i2c/built-in.o
                0x000000001782f9c0                dm_i2c_probe
 .text.dm_i2c_set_bus_speed
                0x000000001782fa64       0x4c drivers/i2c/built-in.o
                0x000000001782fa64                dm_i2c_set_bus_speed
 .text.i2c_post_probe
                0x000000001782fab0       0x3c drivers/i2c/built-in.o
 .text.dm_i2c_get_bus_speed
                0x000000001782faec       0x34 drivers/i2c/built-in.o
                0x000000001782faec                dm_i2c_get_bus_speed
 .text.i2c_set_chip_flags
                0x000000001782fb20       0x50 drivers/i2c/built-in.o
                0x000000001782fb20                i2c_set_chip_flags
 .text.i2c_get_chip_flags
                0x000000001782fb70       0x1c drivers/i2c/built-in.o
                0x000000001782fb70                i2c_get_chip_flags
 .text.i2c_set_chip_offset_len
                0x000000001782fb8c       0x20 drivers/i2c/built-in.o
                0x000000001782fb8c                i2c_set_chip_offset_len
 .text.i2c_get_chip_offset_len
                0x000000001782fbac       0x10 drivers/i2c/built-in.o
                0x000000001782fbac                i2c_get_chip_offset_len
 .text.i2c_deblock
                0x000000001782fbbc       0x20 drivers/i2c/built-in.o
                0x000000001782fbbc                i2c_deblock
 .text.i2c_chip_ofdata_to_platdata
                0x000000001782fbdc       0x54 drivers/i2c/built-in.o
                0x000000001782fbdc                i2c_chip_ofdata_to_platdata
 .text.i2c_child_post_bind
                0x000000001782fc30       0x30 drivers/i2c/built-in.o
 .text.wait_for_sr_state
                0x000000001782fc60      0x110 drivers/i2c/built-in.o
 .text.tx_byte  0x000000001782fd70       0x58 drivers/i2c/built-in.o
 .text.i2c_imx_stop
                0x000000001782fdc8       0x58 drivers/i2c/built-in.o
 .text.mxc_i2c_set_bus_speed
                0x000000001782fe20       0xc4 drivers/i2c/built-in.o
 .text.__i2c_force_reset_slave
                0x000000001782fee4        0x4 drivers/i2c/built-in.o
                0x000000001782fee4                __i2c_force_reset_slave
                0x000000001782fee4                i2c_force_reset_slave
 .text.i2c_idle_bus
                0x000000001782fee8      0x138 drivers/i2c/built-in.o
                0x000000001782fee8                i2c_idle_bus
 .text.mxc_i2c_probe
                0x0000000017830020      0x120 drivers/i2c/built-in.o
 .text.i2c_init_transfer.constprop.4
                0x0000000017830140      0x1f0 drivers/i2c/built-in.o
 .text.mxc_i2c_xfer
                0x0000000017830330      0x25c drivers/i2c/built-in.o
 .text.mxc_i2c_probe_chip
                0x000000001783058c       0x30 drivers/i2c/built-in.o
 .text.mtd_arg_off
                0x00000000178305bc       0x68 drivers/mtd/built-in.o
                0x00000000178305bc                mtd_arg_off
 .text.mtd_arg_off_size
                0x0000000017830624      0x118 drivers/mtd/built-in.o
                0x0000000017830624                mtd_arg_off_size
 .text.spi_flash_probe
                0x000000001783073c       0x78 drivers/mtd/spi/built-in.o
                0x000000001783073c                spi_flash_probe
 .text.spi_flash_free
                0x00000000178307b4       0x1c drivers/mtd/spi/built-in.o
                0x00000000178307b4                spi_flash_free
 .text.stm_is_locked_sr
                0x00000000178307d0       0x80 drivers/mtd/spi/built-in.o
 .text.spi_flash_read_common
                0x0000000017830850       0x5c drivers/mtd/spi/built-in.o
                0x0000000017830850                spi_flash_read_common
 .text.read_sr  0x00000000178308ac       0x30 drivers/mtd/spi/built-in.o
 .text.stm_is_locked
                0x00000000178308dc       0x4c drivers/mtd/spi/built-in.o
                0x00000000178308dc                stm_is_locked
 .text.spi_flash_write_common
                0x0000000017830928      0x138 drivers/mtd/spi/built-in.o
                0x0000000017830928                spi_flash_write_common
 .text.spi_flash_cmd_erase_ops
                0x0000000017830a60       0xe4 drivers/mtd/spi/built-in.o
                0x0000000017830a60                spi_flash_cmd_erase_ops
 .text.spi_flash_cmd_write_ops
                0x0000000017830b44       0xf4 drivers/mtd/spi/built-in.o
                0x0000000017830b44                spi_flash_cmd_write_ops
 .text.write_sr
                0x0000000017830c38       0x2c drivers/mtd/spi/built-in.o
 .text.stm_lock
                0x0000000017830c64      0x174 drivers/mtd/spi/built-in.o
                0x0000000017830c64                stm_lock
 .text.stm_unlock
                0x0000000017830dd8      0x1b0 drivers/mtd/spi/built-in.o
                0x0000000017830dd8                stm_unlock
 .text.spi_flash_copy_mmap
                0x0000000017830f88        0x4 drivers/mtd/spi/built-in.o
                0x0000000017830f88                spi_flash_copy_mmap
 .text.spi_flash_cmd_read_ops
                0x0000000017830f8c      0x150 drivers/mtd/spi/built-in.o
                0x0000000017830f8c                spi_flash_cmd_read_ops
 .text.spi_flash_scan
                0x00000000178310dc      0x390 drivers/mtd/spi/built-in.o
                0x00000000178310dc                spi_flash_scan
 .text.spi_flash_read_write
                0x000000001783146c       0x74 drivers/mtd/spi/built-in.o
 .text.spi_flash_cmd_read
                0x00000000178314e0       0x1c drivers/mtd/spi/built-in.o
                0x00000000178314e0                spi_flash_cmd_read
 .text.spi_flash_cmd
                0x00000000178314fc       0x28 drivers/mtd/spi/built-in.o
                0x00000000178314fc                spi_flash_cmd
 .text.spi_flash_cmd_write
                0x0000000017831524       0x20 drivers/mtd/spi/built-in.o
                0x0000000017831524                spi_flash_cmd_write
 .text.fec_reg_setup
                0x0000000017831544       0x6c drivers/net/built-in.o
 .text.fecmxc_free_pkt
                0x00000000178315b0       0x20 drivers/net/built-in.o
 .text.fec_free_descs
                0x00000000178315d0       0x3c drivers/net/built-in.o
 .text.fec_phy_write
                0x000000001783160c       0x8c drivers/net/built-in.o
 .text.fec_phy_read
                0x0000000017831698       0x94 drivers/net/built-in.o
 .text.fec_mii_setspeed
                0x000000001783172c       0x60 drivers/net/built-in.o
 .text.fecmxc_set_hwaddr
                0x000000001783178c       0xa4 drivers/net/built-in.o
 .text.fecmxc_read_rom_hwaddr
                0x0000000017831830       0x70 drivers/net/built-in.o
 .text.fecmxc_halt
                0x00000000178318a0       0x80 drivers/net/built-in.o
 .text.fecmxc_ofdata_to_platdata
                0x0000000017831920       0x70 drivers/net/built-in.o
 .text.fecmxc_remove
                0x0000000017831990       0x34 drivers/net/built-in.o
 .text.fecmxc_send
                0x00000000178319c4      0x154 drivers/net/built-in.o
 .text.fecmxc_init
                0x0000000017831b18      0x334 drivers/net/built-in.o
 .text.fecmxc_recv
                0x0000000017831e4c      0x23c drivers/net/built-in.o
 .text.fec_get_miibus
                0x0000000017832088       0xa4 drivers/net/built-in.o
                0x0000000017832088                fec_get_miibus
 .text.init_clk_fec
                0x000000001783212c        0x4 drivers/net/built-in.o
                0x000000001783212c                init_clk_fec
 .text.fecmxc_probe
                0x0000000017832130      0x218 drivers/net/built-in.o
 .text.genphy_shutdown
                0x0000000017832348        0x8 drivers/net/phy/built-in.o
                0x0000000017832348                genphy_shutdown
 .text.genphy_restart_aneg
                0x0000000017832350       0x5c drivers/net/phy/built-in.o
                0x0000000017832350                genphy_restart_aneg
 .text.genphy_config_aneg
                0x00000000178323ac      0x200 drivers/net/phy/built-in.o
                0x00000000178323ac                genphy_config_aneg
 .text.genphy_config
                0x00000000178325ac       0xc4 drivers/net/phy/built-in.o
                0x00000000178325ac                genphy_config
 .text.genphy_update_link
                0x0000000017832670      0x148 drivers/net/phy/built-in.o
                0x0000000017832670                genphy_update_link
 .text.genphy_parse_link
                0x00000000178327b8      0x198 drivers/net/phy/built-in.o
                0x00000000178327b8                genphy_parse_link
 .text.genphy_startup
                0x0000000017832950       0x20 drivers/net/phy/built-in.o
                0x0000000017832950                genphy_startup
 .text.phy_init
                0x0000000017832970       0x10 drivers/net/phy/built-in.o
                0x0000000017832970                phy_init
 .text.phy_register
                0x0000000017832980       0x28 drivers/net/phy/built-in.o
                0x0000000017832980                phy_register
 .text.get_phy_id
                0x00000000178329a8       0x70 drivers/net/phy/built-in.o
                0x00000000178329a8                get_phy_id
 .text.get_phy_device_by_mask
                0x0000000017832a18      0x298 drivers/net/phy/built-in.o
 .text.phy_reset
                0x0000000017832cb0       0xbc drivers/net/phy/built-in.o
                0x0000000017832cb0                phy_reset
 .text.phy_find_by_mask
                0x0000000017832d6c       0x4c drivers/net/phy/built-in.o
                0x0000000017832d6c                phy_find_by_mask
 .text.phy_connect_dev
                0x0000000017832db8       0x50 drivers/net/phy/built-in.o
                0x0000000017832db8                phy_connect_dev
 .text.phy_startup
                0x0000000017832e08       0x1c drivers/net/phy/built-in.o
                0x0000000017832e08                phy_startup
 .text.phy_config
                0x0000000017832e24        0x4 drivers/net/phy/built-in.o
                0x0000000017832e24                phy_config
 .text.phy_get_interface_by_name
                0x0000000017832e28       0x40 drivers/net/phy/built-in.o
                0x0000000017832e28                phy_get_interface_by_name
 .text.phy_write.constprop.0
                0x0000000017832e68       0x2c drivers/net/phy/built-in.o
 .text.ar8031_config
                0x0000000017832e94       0x88 drivers/net/phy/built-in.o
 .text.ar8021_config
                0x0000000017832f1c       0x48 drivers/net/phy/built-in.o
 .text.ar8035_config
                0x0000000017832f64      0x120 drivers/net/phy/built-in.o
 .text.phy_atheros_init
                0x0000000017833084       0x30 drivers/net/phy/built-in.o
                0x0000000017833084                phy_atheros_init
 .text.pmic_bind_children
                0x00000000178330b4      0x11c drivers/power/pmic/built-in.o
                0x00000000178330b4                pmic_bind_children
 .text.pmic_get
                0x00000000178331d0       0x10 drivers/power/pmic/built-in.o
                0x00000000178331d0                pmic_get
 .text.pmic_read
                0x00000000178331e0       0x60 drivers/power/pmic/built-in.o
                0x00000000178331e0                pmic_read
 .text.pmic_write
                0x0000000017833240       0x60 drivers/power/pmic/built-in.o
                0x0000000017833240                pmic_write
 .text.pmic_reg_read
                0x00000000178332a0       0x20 drivers/power/pmic/built-in.o
                0x00000000178332a0                pmic_reg_read
 .text.pmic_reg_write
                0x00000000178332c0       0x20 drivers/power/pmic/built-in.o
                0x00000000178332c0                pmic_reg_write
 .text.pmic_clrsetbits
                0x00000000178332e0       0x3c drivers/power/pmic/built-in.o
                0x00000000178332e0                pmic_clrsetbits
 .text.pfuze100_reg_count
                0x000000001783331c        0x8 drivers/power/pmic/built-in.o
 .text.pfuze100_write
                0x0000000017833324       0x34 drivers/power/pmic/built-in.o
 .text.pfuze100_read
                0x0000000017833358       0x34 drivers/power/pmic/built-in.o
 .text.pfuze100_bind
                0x000000001783338c       0x44 drivers/power/pmic/built-in.o
 .text.regulator_pre_probe
                0x00000000178333d0      0x11c drivers/power/regulator/built-in.o
 .text.regulator_post_bind
                0x00000000178334ec       0xdc drivers/power/regulator/built-in.o
 .text.regulator_get_value
                0x00000000178335c8       0x34 drivers/power/regulator/built-in.o
                0x00000000178335c8                regulator_get_value
 .text.regulator_set_enable
                0x00000000178335fc       0x3c drivers/power/regulator/built-in.o
                0x00000000178335fc                regulator_set_enable
 .text.device_get_supply_regulator
                0x0000000017833638       0x14 drivers/power/regulator/built-in.o
                0x0000000017833638                device_get_supply_regulator
 .text.pfuze100_regulator_mode
                0x000000001783364c      0x118 drivers/power/regulator/built-in.o
 .text.pfuze100_regulator_set_mode
                0x0000000017833764       0x1c drivers/power/regulator/built-in.o
 .text.pfuze100_regulator_get_mode
                0x0000000017833780       0x20 drivers/power/regulator/built-in.o
 .text.pfuze100_regulator_get_value
                0x00000000178337a0       0x9c drivers/power/regulator/built-in.o
 .text.pfuze100_regulator_set_value
                0x000000001783383c       0x90 drivers/power/regulator/built-in.o
 .text.pfuze100_regulator_set_enable
                0x00000000178338cc       0xcc drivers/power/regulator/built-in.o
 .text.pfuze100_regulator_probe
                0x0000000017833998      0x144 drivers/power/regulator/built-in.o
 .text.pfuze100_regulator_get_enable
                0x0000000017833adc       0x68 drivers/power/regulator/built-in.o
 .text.fixed_regulator_set_enable
                0x0000000017833b44       0x7c drivers/power/regulator/built-in.o
 .text.fixed_regulator_get_enable
                0x0000000017833bc0       0x24 drivers/power/regulator/built-in.o
 .text.fixed_regulator_get_current
                0x0000000017833be4       0x2c drivers/power/regulator/built-in.o
 .text.fixed_regulator_get_value
                0x0000000017833c10       0x2c drivers/power/regulator/built-in.o
 .text.fixed_regulator_ofdata_to_platdata
                0x0000000017833c3c       0xac drivers/power/regulator/built-in.o
 .text.gpio_regulator_set_value
                0x0000000017833ce8       0x78 drivers/power/regulator/built-in.o
 .text.gpio_regulator_get_value
                0x0000000017833d60       0x60 drivers/power/regulator/built-in.o
 .text.gpio_regulator_ofdata_to_platdata
                0x0000000017833dc0       0xbc drivers/power/regulator/built-in.o
 .text.serial_stub_start
                0x0000000017833e7c        0xc drivers/serial/built-in.o
 .text.serial_stub_stop
                0x0000000017833e88        0xc drivers/serial/built-in.o
 .text.serial_stub_putc
                0x0000000017833e94       0x10 drivers/serial/built-in.o
 .text.serial_stub_puts
                0x0000000017833ea4       0x10 drivers/serial/built-in.o
 .text.serial_stub_getc
                0x0000000017833eb4        0xc drivers/serial/built-in.o
 .text.serial_stub_tstc
                0x0000000017833ec0        0xc drivers/serial/built-in.o
 .text.get_current
                0x0000000017833ecc       0x40 drivers/serial/built-in.o
 .text.serial_null
                0x0000000017833f0c        0x4 drivers/serial/built-in.o
                0x0000000017833f0c                jz_serial_initialize
                0x0000000017833f0c                bfin_serial_initialize
                0x0000000017833f0c                p3mx_serial_initialize
                0x0000000017833f0c                leon2_serial_initialize
                0x0000000017833f0c                leon3_serial_initialize
                0x0000000017833f0c                stm32_serial_initialize
                0x0000000017833f0c                amirix_serial_initialize
                0x0000000017833f0c                marvell_serial_initialize
                0x0000000017833f0c                cpci750_serial_initialize
                0x0000000017833f0c                ns16550_serial_initialize
                0x0000000017833f0c                asc_serial_initialize
                0x0000000017833f0c                sh_serial_initialize
                0x0000000017833f0c                oc_serial_initialize
                0x0000000017833f0c                serial_lpuart_initialize
                0x0000000017833f0c                mxs_auart_initialize
                0x0000000017833f0c                xen_debug_serial_initialize
                0x0000000017833f0c                arm_dcc_initialize
                0x0000000017833f0c                bmw_serial_initialize
                0x0000000017833f0c                arc_serial_initialize
                0x0000000017833f0c                mcf_serial_initialize
                0x0000000017833f0c                lh7a40x_serial_initialize
                0x0000000017833f0c                evb64260_serial_initialize
                0x0000000017833f0c                lpc32xx_serial_initialize
                0x0000000017833f0c                max3100_serial_initialize
                0x0000000017833f0c                mpc85xx_serial_initialize
                0x0000000017833f0c                imx_serial_initialize
                0x0000000017833f0c                bfin_jtag_initialize
                0x0000000017833f0c                cogent_serial_initialize
                0x0000000017833f0c                clps7111_serial_initialize
                0x0000000017833f0c                ml2_serial_initialize
                0x0000000017833f0c                sandbox_serial_initialize
                0x0000000017833f0c                s3c24xx_serial_initialize
                0x0000000017833f0c                sconsole_serial_initialize
                0x0000000017833f0c                uartlite_serial_initialize
                0x0000000017833f0c                au1x00_serial_initialize
                0x0000000017833f0c                pxa_serial_initialize
                0x0000000017833f0c                atmel_serial_initialize
                0x0000000017833f0c                pl01x_serial_initialize
                0x0000000017833f0c                s5p_serial_initialize
                0x0000000017833f0c                zynq_serial_initialize
                0x0000000017833f0c                xen_serial_initialize
                0x0000000017833f0c                sa1100_serial_initialize
                0x0000000017833f0c                iop480_serial_initialize
                0x0000000017833f0c                mpc8xx_serial_initialize
 .text.serial_register
                0x0000000017833f10       0x18 drivers/serial/built-in.o
                0x0000000017833f10                serial_register
 .text.serial_stdio_init
                0x0000000017833f28       0xa4 drivers/serial/built-in.o
                0x0000000017833f28                serial_stdio_init
 .text.serial_assign
                0x0000000017833fcc       0x4c drivers/serial/built-in.o
                0x0000000017833fcc                serial_assign
 .text.serial_initialize
                0x0000000017834018       0xc4 drivers/serial/built-in.o
                0x0000000017834018                serial_initialize
 .text.serial_init
                0x00000000178340dc       0x20 drivers/serial/built-in.o
                0x00000000178340dc                serial_init
 .text.serial_setbrg
                0x00000000178340fc       0x14 drivers/serial/built-in.o
                0x00000000178340fc                serial_setbrg
 .text.on_baudrate
                0x0000000017834110       0xf0 drivers/serial/built-in.o
 .text.serial_getc
                0x0000000017834200       0x14 drivers/serial/built-in.o
                0x0000000017834200                serial_getc
 .text.serial_tstc
                0x0000000017834214       0x14 drivers/serial/built-in.o
                0x0000000017834214                serial_tstc
 .text.serial_putc
                0x0000000017834228       0x1c drivers/serial/built-in.o
                0x0000000017834228                serial_putc
 .text.serial_puts
                0x0000000017834244       0x1c drivers/serial/built-in.o
                0x0000000017834244                serial_puts
 .text.default_serial_puts
                0x0000000017834260       0x30 drivers/serial/built-in.o
                0x0000000017834260                default_serial_puts
 .text.mxc_serial_getc
                0x0000000017834290       0x28 drivers/serial/built-in.o
 .text.mxc_serial_putc
                0x00000000178342b8       0x3c drivers/serial/built-in.o
 .text.mxc_serial_tstc
                0x00000000178342f4       0x6c drivers/serial/built-in.o
 .text.mxc_serial_setbrg
                0x0000000017834360       0x6c drivers/serial/built-in.o
 .text.mxc_serial_init
                0x00000000178343cc       0x74 drivers/serial/built-in.o
 .text.mxc_serial_initialize
                0x0000000017834440        0xc drivers/serial/built-in.o
                0x0000000017834440                mxc_serial_initialize
 .text.default_serial_console
                0x000000001783444c        0xc drivers/serial/built-in.o
                0x000000001783444c                default_serial_console
 .text.spi_do_alloc_slave
                0x0000000017834458       0x4c drivers/spi/built-in.o
                0x0000000017834458                spi_do_alloc_slave
 .text.spi_xchg_single
                0x00000000178344a4      0x210 drivers/spi/built-in.o
                0x00000000178344a4                spi_xchg_single
 .text.spi_xfer
                0x00000000178346b4       0xcc drivers/spi/built-in.o
                0x00000000178346b4                spi_xfer
 .text.spi_setup_slave
                0x0000000017834780       0xf0 drivers/spi/built-in.o
                0x0000000017834780                spi_setup_slave
 .text.spi_free_slave
                0x0000000017834870        0x4 drivers/spi/built-in.o
                0x0000000017834870                spi_free_slave
 .text.spi_claim_bus
                0x0000000017834874      0x1a8 drivers/spi/built-in.o
                0x0000000017834874                spi_claim_bus
 .text.spi_release_bus
                0x0000000017834a1c        0x4 drivers/spi/built-in.o
                0x0000000017834a1c                spi_release_bus
 .text.usb_ether_register
                0x0000000017834a20      0x110 drivers/usb/eth/built-in.o
                0x0000000017834a20                usb_ether_register
 .text.usb_ether_deregister
                0x0000000017834b30        0x8 drivers/usb/eth/built-in.o
                0x0000000017834b30                usb_ether_deregister
 .text.usb_ether_receive
                0x0000000017834b38       0xa4 drivers/usb/eth/built-in.o
                0x0000000017834b38                usb_ether_receive
 .text.usb_ether_advance_rxbuf
                0x0000000017834bdc       0x2c drivers/usb/eth/built-in.o
                0x0000000017834bdc                usb_ether_advance_rxbuf
 .text.usb_ether_get_rx_bytes
                0x0000000017834c08       0x24 drivers/usb/eth/built-in.o
                0x0000000017834c08                usb_ether_get_rx_bytes
 .text.asix_eth_stop
                0x0000000017834c2c        0x4 drivers/usb/eth/built-in.o
                0x0000000017834c2c                asix_eth_stop
 .text.asix_send_common
                0x0000000017834c30       0xa0 drivers/usb/eth/built-in.o
 .text.asix_eth_send
                0x0000000017834cd0       0x24 drivers/usb/eth/built-in.o
                0x0000000017834cd0                asix_eth_send
 .text.asix_eth_recv
                0x0000000017834cf4       0xc4 drivers/usb/eth/built-in.o
                0x0000000017834cf4                asix_eth_recv
 .text.asix_free_pkt
                0x0000000017834db8       0x28 drivers/usb/eth/built-in.o
 .text.asix_write_cmd.isra.0
                0x0000000017834de0       0x4c drivers/usb/eth/built-in.o
 .text.asix_write_hwaddr_common
                0x0000000017834e2c       0x48 drivers/usb/eth/built-in.o
 .text.asix_write_hwaddr
                0x0000000017834e74       0x3c drivers/usb/eth/built-in.o
                0x0000000017834e74                asix_write_hwaddr
 .text.asix_mdio_write
                0x0000000017834eb0       0x84 drivers/usb/eth/built-in.o
 .text.asix_sw_reset
                0x0000000017834f34       0x40 drivers/usb/eth/built-in.o
 .text.asix_read_cmd.isra.1
                0x0000000017834f74       0x50 drivers/usb/eth/built-in.o
 .text.asix_mdio_read
                0x0000000017834fc4       0x84 drivers/usb/eth/built-in.o
 .text.asix_read_rx_ctl
                0x0000000017835048       0x44 drivers/usb/eth/built-in.o
 .text.asix_eth_probe
                0x000000001783508c      0x2ec drivers/usb/eth/built-in.o
 .text.asix_eth_start
                0x0000000017835378      0x104 drivers/usb/eth/built-in.o
 .text.usb_ep_autoconfig
                0x000000001783547c      0x218 drivers/usb/gadget/built-in.o
                0x000000001783547c                usb_ep_autoconfig
 .text.usb_ep_autoconfig_reset
                0x0000000017835694       0x38 drivers/usb/gadget/built-in.o
                0x0000000017835694                usb_ep_autoconfig_reset
 .text.usb_descriptor_fillbuf
                0x00000000178356cc       0x64 drivers/usb/gadget/built-in.o
                0x00000000178356cc                usb_descriptor_fillbuf
 .text.usb_gadget_get_string
                0x0000000017835730      0x190 drivers/usb/gadget/built-in.o
                0x0000000017835730                usb_gadget_get_string
 .text.ci_ep_disable
                0x00000000178358c0       0x14 drivers/usb/gadget/built-in.o
 .text.ci_ep_dequeue
                0x00000000178358d4       0x84 drivers/usb/gadget/built-in.o
 .text.ci_ep_free_request
                0x0000000017835958       0x54 drivers/usb/gadget/built-in.o
 .text.ci_ep_alloc_request
                0x00000000178359ac       0x68 drivers/usb/gadget/built-in.o
 .text.ci_flush_qtd
                0x0000000017835a14       0x18 drivers/usb/gadget/built-in.o
 .text.ci_flush_qh
                0x0000000017835a2c       0x18 drivers/usb/gadget/built-in.o
 .text.stop_activity
                0x0000000017835a44       0xa4 drivers/usb/gadget/built-in.o
 .text.ep_enable
                0x0000000017835ae8       0x58 drivers/usb/gadget/built-in.o
 .text.ci_ep_enable
                0x0000000017835b40       0x68 drivers/usb/gadget/built-in.o
 .text.ci_ep_submit_next_request
                0x0000000017835ba8      0x1e0 drivers/usb/gadget/built-in.o
 .text.ci_ep_queue
                0x0000000017835d88      0x134 drivers/usb/gadget/built-in.o
 .text.udc_irq  0x0000000017835ebc      0x4f0 drivers/usb/gadget/built-in.o
                0x0000000017835ebc                udc_irq
 .text.usb_gadget_handle_interrupts
                0x00000000178363ac       0x30 drivers/usb/gadget/built-in.o
                0x00000000178363ac                usb_gadget_handle_interrupts
 .text.udc_disconnect
                0x00000000178363dc       0x48 drivers/usb/gadget/built-in.o
                0x00000000178363dc                udc_disconnect
 .text.ci_pullup
                0x0000000017836424       0x78 drivers/usb/gadget/built-in.o
 .text.usb_gadget_register_driver
                0x000000001783649c      0x2c8 drivers/usb/gadget/built-in.o
                0x000000001783649c                usb_gadget_register_driver
 .text.usb_gadget_unregister_driver
                0x0000000017836764       0x54 drivers/usb/gadget/built-in.o
                0x0000000017836764                usb_gadget_unregister_driver
 .text.dfu_usb_get_reset
                0x00000000178367b8       0x20 drivers/usb/gadget/built-in.o
                0x00000000178367b8                dfu_usb_get_reset
 .text.count_configs
                0x00000000178367d8       0x88 drivers/usb/gadget/built-in.o
 .text.collect_langs
                0x0000000017836860       0x50 drivers/usb/gadget/built-in.o
 .text.composite_setup_complete
                0x00000000178368b0        0x4 drivers/usb/gadget/built-in.o
 .text.unlikely.count_ext_prop
                0x00000000178368b4       0x6c drivers/usb/gadget/built-in.o
 .text.unlikely.len_ext_prop
                0x0000000017836920       0x6c drivers/usb/gadget/built-in.o
 .text.composite_suspend
                0x000000001783698c       0x80 drivers/usb/gadget/built-in.o
 .text.composite_resume
                0x0000000017836a0c       0x7c drivers/usb/gadget/built-in.o
 .text.g_dnl_unbind
                0x0000000017836a88       0x30 drivers/usb/gadget/built-in.o
 .text.lookup_string
                0x0000000017836ab8       0x4c drivers/usb/gadget/built-in.o
 .text.composite_unbind
                0x0000000017836b04      0x12c drivers/usb/gadget/built-in.o
 .text.composite_bind
                0x0000000017836c30      0x204 drivers/usb/gadget/built-in.o
 .text.g_dnl_do_config
                0x0000000017836e34       0x5c drivers/usb/gadget/built-in.o
 .text.reset_config.isra.0
                0x0000000017836e90       0x58 drivers/usb/gadget/built-in.o
 .text.composite_disconnect
                0x0000000017836ee8       0x40 drivers/usb/gadget/built-in.o
 .text.unlikely.count_ext_compat
                0x0000000017836f28       0x9c drivers/usb/gadget/built-in.o
 .text.composite_setup
                0x0000000017836fc4     0x1088 drivers/usb/gadget/built-in.o
 .text.usb_add_function
                0x000000001783804c       0xe8 drivers/usb/gadget/built-in.o
                0x000000001783804c                usb_add_function
 .text.usb_interface_id
                0x0000000017838134       0x28 drivers/usb/gadget/built-in.o
                0x0000000017838134                usb_interface_id
 .text.usb_add_config
                0x000000001783815c      0x10c drivers/usb/gadget/built-in.o
                0x000000001783815c                usb_add_config
 .text.usb_string_id
                0x0000000017838268       0x20 drivers/usb/gadget/built-in.o
                0x0000000017838268                usb_string_id
 .text.usb_composite_register
                0x0000000017838288       0x7c drivers/usb/gadget/built-in.o
                0x0000000017838288                usb_composite_register
 .text.usb_composite_unregister
                0x0000000017838304       0x30 drivers/usb/gadget/built-in.o
                0x0000000017838304                usb_composite_unregister
 .text.g_dnl_set_serialnumber
                0x0000000017838334       0x34 drivers/usb/gadget/built-in.o
                0x0000000017838334                g_dnl_set_serialnumber
 .text.on_serialno
                0x0000000017838368       0x14 drivers/usb/gadget/built-in.o
 .text.g_dnl_bind_fixup
                0x000000001783837c        0x8 drivers/usb/gadget/built-in.o
                0x000000001783837c                g_dnl_bind_fixup
 .text.g_dnl_get_board_bcd_device_number
                0x0000000017838384        0x4 drivers/usb/gadget/built-in.o
                0x0000000017838384                g_dnl_get_board_bcd_device_number
 .text.g_dnl_bind
                0x0000000017838388      0x16c drivers/usb/gadget/built-in.o
 .text.g_dnl_board_usb_cable_connected
                0x00000000178384f4        0x8 drivers/usb/gadget/built-in.o
                0x00000000178384f4                g_dnl_board_usb_cable_connected
 .text.g_dnl_detach
                0x00000000178384fc       0x10 drivers/usb/gadget/built-in.o
                0x00000000178384fc                g_dnl_detach
 .text.g_dnl_trigger_detach
                0x000000001783850c       0x14 drivers/usb/gadget/built-in.o
                0x000000001783850c                g_dnl_trigger_detach
 .text.g_dnl_clear_detach
                0x0000000017838520       0x14 drivers/usb/gadget/built-in.o
                0x0000000017838520                g_dnl_clear_detach
 .text.g_dnl_register
                0x0000000017838534       0x40 drivers/usb/gadget/built-in.o
                0x0000000017838534                g_dnl_register
 .text.g_dnl_unregister
                0x0000000017838574        0xc drivers/usb/gadget/built-in.o
                0x0000000017838574                g_dnl_unregister
 .text.dfu_set_alt
                0x0000000017838580       0x1c drivers/usb/gadget/built-in.o
 .text.__dfu_get_alt
                0x000000001783859c        0x8 drivers/usb/gadget/built-in.o
 .text.dfu_disable
                0x00000000178385a4       0x14 drivers/usb/gadget/built-in.o
 .text.dfu_add  0x00000000178385b8       0xe8 drivers/usb/gadget/built-in.o
                0x00000000178385b8                dfu_add
 .text.dfu_handle
                0x00000000178386a0       0xd8 drivers/usb/gadget/built-in.o
 .text.dnload_request_flush
                0x0000000017838778       0x20 drivers/usb/gadget/built-in.o
 .text.dnload_request_complete
                0x0000000017838798       0x3c drivers/usb/gadget/built-in.o
 .text.dfu_unbind
                0x00000000178387d4       0x90 drivers/usb/gadget/built-in.o
 .text.dfu_bind
                0x0000000017838864      0x224 drivers/usb/gadget/built-in.o
 .text.handle_upload.isra.9
                0x0000000017838a88       0x24 drivers/usb/gadget/built-in.o
 .text.handle_getstatus
                0x0000000017838aac      0x13c drivers/usb/gadget/built-in.o
 .text.state_dfu_error
                0x0000000017838be8       0x64 drivers/usb/gadget/built-in.o
 .text.state_dfu_manifest_sync
                0x0000000017838c4c       0x70 drivers/usb/gadget/built-in.o
 .text.state_dfu_dnload_idle
                0x0000000017838cbc       0xc0 drivers/usb/gadget/built-in.o
 .text.state_dfu_dnbusy
                0x0000000017838d7c       0x24 drivers/usb/gadget/built-in.o
 .text.state_dfu_dnload_sync
                0x0000000017838da0       0x44 drivers/usb/gadget/built-in.o
 .text.state_app_detach
                0x0000000017838de4       0x44 drivers/usb/gadget/built-in.o
 .text.state_app_idle
                0x0000000017838e28       0x6c drivers/usb/gadget/built-in.o
 .text.state_dfu_upload_idle
                0x0000000017838e94       0xb0 drivers/usb/gadget/built-in.o
 .text.state_dfu_manifest
                0x0000000017838f44       0x74 drivers/usb/gadget/built-in.o
 .text.state_dfu_idle
                0x0000000017838fb8       0xec drivers/usb/gadget/built-in.o
 .text.raise_exception
                0x00000000178390a4       0x20 drivers/usb/gadget/built-in.o
 .text.ep0_queue
                0x00000000178390c4       0x2c drivers/usb/gadget/built-in.o
 .text.bulk_in_complete
                0x00000000178390f0       0x44 drivers/usb/gadget/built-in.o
 .text.bulk_out_complete
                0x0000000017839134       0x44 drivers/usb/gadget/built-in.o
 .text.fsg_set_alt
                0x0000000017839178       0x20 drivers/usb/gadget/built-in.o
 .text.fsg_disable
                0x0000000017839198       0x14 drivers/usb/gadget/built-in.o
 .text.fsg_setup
                0x00000000178391ac       0xf4 drivers/usb/gadget/built-in.o
 .text.fsg_unbind
                0x00000000178392a0       0x44 drivers/usb/gadget/built-in.o
 .text.store_cdrom_address
                0x00000000178392e4       0x84 drivers/usb/gadget/built-in.o
 .text.fsg_set_halt.isra.7
                0x0000000017839368       0x10 drivers/usb/gadget/built-in.o
 .text.start_transfer.isra.9
                0x0000000017839378       0x40 drivers/usb/gadget/built-in.o
 .text.halt_bulk_in_endpoint.isra.14
                0x00000000178393b8       0x38 drivers/usb/gadget/built-in.o
 .text.sleep_thread.isra.17
                0x00000000178393f0      0x10c drivers/usb/gadget/built-in.o
 .text.do_read  0x00000000178394fc      0x248 drivers/usb/gadget/built-in.o
 .text.do_write
                0x0000000017839744      0x370 drivers/usb/gadget/built-in.o
 .text.send_status
                0x0000000017839ab4      0x108 drivers/usb/gadget/built-in.o
 .text.check_command.isra.18
                0x0000000017839bbc      0x17c drivers/usb/gadget/built-in.o
 .text.do_mode_sense.isra.20
                0x0000000017839d38      0x198 drivers/usb/gadget/built-in.o
 .text.fsg_add  0x0000000017839ed0      0x2e8 drivers/usb/gadget/built-in.o
                0x0000000017839ed0                fsg_add
 .text.do_set_interface
                0x000000001783a1b8      0x24c drivers/usb/gadget/built-in.o
 .text.fsg_main_thread
                0x000000001783a404     0x12d0 drivers/usb/gadget/built-in.o
                0x000000001783a404                fsg_main_thread
 .text.usb_copy_descriptors
                0x000000001783b6d4       0x84 drivers/usb/gadget/built-in.o
                0x000000001783b6d4                usb_copy_descriptors
 .text.fsg_bind
                0x000000001783b758       0xf4 drivers/usb/gadget/built-in.o
 .text.fsg_init
                0x000000001783b84c       0x2c drivers/usb/gadget/built-in.o
                0x000000001783b84c                fsg_init
 .text.mmc_sparse_reserve
                0x000000001783b878        0x8 drivers/usb/gadget/built-in.o
 .text.fastboot_complete
                0x000000001783b880       0x24 drivers/usb/gadget/built-in.o
 .text.get_block_size
                0x000000001783b8a4       0x70 drivers/usb/gadget/built-in.o
 .text.fastboot_tx_write
                0x000000001783b914       0x7c drivers/usb/gadget/built-in.o
 .text.fastboot_disable
                0x000000001783b990       0xcc drivers/usb/gadget/built-in.o
 .text.fastboot_tx_write_str
                0x000000001783ba5c       0x1c drivers/usb/gadget/built-in.o
 .text.cb_continue
                0x000000001783ba78       0x28 drivers/usb/gadget/built-in.o
 .text.cb_boot  0x000000001783baa0       0x28 drivers/usb/gadget/built-in.o
 .text.cb_reboot_bootloader
                0x000000001783bac8       0x28 drivers/usb/gadget/built-in.o
 .text.strcmp_l1
                0x000000001783baf0       0x38 drivers/usb/gadget/built-in.o
 .text.rx_handler_command
                0x000000001783bb28      0x104 drivers/usb/gadget/built-in.o
 .text.fastboot_start_ep
                0x000000001783bc2c       0x70 drivers/usb/gadget/built-in.o
 .text.fastboot_unbind
                0x000000001783bc9c       0x3c drivers/usb/gadget/built-in.o
 .text.fastboot_add
                0x000000001783bcd8       0xb8 drivers/usb/gadget/built-in.o
 .text.mmc_sparse_write
                0x000000001783bd90       0xcc drivers/usb/gadget/built-in.o
 .text.do_exit_on_complete
                0x000000001783be5c        0x4 drivers/usb/gadget/built-in.o
 .text.do_bootm_on_complete
                0x000000001783be60       0x78 drivers/usb/gadget/built-in.o
 .text.compl_do_reset
                0x000000001783bed8       0x14 drivers/usb/gadget/built-in.o
 .text.fastboot_tx_write_more
                0x000000001783beec      0x108 drivers/usb/gadget/built-in.o
 .text.fastboot_bind
                0x000000001783bff4      0x1d8 drivers/usb/gadget/built-in.o
 .text.rx_bytes_expected.isra.0
                0x000000001783c1cc       0x6c drivers/usb/gadget/built-in.o
 .text.cb_download
                0x000000001783c238       0xd0 drivers/usb/gadget/built-in.o
 .text.rx_handler_dl_image
                0x000000001783c308      0x154 drivers/usb/gadget/built-in.o
 .text.fastboot_fifo_complete
                0x000000001783c45c       0x5c drivers/usb/gadget/built-in.o
 .text.bootloader_mmc_offset
                0x000000001783c4b8       0x8c drivers/usb/gadget/built-in.o
 .text.do_acmd_complete
                0x000000001783c544       0x18 drivers/usb/gadget/built-in.o
 .text.cb_run_uboot_acmd
                0x000000001783c55c       0x7c drivers/usb/gadget/built-in.o
 .text.cb_upload
                0x000000001783c5d8       0xa0 drivers/usb/gadget/built-in.o
 .text.fastboot_set_alt
                0x000000001783c678      0x168 drivers/usb/gadget/built-in.o
 .text.parse_env.isra.7.constprop.13
                0x000000001783c7e0       0x30 drivers/usb/gadget/built-in.o
 .text.bootloader_gpt_overlay
                0x000000001783c810       0x38 drivers/usb/gadget/built-in.o
                0x000000001783c810                bootloader_gpt_overlay
 .text.write_backup_gpt
                0x000000001783c848       0x98 drivers/usb/gadget/built-in.o
                0x000000001783c848                write_backup_gpt
 .text.fastboot_flash_add_ptn
                0x000000001783c8e0       0x40 drivers/usb/gadget/built-in.o
                0x000000001783c8e0                fastboot_flash_add_ptn
 .text._fastboot_parts_load_from_ptable
                0x000000001783c920      0x2f8 drivers/usb/gadget/built-in.o
 .text.fastboot_flash_dump_ptn
                0x000000001783cc18       0x64 drivers/usb/gadget/built-in.o
                0x000000001783cc18                fastboot_flash_dump_ptn
 .text.fastboot_flash_find_ptn
                0x000000001783cc7c       0x78 drivers/usb/gadget/built-in.o
                0x000000001783cc7c                fastboot_flash_find_ptn
 .text.cb_erase
                0x000000001783ccf4      0x200 drivers/usb/gadget/built-in.o
 .text.get_single_var
                0x000000001783cef4      0x498 drivers/usb/gadget/built-in.o
 .text.cb_getvar
                0x000000001783d38c      0x5ac drivers/usb/gadget/built-in.o
 .text.board_fastboot_setup
                0x000000001783d938      0x3a0 drivers/usb/gadget/built-in.o
                0x000000001783d938                board_fastboot_setup
 .text.fastboot_setup
                0x000000001783dcd8      0x134 drivers/usb/gadget/built-in.o
                0x000000001783dcd8                fastboot_setup
 .text.cb_run_uboot_cmd
                0x000000001783de0c       0x74 drivers/usb/gadget/built-in.o
 .text.fastboot_run_bootmode
                0x000000001783de80        0xc drivers/usb/gadget/built-in.o
                0x000000001783de80                fastboot_run_bootmode
 .text.fastboot_fail
                0x000000001783de8c       0x38 drivers/usb/gadget/built-in.o
                0x000000001783de8c                fastboot_fail
 .text.fastboot_okay
                0x000000001783dec4       0x38 drivers/usb/gadget/built-in.o
                0x000000001783dec4                fastboot_okay
 .text.cb_flash
                0x000000001783defc      0x61c drivers/usb/gadget/built-in.o
 .text.fb_set_reboot_flag
                0x000000001783e518        0x8 drivers/usb/gadget/built-in.o
                0x000000001783e518                fb_set_reboot_flag
 .text.cb_reboot
                0x000000001783e520       0x5c drivers/usb/gadget/built-in.o
 .text.usb_match_device
                0x000000001783e57c       0xe8 drivers/usb/host/built-in.o
 .text.usb_child_post_bind
                0x000000001783e664       0x70 drivers/usb/host/built-in.o
 .text.usb_match_one_id_intf.isra.0
                0x000000001783e6d4       0x94 drivers/usb/host/built-in.o
 .text.remove_inactive_children.isra.2
                0x000000001783e768       0x74 drivers/usb/host/built-in.o
 .text.usb_disable_asynch
                0x000000001783e7dc       0x20 drivers/usb/host/built-in.o
                0x000000001783e7dc                usb_disable_asynch
 .text.submit_int_msg
                0x000000001783e7fc       0x4c drivers/usb/host/built-in.o
                0x000000001783e7fc                submit_int_msg
 .text.submit_control_msg
                0x000000001783e848       0x8c drivers/usb/host/built-in.o
                0x000000001783e848                submit_control_msg
 .text.submit_bulk_msg
                0x000000001783e8d4       0x44 drivers/usb/host/built-in.o
                0x000000001783e8d4                submit_bulk_msg
 .text.usb_alloc_device
                0x000000001783e918       0x28 drivers/usb/host/built-in.o
                0x000000001783e918                usb_alloc_device
 .text.usb_reset_root_port
                0x000000001783e940       0x28 drivers/usb/host/built-in.o
                0x000000001783e940                usb_reset_root_port
 .text.usb_update_hub_device
                0x000000001783e968       0x28 drivers/usb/host/built-in.o
                0x000000001783e968                usb_update_hub_device
 .text.usb_get_max_xfer_size
                0x000000001783e990       0x24 drivers/usb/host/built-in.o
                0x000000001783e990                usb_get_max_xfer_size
 .text.usb_stop
                0x000000001783e9b4       0xc0 drivers/usb/host/built-in.o
                0x000000001783e9b4                usb_stop
 .text.usb_setup_ehci_gadget
                0x000000001783ea74       0x70 drivers/usb/host/built-in.o
                0x000000001783ea74                usb_setup_ehci_gadget
 .text.usb_remove_ehci_gadget
                0x000000001783eae4       0x40 drivers/usb/host/built-in.o
                0x000000001783eae4                usb_remove_ehci_gadget
 .text.usb_get_bus
                0x000000001783eb24       0x30 drivers/usb/host/built-in.o
                0x000000001783eb24                usb_get_bus
 .text.usb_scan_device
                0x000000001783eb54      0x2a8 drivers/usb/host/built-in.o
                0x000000001783eb54                usb_scan_device
 .text.usb_scan_bus.isra.3
                0x000000001783edfc       0x74 drivers/usb/host/built-in.o
 .text.usb_init
                0x000000001783ee70      0x1cc drivers/usb/host/built-in.o
                0x000000001783ee70                usb_init
 .text.usb_child_pre_probe
                0x000000001783f03c       0x68 drivers/usb/host/built-in.o
                0x000000001783f03c                usb_child_pre_probe
 .text.ehci_get_port_speed
                0x000000001783f0a4        0x8 drivers/usb/host/built-in.o
 .text.ehci_set_usbmode
                0x000000001783f0ac       0x20 drivers/usb/host/built-in.o
 .text.ehci_get_portsc_register
                0x000000001783f0cc       0x34 drivers/usb/host/built-in.o
 .text.ehci_get_max_xfer_size
                0x000000001783f100       0x10 drivers/usb/host/built-in.o
 .text.ehci_powerup_fixup
                0x000000001783f110       0x20 drivers/usb/host/built-in.o
 .text.handshake
                0x000000001783f130       0x54 drivers/usb/host/built-in.o
 .text.ehci_td_buffer
                0x000000001783f184       0x84 drivers/usb/host/built-in.o
 .text.ehci_shutdown
                0x000000001783f208       0xd8 drivers/usb/host/built-in.o
 .text._ehci_poll_int_queue
                0x000000001783f2e0       0xbc drivers/usb/host/built-in.o
 .text.ehci_poll_int_queue
                0x000000001783f39c        0xc drivers/usb/host/built-in.o
 .text.disable_periodic.isra.1
                0x000000001783f3a8       0x50 drivers/usb/host/built-in.o
 .text.enable_periodic.isra.2
                0x000000001783f3f8       0x58 drivers/usb/host/built-in.o
 .text.ehci_get_ctrl.isra.3
                0x000000001783f450       0x10 drivers/usb/host/built-in.o
 .text._ehci_destroy_int_queue
                0x000000001783f460       0xd8 drivers/usb/host/built-in.o
 .text.ehci_destroy_int_queue
                0x000000001783f538        0xc drivers/usb/host/built-in.o
 .text.ehci_update_endpt2_dev_n_port.isra.4
                0x000000001783f544       0x60 drivers/usb/host/built-in.o
 .text.ehci_submit_async
                0x000000001783f5a4      0x600 drivers/usb/host/built-in.o
 .text.ehci_submit_bulk_msg
                0x000000001783fba4       0x30 drivers/usb/host/built-in.o
 .text._ehci_create_int_queue.isra.5
                0x000000001783fbd4      0x3b0 drivers/usb/host/built-in.o
 .text.ehci_create_int_queue
                0x000000001783ff84       0x18 drivers/usb/host/built-in.o
 .text.ehci_submit_int_msg
                0x000000001783ff9c       0xac drivers/usb/host/built-in.o
 .text.ehci_submit_control_msg
                0x0000000017840048      0x56c drivers/usb/host/built-in.o
 .text.ehci_register
                0x00000000178405b4      0x390 drivers/usb/host/built-in.o
                0x00000000178405b4                ehci_register
 .text.ehci_deregister
                0x0000000017840944       0x20 drivers/usb/host/built-in.o
                0x0000000017840944                ehci_deregister
 .text.ehci_mx6_powerup_fixup
                0x0000000017840964       0x58 drivers/usb/host/built-in.o
 .text.ehci_usb_remove
                0x00000000178409bc       0x3c drivers/usb/host/built-in.o
                0x00000000178409bc                ehci_usb_remove
 .text.ehci_mx6_common_init
                0x00000000178409f8      0x1d8 drivers/usb/host/built-in.o
                0x00000000178409f8                ehci_mx6_common_init
 .text.ehci_usb_probe
                0x0000000017840bd0      0x35c drivers/usb/host/built-in.o
 .text.mx6_init_after_reset
                0x0000000017840f2c       0xc4 drivers/usb/host/built-in.o
 .text.board_ehci_usb_phy_mode
                0x0000000017840ff0        0x8 drivers/usb/host/built-in.o
                0x0000000017840ff0                board_ehci_usb_phy_mode
 .text.ehci_usb_ofdata_to_platdata
                0x0000000017840ff8       0xf0 drivers/usb/host/built-in.o
 .text.env_get_yesno
                0x00000000178410e8       0x3c env/built-in.o
                0x00000000178410e8                env_get_yesno
 .text.env_get_default
                0x0000000017841124       0x30 env/built-in.o
                0x0000000017841124                env_get_default
 .text.set_default_env
                0x0000000017841154       0xa0 env/built-in.o
                0x0000000017841154                set_default_env
 .text.set_default_vars
                0x00000000178411f4       0x38 env/built-in.o
                0x00000000178411f4                set_default_vars
 .text.env_import
                0x000000001784122c       0xc0 env/built-in.o
                0x000000001784122c                env_import
 .text.env_export
                0x00000000178412ec       0x88 env/built-in.o
                0x00000000178412ec                env_export
 .text.env_relocate
                0x0000000017841374       0x2c env/built-in.o
                0x0000000017841374                env_relocate
 .text.env_complete
                0x00000000178413a0       0xf0 env/built-in.o
                0x00000000178413a0                env_complete
 .text.env_get_location
                0x0000000017841490       0x3c env/built-in.o
                0x0000000017841490                env_get_location
 .text.env_driver_lookup
                0x00000000178414cc       0x44 env/built-in.o
 .text.env_get_char_spec
                0x0000000017841510        0xc env/built-in.o
                0x0000000017841510                env_get_char_spec
 .text.env_get_char
                0x000000001784151c       0x20 env/built-in.o
                0x000000001784151c                env_get_char
 .text.env_load
                0x000000001784153c       0x94 env/built-in.o
                0x000000001784153c                env_load
 .text.env_save
                0x00000000178415d0       0x88 env/built-in.o
                0x00000000178415d0                env_save
 .text.env_init
                0x0000000017841658       0x88 env/built-in.o
                0x0000000017841658                env_init
 .text.regex_callback
                0x00000000178416e0      0x13c env/built-in.o
 .text.env_attr_walk
                0x000000001784181c      0x120 env/built-in.o
                0x000000001784181c                env_attr_walk
 .text.env_attr_lookup
                0x000000001784193c       0x7c env/built-in.o
                0x000000001784193c                env_attr_lookup
 .text.clear_callback
                0x00000000178419b8       0x10 env/built-in.o
 .text.find_env_callback
                0x00000000178419c8       0x60 env/built-in.o
 .text.on_callbacks
                0x0000000017841a28       0x50 env/built-in.o
 .text.set_callback
                0x0000000017841a78       0x98 env/built-in.o
 .text.env_callback_init
                0x0000000017841b10       0xc4 env/built-in.o
                0x0000000017841b10                env_callback_init
 .text.skip_num
                0x0000000017841bd4       0x94 env/built-in.o
 .text.clear_flags
                0x0000000017841c68       0x10 env/built-in.o
 .text.on_flags
                0x0000000017841c78       0x50 env/built-in.o
 .text.env_flags_parse_vartype
                0x0000000017841cc8       0x50 env/built-in.o
                0x0000000017841cc8                env_flags_parse_vartype
 .text.env_flags_parse_varaccess
                0x0000000017841d18       0x50 env/built-in.o
                0x0000000017841d18                env_flags_parse_varaccess
 .text.set_flags
                0x0000000017841d68       0xb0 env/built-in.o
 .text.eth_validate_ethaddr_str
                0x0000000017841e18       0x94 env/built-in.o
                0x0000000017841e18                eth_validate_ethaddr_str
 .text.env_flags_init
                0x0000000017841eac       0xd8 env/built-in.o
                0x0000000017841eac                env_flags_init
 .text.env_flags_validate
                0x0000000017841f84      0x288 env/built-in.o
                0x0000000017841f84                env_flags_validate
 .text.mmc_get_env_addr
                0x000000001784220c       0xec env/built-in.o
                0x000000001784220c                mmc_get_env_addr
 .text.fini_mmc_for_env.isra.0
                0x00000000178422f8       0x24 env/built-in.o
 .text.init_mmc_for_env
                0x000000001784231c       0x90 env/built-in.o
 .text.env_mmc_save
                0x00000000178423ac      0x10c env/built-in.o
 .text.env_mmc_load
                0x00000000178424b8       0xf0 env/built-in.o
 .text.fs_probe_unsupported
                0x00000000178425a8       0x18 fs/built-in.o
 .text.fs_exists_unsupported
                0x00000000178425c0        0x8 fs/built-in.o
 .text.fs_size_unsupported
                0x00000000178425c8        0x8 fs/built-in.o
 .text.fs_write_unsupported
                0x00000000178425d0        0x8 fs/built-in.o
 .text.fs_close_unsupported
                0x00000000178425d8        0x4 fs/built-in.o
 .text.fs_uuid_unsupported
                0x00000000178425dc        0x8 fs/built-in.o
 .text.fs_opendir_unsupported
                0x00000000178425e4        0x8 fs/built-in.o
 .text.fs_get_info
                0x00000000178425ec       0x34 fs/built-in.o
 .text.fs_close
                0x0000000017842620       0x28 fs/built-in.o
 .text.fs_read_unsupported
                0x0000000017842648        0x8 fs/built-in.o
 .text.fs_ls_unsupported
                0x0000000017842650        0x8 fs/built-in.o
 .text.fs_set_blk_dev
                0x0000000017842658       0xc4 fs/built-in.o
                0x0000000017842658                fs_set_blk_dev
 .text.fs_set_blk_dev_with_part
                0x000000001784271c       0x94 fs/built-in.o
                0x000000001784271c                fs_set_blk_dev_with_part
 .text.fs_ls    0x00000000178427b0       0x3c fs/built-in.o
                0x00000000178427b0                fs_ls
 .text.fs_exists
                0x00000000178427ec       0x34 fs/built-in.o
                0x00000000178427ec                fs_exists
 .text.fs_size  0x0000000017842820       0x3c fs/built-in.o
                0x0000000017842820                fs_size
 .text.fs_read  0x000000001784285c       0x60 fs/built-in.o
                0x000000001784285c                fs_read
 .text.fs_write
                0x00000000178428bc       0x90 fs/built-in.o
                0x00000000178428bc                fs_write
 .text.fs_opendir
                0x000000001784294c       0x7c fs/built-in.o
                0x000000001784294c                fs_opendir
 .text.fs_readdir
                0x00000000178429c8       0x5c fs/built-in.o
                0x00000000178429c8                fs_readdir
 .text.fs_closedir
                0x0000000017842a24       0x38 fs/built-in.o
                0x0000000017842a24                fs_closedir
 .text.fs_ls_generic
                0x0000000017842a5c       0xac fs/built-in.o
 .text.do_size  0x0000000017842b08       0x60 fs/built-in.o
                0x0000000017842b08                do_size
 .text.do_load  0x0000000017842b68      0x240 fs/built-in.o
                0x0000000017842b68                do_load
 .text.do_ls    0x0000000017842da8       0x68 fs/built-in.o
                0x0000000017842da8                do_ls
 .text.file_exists
                0x0000000017842e10       0x2c fs/built-in.o
                0x0000000017842e10                file_exists
 .text.do_save  0x0000000017842e3c      0x178 fs/built-in.o
                0x0000000017842e3c                do_save
 .text.do_fs_type
                0x0000000017842fb4       0x70 fs/built-in.o
                0x0000000017842fb4                do_fs_type
 .text.get_fs   0x0000000017843024        0xc fs/built-in.o
                0x0000000017843024                get_fs
 .text.ext4fs_free_node
                0x0000000017843030       0x20 fs/built-in.o
                0x0000000017843030                ext4fs_free_node
 .text.ext4fs_read_file
                0x0000000017843050      0x388 fs/built-in.o
                0x0000000017843050                ext4fs_read_file
 .text.ext4fs_ls
                0x00000000178433d8       0x88 fs/built-in.o
                0x00000000178433d8                ext4fs_ls
 .text.ext4fs_exists
                0x0000000017843460       0x1c fs/built-in.o
                0x0000000017843460                ext4fs_exists
 .text.ext4fs_size
                0x000000001784347c        0x4 fs/built-in.o
                0x000000001784347c                ext4fs_size
 .text.ext4fs_read
                0x0000000017843480       0x5c fs/built-in.o
                0x0000000017843480                ext4fs_read
 .text.ext4fs_probe
                0x00000000178434dc       0x30 fs/built-in.o
                0x00000000178434dc                ext4fs_probe
 .text.ext4_read_file
                0x000000001784350c       0x70 fs/built-in.o
                0x000000001784350c                ext4_read_file
 .text.ext4fs_uuid
                0x000000001784357c       0x38 fs/built-in.o
                0x000000001784357c                ext4fs_uuid
 .text.ext4fs_get_group_descriptor
                0x00000000178435b4       0x10 fs/built-in.o
                0x00000000178435b4                ext4fs_get_group_descriptor
 .text.ext4fs_sb_get_free_blocks
                0x00000000178435c4       0x24 fs/built-in.o
                0x00000000178435c4                ext4fs_sb_get_free_blocks
 .text.ext4fs_sb_set_free_blocks
                0x00000000178435e8       0x10 fs/built-in.o
                0x00000000178435e8                ext4fs_sb_set_free_blocks
 .text.ext4fs_bg_get_free_blocks
                0x00000000178435f8       0x1c fs/built-in.o
                0x00000000178435f8                ext4fs_bg_get_free_blocks
 .text.ext4fs_bg_get_block_id
                0x0000000017843614       0x40 fs/built-in.o
                0x0000000017843614                ext4fs_bg_get_block_id
 .text.ext4fs_bg_get_inode_id
                0x0000000017843654       0x40 fs/built-in.o
                0x0000000017843654                ext4fs_bg_get_inode_id
 .text.ext4fs_bg_get_inode_table_id
                0x0000000017843694       0x40 fs/built-in.o
                0x0000000017843694                ext4fs_bg_get_inode_table_id
 .text.ext4fs_div_roundup
                0x00000000178436d4       0x20 fs/built-in.o
                0x00000000178436d4                ext4fs_div_roundup
 .text.put_ext4
                0x00000000178436f4      0x198 fs/built-in.o
                0x00000000178436f4                put_ext4
 .text.ext4fs_set_block_bmap
                0x000000001784388c       0xa8 fs/built-in.o
                0x000000001784388c                ext4fs_set_block_bmap
 .text.ext4fs_reset_block_bmap
                0x0000000017843934       0x94 fs/built-in.o
                0x0000000017843934                ext4fs_reset_block_bmap
 .text.ext4fs_set_inode_bmap
                0x00000000178439c8       0x70 fs/built-in.o
                0x00000000178439c8                ext4fs_set_inode_bmap
 .text.ext4fs_reset_inode_bmap
                0x0000000017843a38       0x6c fs/built-in.o
                0x0000000017843a38                ext4fs_reset_inode_bmap
 .text.ext4fs_checksum_update
                0x0000000017843aa4       0x8c fs/built-in.o
                0x0000000017843aa4                ext4fs_checksum_update
 .text.ext4fs_get_new_blk_no
                0x0000000017843b30      0x40c fs/built-in.o
                0x0000000017843b30                ext4fs_get_new_blk_no
 .text.ext4fs_get_new_inode_no
                0x0000000017843f3c      0x3f0 fs/built-in.o
                0x0000000017843f3c                ext4fs_get_new_inode_no
 .text.ext4fs_allocate_blocks
                0x000000001784432c      0x630 fs/built-in.o
                0x000000001784432c                ext4fs_allocate_blocks
 .text.ext4fs_read_inode
                0x000000001784495c      0x154 fs/built-in.o
                0x000000001784495c                ext4fs_read_inode
 .text.ext4fs_iget
                0x0000000017844ab0       0x2c fs/built-in.o
                0x0000000017844ab0                ext4fs_iget
 .text.read_allocated_block
                0x0000000017844adc      0x8c8 fs/built-in.o
                0x0000000017844adc                read_allocated_block
 .text.ext4fs_update_parent_dentry
                0x00000000178453a4      0x374 fs/built-in.o
                0x00000000178453a4                ext4fs_update_parent_dentry
 .text.search_dir
                0x0000000017845718      0x14c fs/built-in.o
 .text.ext4fs_get_parent_inode_num
                0x0000000017845864      0x444 fs/built-in.o
                0x0000000017845864                ext4fs_get_parent_inode_num
 .text.ext4fs_filename_unlink
                0x0000000017845ca8      0x1c8 fs/built-in.o
                0x0000000017845ca8                ext4fs_filename_unlink
 .text.ext4fs_reinit_global
                0x0000000017845e70       0xbc fs/built-in.o
                0x0000000017845e70                ext4fs_reinit_global
 .text.ext4fs_close
                0x0000000017845f2c       0x5c fs/built-in.o
                0x0000000017845f2c                ext4fs_close
 .text.ext4fs_iterate_dir
                0x0000000017845f88      0x2c0 fs/built-in.o
                0x0000000017845f88                ext4fs_iterate_dir
 .text.ext4fs_find_file1
                0x0000000017846248      0x2b8 fs/built-in.o
 .text.ext4fs_find_file
                0x0000000017846500       0x78 fs/built-in.o
                0x0000000017846500                ext4fs_find_file
 .text.ext4fs_open
                0x0000000017846578       0xac fs/built-in.o
                0x0000000017846578                ext4fs_open
 .text.ext4fs_mount
                0x0000000017846624       0xe4 fs/built-in.o
                0x0000000017846624                ext4fs_mount
 .text.ext4fs_set_blk_dev
                0x0000000017846708       0x60 fs/built-in.o
                0x0000000017846708                ext4fs_set_blk_dev
 .text.ext4fs_devread
                0x0000000017846768       0x40 fs/built-in.o
                0x0000000017846768                ext4fs_devread
 .text.ext4_read_superblock
                0x00000000178467a8       0x38 fs/built-in.o
                0x00000000178467a8                ext4_read_superblock
 .text.ext4fs_update
                0x00000000178467e0      0x118 fs/built-in.o
 .text.ext4fs_get_bgdtable
                0x00000000178468f8       0xc0 fs/built-in.o
                0x00000000178468f8                ext4fs_get_bgdtable
 .text.ext4fs_deinit
                0x00000000178469b8      0x190 fs/built-in.o
                0x00000000178469b8                ext4fs_deinit
 .text.ext4fs_init
                0x0000000017846b48      0x2e0 fs/built-in.o
                0x0000000017846b48                ext4fs_init
 .text.ext4fs_write
                0x0000000017846e28     0x1218 fs/built-in.o
                0x0000000017846e28                ext4fs_write
 .text.ext4_write_file
                0x0000000017848040       0x60 fs/built-in.o
                0x0000000017848040                ext4_write_file
 .text.ext4fs_dump_metadata
                0x00000000178480a0       0x54 fs/built-in.o
                0x00000000178480a0                ext4fs_dump_metadata
 .text.ext4fs_free_journal
                0x00000000178480f4       0xe8 fs/built-in.o
                0x00000000178480f4                ext4fs_free_journal
 .text.ext4fs_log_gdt
                0x00000000178481dc       0xc8 fs/built-in.o
                0x00000000178481dc                ext4fs_log_gdt
 .text.ext4fs_log_journal
                0x00000000178482a4       0xe8 fs/built-in.o
                0x00000000178482a4                ext4fs_log_journal
 .text.ext4fs_put_metadata
                0x000000001784838c       0xcc fs/built-in.o
                0x000000001784838c                ext4fs_put_metadata
 .text.ext4fs_push_revoke_blk
                0x0000000017848458       0xd8 fs/built-in.o
                0x0000000017848458                ext4fs_push_revoke_blk
 .text.ext4fs_free_revoke_blks
                0x0000000017848530       0x70 fs/built-in.o
                0x0000000017848530                ext4fs_free_revoke_blks
 .text.check_blknr_for_revoke
                0x00000000178485a0       0x7c fs/built-in.o
                0x00000000178485a0                check_blknr_for_revoke
 .text.recover_transaction
                0x000000001784861c      0x168 fs/built-in.o
                0x000000001784861c                recover_transaction
 .text.print_jrnl_status
                0x0000000017848784       0x18 fs/built-in.o
                0x0000000017848784                print_jrnl_status
 .text.ext4fs_check_journal_state
                0x000000001784879c      0x2e8 fs/built-in.o
                0x000000001784879c                ext4fs_check_journal_state
 .text.ext4fs_init_journal
                0x0000000017848a84      0x240 fs/built-in.o
                0x0000000017848a84                ext4fs_init_journal
 .text.ext4fs_update_journal
                0x0000000017848cc4      0x328 fs/built-in.o
                0x0000000017848cc4                ext4fs_update_journal
 .text.ext2fs_crc16
                0x0000000017848fec       0x38 fs/built-in.o
                0x0000000017848fec                ext2fs_crc16
 .text.downcase
                0x0000000017849024       0x3c fs/built-in.o
 .text.mkcksum  0x0000000017849060       0x50 fs/built-in.o
 .text.disk_read
                0x00000000178490b0       0x60 fs/built-in.o
 .text.get_name
                0x0000000017849110       0xe0 fs/built-in.o
 .text.get_cluster
                0x00000000178491f0      0x16c fs/built-in.o
 .text.read_bootsectandvi
                0x000000001784935c      0x124 fs/built-in.o
 .text.fat_itr_root
                0x0000000017849480      0x154 fs/built-in.o
 .text.disk_write
                0x00000000178495d4       0x8c fs/built-in.o
 .text.flush_dirty_fat_buffer
                0x0000000017849660       0xa8 fs/built-in.o
 .text.get_fatent
                0x0000000017849708      0x194 fs/built-in.o
 .text.next_dent
                0x000000001784989c      0x138 fs/built-in.o
 .text.find_empty_cluster
                0x00000000178499d4       0x2c fs/built-in.o
 .text.set_fatent_value
                0x0000000017849a00      0x1d0 fs/built-in.o
 .text.set_cluster
                0x0000000017849bd0      0x16c fs/built-in.o
 .text.set_name
                0x0000000017849d3c      0x14c fs/built-in.o
 .text.check_overflow
                0x0000000017849e88       0x98 fs/built-in.o
 .text.slot2str
                0x0000000017849f20       0xbc fs/built-in.o
 .text.fat_itr_next
                0x0000000017849fdc      0x12c fs/built-in.o
 .text.fat_itr_resolve
                0x000000001784a108      0x180 fs/built-in.o
 .text.flush_dir_table.constprop.7
                0x000000001784a288       0xd8 fs/built-in.o
 .text.do_fat_write
                0x000000001784a360      0xc4c fs/built-in.o
 .text.fat_set_blk_dev
                0x000000001784afac       0xcc fs/built-in.o
                0x000000001784afac                fat_set_blk_dev
 .text.file_fat_detectfs
                0x000000001784b078      0x148 fs/built-in.o
                0x000000001784b078                file_fat_detectfs
 .text.fat_exists
                0x000000001784b1c0       0x6c fs/built-in.o
                0x000000001784b1c0                fat_exists
 .text.fat_size
                0x000000001784b22c       0xb8 fs/built-in.o
                0x000000001784b22c                fat_size
 .text.file_fat_read_at
                0x000000001784b2e4      0x3cc fs/built-in.o
                0x000000001784b2e4                file_fat_read_at
 .text.fat_read_file
                0x000000001784b6b0       0x48 fs/built-in.o
                0x000000001784b6b0                fat_read_file
 .text.fat_opendir
                0x000000001784b6f8       0x80 fs/built-in.o
                0x000000001784b6f8                fat_opendir
 .text.fat_readdir
                0x000000001784b778       0x78 fs/built-in.o
                0x000000001784b778                fat_readdir
 .text.fat_closedir
                0x000000001784b7f0       0x1c fs/built-in.o
                0x000000001784b7f0                fat_closedir
 .text.fat_close
                0x000000001784b80c        0x4 fs/built-in.o
                0x000000001784b80c                fat_close
 .text.file_fat_write
                0x000000001784b810       0x5c fs/built-in.o
                0x000000001784b810                file_fat_write
 .text.fs_devread
                0x000000001784b86c      0x220 fs/built-in.o
                0x000000001784b86c                fs_devread
 .text.efi_uc_destroy
                0x000000001784ba8c       0x18 lib/built-in.o
 .text.efi_uc_init
                0x000000001784baa4       0x18 lib/built-in.o
 .text.check_node_type
                0x000000001784babc       0x8c lib/built-in.o
 .text.efi_uc_start
                0x000000001784bb48       0xd8 lib/built-in.o
 .text.efi_uc_supported
                0x000000001784bc20       0xc0 lib/built-in.o
 .text.disconnect_child
                0x000000001784bce0       0x70 lib/built-in.o
 .text.efi_uc_stop
                0x000000001784bd50      0x154 lib/built-in.o
 .text.efi_driver_init
                0x000000001784bea4      0x110 lib/built-in.o
                0x000000001784bea4                efi_driver_init
 .text.efi_bl_write
                0x000000001784bfb4       0x64 lib/built-in.o
 .text.efi_bl_read
                0x000000001784c018       0x64 lib/built-in.o
 .text.efi_bl_bind
                0x000000001784c07c      0x124 lib/built-in.o
 .text.efi_load_pe
                0x000000001784c1a0      0x334 lib/built-in.o
                0x000000001784c1a0                efi_load_pe
 .text.__efi_entry_check
                0x000000001784c4d4       0x38 lib/built-in.o
                0x000000001784c4d4                __efi_entry_check
 .text.__efi_exit_check
                0x000000001784c50c       0x2c lib/built-in.o
                0x000000001784c50c                __efi_exit_check
 .text.efi_set_mem
                0x000000001784c538       0x28 lib/built-in.o
 .text.efi_copy_mem
                0x000000001784c560       0x24 lib/built-in.o
 .text.efi_calculate_crc32
                0x000000001784c584       0x30 lib/built-in.o
 .text.efi_set_watchdog_timer
                0x000000001784c5b4       0x24 lib/built-in.o
 .text.efi_stall
                0x000000001784c5d8       0x20 lib/built-in.o
 .text.efi_get_next_monotonic_count
                0x000000001784c5f8       0x34 lib/built-in.o
 .text.efi_start_image
                0x000000001784c62c       0xac lib/built-in.o
 .text.efi_register_protocol_notify
                0x000000001784c6d8       0x14 lib/built-in.o
 .text.efi_reinstall_protocol_interface
                0x000000001784c6ec       0x14 lib/built-in.o
 .text.efi_close_event
                0x000000001784c700       0x68 lib/built-in.o
 .text.efi_free_pool_ext
                0x000000001784c768       0x24 lib/built-in.o
 .text.efi_allocate_pool_ext
                0x000000001784c78c       0x2c lib/built-in.o
 .text.efi_get_memory_map_ext
                0x000000001784c7b8       0x40 lib/built-in.o
 .text.efi_free_pages_ext
                0x000000001784c7f8       0x34 lib/built-in.o
 .text.efi_allocate_pages_ext
                0x000000001784c82c       0x34 lib/built-in.o
 .text.efi_restore_tpl
                0x000000001784c860       0x2c lib/built-in.o
 .text.efi_raise_tpl
                0x000000001784c88c       0x34 lib/built-in.o
 .text.efi_save_gd
                0x000000001784c8c0       0x10 lib/built-in.o
                0x000000001784c8c0                efi_save_gd
 .text.efi_restore_gd
                0x000000001784c8d0       0x18 lib/built-in.o
                0x000000001784c8d0                efi_restore_gd
 .text.efi_exit
                0x000000001784c8e8       0x24 lib/built-in.o
 .text.efi_signal_event
                0x000000001784c90c       0x60 lib/built-in.o
                0x000000001784c90c                efi_signal_event
 .text.efi_exit_boot_services
                0x000000001784c96c       0xd8 lib/built-in.o
 .text.efi_signal_event_ext
                0x000000001784ca44       0x78 lib/built-in.o
 .text.efi_add_handle
                0x000000001784cabc       0x38 lib/built-in.o
                0x000000001784cabc                efi_add_handle
 .text.efi_create_handle
                0x000000001784caf4       0x40 lib/built-in.o
                0x000000001784caf4                efi_create_handle
 .text.efi_create_event
                0x000000001784cb34       0x98 lib/built-in.o
                0x000000001784cb34                efi_create_event
 .text.efi_create_event_ex
                0x000000001784cbcc       0x58 lib/built-in.o
                0x000000001784cbcc                efi_create_event_ex
 .text.efi_create_event_ext
                0x000000001784cc24       0x40 lib/built-in.o
 .text.efi_timer_check
                0x000000001784cc64       0xb4 lib/built-in.o
                0x000000001784cc64                efi_timer_check
 .text.efi_check_event
                0x000000001784cd18       0xa8 lib/built-in.o
 .text.efi_wait_for_event
                0x000000001784cdc0       0xf8 lib/built-in.o
 .text.efi_set_timer
                0x000000001784ceb8      0x100 lib/built-in.o
                0x000000001784ceb8                efi_set_timer
 .text.efi_set_timer_ext
                0x000000001784cfb8       0x34 lib/built-in.o
 .text.efi_search_obj
                0x000000001784cfec       0x38 lib/built-in.o
                0x000000001784cfec                efi_search_obj
 .text.efi_search_protocol
                0x000000001784d024       0x7c lib/built-in.o
                0x000000001784d024                efi_search_protocol
 .text.efi_remove_protocol
                0x000000001784d0a0       0x60 lib/built-in.o
                0x000000001784d0a0                efi_remove_protocol
 .text.efi_locate_protocol
                0x000000001784d100       0x90 lib/built-in.o
 .text.efi_open_protocol_information
                0x000000001784d190       0xdc lib/built-in.o
 .text.efi_close_protocol
                0x000000001784d26c       0xa0 lib/built-in.o
 .text.efi_locate_handle
                0x000000001784d30c      0x128 lib/built-in.o
 .text.efi_locate_handle_buffer
                0x000000001784d434       0xbc lib/built-in.o
 .text.efi_locate_device_path
                0x000000001784d4f0      0x13c lib/built-in.o
 .text.efi_locate_handle_ext
                0x000000001784d62c       0x40 lib/built-in.o
 .text.efi_remove_all_protocols
                0x000000001784d66c       0x54 lib/built-in.o
                0x000000001784d66c                efi_remove_all_protocols
 .text.efi_delete_handle
                0x000000001784d6c0       0x38 lib/built-in.o
                0x000000001784d6c0                efi_delete_handle
 .text.efi_protocols_per_handle
                0x000000001784d6f8       0xe0 lib/built-in.o
 .text.efi_open_protocol
                0x000000001784d7d8      0x26c lib/built-in.o
 .text.efi_disconnect_controller
                0x000000001784da44      0x250 lib/built-in.o
 .text.efi_disconnect_all_drivers
                0x000000001784dc94      0x170 lib/built-in.o
 .text.efi_bind_controller
                0x000000001784de04       0xbc lib/built-in.o
 .text.efi_handle_protocol
                0x000000001784dec0       0x20 lib/built-in.o
 .text.efi_connect_controller
                0x000000001784dee0      0x1d0 lib/built-in.o
 .text.efi_unload_image
                0x000000001784e0b0       0x3c lib/built-in.o
 .text.efi_uninstall_protocol_interface
                0x000000001784e0ec       0xdc lib/built-in.o
 .text.efi_add_protocol
                0x000000001784e1c8       0xa0 lib/built-in.o
                0x000000001784e1c8                efi_add_protocol
 .text.efi_install_protocol_interface
                0x000000001784e268       0x7c lib/built-in.o
 .text.efi_uninstall_multiple_protocol_interfaces
                0x000000001784e2e4       0xd4 lib/built-in.o
 .text.efi_install_multiple_protocol_interfaces
                0x000000001784e3b8       0xd4 lib/built-in.o
 .text.efi_install_configuration_table
                0x000000001784e48c       0xec lib/built-in.o
                0x000000001784e48c                efi_install_configuration_table
 .text.efi_install_configuration_table_ext
                0x000000001784e578       0x24 lib/built-in.o
 .text.efi_setup_loaded_image
                0x000000001784e59c       0xcc lib/built-in.o
                0x000000001784e59c                efi_setup_loaded_image
 .text.efi_load_image_from_path
                0x000000001784e668      0x124 lib/built-in.o
                0x000000001784e668                efi_load_image_from_path
 .text.efi_load_image
                0x000000001784e78c       0xec lib/built-in.o
 .text.efi_get_time_boottime
                0x000000001784e878        0x8 lib/built-in.o
 .text.efi_reset_system_boottime
                0x000000001784e880       0x2c lib/built-in.o
 .text.efi_reset_system_init
                0x000000001784e8ac        0x4 lib/built-in.o
                0x000000001784e8ac                efi_reset_system_init
 .text.efi_get_time_init
                0x000000001784e8b0        0x4 lib/built-in.o
                0x000000001784e8b0                efi_get_time_init
 .text.efi_runtime_relocate
                0x000000001784e8b4      0x130 lib/built-in.o
                0x000000001784e8b4                efi_runtime_relocate
 .text.efi_set_virtual_address_map
                0x000000001784e9e4      0x180 lib/built-in.o
 .text.efi_key_notify
                0x000000001784eb64        0x4 lib/built-in.o
 .text.efi_cin_lock_std_in
                0x000000001784eb68       0x14 lib/built-in.o
 .text.efi_cin_set_mode
                0x000000001784eb7c       0x14 lib/built-in.o
 .text.efi_cin_get_mode
                0x000000001784eb90       0x44 lib/built-in.o
 .text.efi_cout_test_string
                0x000000001784ebd4       0x14 lib/built-in.o
 .text.efi_cout_reset
                0x000000001784ebe8       0x14 lib/built-in.o
 .text.efi_cin_reset
                0x000000001784ebfc       0x14 lib/built-in.o
 .text.efi_cout_enable_cursor
                0x000000001784ec10       0x30 lib/built-in.o
 .text.efi_cout_set_cursor_position
                0x000000001784ec40       0x40 lib/built-in.o
 .text.efi_cout_clear_screen
                0x000000001784ec80       0x20 lib/built-in.o
 .text.efi_cout_set_attribute
                0x000000001784eca0       0x5c lib/built-in.o
 .text.efi_cout_output_string
                0x000000001784ecfc      0x124 lib/built-in.o
 .text.efi_console_timer_notify
                0x000000001784ee20       0x34 lib/built-in.o
 .text.efi_cout_set_mode
                0x000000001784ee54       0x48 lib/built-in.o
 .text.efi_cin_read_key_stroke
                0x000000001784ee9c      0x128 lib/built-in.o
 .text.efi_cout_query_mode
                0x000000001784efc4      0x22c lib/built-in.o
 .text.efi_console_register
                0x000000001784f1f0      0x150 lib/built-in.o
                0x000000001784f1f0                efi_console_register
 .text.efi_mem_cmp
                0x000000001784f340       0x30 lib/built-in.o
 .text.efi_find_free_memory
                0x000000001784f370       0xd0 lib/built-in.o
 .text.efi_add_memory_map
                0x000000001784f440      0x338 lib/built-in.o
                0x000000001784f440                efi_add_memory_map
 .text.efi_allocate_pages
                0x000000001784f778       0xb0 lib/built-in.o
                0x000000001784f778                efi_allocate_pages
 .text.efi_alloc
                0x000000001784f828       0x54 lib/built-in.o
                0x000000001784f828                efi_alloc
 .text.efi_free_pages
                0x000000001784f87c       0x38 lib/built-in.o
                0x000000001784f87c                efi_free_pages
 .text.efi_allocate_pool
                0x000000001784f8b4       0x58 lib/built-in.o
                0x000000001784f8b4                efi_allocate_pool
 .text.efi_free_pool
                0x000000001784f90c       0x20 lib/built-in.o
                0x000000001784f90c                efi_free_pool
 .text.efi_get_memory_map
                0x000000001784f92c       0xc0 lib/built-in.o
                0x000000001784f92c                efi_get_memory_map
 .text.efi_add_known_memory
                0x000000001784f9ec       0x64 lib/built-in.o
                0x000000001784f9ec                efi_add_known_memory
 .text.efi_memory_init
                0x000000001784fa50       0x84 lib/built-in.o
                0x000000001784fa50                efi_memory_init
 .text.efi_str_to_u16
                0x000000001784fad4       0x60 lib/built-in.o
 .text.efi_convert_single_device_node_to_text
                0x000000001784fb34      0x488 lib/built-in.o
 .text.efi_convert_device_path_to_text
                0x000000001784ffbc       0x80 lib/built-in.o
 .text.efi_convert_device_node_to_text
                0x000000001785003c       0x40 lib/built-in.o
 .text.efi_dp_str
                0x000000001785007c       0x2c lib/built-in.o
                0x000000001785007c                efi_dp_str
 .text.dp_size  0x00000000178500a8       0xac lib/built-in.o
 .text.dp_alloc
                0x0000000017850154       0x28 lib/built-in.o
 .text.dp_part_size
                0x000000001785017c       0x50 lib/built-in.o
 .text.dp_part_node
                0x00000000178501cc      0x1dc lib/built-in.o
 .text.dp_fill  0x00000000178503a8      0x210 lib/built-in.o
 .text.dp_part_fill
                0x00000000178505b8       0x64 lib/built-in.o
 .text.efi_dp_next
                0x000000001785061c       0x3c lib/built-in.o
                0x000000001785061c                efi_dp_next
 .text.efi_dp_match
                0x0000000017850658       0x70 lib/built-in.o
                0x0000000017850658                efi_dp_match
 .text.efi_dp_last_node
                0x00000000178506c8       0x44 lib/built-in.o
                0x00000000178506c8                efi_dp_last_node
 .text.efi_dp_size
                0x000000001785070c       0x3c lib/built-in.o
                0x000000001785070c                efi_dp_size
 .text.find_obj
                0x0000000017850748      0x108 lib/built-in.o
 .text.efi_dp_find_obj
                0x0000000017850850       0x4c lib/built-in.o
                0x0000000017850850                efi_dp_find_obj
 .text.efi_dp_dup
                0x000000001785089c       0x40 lib/built-in.o
                0x000000001785089c                efi_dp_dup
 .text.efi_dp_append_node
                0x00000000178508dc       0xd8 lib/built-in.o
                0x00000000178508dc                efi_dp_append_node
 .text.efi_dp_from_part
                0x00000000178509b4       0x44 lib/built-in.o
                0x00000000178509b4                efi_dp_from_part
 .text.efi_dp_part_node
                0x00000000178509f8       0x38 lib/built-in.o
                0x00000000178509f8                efi_dp_part_node
 .text.efi_dp_from_file
                0x0000000017850a30       0xbc lib/built-in.o
                0x0000000017850a30                efi_dp_from_file
 .text.efi_dp_from_eth
                0x0000000017850aec       0x84 lib/built-in.o
                0x0000000017850aec                efi_dp_from_eth
 .text.efi_dp_from_mem
                0x0000000017850b70       0xf0 lib/built-in.o
                0x0000000017850b70                efi_dp_from_mem
 .text.efi_dp_split_file_path
                0x0000000017850c60       0x8c lib/built-in.o
                0x0000000017850c60                efi_dp_split_file_path
 .text.efi_file_flush
                0x0000000017850cec       0x14 lib/built-in.o
 .text.efi_file_setinfo
                0x0000000017850d00       0x14 lib/built-in.o
 .text.efi_file_getpos
                0x0000000017850d14       0x24 lib/built-in.o
 .text.efi_file_delete
                0x0000000017850d38       0x28 lib/built-in.o
 .text.set_blk_dev.isra.0
                0x0000000017850d60        0xc lib/built-in.o
 .text.efi_file_getinfo
                0x0000000017850d6c      0x114 lib/built-in.o
 .text.efi_file_setpos
                0x0000000017850e80       0x98 lib/built-in.o
 .text.efi_file_write
                0x0000000017850f18       0x84 lib/built-in.o
 .text.efi_file_read
                0x0000000017850f9c      0x188 lib/built-in.o
 .text.file_open
                0x0000000017851124      0x284 lib/built-in.o
 .text.efi_open_volume
                0x00000000178513a8       0x3c lib/built-in.o
 .text.efi_file_open
                0x00000000178513e4       0x54 lib/built-in.o
 .text.efi_file_close
                0x0000000017851438       0x28 lib/built-in.o
 .text.efi_file_from_path
                0x0000000017851460      0x124 lib/built-in.o
                0x0000000017851460                efi_file_from_path
 .text.efi_simple_file_system
                0x0000000017851584       0x44 lib/built-in.o
                0x0000000017851584                efi_simple_file_system
 .text.efi_to_native
                0x00000000178515c8       0x60 lib/built-in.o
 .text.prefix   0x0000000017851628       0x38 lib/built-in.o
 .text.hex      0x0000000017851660       0x40 lib/built-in.o
 .text.parse_attr.part.1
                0x00000000178516a0       0xa8 lib/built-in.o
 .text.efi_get_variable
                0x0000000017851748      0x228 lib/built-in.o
                0x0000000017851748                efi_get_variable
 .text.efi_get_next_variable
                0x0000000017851970       0x14 lib/built-in.o
                0x0000000017851970                efi_get_next_variable
 .text.efi_set_variable
                0x0000000017851984      0x228 lib/built-in.o
                0x0000000017851984                efi_set_variable
 .text.get_var.constprop.0
                0x0000000017851bac       0xb4 lib/built-in.o
 .text.efi_bootmgr_load
                0x0000000017851c60      0x180 lib/built-in.o
                0x0000000017851c60                efi_bootmgr_load
 .text.efi_watchdog_timer_notify
                0x0000000017851de0       0x44 lib/built-in.o
 .text.efi_set_watchdog
                0x0000000017851e24       0x2c lib/built-in.o
                0x0000000017851e24                efi_set_watchdog
 .text.efi_watchdog_register
                0x0000000017851e50       0x7c lib/built-in.o
                0x0000000017851e50                efi_watchdog_register
 .text.efi_disk_flush_blocks
                0x0000000017851ecc       0x14 lib/built-in.o
 .text.efi_disk_reset
                0x0000000017851ee0       0x14 lib/built-in.o
 .text.efi_disk_add_dev.isra.0.part.1
                0x0000000017851ef4      0x198 lib/built-in.o
 .text.efi_disk_read_blocks
                0x000000001785208c       0x70 lib/built-in.o
 .text.efi_disk_write_blocks
                0x00000000178520fc       0x70 lib/built-in.o
 .text.efi_fs_from_path
                0x000000001785216c       0x74 lib/built-in.o
                0x000000001785216c                efi_fs_from_path
 .text.efi_disk_create_partitions
                0x00000000178521e0       0xec lib/built-in.o
                0x00000000178521e0                efi_disk_create_partitions
 .text.efi_disk_register
                0x00000000178522cc      0x120 lib/built-in.o
                0x00000000178522cc                efi_disk_register
 .text.efi_net_push
                0x00000000178523ec       0x24 lib/built-in.o
 .text.efi_network_timer_notify
                0x0000000017852410       0x40 lib/built-in.o
 .text.efi_net_nvdata
                0x0000000017852450       0x14 lib/built-in.o
 .text.efi_net_mcastiptomac
                0x0000000017852464       0x14 lib/built-in.o
 .text.efi_net_statistics
                0x0000000017852478       0x14 lib/built-in.o
 .text.efi_net_station_address
                0x000000001785248c       0x14 lib/built-in.o
 .text.efi_net_receive_filters
                0x00000000178524a0       0x14 lib/built-in.o
 .text.efi_net_shutdown
                0x00000000178524b4       0x14 lib/built-in.o
 .text.efi_net_reset
                0x00000000178524c8       0x14 lib/built-in.o
 .text.efi_net_get_status
                0x00000000178524dc       0x64 lib/built-in.o
 .text.efi_net_initialize
                0x0000000017852540       0x18 lib/built-in.o
 .text.efi_net_transmit
                0x0000000017852558       0x50 lib/built-in.o
 .text.efi_net_receive
                0x00000000178525a8      0x134 lib/built-in.o
 .text.efi_net_stop
                0x00000000178526dc       0x14 lib/built-in.o
 .text.efi_net_start
                0x00000000178526f0       0x14 lib/built-in.o
 .text.efi_net_set_dhcp_ack
                0x0000000017852704       0x48 lib/built-in.o
                0x0000000017852704                efi_net_set_dhcp_ack
 .text.efi_net_register
                0x000000001785274c      0x254 lib/built-in.o
                0x000000001785274c                efi_net_register
 .text.efi_smbios_register
                0x00000000178529a0       0x4c lib/built-in.o
                0x00000000178529a0                efi_smbios_register
 .text.utf16_strlen
                0x00000000178529ec       0x20 lib/built-in.o
                0x00000000178529ec                utf16_strlen
 .text.utf16_strnlen
                0x0000000017852a0c       0x28 lib/built-in.o
                0x0000000017852a0c                utf16_strnlen
 .text.utf16_to_utf8
                0x0000000017852a34      0x11c lib/built-in.o
                0x0000000017852a34                utf16_to_utf8
 .text.utf8_to_utf16
                0x0000000017852b50       0xec lib/built-in.o
                0x0000000017852b50                utf8_to_utf16
 .text.crc16_ccitt
                0x0000000017852c3c       0x3c lib/built-in.o
                0x0000000017852c3c                crc16_ccitt
 .text.smbios_write_type127
                0x0000000017852c78       0x54 lib/built-in.o
 .text.smbios_write_type32
                0x0000000017852ccc       0x54 lib/built-in.o
 .text.smbios_string_table_len
                0x0000000017852d20       0x38 lib/built-in.o
 .text.smbios_add_string
                0x0000000017852d58       0x68 lib/built-in.o
 .text.smbios_write_type3
                0x0000000017852dc0       0x8c lib/built-in.o
 .text.smbios_write_type2
                0x0000000017852e4c       0x9c lib/built-in.o
 .text.smbios_write_type0
                0x0000000017852ee8       0xf4 lib/built-in.o
 .text.smbios_write_type1
                0x0000000017852fdc       0xc4 lib/built-in.o
 .text.smbios_write_type4
                0x00000000178530a0       0xd8 lib/built-in.o
 .text.write_smbios_table
                0x0000000017853178      0x11c lib/built-in.o
                0x0000000017853178                write_smbios_table
 .text.initcall_run_list
                0x0000000017853294       0x60 lib/built-in.o
                0x0000000017853294                initcall_run_list
 .text.lmb_add_region
                0x00000000178532f4      0x18c lib/built-in.o
 .text.lmb_init
                0x0000000017853480       0x28 lib/built-in.o
                0x0000000017853480                lmb_init
 .text.lmb_add  0x00000000178534a8        0x4 lib/built-in.o
                0x00000000178534a8                lmb_add
 .text.lmb_free
                0x00000000178534ac       0xe8 lib/built-in.o
                0x00000000178534ac                lmb_free
 .text.lmb_reserve
                0x0000000017853594        0x8 lib/built-in.o
                0x0000000017853594                lmb_reserve
 .text.__lmb_alloc_base
                0x000000001785359c      0x120 lib/built-in.o
                0x000000001785359c                __lmb_alloc_base
 .text.lmb_alloc_base
                0x00000000178536bc       0x34 lib/built-in.o
                0x00000000178536bc                lmb_alloc_base
 .text.lmb_alloc
                0x00000000178536f0        0x8 lib/built-in.o
                0x00000000178536f0                lmb_alloc
 .text.string_to_ip
                0x00000000178536f8       0x94 lib/built-in.o
                0x00000000178536f8                string_to_ip
 .text.qsort    0x000000001785378c       0xec lib/built-in.o
                0x000000001785378c                qsort
 .text.strcmp_compar
                0x0000000017853878        0xc lib/built-in.o
                0x0000000017853878                strcmp_compar
 .text.merge    0x0000000017853884       0x68 lib/built-in.o
 .text.list_sort
                0x00000000178538ec      0x194 lib/built-in.o
                0x00000000178538ec                list_sort
 .text.zcalloc  0x0000000017853a80        0x8 lib/built-in.o
                0x0000000017853a80                zcalloc
 .text.zcfree   0x0000000017853a88        0x8 lib/built-in.o
                0x0000000017853a88                zcfree
 .text.inflate_fast
                0x0000000017853a90      0x570 lib/built-in.o
                0x0000000017853a90                inflate_fast
 .text.inflate_table
                0x0000000017854000      0x528 lib/built-in.o
                0x0000000017854000                inflate_table
 .text.inflateReset
                0x0000000017854528       0x78 lib/built-in.o
                0x0000000017854528                inflateReset
 .text.inflateInit2_
                0x00000000178545a0      0x100 lib/built-in.o
                0x00000000178545a0                inflateInit2_
 .text.inflateEnd
                0x00000000178546a0       0x64 lib/built-in.o
                0x00000000178546a0                inflateEnd
 .text.adler32  0x0000000017854704      0x33c lib/built-in.o
                0x0000000017854704                adler32
 .text.inflate  0x0000000017854a40     0x14bc lib/built-in.o
                0x0000000017854a40                inflate
 .text.gzalloc  0x0000000017855efc       0x10 lib/built-in.o
                0x0000000017855efc                gzalloc
 .text.gzfree   0x0000000017855f0c        0x8 lib/built-in.o
                0x0000000017855f0c                gzfree
 .text.gzip_parse_header
                0x0000000017855f14       0xa0 lib/built-in.o
                0x0000000017855f14                gzip_parse_header
 .text.zunzip   0x0000000017855fb4      0x11c lib/built-in.o
                0x0000000017855fb4                zunzip
 .text.gunzip   0x00000000178560d0       0x50 lib/built-in.o
                0x00000000178560d0                gunzip
 .text.fdt_check_header
                0x0000000017856120       0x74 lib/built-in.o
                0x0000000017856120                fdt_check_header
 .text.fdt_offset_ptr
                0x0000000017856194       0x6c lib/built-in.o
                0x0000000017856194                fdt_offset_ptr
 .text.fdt_next_tag
                0x0000000017856200       0xfc lib/built-in.o
                0x0000000017856200                fdt_next_tag
 .text._fdt_check_node_offset
                0x00000000178562fc       0x3c lib/built-in.o
                0x00000000178562fc                _fdt_check_node_offset
 .text._fdt_check_prop_offset
                0x0000000017856338       0x3c lib/built-in.o
                0x0000000017856338                _fdt_check_prop_offset
 .text.fdt_next_node
                0x0000000017856374       0xbc lib/built-in.o
                0x0000000017856374                fdt_next_node
 .text.fdt_first_subnode
                0x0000000017856430       0x34 lib/built-in.o
                0x0000000017856430                fdt_first_subnode
 .text.fdt_next_subnode
                0x0000000017856464       0x50 lib/built-in.o
                0x0000000017856464                fdt_next_subnode
 .text._fdt_find_string
                0x00000000178564b4       0x58 lib/built-in.o
                0x00000000178564b4                _fdt_find_string
 .text.fdt_move
                0x000000001785650c       0x44 lib/built-in.o
                0x000000001785650c                fdt_move
 .text._fdt_node_end_offset
                0x0000000017856550       0x44 lib/built-in.o
                0x0000000017856550                _fdt_node_end_offset
 .text.fdt_strerror
                0x0000000017856594       0x58 lib/built-in.o
                0x0000000017856594                fdt_strerror
 .text._fdt_blocks_misordered
                0x00000000178565ec       0x64 lib/built-in.o
 .text._fdt_splice
                0x0000000017856650       0x90 lib/built-in.o
 .text._fdt_splice_mem_rsv
                0x00000000178566e0       0x58 lib/built-in.o
 .text._fdt_splice_struct
                0x0000000017856738       0x4c lib/built-in.o
 .text._fdt_packblocks
                0x0000000017856784       0x8c lib/built-in.o
 .text._fdt_add_property
                0x0000000017856810      0x124 lib/built-in.o
 .text._fdt_rw_check_header
                0x0000000017856934       0x60 lib/built-in.o
 .text.fdt_add_mem_rsv
                0x0000000017856994       0x88 lib/built-in.o
                0x0000000017856994                fdt_add_mem_rsv
 .text.fdt_del_mem_rsv
                0x0000000017856a1c       0x58 lib/built-in.o
                0x0000000017856a1c                fdt_del_mem_rsv
 .text.fdt_setprop_placeholder
                0x0000000017856a74       0xd0 lib/built-in.o
                0x0000000017856a74                fdt_setprop_placeholder
 .text.fdt_setprop
                0x0000000017856b44       0x48 lib/built-in.o
                0x0000000017856b44                fdt_setprop
 .text.fdt_delprop
                0x0000000017856b8c       0x68 lib/built-in.o
                0x0000000017856b8c                fdt_delprop
 .text.fdt_add_subnode_namelen
                0x0000000017856bf4       0xf0 lib/built-in.o
                0x0000000017856bf4                fdt_add_subnode_namelen
 .text.fdt_add_subnode
                0x0000000017856ce4       0x30 lib/built-in.o
                0x0000000017856ce4                fdt_add_subnode
 .text.fdt_del_node
                0x0000000017856d14       0x50 lib/built-in.o
                0x0000000017856d14                fdt_del_node
 .text.fdt_open_into
                0x0000000017856d64      0x194 lib/built-in.o
                0x0000000017856d64                fdt_open_into
 .text.fdt_address_cells
                0x0000000017856ef8       0x4c lib/built-in.o
                0x0000000017856ef8                fdt_address_cells
 .text.fdt_size_cells
                0x0000000017856f44       0x48 lib/built-in.o
                0x0000000017856f44                fdt_size_cells
 .text.fdt_path_next_separator
                0x0000000017856f8c       0x50 lib/built-in.o
 .text._nextprop
                0x0000000017856fdc       0x54 lib/built-in.o
 .text.fdt_string
                0x0000000017857030       0x14 lib/built-in.o
                0x0000000017857030                fdt_string
 .text.fdt_get_mem_rsv
                0x0000000017857044       0x60 lib/built-in.o
                0x0000000017857044                fdt_get_mem_rsv
 .text.fdt_num_mem_rsv
                0x00000000178570a4       0x40 lib/built-in.o
                0x00000000178570a4                fdt_num_mem_rsv
 .text.fdt_subnode_offset_namelen
                0x00000000178570e4       0xd0 lib/built-in.o
                0x00000000178570e4                fdt_subnode_offset_namelen
 .text.fdt_subnode_offset
                0x00000000178571b4       0x30 lib/built-in.o
                0x00000000178571b4                fdt_subnode_offset
 .text.fdt_get_name
                0x00000000178571e4       0x70 lib/built-in.o
                0x00000000178571e4                fdt_get_name
 .text.fdt_first_property_offset
                0x0000000017857254       0x20 lib/built-in.o
                0x0000000017857254                fdt_first_property_offset
 .text.fdt_next_property_offset
                0x0000000017857274       0x20 lib/built-in.o
                0x0000000017857274                fdt_next_property_offset
 .text.fdt_get_property_by_offset
                0x0000000017857294       0x50 lib/built-in.o
                0x0000000017857294                fdt_get_property_by_offset
 .text.fdt_get_property_namelen
                0x00000000178572e4       0xb8 lib/built-in.o
                0x00000000178572e4                fdt_get_property_namelen
 .text.fdt_get_property
                0x000000001785739c       0x3c lib/built-in.o
                0x000000001785739c                fdt_get_property
 .text.fdt_getprop_namelen
                0x00000000178573d8       0x20 lib/built-in.o
                0x00000000178573d8                fdt_getprop_namelen
 .text.fdt_getprop_by_offset
                0x00000000178573f8       0x48 lib/built-in.o
                0x00000000178573f8                fdt_getprop_by_offset
 .text.fdt_getprop
                0x0000000017857440       0x3c lib/built-in.o
                0x0000000017857440                fdt_getprop
 .text.fdt_get_phandle
                0x000000001785747c       0x70 lib/built-in.o
                0x000000001785747c                fdt_get_phandle
 .text.fdt_get_alias_namelen
                0x00000000178574ec       0x44 lib/built-in.o
                0x00000000178574ec                fdt_get_alias_namelen
 .text.fdt_path_offset_namelen
                0x0000000017857530       0xe4 lib/built-in.o
                0x0000000017857530                fdt_path_offset_namelen
 .text.fdt_path_offset
                0x0000000017857614       0x28 lib/built-in.o
                0x0000000017857614                fdt_path_offset
 .text.fdt_supernode_atdepth_offset
                0x000000001785763c       0xa4 lib/built-in.o
                0x000000001785763c                fdt_supernode_atdepth_offset
 .text.fdt_node_depth
                0x00000000178576e0       0x28 lib/built-in.o
                0x00000000178576e0                fdt_node_depth
 .text.fdt_parent_offset
                0x0000000017857708       0x30 lib/built-in.o
                0x0000000017857708                fdt_parent_offset
 .text.fdt_node_offset_by_phandle
                0x0000000017857738       0x6c lib/built-in.o
                0x0000000017857738                fdt_node_offset_by_phandle
 .text.fdt_stringlist_contains
                0x00000000178577a4       0x7c lib/built-in.o
                0x00000000178577a4                fdt_stringlist_contains
 .text.fdt_stringlist_search
                0x0000000017857820       0xa4 lib/built-in.o
                0x0000000017857820                fdt_stringlist_search
 .text.fdt_node_check_compatible
                0x00000000178578c4       0x40 lib/built-in.o
                0x00000000178578c4                fdt_node_check_compatible
 .text.fdt_node_offset_by_compatible
                0x0000000017857904       0x74 lib/built-in.o
                0x0000000017857904                fdt_node_offset_by_compatible
 .text.fdtdec_get_int
                0x0000000017857978       0x34 lib/built-in.o
                0x0000000017857978                fdtdec_get_int
 .text.get_prop_check_min_len
                0x00000000178579ac       0x3c lib/built-in.o
 .text.fdtdec_get_is_enabled
                0x00000000178579e8       0x3c lib/built-in.o
                0x00000000178579e8                fdtdec_get_is_enabled
 .text.fdtdec_get_alias_seq
                0x0000000017857a24      0x118 lib/built-in.o
                0x0000000017857a24                fdtdec_get_alias_seq
 .text.fdtdec_prepare_fdt
                0x0000000017857b3c       0x44 lib/built-in.o
                0x0000000017857b3c                fdtdec_prepare_fdt
 .text.fdtdec_lookup_phandle
                0x0000000017857b80       0x34 lib/built-in.o
                0x0000000017857b80                fdtdec_lookup_phandle
 .text.fdtdec_get_int_array
                0x0000000017857bb4       0x60 lib/built-in.o
                0x0000000017857bb4                fdtdec_get_int_array
 .text.fdtdec_get_int_array_count
                0x0000000017857c14       0x58 lib/built-in.o
                0x0000000017857c14                fdtdec_get_int_array_count
 .text.fdtdec_get_bool
                0x0000000017857c6c       0x1c lib/built-in.o
                0x0000000017857c6c                fdtdec_get_bool
 .text.fdtdec_parse_phandle_with_args
                0x0000000017857c88      0x15c lib/built-in.o
                0x0000000017857c88                fdtdec_parse_phandle_with_args
 .text.fdtdec_get_config_int
                0x0000000017857de4       0x40 lib/built-in.o
                0x0000000017857de4                fdtdec_get_config_int
 .text.fdtdec_get_config_string
                0x0000000017857e24       0x3c lib/built-in.o
                0x0000000017857e24                fdtdec_get_config_string
 .text.fdtdec_get_number
                0x0000000017857e60       0x48 lib/built-in.o
                0x0000000017857e60                fdtdec_get_number
 .text.fdtdec_get_addr_size_fixed
                0x0000000017857ea8       0xbc lib/built-in.o
                0x0000000017857ea8                fdtdec_get_addr_size_fixed
 .text.fdtdec_get_addr_size
                0x0000000017857f64       0x34 lib/built-in.o
                0x0000000017857f64                fdtdec_get_addr_size
 .text.fdtdec_get_addr
                0x0000000017857f98        0x8 lib/built-in.o
                0x0000000017857f98                fdtdec_get_addr
 .text.board_fdt_blob_setup
                0x0000000017857fa0        0xc lib/built-in.o
                0x0000000017857fa0                board_fdt_blob_setup
 .text.fdtdec_setup
                0x0000000017857fac       0x34 lib/built-in.o
                0x0000000017857fac                fdtdec_setup
 .text.cmpkey   0x0000000017857fe0       0x14 lib/built-in.o
 .text._hdelete.isra.0
                0x0000000017857ff4       0x50 lib/built-in.o
 .text.drop_var_from_set.part.1
                0x0000000017858044       0x50 lib/built-in.o
 .text.match_string
                0x0000000017858094       0xb4 lib/built-in.o
 .text.match_entry
                0x0000000017858148       0xb4 lib/built-in.o
 .text.hcreate_r
                0x00000000178581fc       0xa4 lib/built-in.o
                0x00000000178581fc                hcreate_r
 .text.hdestroy_r
                0x00000000178582a0       0x74 lib/built-in.o
                0x00000000178582a0                hdestroy_r
 .text.hmatch_r
                0x0000000017858314       0xa0 lib/built-in.o
                0x0000000017858314                hmatch_r
 .text.hsearch_r
                0x00000000178583b4      0x474 lib/built-in.o
                0x00000000178583b4                hsearch_r
 .text.hdelete_r
                0x0000000017858828       0xec lib/built-in.o
                0x0000000017858828                hdelete_r
 .text.hexport_r
                0x0000000017858914      0x29c lib/built-in.o
                0x0000000017858914                hexport_r
 .text.himport_r
                0x0000000017858bb0      0x3ec lib/built-in.o
                0x0000000017858bb0                himport_r
 .text.hwalk_r  0x0000000017858f9c       0x5c lib/built-in.o
                0x0000000017858f9c                hwalk_r
 .text.display_options_get_banner_priv
                0x0000000017858ff8       0x98 lib/built-in.o
                0x0000000017858ff8                display_options_get_banner_priv
 .text.display_options_get_banner
                0x0000000017859090       0x10 lib/built-in.o
                0x0000000017859090                display_options_get_banner
 .text.display_options
                0x00000000178590a0       0x34 lib/built-in.o
                0x00000000178590a0                display_options
 .text.print_size
                0x00000000178590d4      0x13c lib/built-in.o
                0x00000000178590d4                print_size
 .text.print_buffer
                0x0000000017859210      0x1b4 lib/built-in.o
                0x0000000017859210                print_buffer
 .text.crc32_no_comp
                0x00000000178593c4       0xd4 lib/built-in.o
                0x00000000178593c4                crc32_no_comp
 .text.crc32    0x0000000017859498       0x14 lib/built-in.o
                0x0000000017859498                crc32
 .text.crc32_wd
                0x00000000178594ac        0x4 lib/built-in.o
                0x00000000178594ac                crc32_wd
 .text.crc32_wd_buf
                0x00000000178594b0       0x38 lib/built-in.o
                0x00000000178594b0                crc32_wd_buf
 .text.__div64_32
                0x00000000178594e8       0xd0 lib/built-in.o
                0x00000000178594e8                __div64_32
 .text.div_s64_rem
                0x00000000178595b8       0xf8 lib/built-in.o
                0x00000000178595b8                div_s64_rem
 .text.hang     0x00000000178596b0       0x1c lib/built-in.o
                0x00000000178596b0                hang
 .text.kmalloc  0x00000000178596cc       0x38 lib/built-in.o
                0x00000000178596cc                kmalloc
 .text.skip_spaces
                0x0000000017859704       0x28 lib/built-in.o
                0x0000000017859704                skip_spaces
 .text.strim    0x000000001785972c       0x5c lib/built-in.o
                0x000000001785972c                strim
 .text.emit     0x0000000017859788       0x24 lib/built-in.o
 .text.store_char_in_data
                0x00000000178597ac       0x28 lib/built-in.o
 .text.get_escape_char
                0x00000000178597d4       0x84 lib/built-in.o
 .text.relocate
                0x0000000017859858       0x40 lib/built-in.o
 .text.match    0x0000000017859898      0x3f4 lib/built-in.o
 .text.loop_greedy
                0x0000000017859c8c       0x94 lib/built-in.o
 .text.loop_non_greedy
                0x0000000017859d20       0x80 lib/built-in.o
 .text.quantifier
                0x0000000017859da0       0x94 lib/built-in.o
 .text.fixup_branch
                0x0000000017859e34       0x3c lib/built-in.o
 .text.compile  0x0000000017859e70      0x348 lib/built-in.o
 .text.slre_compile
                0x000000001785a1b8       0xd0 lib/built-in.o
                0x000000001785a1b8                slre_compile
 .text.slre_match
                0x000000001785a288       0x9c lib/built-in.o
                0x000000001785a288                slre_match
 .text.strncasecmp
                0x000000001785a324       0x80 lib/built-in.o
                0x000000001785a324                strncasecmp
 .text.strcpy   0x000000001785a3a4       0x18 lib/built-in.o
                0x000000001785a3a4                strcpy
 .text.strncpy  0x000000001785a3bc       0x24 lib/built-in.o
                0x000000001785a3bc                strncpy
 .text.strcat   0x000000001785a3e0       0x30 lib/built-in.o
                0x000000001785a3e0                strcat
 .text.strncat  0x000000001785a410       0x50 lib/built-in.o
                0x000000001785a410                strncat
 .text.strcmp   0x000000001785a460       0x28 lib/built-in.o
                0x000000001785a460                strcmp
 .text.strncmp  0x000000001785a488       0x3c lib/built-in.o
                0x000000001785a488                strncmp
 .text.strchr   0x000000001785a4c4       0x2c lib/built-in.o
                0x000000001785a4c4                strchr
 .text.strlen   0x000000001785a4f0       0x24 lib/built-in.o
                0x000000001785a4f0                strlen
 .text.strrchr  0x000000001785a514       0x3c lib/built-in.o
                0x000000001785a514                strrchr
 .text.strnlen  0x000000001785a550       0x30 lib/built-in.o
                0x000000001785a550                strnlen
 .text.strdup   0x000000001785a580       0x34 lib/built-in.o
                0x000000001785a580                strdup
 .text.strspn   0x000000001785a5b4       0x3c lib/built-in.o
                0x000000001785a5b4                strspn
 .text.strpbrk  0x000000001785a5f0       0x44 lib/built-in.o
                0x000000001785a5f0                strpbrk
 .text.strtok   0x000000001785a634       0x78 lib/built-in.o
                0x000000001785a634                strtok
 .text.strsep   0x000000001785a6ac       0x38 lib/built-in.o
                0x000000001785a6ac                strsep
 .text.memmove  0x000000001785a6e4       0x40 lib/built-in.o
                0x000000001785a6e4                memmove
 .text.memcmp   0x000000001785a724       0x34 lib/built-in.o
                0x000000001785a724                memcmp
 .text.strstr   0x000000001785a758       0x6c lib/built-in.o
                0x000000001785a758                strstr
 .text.memchr   0x000000001785a7c4       0x30 lib/built-in.o
                0x000000001785a7c4                memchr
 .text.tick_to_time
                0x000000001785a7f4       0x64 lib/built-in.o
 .text.get_ticks
                0x000000001785a858       0x40 lib/built-in.o
                0x000000001785a858                get_ticks
 .text.get_timer
                0x000000001785a898       0x18 lib/built-in.o
                0x000000001785a898                get_timer
 .text.timer_get_us
                0x000000001785a8b0       0x24 lib/built-in.o
                0x000000001785a8b0                timer_get_us
 .text.__udelay
                0x000000001785a8d4       0xb8 lib/built-in.o
                0x000000001785a8d4                __udelay
 .text.udelay   0x000000001785a98c       0x30 lib/built-in.o
                0x000000001785a98c                udelay
 .text.uuid_str_valid
                0x000000001785a9bc       0x8c lib/built-in.o
                0x000000001785a9bc                uuid_str_valid
 .text.uuid_str_to_bin
                0x000000001785aa48      0x194 lib/built-in.o
                0x000000001785aa48                uuid_str_to_bin
 .text.uuid_bin_to_str
                0x000000001785abdc       0xac lib/built-in.o
                0x000000001785abdc                uuid_bin_to_str
 .text.put_dec_trunc
                0x000000001785ac88       0xd4 lib/built-in.o
 *fill*         0x000000001785ad5c        0x4 
 .text.put_dec  0x000000001785ad60      0x1a4 lib/built-in.o
 .text.number   0x000000001785af04      0x2b4 lib/built-in.o
 .text.string16
                0x000000001785b1b8       0xe8 lib/built-in.o
 .text.string   0x000000001785b2a0       0xbc lib/built-in.o
 .text.vsnprintf_internal
                0x000000001785b35c      0x720 lib/built-in.o
 .text.vscnprintf
                0x000000001785ba7c       0x24 lib/built-in.o
                0x000000001785ba7c                vscnprintf
 .text.snprintf
                0x000000001785baa0       0x28 lib/built-in.o
                0x000000001785baa0                snprintf
 .text.vsprintf
                0x000000001785bac8       0x10 lib/built-in.o
                0x000000001785bac8                vsprintf
 .text.sprintf  0x000000001785bad8       0x28 lib/built-in.o
                0x000000001785bad8                sprintf
 .text.printf   0x000000001785bb00       0x48 lib/built-in.o
                0x000000001785bb00                printf
 .text.vprintf  0x000000001785bb48       0x38 lib/built-in.o
                0x000000001785bb48                vprintf
 .text.simple_itoa
                0x000000001785bb80       0x58 lib/built-in.o
                0x000000001785bb80                simple_itoa
 .text.str2off  0x000000001785bbd8       0x3c lib/built-in.o
                0x000000001785bbd8                str2off
 .text.panic_finish
                0x000000001785bc14       0x30 lib/built-in.o
 .text.panic    0x000000001785bc44       0x1c lib/built-in.o
                0x000000001785bc44                panic
 .text._parse_integer_fixup_radix
                0x000000001785bc60       0x98 lib/built-in.o
 .text.simple_strtoul
                0x000000001785bcf8       0x78 lib/built-in.o
                0x000000001785bcf8                simple_strtoul
 .text.strict_strtoul
                0x000000001785bd70       0x78 lib/built-in.o
                0x000000001785bd70                strict_strtoul
 .text.simple_strtol
                0x000000001785bde8       0x24 lib/built-in.o
                0x000000001785bde8                simple_strtol
 .text.ustrtoul
                0x000000001785be0c       0x70 lib/built-in.o
                0x000000001785be0c                ustrtoul
 .text.simple_strtoull
                0x000000001785be7c       0x9c lib/built-in.o
                0x000000001785be7c                simple_strtoull
 .text.ustrtoull
                0x000000001785bf18       0x88 lib/built-in.o
                0x000000001785bf18                ustrtoull
 .text.trailing_strtoln
                0x000000001785bfa0       0x70 lib/built-in.o
                0x000000001785bfa0                trailing_strtoln
 .text.trailing_strtol
                0x000000001785c010        0x8 lib/built-in.o
                0x000000001785c010                trailing_strtol
 .text.compute_ip_checksum
                0x000000001785c018       0x64 net/built-in.o
                0x000000001785c018                compute_ip_checksum
 .text.ip_checksum_ok
                0x000000001785c07c       0x1c net/built-in.o
                0x000000001785c07c                ip_checksum_ok
 .text.arp_init
                0x000000001785c098       0x50 net/built-in.o
                0x000000001785c098                arp_init
 .text.arp_raw_request
                0x000000001785c0e8       0xd0 net/built-in.o
                0x000000001785c0e8                arp_raw_request
 .text.arp_request
                0x000000001785c1b8       0x84 net/built-in.o
                0x000000001785c1b8                arp_request
 .text.arp_timeout_check
                0x000000001785c23c       0x8c net/built-in.o
                0x000000001785c23c                arp_timeout_check
 .text.arp_receive
                0x000000001785c2c8      0x234 net/built-in.o
                0x000000001785c2c8                arp_receive
 .text.dhcp_extended
                0x000000001785c4fc      0x220 net/built-in.o
 .text.dhcp_process_options
                0x000000001785c71c      0x1f8 net/built-in.o
 .text.dhcp_packet_process_options
                0x000000001785c914       0x84 net/built-in.o
 .text.dhcp_handler
                0x000000001785c998      0x400 net/built-in.o
 .text.bootp_reset
                0x000000001785cd98       0x44 net/built-in.o
                0x000000001785cd98                bootp_reset
 .text.bootp_request
                0x000000001785cddc      0x2a0 net/built-in.o
                0x000000001785cddc                bootp_request
 .text.bootp_timeout_handler
                0x000000001785d07c       0x70 net/built-in.o
 .text.dhcp_request
                0x000000001785d0ec        0x4 net/built-in.o
                0x000000001785d0ec                dhcp_request
 .text.eth_get_uclass_priv
                0x000000001785d0f0       0x28 net/built-in.o
 .text.eth_pre_remove
                0x000000001785d118       0x30 net/built-in.o
 .text.eth_post_probe
                0x000000001785d148      0x194 net/built-in.o
 .text.eth_write_hwaddr
                0x000000001785d2dc       0xd8 net/built-in.o
 .text.on_ethaddr
                0x000000001785d3b4       0x84 net/built-in.o
 .text.eth_post_bind
                0x000000001785d438       0x34 net/built-in.o
 .text.eth_set_current_to_next
                0x000000001785d46c       0x38 net/built-in.o
                0x000000001785d46c                eth_set_current_to_next
 .text.eth_get_dev
                0x000000001785d4a4       0x38 net/built-in.o
                0x000000001785d4a4                eth_get_dev
 .text.eth_set_dev
                0x000000001785d4dc       0x40 net/built-in.o
                0x000000001785d4dc                eth_set_dev
 .text.eth_pre_unbind
                0x000000001785d51c       0x28 net/built-in.o
 .text.eth_get_dev_by_name
                0x000000001785d544       0xf8 net/built-in.o
                0x000000001785d544                eth_get_dev_by_name
 .text.eth_get_ethaddr
                0x000000001785d63c       0x20 net/built-in.o
                0x000000001785d63c                eth_get_ethaddr
 .text.eth_halt_state_only
                0x000000001785d65c       0x28 net/built-in.o
                0x000000001785d65c                eth_halt_state_only
 .text.eth_get_dev_index
                0x000000001785d684       0x24 net/built-in.o
                0x000000001785d684                eth_get_dev_index
 .text.eth_init
                0x000000001785d6a8       0xf4 net/built-in.o
                0x000000001785d6a8                eth_init
 .text.eth_halt
                0x000000001785d79c       0x3c net/built-in.o
                0x000000001785d79c                eth_halt
 .text.eth_send
                0x000000001785d7d8       0x50 net/built-in.o
                0x000000001785d7d8                eth_send
 .text.eth_rx   0x000000001785d828       0xac net/built-in.o
                0x000000001785d828                eth_rx
 .text.eth_initialize
                0x000000001785d8d4      0x100 net/built-in.o
                0x000000001785d8d4                eth_initialize
 .text.eth_parse_enetaddr
                0x000000001785d9d4       0x5c net/built-in.o
                0x000000001785d9d4                eth_parse_enetaddr
 .text.eth_env_get_enetaddr
                0x000000001785da30       0x5c net/built-in.o
                0x000000001785da30                eth_env_get_enetaddr
 .text.eth_env_set_enetaddr
                0x000000001785da8c       0x4c net/built-in.o
                0x000000001785da8c                eth_env_set_enetaddr
 .text.eth_env_get_enetaddr_by_index
                0x000000001785dad8       0x4c net/built-in.o
                0x000000001785dad8                eth_env_get_enetaddr_by_index
 .text.eth_env_set_enetaddr_by_index
                0x000000001785db24       0x4c net/built-in.o
                0x000000001785db24                eth_env_set_enetaddr_by_index
 .text.eth_common_init
                0x000000001785db70       0x18 net/built-in.o
                0x000000001785db70                eth_common_init
 .text.eth_mac_skip
                0x000000001785db88       0x40 net/built-in.o
                0x000000001785db88                eth_mac_skip
 .text.eth_get_name
                0x000000001785dbc8       0x28 net/built-in.o
                0x000000001785dbc8                eth_get_name
 .text.eth_current_changed
                0x000000001785dbf0       0x90 net/built-in.o
                0x000000001785dbf0                eth_current_changed
 .text.eth_try_another
                0x000000001785dc80       0x84 net/built-in.o
                0x000000001785dc80                eth_try_another
 .text.eth_set_current
                0x000000001785dd04       0x90 net/built-in.o
                0x000000001785dd04                eth_set_current
 .text.net_clear_handlers
                0x000000001785dd94       0x34 net/built-in.o
 .text.start_again_timeout_handler
                0x000000001785ddc8       0x14 net/built-in.o
 .text.dummy_handler
                0x000000001785dddc        0x4 net/built-in.o
 .text.on_ipaddr
                0x000000001785dde0       0x30 net/built-in.o
 .text.on_gatewayip
                0x000000001785de10       0x30 net/built-in.o
 .text.on_netmask
                0x000000001785de40       0x30 net/built-in.o
 .text.on_serverip
                0x000000001785de70       0x30 net/built-in.o
 .text.net_init_loop
                0x000000001785dea0       0x2c net/built-in.o
 .text.net_auto_load
                0x000000001785decc       0x64 net/built-in.o
                0x000000001785decc                net_auto_load
 .text.net_init
                0x000000001785df30       0x70 net/built-in.o
                0x000000001785df30                net_init
 .text.net_start_again
                0x000000001785dfa0      0x168 net/built-in.o
                0x000000001785dfa0                net_start_again
 .text.net_loop
                0x000000001785e108      0x360 net/built-in.o
                0x000000001785e108                net_loop
 .text.net_set_udp_handler
                0x000000001785e468       0x20 net/built-in.o
                0x000000001785e468                net_set_udp_handler
 .text.net_get_arp_handler
                0x000000001785e488       0x10 net/built-in.o
                0x000000001785e488                net_get_arp_handler
 .text.net_set_timeout_handler
                0x000000001785e498       0x5c net/built-in.o
                0x000000001785e498                net_set_timeout_handler
 .text.net_process_received_packet
                0x000000001785e4f4      0x314 net/built-in.o
                0x000000001785e4f4                net_process_received_packet
 .text.net_eth_hdr_size
                0x000000001785e808       0x3c net/built-in.o
                0x000000001785e808                net_eth_hdr_size
 .text.net_set_ether
                0x000000001785e844       0xd0 net/built-in.o
                0x000000001785e844                net_set_ether
 .text.net_update_ether
                0x000000001785e914       0xb0 net/built-in.o
                0x000000001785e914                net_update_ether
 .text.net_set_ip_header
                0x000000001785e9c4       0xa8 net/built-in.o
                0x000000001785e9c4                net_set_ip_header
 .text.net_set_udp_header
                0x000000001785ea6c       0xc4 net/built-in.o
                0x000000001785ea6c                net_set_udp_header
 .text.net_send_udp_packet
                0x000000001785eb30      0x108 net/built-in.o
                0x000000001785eb30                net_send_udp_packet
 .text.copy_filename
                0x000000001785ec38       0x44 net/built-in.o
                0x000000001785ec38                copy_filename
 .text.on_bootfile
                0x000000001785ec7c       0x44 net/built-in.o
 .text.ip_to_string
                0x000000001785ecc0       0x3c net/built-in.o
                0x000000001785ecc0                ip_to_string
 .text.string_to_vlan
                0x000000001785ecfc       0x50 net/built-in.o
                0x000000001785ecfc                string_to_vlan
 .text.on_nvlan
                0x000000001785ed4c       0x30 net/built-in.o
 .text.on_vlan  0x000000001785ed7c       0x30 net/built-in.o
 .text.rpc_lookup_reply
                0x000000001785edac       0xb8 net/built-in.o
 .text.nfs_mount_reply
                0x000000001785ee64       0xac net/built-in.o
 .text.nfs_umountall_reply
                0x000000001785ef10       0x9c net/built-in.o
 .text.nfs_lookup_reply
                0x000000001785efac      0x11c net/built-in.o
 .text.nfs3_get_attributes_offset
                0x000000001785f0c8       0x14 net/built-in.o
 .text.nfs_readlink_reply
                0x000000001785f0dc      0x124 net/built-in.o
 .text.basename
                0x000000001785f200       0x3c net/built-in.o
 .text.rpc_req  0x000000001785f23c      0x124 net/built-in.o
 .text.nfs_umountall_req
                0x000000001785f360       0x84 net/built-in.o
 .text.nfs_read_reply.isra.0
                0x000000001785f3e4      0x168 net/built-in.o
 .text.nfs_mount_req
                0x000000001785f54c       0xbc net/built-in.o
 .text.nfs_readlink_req
                0x000000001785f608       0xc8 net/built-in.o
 .text.nfs_lookup_req
                0x000000001785f6d0      0x18c net/built-in.o
 .text.nfs_read_req
                0x000000001785f85c       0xf4 net/built-in.o
 .text.nfs_send
                0x000000001785f950      0x154 net/built-in.o
 .text.nfs_handler
                0x000000001785faa4      0x23c net/built-in.o
 .text.nfs_timeout_handler
                0x000000001785fce0       0x64 net/built-in.o
 .text.nfs_start
                0x000000001785fd44      0x170 net/built-in.o
                0x000000001785fd44                nfs_start
 .text.ping_timeout_handler
                0x000000001785feb4       0x1c net/built-in.o
 .text.ping_start
                0x000000001785fed0      0x14c net/built-in.o
                0x000000001785fed0                ping_start
 .text.ping_receive
                0x000000001786001c      0x104 net/built-in.o
                0x000000001786001c                ping_receive
 .text.tftp_send
                0x0000000017860120      0x1d4 net/built-in.o
 .text.tftp_handler
                0x00000000178602f4      0x38c net/built-in.o
 .text.tftp_timeout_handler
                0x0000000017860680       0x88 net/built-in.o
 .text.tftp_start
                0x0000000017860708      0x388 net/built-in.o
                0x0000000017860708                tftp_start
 .text.do_dm_dump_devres
                0x0000000017860a90        0x8 test/dm/built-in.o
 .text.do_dm    0x0000000017860a98       0x74 test/dm/built-in.o
 .text.do_dm_dump_uclass
                0x0000000017860b0c       0x10 test/dm/built-in.o
 .text.do_dm_dump_all
                0x0000000017860b1c       0x10 test/dm/built-in.o
 .text.__ashldi3
                0x0000000017860b2c       0x1c arch/arm/lib/lib.a(ashldi3.o)
                0x0000000017860b2c                __ashldi3
                0x0000000017860b2c                __aeabi_llsl
 .text.__udivsi3
                0x0000000017860b48       0x9c arch/arm/lib/lib.a(lib1funcs.o)
                0x0000000017860b48                __udivsi3
                0x0000000017860b48                __aeabi_uidiv
 .text.__divsi3
                0x0000000017860be4       0xcc arch/arm/lib/lib.a(lib1funcs.o)
                0x0000000017860be4                __aeabi_idiv
                0x0000000017860be4                __divsi3
 .text.__aeabi_uidivmod
                0x0000000017860cb0       0x30 arch/arm/lib/lib.a(lib1funcs.o)
                0x0000000017860cb0                __aeabi_uidivmod
                0x0000000017860cc8                __aeabi_idivmod
 .text.Ldiv0    0x0000000017860ce0       0x10 arch/arm/lib/lib.a(lib1funcs.o)
 .text.__lshldi3
                0x0000000017860cf0       0x1c arch/arm/lib/lib.a(lshrdi3.o)
                0x0000000017860cf0                __aeabi_llsr
                0x0000000017860cf0                __lshrdi3
 .text.__aeabi_uldivmod
                0x0000000017860d0c      0x184 arch/arm/lib/lib.a(uldivmod.o)
                0x0000000017860d0c                __aeabi_uldivmod
 .text.__div0   0x0000000017860e90        0x4 arch/arm/lib/lib.a(div0.o)
                0x0000000017860e90                __div0

.glue_7         0x0000000017860e94        0x0
 .glue_7        0x0000000017860e94        0x0 linker stubs

.glue_7t        0x0000000017860e94        0x0
 .glue_7t       0x0000000017860e94        0x0 linker stubs

.vfp11_veneer   0x0000000017860e94        0x0
 .vfp11_veneer  0x0000000017860e94        0x0 linker stubs

.v4_bx          0x0000000017860e94        0x0
 .v4_bx         0x0000000017860e94        0x0 linker stubs

.iplt           0x0000000017860e94        0x0
 .iplt          0x0000000017860e94        0x0 arch/arm/cpu/armv7/start.o
                0x0000000017860e94                . = ALIGN (0x4)

.rodata         0x0000000017860e98    0x14622
 *(SORT(.rodata*))
 .rodata.bl_pads
                0x0000000017860e98        0x8 board/freescale/mx6sabresd/built-in.o
 .rodata.di0_pads
                0x0000000017860ea0       0x18 board/freescale/mx6sabresd/built-in.o
                0x0000000017860ea0                di0_pads
 .rodata.ecspi1_pads
                0x0000000017860eb8       0x20 board/freescale/mx6sabresd/built-in.o
 .rodata.efi_boot_services
                0x0000000017860ed8       0xc8 lib/built-in.o
 .rodata.efi_file_handle_protocol
                0x0000000017860fa0       0x30 lib/built-in.o
 .rodata.rgb_pads
                0x0000000017860fd0       0xe8 board/freescale/mx6sabresd/built-in.o
 .rodata.uart1_pads
                0x00000000178610b8       0x10 board/freescale/mx6sabresd/built-in.o
 .rodata        0x00000000178610c8       0x80 arch/arm/lib/built-in.o
 .rodata        0x0000000017861148       0x3c drivers/built-in.o
 .rodata.CSWTCH.14
                0x0000000017861184       0xe8 arch/arm/mach-imx/built-in.o
 .rodata.CSWTCH.14
                0x000000001786126c       0x44 drivers/built-in.o
 .rodata.CSWTCH.28
                0x00000000178612b0       0x20 common/built-in.o
 .rodata.CSWTCH.29
                0x00000000178612d0       0x14 cmd/built-in.o
 .rodata.CSWTCH.48
                0x00000000178612e4       0x20 disk/built-in.o
 .rodata.asix_eth_id_table
                0x0000000017861304      0x138 drivers/usb/eth/built-in.o
 .rodata.asix_eth_ops
                0x000000001786143c       0x1c drivers/usb/eth/built-in.o
 .rodata.board_boot_modes
                0x0000000017861458       0x20 board/freescale/mx6sabresd/built-in.o
 .rodata.boot_os
                0x0000000017861478       0x60 common/built-in.o
 .rodata.ci_ep_init
                0x00000000178614d8       0xb4 drivers/usb/gadget/built-in.o
 .rodata.cmd_dispatch_info
                0x000000001786158c       0x60 drivers/usb/gadget/built-in.o
 .rodata.color  0x00000000178615ec       0x40 lib/built-in.o
 .rodata.cpu_ctrl_mask
                0x000000001786162c       0x10 arch/arm/mach-imx/built-in.o
 .rodata.cpu_reset_mask
                0x000000001786163c       0x10 arch/arm/mach-imx/built-in.o
 .rodata.crc_table
                0x000000001786164c      0x400 lib/built-in.o
 .rodata.desc_and_len_tbl
                0x0000000017861a4c       0x30 cmd/built-in.o
 .rodata.dfu_state
                0x0000000017861a7c       0x2c drivers/usb/gadget/built-in.o
 .rodata.displays
                0x0000000017861aa8       0xf0 board/freescale/mx6sabresd/built-in.o
                0x0000000017861aa8                displays
 .rodata.dp_csc_array
                0x0000000017861b98       0xc8 drivers/built-in.o
 .rodata.driver_ops
                0x0000000017861c60        0xc lib/built-in.o
 .rodata.efi_blk_ops
                0x0000000017861c6c       0x10 lib/built-in.o
 .rodata.efi_device_path_to_text
                0x0000000017861c7c        0x8 lib/built-in.o
                0x0000000017861c7c                efi_device_path_to_text
 .rodata.efi_runtime_detach_list
                0x0000000017861c84       0x50 lib/built-in.o
 .rodata.env_flags_varaccess_mask
                0x0000000017861cd4       0x10 env/built-in.o
 .rodata.ext_csd_bus_width
                0x0000000017861ce4       0x3c drivers/built-in.o
 .rodata.fbase  0x0000000017861d20       0x10 drivers/built-in.o
 .rodata.fdt_errtable
                0x0000000017861d30       0x48 lib/built-in.o
 .rodata.fecmxc_ids
                0x0000000017861d78       0x30 drivers/net/built-in.o
 .rodata.fecmxc_ops
                0x0000000017861da8       0x1c drivers/net/built-in.o
 .rodata.fixed_regulator_ids
                0x0000000017861dc4       0x10 drivers/power/regulator/built-in.o
 .rodata.fixed_regulator_ops
                0x0000000017861dd4       0x20 drivers/power/regulator/built-in.o
 .rodata.freqs.10352
                0x0000000017861df4       0x38 drivers/built-in.o
 .rodata.fsl_esdhc_ids
                0x0000000017861e2c       0x48 drivers/built-in.o
 .rodata.fsl_esdhc_ops
                0x0000000017861e74       0x14 drivers/built-in.o
 .rodata.generic_simple_bus_ids
                0x0000000017861e88       0x18 drivers/built-in.o
 .rodata.gpio_function
                0x0000000017861ea0       0x14 drivers/gpio/built-in.o
 .rodata.gpio_mxc_ops
                0x0000000017861eb4       0x28 drivers/gpio/built-in.o
 .rodata.gpio_regulator_ids
                0x0000000017861edc       0x10 drivers/power/regulator/built-in.o
 .rodata.gpio_regulator_ops
                0x0000000017861eec       0x20 drivers/power/regulator/built-in.o
 .rodata.hub_id_table
                0x0000000017861f0c       0x30 common/built-in.o
 .rodata.if_type_uclass_id
                0x0000000017861f3c       0x30 drivers/built-in.o
 .rodata.if_typename_str
                0x0000000017861f6c       0x30 drivers/built-in.o
 .rodata.imx6_pinctrl_match
                0x0000000017861f9c       0x48 drivers/built-in.o
 .rodata.imx6_thermal_plat
                0x0000000017861fe4        0xc arch/arm/mach-imx/built-in.o
 .rodata.imx_pinctrl_ops
                0x0000000017861ff0       0x44 drivers/built-in.o
                0x0000000017861ff0                imx_pinctrl_ops
 .rodata.imx_thermal_ops
                0x0000000017862034        0x4 drivers/built-in.o
 .rodata.init_sequence_f
                0x0000000017862038       0xb4 common/built-in.o
 .rodata.mass_storage_id_table
                0x00000000178620ec       0x30 common/built-in.o
 .rodata.mmc_blk_ops
                0x000000001786211c       0x10 drivers/built-in.o
 .rodata.mmc_modes_by_pref
                0x000000001786212c       0x20 drivers/built-in.o
 .rodata.mmc_versions.10715
                0x000000001786214c       0x24 drivers/built-in.o
 .rodata.mx6_ehci_ops
                0x0000000017862170       0x14 drivers/usb/host/built-in.o
 .rodata.mx6_usb_ids
                0x0000000017862184       0x10 drivers/usb/host/built-in.o
 .rodata.mxc_gpio_ids
                0x0000000017862194       0x10 drivers/gpio/built-in.o
 .rodata.mxc_i2c_ids
                0x00000000178621a4       0x18 drivers/i2c/built-in.o
 .rodata.mxc_i2c_ops
                0x00000000178621bc       0x18 drivers/i2c/built-in.o
 .rodata.names.10347
                0x00000000178621d4       0x38 drivers/built-in.o
 .rodata.op_adv
                0x000000001786220c      0x100 cmd/built-in.o
                0x000000001786220c                op_adv
 .rodata.op_table
                0x000000001786230c       0x68 cmd/built-in.o
 .rodata.pfuze100_ids
                0x0000000017862374       0x20 drivers/power/pmic/built-in.o
 .rodata.pfuze100_regulator_ops
                0x0000000017862394       0x20 drivers/power/regulator/built-in.o
 .rodata.phy_bases
                0x00000000178623b4        0x8 drivers/usb/host/built-in.o
 .rodata.phy_interface_strings
                0x00000000178623bc       0x44 drivers/net/phy/built-in.o
 .rodata.pmic_children_info
                0x0000000017862400       0x18 drivers/power/pmic/built-in.o
 .rodata.reg_0_5_desc_tbl
                0x0000000017862418       0x30 cmd/built-in.o
 .rodata.reg_0_desc_tbl
                0x0000000017862448       0x78 cmd/built-in.o
 .rodata.reg_1_desc_tbl
                0x00000000178624c0       0xc0 cmd/built-in.o
 .rodata.reg_2_desc_tbl
                0x0000000017862580        0xc cmd/built-in.o
 .rodata.reg_3_desc_tbl
                0x000000001786258c       0x24 cmd/built-in.o
 .rodata.reg_4_desc_tbl
                0x00000000178625b0       0x90 cmd/built-in.o
 .rodata.reg_5_desc_tbl
                0x0000000017862640       0x90 cmd/built-in.o
 .rodata.rgb2ycbcr_coeff
                0x00000000178626d0       0x3c drivers/built-in.o
 .rodata.rng_inst_load_keys
                0x000000001786270c       0x10 drivers/built-in.o
 .rodata.rng_inst_sh0_desc
                0x000000001786271c        0x8 drivers/built-in.o
 .rodata.rng_inst_sh1_desc
                0x0000000017862724       0x10 drivers/built-in.o
 .rodata.root_info
                0x0000000017862734        0x8 drivers/built-in.o
 .rodata.sd_au_size.10593
                0x000000001786273c       0x40 drivers/built-in.o
 .rodata.sd_modes_by_pref
                0x000000001786277c       0x10 drivers/built-in.o
 .rodata.smbios_write_funcs
                0x000000001786278c       0x1c lib/built-in.o
 .rodata.soc_boot_modes
                0x00000000178627a8       0x60 arch/arm/mach-imx/built-in.o
                0x00000000178627a8                soc_boot_modes
 .rodata.spi_bases
                0x0000000017862808       0x14 drivers/spi/built-in.o
 .rodata.spi_flash_ids
                0x000000001786281c      0x2a0 drivers/mtd/spi/built-in.o
                0x000000001786281c                spi_flash_ids
 .rodata.uimage_arch
                0x0000000017862abc      0x138 common/built-in.o
 .rodata.uimage_comp
                0x0000000017862bf4       0x54 common/built-in.o
 .rodata.uimage_os
                0x0000000017862c48       0x84 common/built-in.o
 .rodata.uimage_type
                0x0000000017862ccc      0x18c common/built-in.o
 .rodata.usb_hub_ids
                0x0000000017862e58       0x10 common/built-in.o
 .rodata.usb_mass_storage_ids
                0x0000000017862e68       0x10 common/built-in.o
 .rodata.usb_storage_ops
                0x0000000017862e78       0x10 common/built-in.o
 .rodata.video_font_draw_table15
                0x0000000017862e88       0x10 drivers/built-in.o
 .rodata.video_font_draw_table16
                0x0000000017862e98       0x10 drivers/built-in.o
 .rodata.video_font_draw_table24
                0x0000000017862ea8       0xc0 drivers/built-in.o
 .rodata.video_font_draw_table32
                0x0000000017862f68      0x100 drivers/built-in.o
 .rodata.video_font_draw_table8
                0x0000000017863068       0x40 drivers/built-in.o
 .rodata.ycbcr2rgb_coeff
                0x00000000178630a8       0x3c drivers/built-in.o
 .rodata.crc16_tab
                0x00000000178630e4      0x200 lib/built-in.o
 .rodata.crc16_table
                0x00000000178632e4      0x200 fs/built-in.o
 .rodata.dbase.8188
                0x00000000178634e4       0x40 lib/built-in.o
 .rodata.dext.8189
                0x0000000017863524       0x40 lib/built-in.o
 .rodata.distfix
                0x0000000017863564       0x80 lib/built-in.o
 .rodata.efi_bootmgr_load.str2.2
                0x00000000178635e4       0x48 lib/built-in.o
 .rodata.i2c_clk_div
                0x000000001786362c       0xc8 drivers/i2c/built-in.o
 .rodata.lbase.8186
                0x00000000178636f4       0x3e lib/built-in.o
 .rodata.lenfix
                0x0000000017863732      0x800 lib/built-in.o
 .rodata.lext.8187
                0x0000000017863f32       0x3e lib/built-in.o
 .rodata.order.8282
                0x0000000017863f70       0x26 lib/built-in.o
 .rodata.string16.str2.2
                0x0000000017863f96        0xe lib/built-in.o
 .rodata        0x0000000017863fa4       0x12 cmd/built-in.o
 .rodata        0x0000000017863fb6       0x20 drivers/usb/gadget/built-in.o
 .rodata        0x0000000017863fd6       0x3f drivers/usb/host/built-in.o
 .rodata        0x0000000017864015        0x3 env/built-in.o
 .rodata        0x0000000017864018       0x20 lib/built-in.o
 .rodata        0x0000000017864038        0x7 net/built-in.o
 .rodata.CSWTCH.66
                0x000000001786403f       0x16 common/built-in.o
 .rodata.END    0x0000000017864055        0x4 lib/built-in.o
 .rodata.ROOT   0x0000000017864059       0x14 lib/built-in.o
 .rodata.__FUNCTION__.9556
                0x000000001786406d       0x17 common/built-in.o
 .rodata.__FUNCTION__.9720
                0x0000000017864084       0x17 common/built-in.o
 .rodata.__func__.10567
                0x000000001786409b        0xd drivers/built-in.o
 .rodata.__func__.10573
                0x00000000178640a8       0x11 drivers/built-in.o
 .rodata.__func__.10577
                0x00000000178640b9       0x18 drivers/built-in.o
 .rodata.__func__.10581
                0x00000000178640d1       0x18 drivers/built-in.o
 .rodata.__func__.10585
                0x00000000178640e9        0xd drivers/built-in.o
 .rodata.__func__.10589
                0x00000000178640f6       0x14 drivers/built-in.o
 .rodata.__func__.10593
                0x000000001786410a       0x14 drivers/built-in.o
 .rodata.__func__.10701
                0x000000001786411e       0x12 drivers/i2c/built-in.o
 .rodata.__func__.10714
                0x0000000017864130        0xc drivers/usb/gadget/built-in.o
 .rodata.__func__.10735
                0x000000001786413c        0xd drivers/i2c/built-in.o
 .rodata.__func__.10785
                0x0000000017864149        0xd drivers/i2c/built-in.o
 .rodata.__func__.10796
                0x0000000017864156       0x12 drivers/i2c/built-in.o
 .rodata.__func__.10819
                0x0000000017864168        0xc lib/built-in.o
 .rodata.__func__.10908
                0x0000000017864174       0x15 common/built-in.o
 .rodata.__func__.11179
                0x0000000017864189       0x17 drivers/usb/host/built-in.o
 .rodata.__func__.11252
                0x00000000178641a0        0xc drivers/net/built-in.o
 .rodata.__func__.11276
                0x00000000178641ac       0x13 drivers/built-in.o
 .rodata.__func__.11301
                0x00000000178641bf       0x10 drivers/net/built-in.o
 .rodata.__func__.11406
                0x00000000178641cf        0xc drivers/built-in.o
 .rodata.__func__.11441
                0x00000000178641db        0xa drivers/built-in.o
 .rodata.__func__.11464
                0x00000000178641e5        0x9 drivers/built-in.o
 .rodata.__func__.11473
                0x00000000178641ee       0x10 drivers/built-in.o
 .rodata.__func__.11675
                0x00000000178641fe        0xc drivers/built-in.o
 .rodata.__func__.11693
                0x000000001786420a       0x15 drivers/built-in.o
 .rodata.__func__.11707
                0x000000001786421f       0x18 drivers/built-in.o
 .rodata.__func__.11728
                0x0000000017864237       0x14 drivers/built-in.o
 .rodata.__func__.12039
                0x000000001786424b       0x11 drivers/usb/gadget/built-in.o
 .rodata.__func__.12195
                0x000000001786425c       0x11 drivers/usb/gadget/built-in.o
 .rodata.__func__.12339
                0x000000001786426d        0xf drivers/usb/gadget/built-in.o
 .rodata.__func__.7860
                0x000000001786427c        0xb fs/built-in.o
 .rodata.__func__.8065
                0x0000000017864287       0x1b arch/arm/lib/built-in.o
 .rodata.__func__.8088
                0x00000000178642a2       0x13 common/built-in.o
 .rodata.__func__.8195
                0x00000000178642b5        0xa drivers/built-in.o
 .rodata.__func__.8224
                0x00000000178642bf        0xb drivers/built-in.o
 .rodata.__func__.8242
                0x00000000178642ca        0xa drivers/built-in.o
 .rodata.__func__.8254
                0x00000000178642d4        0xe drivers/built-in.o
 .rodata.__func__.8310
                0x00000000178642e2       0x13 fs/built-in.o
 .rodata.__func__.8319
                0x00000000178642f5       0x14 fs/built-in.o
 .rodata.__func__.8723
                0x0000000017864309       0x1c fs/built-in.o
 .rodata.__func__.8762
                0x0000000017864325        0xe common/built-in.o
 .rodata.__func__.8815
                0x0000000017864333        0xd drivers/built-in.o
 .rodata.__func__.8937
                0x0000000017864340       0x1b lib/built-in.o
 .rodata.__func__.8956
                0x000000001786435b        0xc lib/built-in.o
 .rodata.__func__.9018
                0x0000000017864367        0xd drivers/usb/gadget/built-in.o
 .rodata.__func__.9173
                0x0000000017864374        0xf disk/built-in.o
 .rodata.__func__.9185
                0x0000000017864383       0x12 disk/built-in.o
 .rodata.__func__.9320
                0x0000000017864395       0x1c disk/built-in.o
 .rodata.__func__.9337
                0x00000000178643b1        0xd disk/built-in.o
 .rodata.__func__.9349
                0x00000000178643be       0x17 disk/built-in.o
 .rodata.__func__.9354
                0x00000000178643d5        0xd disk/built-in.o
 .rodata.__func__.9432
                0x00000000178643e2       0x18 common/built-in.o
 .rodata.__func__.9587
                0x00000000178643fa        0xc drivers/built-in.o
 .rodata.__func__.9595
                0x0000000017864406        0xb drivers/built-in.o
 .rodata.__func__.9688
                0x0000000017864411        0xb drivers/built-in.o
 .rodata.__func__.9763
                0x000000001786441c        0xe drivers/built-in.o
 .rodata._ctype
                0x000000001786442a      0x100 lib/built-in.o
                0x000000001786442a                _ctype
 .rodata._do_env_set.isra.0.str1.1
                0x000000001786452a       0x7c cmd/built-in.o
 .rodata._do_help.str1.1
                0x00000000178645a6       0x5f common/built-in.o
 .rodata._ehci_create_int_queue.isra.5.str1.1
                0x0000000017864605       0x3d drivers/usb/host/built-in.o
 .rodata._ehci_destroy_int_queue.str1.1
                0x0000000017864642       0x2d drivers/usb/host/built-in.o
 .rodata._fastboot_parts_load_from_ptable.str1.1
                0x000000001786466f       0xc0 drivers/usb/gadget/built-in.o
                                         0xec (size before relaxing)
 .rodata.android_image_check_header.str1.1
                0x000000001786472f        0x9 common/built-in.o
 .rodata.android_image_get_kernel.str1.1
                0x0000000017864738      0x2a0 common/built-in.o
                                        0x2d0 (size before relaxing)
 .rodata.android_image_get_ramdisk.str1.1
                0x00000000178649d8       0x27 common/built-in.o
 .rodata.android_image_get_second.str1.1
                0x00000000178649ff       0x19 common/built-in.o
 .rodata.android_print_contents.str1.1
                0x0000000017864a18      0x126 common/built-in.o
                                        0x12a (size before relaxing)
 .rodata.announce_dram_init.str1.1
                0x0000000017864b3e        0x8 common/built-in.o
 .rodata.arp_receive.str1.1
                0x0000000017864b46       0x14 net/built-in.o
 .rodata.arp_request.str1.1
                0x0000000017864b5a       0x2a net/built-in.o
 .rodata.arp_timeout_check.str1.1
                0x0000000017864b84       0x2b net/built-in.o
 .rodata.asix_eth_start.str1.1
                0x0000000017864baf       0x3f drivers/usb/eth/built-in.o
 .rodata.autoboot_command.str1.1
                0x0000000017864bee       0x31 common/built-in.o
 .rodata.b_addqchr.str1.1
                0x0000000017864c1f        0x5 common/built-in.o
 .rodata.bad_mode.str1.1
                0x0000000017864c24       0x13 arch/arm/lib/built-in.o
 .rodata.bank_lookup
                0x0000000017864c37        0x2 arch/arm/mach-imx/built-in.o
 .rodata.binary_test.str1.1
                0x0000000017864c39       0x17 cmd/built-in.o
 .rodata.blk_common_cmd.str1.1
                0x0000000017864c50       0xed cmd/built-in.o
                                        0x101 (size before relaxing)
 .rodata.blk_create_devicef.str1.1
                0x0000000017864d3d        0x6 drivers/built-in.o
 .rodata.blk_get_device_by_str.str1.1
                0x0000000017864d43       0x6a disk/built-in.o
 .rodata.blk_get_device_part_str.str1.1
                0x0000000017864dad      0x107 disk/built-in.o
                                        0x109 (size before relaxing)
 .rodata.blk_list_devices.str1.1
                0x0000000017864eb4        0x6 drivers/built-in.o
                                          0xc (size before relaxing)
 .rodata.blk_print_device_num.str1.1
                0x0000000017864eb4       0x11 drivers/built-in.o
 .rodata.blk_show_device.str1.1
                0x0000000017864ec5       0x1d drivers/built-in.o
 .rodata.board_ehci_hcd_init.str1.1
                0x0000000017864ee2       0x23 board/freescale/mx6sabresd/built-in.o
 .rodata.board_fastboot_setup.str1.1
                0x0000000017864f05       0xb3 drivers/usb/gadget/built-in.o
                                         0xd5 (size before relaxing)
 .rodata.board_init.str1.1
                0x0000000017864fb8       0x2c board/freescale/mx6sabresd/built-in.o
 .rodata.board_late_init.str1.1
                0x0000000017864fe4       0x32 board/freescale/mx6sabresd/built-in.o
                                         0x39 (size before relaxing)
 .rodata.board_late_mmc_env_init.str1.1
                0x0000000017865016       0x41 board/freescale/common/built-in.o
                                         0x48 (size before relaxing)
 .rodata.board_video_skip.str1.1
                0x0000000017865057       0x91 arch/arm/mach-imx/built-in.o
 .rodata.boot_fdt_add_mem_rsv_regions.str1.1
                0x00000000178650e8       0x35 common/built-in.o
 .rodata.boot_get_fdt.str1.1
                0x000000001786511d      0x1b5 common/built-in.o
                                        0x1d0 (size before relaxing)
 .rodata.boot_get_ramdisk.str1.1
                0x00000000178652d2       0xb7 common/built-in.o
                                        0x10d (size before relaxing)
 .rodata.boot_jump_linux.str1.1
                0x0000000017865389       0x5c arch/arm/lib/built-in.o
                                         0x5d (size before relaxing)
 .rodata.boot_prep_linux.str1.1
                0x00000000178653e5       0x20 arch/arm/lib/built-in.o
                                         0x29 (size before relaxing)
 .rodata.boot_prep_vxworks.str1.1
                0x0000000017865405       0x2a arch/arm/lib/built-in.o
 .rodata.boot_ramdisk_high.str1.1
                0x000000001786542f       0x54 common/built-in.o
 .rodata.boot_relocate_fdt.str1.1
                0x0000000017865483       0xcf common/built-in.o
                                         0xd3 (size before relaxing)
 .rodata.bootdelay_process.str1.1
                0x0000000017865552       0xd1 common/built-in.o
                                         0xd9 (size before relaxing)
 .rodata.bootm_decomp_image.str1.1
                0x0000000017865623       0x99 common/built-in.o
                                         0xc0 (size before relaxing)
 .rodata.bootm_find_images.str1.1
                0x00000000178656bc       0x49 common/built-in.o
 .rodata.bootm_maybe_autostart.str1.1
                0x0000000017865705       0x37 cmd/built-in.o
                                         0x3b (size before relaxing)
 .rodata.bootp_request.str1.1
                0x000000001786573c       0x25 net/built-in.o
 .rodata.bootp_timeout_handler.str1.1
                0x0000000017865761       0x26 net/built-in.o
 .rodata.bootz_setup.str1.1
                0x0000000017865787       0x48 arch/arm/lib/built-in.o
 .rodata.caam_open.str1.1
                0x00000000178657cf      0x113 drivers/built-in.o
 .rodata.cb_continue.str1.1
                0x00000000178658e2        0x5 drivers/usb/gadget/built-in.o
 .rodata.cb_download.str1.1
                0x00000000178658e7       0x51 drivers/usb/gadget/built-in.o
                                         0x53 (size before relaxing)
 .rodata.cb_erase.str1.1
                0x0000000017865938      0x172 drivers/usb/gadget/built-in.o
                                        0x1ac (size before relaxing)
 .rodata.cb_flash.str1.1
                0x0000000017865aaa      0x268 drivers/usb/gadget/built-in.o
                                        0x288 (size before relaxing)
 .rodata.cb_getvar.str1.1
                0x0000000017865d12      0x14d drivers/usb/gadget/built-in.o
 .rodata.cb_reboot.str1.1
                0x0000000017865e5f       0x2d drivers/usb/gadget/built-in.o
 .rodata.cb_run_uboot_acmd.str1.1
                0x0000000017865e8c       0x29 drivers/usb/gadget/built-in.o
 .rodata.cb_upload.str1.1
                0x0000000017865eb5       0x1c drivers/usb/gadget/built-in.o
 .rodata.check_1_2G.str1.1
                0x0000000017865ed1       0x68 arch/arm/mach-imx/built-in.o
 .rodata.check_cache_range.str1.1
                0x0000000017865f39       0x35 arch/arm/lib/built-in.o
 .rodata.check_command.isra.18.str1.1
                0x0000000017865f6e        0x9 drivers/usb/gadget/built-in.o
 .rodata.check_ldo_bypass.str1.1
                0x0000000017865f77       0x4a arch/arm/mach-imx/built-in.o
 .rodata.check_reserved.str1.1
                0x0000000017865fc1       0x27 drivers/gpio/built-in.o
                                         0x28 (size before relaxing)
 .rodata.checkboard.str1.1
                0x0000000017865fe8       0x14 board/freescale/mx6sabresd/built-in.o
 .rodata.ci_ep_queue.str1.1
                0x0000000017865ffc       0x29 drivers/usb/gadget/built-in.o
 .rodata.cli_process_fdt.str1.1
                0x0000000017866025        0xb common/built-in.o
                                         0x13 (size before relaxing)
 .rodata.cli_readline_into_buffer.str1.1
                0x0000000017866030        0x4 common/built-in.o
                                          0x8 (size before relaxing)
 .rodata.cli_secure_boot_cmd.str1.1
                0x0000000017866034       0x50 common/built-in.o
 .rodata.cmd_auto_complete.str1.1
                0x0000000017866084       0x5f common/built-in.o
                                          0xf (size before relaxing)
 .rodata.cmd_process.str1.1
                0x0000000017866084       0x3f common/built-in.o
 .rodata.cmd_process_error.str1.1
                0x00000000178660c3       0x1f common/built-in.o
 .rodata.cmd_usage.str1.1
                0x00000000178660e2       0x36 common/built-in.o
 .rodata.col_lookup
                0x0000000017866118        0x8 arch/arm/mach-imx/built-in.o
 .rodata.common_diskboot.str1.1
                0x0000000017866120       0x8f cmd/built-in.o
 .rodata.compile.str1.1
                0x00000000178661af       0x4a lib/built-in.o
 .rodata.composite_unbind.str1.1
                0x00000000178661f9       0x1f drivers/usb/gadget/built-in.o
                                         0x38 (size before relaxing)
 .rodata.confirm_yesno.str1.1
                0x0000000017866218       0x10 common/built-in.o
 .rodata.console_announce_r.str1.1
                0x0000000017866228        0x7 common/built-in.o
 .rodata.cpu_cmd.str1.1
                0x0000000017866228       0x24 cmd/built-in.o
                                         0x39 (size before relaxing)
 .rodata.cpu_status.str1.1
                0x000000001786624c        0xf arch/arm/mach-imx/built-in.o
 .rodata.cread_add_char.str1.1
                0x000000001786625b        0x4 common/built-in.o
                                          0x5 (size before relaxing)
 .rodata.create_usage.str1.1
                0x000000001786625b        0xb arch/arm/mach-imx/built-in.o
 .rodata.default_environment
                0x0000000017866266     0x1251 env/built-in.o
                0x0000000017866266                default_environment
 .rodata.dev_get_platdata.str1.1
                0x00000000178674b7       0x11 drivers/built-in.o
 .rodata.dev_print.str1.1
                0x00000000178674c8      0x14d disk/built-in.o
                                        0x15e (size before relaxing)
 .rodata.devfdt_get_addr_index.str1.1
                0x0000000017867615        0x4 drivers/built-in.o
 .rodata.device_bind_common.isra.0.str1.1
                0x0000000017867615       0x5b drivers/built-in.o
 .rodata.device_probe.str1.1
                0x0000000017867670       0x30 drivers/built-in.o
                                         0x38 (size before relaxing)
 .rodata.device_remove.str1.1
                0x00000000178676a0       0x98 drivers/built-in.o
 .rodata.devm_kfree.str1.1
                0x0000000017867738       0x18 drivers/built-in.o
 .rodata.devres_free.str1.1
                0x0000000017867750       0x2f drivers/built-in.o
 .rodata.dfu_add.str1.1
                0x000000001786777f        0x4 drivers/usb/gadget/built-in.o
 .rodata.dfu_bind.str1.1
                0x000000001786777f        0x8 drivers/usb/gadget/built-in.o
 .rodata.dfu_config_entities.str1.1
                0x000000001786777f       0xb2 drivers/built-in.o
                                         0xca (size before relaxing)
 .rodata.dfu_fill_entity_mmc.str1.1
                0x0000000017867831       0xaf drivers/built-in.o
                                         0xd9 (size before relaxing)
 .rodata.dfu_fill_entity_sf.str1.1
                0x00000000178678e0       0xad drivers/built-in.o
                                         0xb5 (size before relaxing)
 .rodata.dfu_flush.str1.1
                0x000000001786798d       0x1a drivers/built-in.o
 .rodata.dfu_func
                0x00000000178679a7        0x9 drivers/usb/gadget/built-in.o
 .rodata.dfu_get_buf.str1.1
                0x00000000178679b0       0x2f drivers/built-in.o
 .rodata.dfu_init_env_entities.str1.1
                0x00000000178679df       0x5b drivers/built-in.o
 .rodata.dfu_name
                0x0000000017867a3a       0x18 drivers/usb/gadget/built-in.o
 .rodata.dfu_read.str1.1
                0x0000000017867a52       0x40 drivers/built-in.o
 .rodata.dfu_show_entities.str1.1
                0x0000000017867a92       0x3d drivers/built-in.o
 .rodata.dfu_write.str1.1
                0x0000000017867acf       0x4d drivers/built-in.o
 .rodata.dfu_write_buffer_drain.str1.1
                0x0000000017867b1c       0x4d drivers/built-in.o
                                          0x2 (size before relaxing)
 .rodata.dhcp_extended.str1.1
                0x0000000017867b1c       0x3f net/built-in.o
 .rodata.dhcp_handler.str1.1
                0x0000000017867b5b       0x41 net/built-in.o
                                         0x4a (size before relaxing)
 .rodata.dhcp_process_options.str1.1
                0x0000000017867b9c       0x78 net/built-in.o
 .rodata.digits.9065
                0x0000000017867c14       0x10 lib/built-in.o
 .rodata.dirletter.9340
                0x0000000017867c24        0x4 drivers/usb/gadget/built-in.o
 .rodata.disable_periodic.isra.1.str1.1
                0x0000000017867c28       0x33 drivers/usb/host/built-in.o
 .rodata.disk_write.str1.1
                0x0000000017867c5b       0x18 fs/built-in.o
 .rodata.display_options.str1.1
                0x0000000017867c5b        0x3 lib/built-in.o
 .rodata.display_options_get_banner_priv.str1.1
                0x0000000017867c5b        0xc lib/built-in.o
                                         0x15 (size before relaxing)
 .rodata.display_rle8_bitmap.str1.1
                0x0000000017867c67       0x65 drivers/built-in.o
 .rodata.dm_dump_all.str1.1
                0x0000000017867ccc       0x26 drivers/built-in.o
                                         0x50 (size before relaxing)
 .rodata.dm_dump_uclass.str1.1
                0x0000000017867cf2       0x32 drivers/built-in.o
                                         0x34 (size before relaxing)
 .rodata.dm_extended_scan_fdt.str1.1
                0x0000000017867d24        0x8 drivers/built-in.o
 .rodata.dm_fdt_pre_reloc.str1.1
                0x0000000017867d2c       0x30 drivers/built-in.o
 .rodata.dm_gpio_get_value.str1.1
                0x0000000017867d5c        0xa drivers/gpio/built-in.o
 .rodata.dm_gpio_set_dir_flags.str1.1
                0x0000000017867d66        0x8 drivers/gpio/built-in.o
 .rodata.dm_gpio_set_value.str1.1
                0x0000000017867d6e        0xa drivers/gpio/built-in.o
 .rodata.dm_init.str1.1
                0x0000000017867d78       0x25 drivers/built-in.o
 .rodata.dm_root.str1.1
                0x0000000017867d9d       0x25 drivers/built-in.o
 .rodata.dm_scan_fdt_node.str1.1
                0x0000000017867dc2       0x1d drivers/built-in.o
                                         0x24 (size before relaxing)
 .rodata.dm_scan_platdata.str1.1
                0x0000000017867ddf       0x1d drivers/built-in.o
 .rodata.do_bdinfo.str1.1
                0x0000000017867dfc       0xae cmd/built-in.o
 .rodata.do_boot_mode.str1.1
                0x0000000017867eaa        0x8 arch/arm/mach-imx/built-in.o
 .rodata.do_bootd.str1.1
                0x0000000017867eb2        0x8 cmd/built-in.o
 .rodata.do_bootefi.str1.1
                0x0000000017867eba       0x7d cmd/built-in.o
 .rodata.do_bootefi_exec.str1.1
                0x0000000017867f37      0x141 cmd/built-in.o
                                        0x14a (size before relaxing)
 .rodata.do_bootelf.str1.1
                0x0000000017868078       0x4f cmd/built-in.o
                                         0x5c (size before relaxing)
 .rodata.do_bootm.str1.1
                0x00000000178680c7       0x2a cmd/built-in.o
 .rodata.do_bootm_netbsd.str1.1
                0x00000000178680f1       0x49 common/built-in.o
                                         0x4a (size before relaxing)
 .rodata.do_bootm_on_complete.str1.1
                0x000000001786813a       0x1e drivers/usb/gadget/built-in.o
 .rodata.do_bootm_plan9.str1.1
                0x0000000017868158       0x43 common/built-in.o
                                         0x4c (size before relaxing)
 .rodata.do_bootm_qnxelf.str1.1
                0x000000001786819b        0x4 common/built-in.o
 .rodata.do_bootm_rtems.str1.1
                0x000000001786819b       0x39 common/built-in.o
 .rodata.do_bootm_standalone.str1.1
                0x00000000178681d4       0x16 common/built-in.o
 .rodata.do_bootm_states.str1.1
                0x00000000178681d4      0x20f common/built-in.o
                                        0x287 (size before relaxing)
 .rodata.do_bootvx.str1.1
                0x00000000178683e3      0x1b8 cmd/built-in.o
                                        0x1d0 (size before relaxing)
 .rodata.do_bootvx_fdt.str1.1
                0x000000001786859b       0x57 common/built-in.o
                                         0x75 (size before relaxing)
 .rodata.do_coninfo.str1.1
                0x00000000178685f2       0x2c cmd/built-in.o
                                         0x30 (size before relaxing)
 .rodata.do_data_abort.str1.1
                0x000000001786861e        0xc arch/arm/lib/built-in.o
 .rodata.do_dcache.str1.1
                0x000000001786862a       0x21 cmd/built-in.o
 .rodata.do_dfu.str1.1
                0x000000001786864b        0xc cmd/built-in.o
                                         0x11 (size before relaxing)
 .rodata.do_echo.str1.1
                0x0000000017868657        0x3 cmd/built-in.o
 .rodata.do_env_default.str1.1
                0x000000001786865a       0x25 cmd/built-in.o
 .rodata.do_env_edit.part.2.str1.1
                0x000000001786867f        0x7 cmd/built-in.o
                                          0xa (size before relaxing)
 .rodata.do_env_export.str1.1
                0x0000000017868686       0x2b cmd/built-in.o
                                         0x34 (size before relaxing)
 .rodata.do_env_import.str1.1
                0x00000000178686b1      0x12f cmd/built-in.o
 .rodata.do_env_print.str1.1
                0x00000000178687e0       0x3d cmd/built-in.o
 .rodata.do_fastboot.str1.1
                0x000000001786881d       0x4d cmd/built-in.o
 .rodata.do_fat_fsinfo.str1.1
                0x000000001786886a       0x56 cmd/built-in.o
 .rodata.do_fat_fswrite.str1.1
                0x00000000178688c0       0x6b cmd/built-in.o
 .rodata.do_fat_write.str1.1
                0x000000001786892b       0xd6 fs/built-in.o
 .rodata.do_fdt.str1.1
                0x0000000017868a01      0x48d cmd/built-in.o
                                        0x4b7 (size before relaxing)
 .rodata.do_fiq.str1.1
                0x0000000017868e8e       0x18 arch/arm/lib/built-in.o
 .rodata.do_fixup_by_path.str1.1
                0x0000000017868ea6       0x29 common/built-in.o
 .rodata.do_fs_uuid.str1.1
                0x0000000017868ecf        0x4 fs/built-in.o
 .rodata.do_fuse.str1.1
                0x0000000017868ecf      0x198 cmd/built-in.o
                                        0x1a4 (size before relaxing)
 .rodata.do_go.str1.1
                0x0000000017869067       0x4f cmd/built-in.o
 .rodata.do_gpio.str1.1
                0x00000000178690b6       0xc4 cmd/built-in.o
                                         0xd2 (size before relaxing)
 .rodata.do_i2c_bus_num.str1.1
                0x000000001786917a       0x48 cmd/built-in.o
 .rodata.do_i2c_bus_speed.str1.1
                0x00000000178691c2       0x53 cmd/built-in.o
 .rodata.do_i2c_crc.str1.1
                0x0000000017869215       0x1f cmd/built-in.o
                                         0x26 (size before relaxing)
 .rodata.do_i2c_md.str1.1
                0x0000000017869234        0xc cmd/built-in.o
                                         0x16 (size before relaxing)
 .rodata.do_i2c_olen.str1.1
                0x0000000017869240       0x1f cmd/built-in.o
                                         0x23 (size before relaxing)
 .rodata.do_i2c_probe.str1.1
                0x000000001786925f       0x1c cmd/built-in.o
 .rodata.do_i2c_reset.str1.1
                0x000000001786927b       0x24 cmd/built-in.o
 .rodata.do_i2c_show_bus.str1.1
                0x000000001786929f       0x18 cmd/built-in.o
 .rodata.do_i2c_write.str1.1
                0x00000000178692b7        0x3 cmd/built-in.o
 .rodata.do_icache.str1.1
                0x00000000178692ba       0x19 cmd/built-in.o
                                         0x20 (size before relaxing)
 .rodata.do_imgextract.str1.1
                0x00000000178692d3      0x148 cmd/built-in.o
                                        0x1ac (size before relaxing)
 .rodata.do_irq.str1.1
                0x000000001786941b       0x18 arch/arm/lib/built-in.o
                                         0x13 (size before relaxing)
 .rodata.do_itest.str1.1
                0x000000001786941b       0x1e cmd/built-in.o
 .rodata.do_load.str1.1
                0x0000000017869439       0x39 fs/built-in.o
                                         0x5b (size before relaxing)
 .rodata.do_load_serial.str1.1
                0x0000000017869472       0x6b cmd/built-in.o
 .rodata.do_load_serial_bin.str1.1
                0x00000000178694dd      0x159 cmd/built-in.o
 .rodata.do_load_wrapper.str1.1
                0x0000000017869636        0x1 cmd/built-in.o
 .rodata.do_ls.str1.1
                0x0000000017869636        0x2 fs/built-in.o
 .rodata.do_mdio.str1.1
                0x0000000017869636       0x65 cmd/built-in.o
 .rodata.do_mem_base.str1.1
                0x000000001786969b       0x17 cmd/built-in.o
 .rodata.do_mem_cmp.str1.1
                0x00000000178696b2       0x6e cmd/built-in.o
                                         0x73 (size before relaxing)
 .rodata.do_mem_cp.str1.1
                0x0000000017869720       0x11 cmd/built-in.o
 .rodata.do_mem_crc.str1.1
                0x0000000017869731        0x6 cmd/built-in.o
 .rodata.do_mem_mtest.str1.1
                0x0000000017869731       0xd4 cmd/built-in.o
                                         0xd5 (size before relaxing)
 .rodata.do_mii.str1.1
                0x0000000017869805      0x290 cmd/built-in.o
                                        0x2b0 (size before relaxing)
 .rodata.do_mmc_boot_resize.str1.1
                0x0000000017869a95       0x82 cmd/built-in.o
 .rodata.do_mmc_bootbus.str1.1
                0x0000000017869b17       0x24 cmd/built-in.o
 .rodata.do_mmc_dev.str1.1
                0x0000000017869b3b       0x80 cmd/built-in.o
                                         0x89 (size before relaxing)
 .rodata.do_mmc_erase.str1.1
                0x0000000017869bbb       0x67 cmd/built-in.o
 .rodata.do_mmc_hwpartition.str1.1
                0x0000000017869c22      0x126 cmd/built-in.o
                                        0x142 (size before relaxing)
 .rodata.do_mmc_part.str1.1
                0x0000000017869d48       0x15 cmd/built-in.o
 .rodata.do_mmc_partconf.str1.1
                0x0000000017869d5d       0xac cmd/built-in.o
 .rodata.do_mmc_read.str1.1
                0x0000000017869e09       0x43 cmd/built-in.o
 .rodata.do_mmc_rst_func.str1.1
                0x0000000017869e4c       0x40 cmd/built-in.o
 .rodata.do_mmc_setdsr.str1.1
                0x0000000017869e8c       0x1d cmd/built-in.o
 .rodata.do_mmc_write.str1.1
                0x0000000017869ea9       0x47 cmd/built-in.o
 .rodata.do_mmcinfo.str1.1
                0x0000000017869ef0      0x135 cmd/built-in.o
                                        0x187 (size before relaxing)
 .rodata.do_mmcops.str1.1
                0x000000001786a025       0x19 cmd/built-in.o
 .rodata.do_mx6_showclocks.str1.1
                0x000000001786a03e      0x154 arch/arm/mach-imx/built-in.o
                                        0x156 (size before relaxing)
 .rodata.do_not_used.str1.1
                0x000000001786a192        0xa arch/arm/lib/built-in.o
 .rodata.do_ping.str1.1
                0x000000001786a19c       0x35 cmd/built-in.o
 .rodata.do_prefetch_abort.str1.1
                0x000000001786a1d1       0x10 arch/arm/lib/built-in.o
 .rodata.do_raw_read.str1.1
                0x000000001786a1e1       0x5c cmd/built-in.o
                                         0x7e (size before relaxing)
 .rodata.do_reset.str1.1
                0x000000001786a23d        0xf arch/arm/lib/built-in.o
 .rodata.do_run.str1.1
                0x000000001786a24c       0x1c common/built-in.o
 .rodata.do_save.str1.1
                0x000000001786a24c       0x1d fs/built-in.o
 .rodata.do_setexpr.str1.1
                0x000000001786a269       0x11 cmd/built-in.o
                                         0x15 (size before relaxing)
 .rodata.do_showvar.str1.1
                0x000000001786a27a        0xc common/built-in.o
                                         0x2f (size before relaxing)
 .rodata.do_size.str1.1
                0x000000001786a286        0x9 fs/built-in.o
 .rodata.do_software_interrupt.str1.1
                0x000000001786a286       0x14 arch/arm/lib/built-in.o
 .rodata.do_source.str1.1
                0x000000001786a29a       0x1e cmd/built-in.o
 .rodata.do_spi_flash.str1.1
                0x000000001786a2b8      0x1c9 cmd/built-in.o
                                        0x1f2 (size before relaxing)
 .rodata.do_undefined_instruction.str1.1
                0x000000001786a481       0x17 arch/arm/lib/built-in.o
 .rodata.do_usb.str1.1
                0x000000001786a498      0x27e cmd/built-in.o
                                        0x293 (size before relaxing)
 .rodata.do_usb_mass_storage.str1.1
                0x000000001786a716      0x120 cmd/built-in.o
                                        0x14e (size before relaxing)
 .rodata.do_usbboot.str1.1
                0x000000001786a836        0x4 cmd/built-in.o
 .rodata.do_version.str1.1
                0x000000001786a836       0x6a cmd/built-in.o
 .rodata.do_write.str1.1
                0x000000001786a8a0       0x18 drivers/usb/gadget/built-in.o
 .rodata.drv_video_init.str1.1
                0x000000001786a8b8       0x10 drivers/built-in.o
                                         0x14 (size before relaxing)
 .rodata.efi_bl_bind.str1.1
                0x000000001786a8c8       0x12 lib/built-in.o
 .rodata.efi_block_io_guid
                0x000000001786a8da       0x10 lib/built-in.o
                0x000000001786a8da                efi_block_io_guid
 .rodata.efi_bootmgr_load.str1.1
                0x000000001786a8ea        0xe lib/built-in.o
 .rodata.efi_console_register.str1.1
                0x000000001786a8f8       0x90 lib/built-in.o
 .rodata.efi_convert_single_device_node_to_text.str1.1
                0x000000001786a988      0x12d lib/built-in.o
                                        0x137 (size before relaxing)
 .rodata.efi_cout_clear_screen.str1.1
                0x000000001786aab5        0x5 lib/built-in.o
 .rodata.efi_cout_enable_cursor.str1.1
                0x000000001786aaba        0x8 lib/built-in.o
 .rodata.efi_cout_query_mode.str1.1
                0x000000001786aac2       0x11 lib/built-in.o
                                         0x18 (size before relaxing)
 .rodata.efi_cout_set_attribute.str1.1
                0x000000001786aad3       0x17 lib/built-in.o
 .rodata.efi_cout_set_cursor_position.str1.1
                0x000000001786aaea        0x9 lib/built-in.o
 .rodata.efi_disk_create_partitions.str1.1
                0x000000001786aaf3       0x22 lib/built-in.o
 .rodata.efi_disk_register.str1.1
                0x000000001786ab15       0x67 lib/built-in.o
 .rodata.efi_driver_init.str1.1
                0x000000001786ab7c       0x58 lib/built-in.o
 .rodata.efi_file_from_path.str1.1
                0x000000001786abd4       0x10 lib/built-in.o
 .rodata.efi_file_info_guid
                0x000000001786abe4       0x10 lib/built-in.o
                0x000000001786abe4                efi_file_info_guid
 .rodata.efi_get_variable.str1.1
                0x000000001786abf4       0x30 lib/built-in.o
                                         0x37 (size before relaxing)
 .rodata.efi_global_variable_guid
                0x000000001786ac24       0x10 lib/built-in.o
                0x000000001786ac24                efi_global_variable_guid
 .rodata.efi_guid_console_control
                0x000000001786ac34       0x10 lib/built-in.o
                0x000000001786ac34                efi_guid_console_control
 .rodata.efi_guid_device_path
                0x000000001786ac44       0x10 lib/built-in.o
                0x000000001786ac44                efi_guid_device_path
 .rodata.efi_guid_device_path_to_text_protocol
                0x000000001786ac54       0x10 lib/built-in.o
                0x000000001786ac54                efi_guid_device_path_to_text_protocol
 .rodata.efi_guid_driver_binding_protocol
                0x000000001786ac64       0x10 lib/built-in.o
                0x000000001786ac64                efi_guid_driver_binding_protocol
 .rodata.efi_guid_loaded_image
                0x000000001786ac74       0x10 lib/built-in.o
                0x000000001786ac74                efi_guid_loaded_image
 .rodata.efi_guid_text_input_protocol
                0x000000001786ac84       0x10 lib/built-in.o
                0x000000001786ac84                efi_guid_text_input_protocol
 .rodata.efi_guid_text_output_protocol
                0x000000001786ac94       0x10 lib/built-in.o
                0x000000001786ac94                efi_guid_text_output_protocol
 .rodata.efi_load_pe.str1.1
                0x000000001786aca4       0xbc lib/built-in.o
 .rodata.efi_net_guid
                0x000000001786ad60       0x10 lib/built-in.o
 .rodata.efi_net_register.str1.1
                0x000000001786ad70       0x4d lib/built-in.o
                                         0x63 (size before relaxing)
 .rodata.efi_pxe_guid
                0x000000001786adbd       0x10 lib/built-in.o
 .rodata.efi_runtime_relocate.str1.1
                0x000000001786adcd       0x34 lib/built-in.o
 .rodata.efi_set_bootdev.str1.1
                0x000000001786ae01        0x8 cmd/built-in.o
                                          0xb (size before relaxing)
 .rodata.efi_set_variable.str1.1
                0x000000001786ae09       0x18 lib/built-in.o
                                         0x1a (size before relaxing)
 .rodata.efi_setup_loaded_image.str1.1
                0x000000001786ae21       0x36 lib/built-in.o
 .rodata.efi_simple_file_system_protocol_guid
                0x000000001786ae57       0x10 lib/built-in.o
                0x000000001786ae57                efi_simple_file_system_protocol_guid
 .rodata.efi_to_native.str1.1
                0x000000001786ae67        0xa lib/built-in.o
 .rodata.efi_uc_destroy.str1.1
                0x000000001786ae71       0x18 lib/built-in.o
 .rodata.efi_uc_init.str1.1
                0x000000001786ae89       0x1e lib/built-in.o
 .rodata.efi_uc_stop.str1.1
                0x000000001786aea7       0x40 lib/built-in.o
 .rodata.efi_watchdog_register.str1.1
                0x000000001786aee7       0x4f lib/built-in.o
 .rodata.efi_watchdog_timer_notify.str1.1
                0x000000001786af36       0x18 lib/built-in.o
 .rodata.ehci_register.str1.1
                0x000000001786af4e       0x26 drivers/usb/host/built-in.o
 .rodata.ehci_shutdown.str1.1
                0x000000001786af74       0x2b drivers/usb/host/built-in.o
 .rodata.ehci_submit_async.str1.1
                0x000000001786af9f       0xb5 drivers/usb/host/built-in.o
 .rodata.ehci_submit_control_msg.str1.1
                0x000000001786b054       0x16 drivers/usb/host/built-in.o
 .rodata.ehci_submit_int_msg.str1.1
                0x000000001786b06a       0x24 drivers/usb/host/built-in.o
 .rodata.ehci_td_buffer.str1.1
                0x000000001786b08e       0x29 drivers/usb/host/built-in.o
 .rodata.ehci_usb_ofdata_to_platdata.str1.1
                0x000000001786b0b7       0x1e drivers/usb/host/built-in.o
                                         0x23 (size before relaxing)
 .rodata.ehci_usb_probe.str1.1
                0x000000001786b0d5       0x57 drivers/usb/host/built-in.o
                                         0x5b (size before relaxing)
 .rodata.emit.str1.1
                0x000000001786b12c       0x1f lib/built-in.o
 .rodata.enable_backlight.str1.1
                0x000000001786b14b       0x15 board/freescale/mx6sabresd/built-in.o
 .rodata.enable_periodic.isra.2.str1.1
                0x000000001786b160       0x32 drivers/usb/host/built-in.o
 .rodata.env_callback_init.str1.1
                0x000000001786b192        0xb env/built-in.o
 .rodata.env_complete.str1.1
                0x000000001786b19d        0x4 env/built-in.o
 .rodata.env_export.str1.1
                0x000000001786b19d       0x27 env/built-in.o
 .rodata.env_flags_init.str1.1
                0x000000001786b19d        0x7 env/built-in.o
 .rodata.env_flags_parse_varaccess.str1.1
                0x000000001786b1a4       0x3d env/built-in.o
 .rodata.env_flags_parse_vartype.str1.1
                0x000000001786b1e1       0x34 env/built-in.o
 .rodata.env_flags_validate.str1.1
                0x000000001786b215       0xb2 env/built-in.o
                                         0xb3 (size before relaxing)
 .rodata.env_flags_varaccess_rep
                0x000000001786b2c7        0x5 env/built-in.o
 .rodata.env_flags_vartype_rep
                0x000000001786b2cc        0x7 env/built-in.o
 .rodata.env_get_bootm_low.str1.1
                0x000000001786b2d3        0xa common/built-in.o
 .rodata.env_get_bootm_mapsize.str1.1
                0x000000001786b2dd        0xe common/built-in.o
 .rodata.env_get_bootm_size.str1.1
                0x000000001786b2eb        0xb common/built-in.o
 .rodata.env_get_f.str1.1
                0x000000001786b2f6       0x30 cmd/built-in.o
 .rodata.env_import.str1.1
                0x000000001786b326       0x3f env/built-in.o
 .rodata.env_load.str1.1
                0x000000001786b365       0x2d env/built-in.o
                                         0x31 (size before relaxing)
 .rodata.env_mmc_load.str1.1
                0x000000001786b392        0xd env/built-in.o
 .rodata.env_mmc_save.str1.1
                0x000000001786b39f       0x19 env/built-in.o
                                         0x26 (size before relaxing)
 .rodata.env_print.str1.1
                0x000000001786b3b8       0x25 cmd/built-in.o
                                         0x2c (size before relaxing)
 .rodata.env_save.str1.1
                0x000000001786b3dd       0x1d env/built-in.o
 .rodata.env_set.str1.1
                0x000000001786b3fa        0x7 cmd/built-in.o
 .rodata.env_set_hex.str1.1
                0x000000001786b401        0x7 cmd/built-in.o
                                          0x4 (size before relaxing)
 .rodata.erase_seq
                0x000000001786b401        0x4 common/built-in.o
 .rodata.eth_current_changed.str1.1
                0x000000001786b405       0x14 net/built-in.o
 .rodata.eth_env_get_enetaddr_by_index.str1.1
                0x000000001786b405       0x10 net/built-in.o
 .rodata.eth_env_set_enetaddr.str1.1
                0x000000001786b415        0x4 net/built-in.o
 .rodata.eth_get_name.str1.1
                0x000000001786b419        0x8 net/built-in.o
 .rodata.eth_init.str1.1
                0x000000001786b419       0x11 net/built-in.o
                                         0x28 (size before relaxing)
 .rodata.eth_initialize.str1.1
                0x000000001786b42a       0x1c net/built-in.o
                                         0x1f (size before relaxing)
 .rodata.eth_mac_skip.str1.1
                0x000000001786b446       0x18 net/built-in.o
 .rodata.eth_post_bind.str1.1
                0x000000001786b45e       0x2b net/built-in.o
 .rodata.eth_post_probe.str1.1
                0x000000001786b489       0xaf net/built-in.o
                                         0xb3 (size before relaxing)
 .rodata.eth_set_current.str1.1
                0x000000001786b538        0x9 net/built-in.o
 .rodata.eth_write_hwaddr.str1.1
                0x000000001786b538       0x4e net/built-in.o
 .rodata.ext4_read_file.str1.1
                0x000000001786b586       0x19 fs/built-in.o
 .rodata.ext4_write_file.str1.1
                0x000000001786b59f       0x42 fs/built-in.o
 .rodata.ext4fs_allocate_blocks.str1.1
                0x000000001786b5e1       0x61 fs/built-in.o
 .rodata.ext4fs_check_journal_state.str1.1
                0x000000001786b642       0x2e fs/built-in.o
 .rodata.ext4fs_filename_unlink.str1.1
                0x000000001786b670       0x16 fs/built-in.o
 .rodata.ext4fs_get_bgdtable.str1.1
                0x000000001786b686       0x19 fs/built-in.o
 .rodata.ext4fs_get_parent_inode_num.str1.1
                0x000000001786b69f       0x3e fs/built-in.o
                                         0x40 (size before relaxing)
 .rodata.ext4fs_init.str1.1
                0x000000001786b6dd       0x33 fs/built-in.o
 .rodata.ext4fs_iterate_dir.str1.1
                0x000000001786b710       0x4a fs/built-in.o
 .rodata.ext4fs_log_journal.str1.1
                0x000000001786b75a       0x1c fs/built-in.o
 .rodata.ext4fs_ls.str1.1
                0x000000001786b776       0x1f fs/built-in.o
 .rodata.ext4fs_mount.str1.1
                0x000000001786b795       0x24 fs/built-in.o
 .rodata.ext4fs_push_revoke_blk.str1.1
                0x000000001786b7b9       0x2e fs/built-in.o
 .rodata.ext4fs_update_journal.str1.1
                0x000000001786b7e7       0x19 fs/built-in.o
 .rodata.ext4fs_update_parent_dentry.str1.1
                0x000000001786b800       0x86 fs/built-in.o
 .rodata.ext4fs_write.str1.1
                0x000000001786b886       0x78 fs/built-in.o
 .rodata.fastboot_add.str1.1
                0x000000001786b8fe        0xb drivers/usb/gadget/built-in.o
 .rodata.fastboot_bind.str1.1
                0x000000001786b909        0x8 drivers/usb/gadget/built-in.o
 .rodata.fastboot_complete.str1.1
                0x000000001786b909       0x1e drivers/usb/gadget/built-in.o
 .rodata.fastboot_fifo_complete.str1.1
                0x000000001786b927       0x13 drivers/usb/gadget/built-in.o
 .rodata.fastboot_flash_dump_ptn.str1.1
                0x000000001786b93a       0x2a drivers/usb/gadget/built-in.o
 .rodata.fastboot_name
                0x000000001786b964       0x11 drivers/usb/gadget/built-in.o
 .rodata.fastboot_run_bootmode.str1.1
                0x000000001786b975       0x12 drivers/usb/gadget/built-in.o
 .rodata.fastboot_set_alt.str1.1
                0x000000001786b987       0x4a drivers/usb/gadget/built-in.o
 .rodata.fastboot_setup.str1.1
                0x000000001786b9d1       0x10 drivers/usb/gadget/built-in.o
 .rodata.fastboot_tx_write.str1.1
                0x000000001786b9e1       0x13 drivers/usb/gadget/built-in.o
 .rodata.fastboot_tx_write_more.str1.1
                0x000000001786b9f4       0x2c drivers/usb/gadget/built-in.o
 .rodata.fat_itr_root.str1.1
                0x000000001786ba20       0x33 fs/built-in.o
 .rodata.fat_read_file.str1.1
                0x000000001786ba53       0x1e fs/built-in.o
 .rodata.fat_set_blk_dev.str1.1
                0x000000001786ba71        0x3 fs/built-in.o
                                          0xd (size before relaxing)
 .rodata.fdt_address_cells.str1.1
                0x000000001786ba74        0xf lib/built-in.o
 .rodata.fdt_chosen.str1.1
                0x000000001786ba83       0x35 common/built-in.o
                                         0x3e (size before relaxing)
 .rodata.fdt_error.str1.1
                0x000000001786bab8       0x2d common/built-in.o
 .rodata.fdt_find_or_add_subnode.str1.1
                0x000000001786bae5        0xc common/built-in.o
 .rodata.fdt_fixup_esdhc.str1.1
                0x000000001786baf1       0x1a drivers/built-in.o
 .rodata.fdt_fixup_ethernet.str1.1
                0x000000001786bb0b       0x2e common/built-in.o
                                         0x42 (size before relaxing)
 .rodata.fdt_fixup_memory_banks.str1.1
                0x000000001786bb39       0x85 common/built-in.o
                                         0x94 (size before relaxing)
 .rodata.fdt_get_alias_namelen.str1.1
                0x000000001786bbbe        0x9 lib/built-in.o
 .rodata.fdt_get_phandle.str1.1
                0x000000001786bbbe        0xe lib/built-in.o
                                         0x16 (size before relaxing)
 .rodata.fdt_initrd.str1.1
                0x000000001786bbcc       0x90 common/built-in.o
                                         0x97 (size before relaxing)
 .rodata.fdt_node_check_compatible.str1.1
                0x000000001786bc5c        0xb lib/built-in.o
 .rodata.fdt_root.str1.1
                0x000000001786bc5c       0x4e common/built-in.o
 .rodata.fdt_size_cells.str1.1
                0x000000001786bcaa        0xc lib/built-in.o
 .rodata.fdt_strerror.str1.1
                0x000000001786bcaa       0x31 lib/built-in.o
 .rodata.fdt_support_default_count_cells.str1.1
                0x000000001786bcdb        0xc common/built-in.o
 .rodata.fdt_translate_address.str1.1
                0x000000001786bce7       0x22 common/built-in.o
 .rodata.fdt_valid.str1.1
                0x000000001786bd09       0x79 cmd/built-in.o
                                         0x7b (size before relaxing)
 .rodata.fdtdec_add_aliases_for_id.str1.1
                0x000000001786bd82        0x9 lib/built-in.o
 .rodata.fdtdec_get_config_int.str1.1
                0x000000001786bd82        0x8 lib/built-in.o
 .rodata.fdtdec_get_is_enabled.str1.1
                0x000000001786bd8a        0x5 lib/built-in.o
                                          0xc (size before relaxing)
 .rodata.fdtdec_prepare_fdt.str1.1
                0x000000001786bd8f       0x96 lib/built-in.o
 .rodata.fdtdec_setup.str1.1
                0x000000001786be25        0xf lib/built-in.o
 .rodata.fec_get_miibus.str1.1
                0x000000001786be25       0x33 drivers/net/built-in.o
 .rodata.fec_phy_read.str1.1
                0x000000001786be58       0x15 drivers/net/built-in.o
 .rodata.fec_phy_reset.str1.1
                0x000000001786be6d        0xf board/freescale/mx6sabresd/built-in.o
 .rodata.fec_phy_write.str1.1
                0x000000001786be7c       0x16 drivers/net/built-in.o
 .rodata.fecmxc_init.str1.1
                0x000000001786be92       0x1d drivers/net/built-in.o
 .rodata.fecmxc_ofdata_to_platdata.str1.1
                0x000000001786beaf        0x9 drivers/net/built-in.o
 .rodata.fecmxc_probe.str1.1
                0x000000001786beb8       0x3f drivers/net/built-in.o
 .rodata.fecmxc_recv.str1.1
                0x000000001786bef7       0x33 drivers/net/built-in.o
 .rodata.fecmxc_send.str1.1
                0x000000001786bf2a       0x18 drivers/net/built-in.o
 .rodata.file_fat_detectfs.str1.1
                0x000000001786bf42       0x64 fs/built-in.o
                                         0x84 (size before relaxing)
 .rodata.file_fat_read_at.str1.1
                0x000000001786bfa6       0x17 fs/built-in.o
 .rodata.file_fat_write.str1.1
                0x000000001786bfbd       0x40 fs/built-in.o
 .rodata.file_get.str1.1
                0x000000001786bffd        0xc common/built-in.o
                                          0x7 (size before relaxing)
 .rodata.file_open.str1.1
                0x000000001786bffd        0xa lib/built-in.o
                                          0xb (size before relaxing)
 .rodata.find_mmc_device.str1.1
                0x000000001786c007       0x19 drivers/built-in.o
 .rodata.finish_access.str1.1
                0x000000001786c020       0x26 drivers/built-in.o
 .rodata.fixed_regulator_ofdata_to_platdata.str1.1
                0x000000001786c046       0x34 drivers/power/regulator/built-in.o
                                         0x39 (size before relaxing)
 .rodata.fixed_regulator_set_enable.str1.1
                0x000000001786c07a       0x26 drivers/power/regulator/built-in.o
 .rodata.flush_dir_table.constprop.7.str1.1
                0x000000001786c0a0       0x55 fs/built-in.o
 .rodata.fs_devread.str1.1
                0x000000001786c0f5       0x98 fs/built-in.o
 .rodata.fs_ls_generic.str1.1
                0x000000001786c18d       0x37 fs/built-in.o
 .rodata.fs_probe_unsupported.str1.1
                0x000000001786c1c4       0x24 fs/built-in.o
 .rodata.fs_write.str1.1
                0x000000001786c1e8       0x1f fs/built-in.o
 .rodata.fsg_add.str1.1
                0x000000001786c207       0x5b drivers/usb/gadget/built-in.o
 .rodata.fsg_main_thread.str1.1
                0x000000001786c262        0xe drivers/usb/gadget/built-in.o
 .rodata.fsg_setup.str1.1
                0x000000001786c270       0x24 drivers/usb/gadget/built-in.o
                                         0x3c (size before relaxing)
 .rodata.fsg_string_interface
                0x000000001786c294        0xd drivers/usb/gadget/built-in.o
 .rodata.fsl_esdhc_probe.str1.1
                0x000000001786c2a1      0x123 drivers/built-in.o
                                        0x130 (size before relaxing)
 .rodata.fsl_esdhc_send_cmd.str1.1
                0x000000001786c3c4       0xb8 drivers/built-in.o
 .rodata.fuse_sense.str1.1
                0x000000001786c47c       0x28 drivers/built-in.o
 .rodata.g_dnl_bind.str1.1
                0x000000001786c4a4        0xb drivers/usb/gadget/built-in.o
                                         0x12 (size before relaxing)
 .rodata.g_dnl_register.str1.1
                0x000000001786c4af       0x18 drivers/usb/gadget/built-in.o
 .rodata.genimg_get_arch_name.str1.1
                0x000000001786c4c7       0x15 common/built-in.o
 .rodata.genimg_get_comp_name.str1.1
                0x000000001786c4dc       0x14 common/built-in.o
 .rodata.genimg_get_os_name.str1.1
                0x000000001786c4f0        0xb common/built-in.o
 .rodata.genimg_get_type_name.str1.1
                0x000000001786c4fb        0xe common/built-in.o
 .rodata.genimg_print_size.str1.1
                0x000000001786c509        0xc common/built-in.o
                                          0xe (size before relaxing)
 .rodata.genphy_update_link.str1.1
                0x000000001786c515       0x54 drivers/net/phy/built-in.o
                                         0x56 (size before relaxing)
 .rodata.get_block_size.str1.1
                0x000000001786c569       0x25 drivers/usb/gadget/built-in.o
                                         0x2e (size before relaxing)
 .rodata.get_cluster.str1.1
                0x000000001786c58e       0x25 fs/built-in.o
 .rodata.get_current.str1.1
                0x000000001786c5b3       0x15 drivers/serial/built-in.o
 .rodata.get_descriptor_len.str1.1
                0x000000001786c5c8       0x64 common/built-in.o
 .rodata.get_fatent.str1.1
                0x000000001786c62c       0x22 fs/built-in.o
 .rodata.get_imx_type.str1.1
                0x000000001786c64e       0x35 arch/arm/mach-imx/built-in.o
                                          0x3 (size before relaxing)
 .rodata.get_local_var.str1.1
                0x000000001786c64e        0xc common/built-in.o
                                          0x3 (size before relaxing)
 .rodata.get_phy_device_by_mask.str1.1
                0x000000001786c64e       0x29 drivers/net/phy/built-in.o
 .rodata.get_reset_cause.str1.1
                0x000000001786c677       0x52 arch/arm/mach-imx/built-in.o
 .rodata.get_single_var.str1.1
                0x000000001786c6c9      0x1ca drivers/usb/gadget/built-in.o
                                        0x1f9 (size before relaxing)
 .rodata.gpio_direction_input.str1.1
                0x000000001786c893        0xa drivers/gpio/built-in.o
 .rodata.gpio_direction_output.str1.1
                0x000000001786c89d        0xb drivers/gpio/built-in.o
 .rodata.gpio_get_description.str1.1
                0x000000001786c8a8        0xa cmd/built-in.o
                                         0x18 (size before relaxing)
 .rodata.gpio_get_status.str1.1
                0x000000001786c8b2       0x17 drivers/gpio/built-in.o
                                         0x19 (size before relaxing)
 .rodata.gpio_regulator_ofdata_to_platdata.str1.1
                0x000000001786c8c9        0x7 drivers/power/regulator/built-in.o
                                          0xd (size before relaxing)
 .rodata.gpio_regulator_set_value.str1.1
                0x000000001786c8d0       0x26 drivers/power/regulator/built-in.o
 .rodata.gpio_request_by_name_nodev.str1.1
                0x000000001786c8d0        0xc drivers/gpio/built-in.o
 .rodata.gpio_request_tail.str1.1
                0x000000001786c8dc        0x8 drivers/gpio/built-in.o
                                          0xe (size before relaxing)
 .rodata.gzip_parse_header.str1.1
                0x000000001786c8e4       0x3e lib/built-in.o
 .rodata.hang.str1.1
                0x000000001786c922       0x2a lib/built-in.o
 .rodata.hash_command.str1.1
                0x000000001786c94c       0x25 common/built-in.o
 .rodata.hex_asc
                0x000000001786c971       0x11 lib/built-in.o
 .rodata.hexchars.8835
                0x000000001786c982       0x11 lib/built-in.o
 .rodata.hexport_r.str1.1
                0x000000001786c993       0x30 lib/built-in.o
 .rodata.himport_r.str1.1
                0x000000001786c9c3       0x99 lib/built-in.o
 .rodata.i2c_chip_ofdata_to_platdata.str1.1
                0x000000001786ca5c       0x16 drivers/i2c/built-in.o
                                         0x1a (size before relaxing)
 .rodata.i2c_get_chip.str1.1
                0x000000001786ca72       0x20 drivers/i2c/built-in.o
 .rodata.i2c_get_cur_bus.str1.1
                0x000000001786ca92       0x15 cmd/built-in.o
 .rodata.i2c_idle_bus.str1.1
                0x000000001786caa7       0x28 drivers/i2c/built-in.o
                                         0x35 (size before relaxing)
 .rodata.i2c_imx_stop.str1.1
                0x000000001786cacf       0x18 drivers/i2c/built-in.o
 .rodata.i2c_init_transfer.constprop.4.str1.1
                0x000000001786cae7       0x3f drivers/i2c/built-in.o
 .rodata.i2c_post_probe.str1.1
                0x000000001786cb26       0x10 drivers/i2c/built-in.o
 .rodata.image_info.str1.1
                0x000000001786cb26       0xc4 cmd/built-in.o
 .rodata.image_print_contents.str1.1
                0x000000001786cbea       0xd0 common/built-in.o
                                         0xd4 (size before relaxing)
 .rodata.image_setup_libfdt.str1.1
                0x000000001786ccba       0x8f common/built-in.o
 .rodata.imx_pinctrl_probe.str1.1
                0x000000001786cd49       0x58 drivers/built-in.o
                                         0x5c (size before relaxing)
 .rodata.imx_pinctrl_set_state.str1.1
                0x000000001786cda1       0x84 drivers/built-in.o
 .rodata.imx_thermal_get_temp.str1.1
                0x000000001786ce25       0x3a drivers/built-in.o
 .rodata.inflate.str1.1
                0x000000001786ce5f      0x158 lib/built-in.o
 .rodata.inflate_fast.str1.1
                0x000000001786cfb7       0x50 lib/built-in.o
 .rodata.init_baud_rate.str1.1
                0x000000001786d007        0x9 common/built-in.o
 .rodata.init_mmc_device.str1.1
                0x000000001786d010       0x1a cmd/built-in.o
 .rodata.init_mmc_for_env.str1.1
                0x000000001786d02a       0x5e env/built-in.o
 .rodata.initcall_run_list.str1.1
                0x000000001786d088       0x31 lib/built-in.o
 .rodata.initr_env.str1.1
                0x000000001786d0b9       0x20 common/built-in.o
                                         0x29 (size before relaxing)
 .rodata.initr_ethaddr.str1.1
                0x000000001786d0d9        0x8 common/built-in.o
 .rodata.initr_mmc.str1.1
                0x000000001786d0e1        0x8 common/built-in.o
 .rodata.initr_net.str1.1
                0x000000001786d0e9        0x8 common/built-in.o
 .rodata.insert_var_value_sub.str1.1
                0x000000001786d0f1        0x6 common/built-in.o
 .rodata.ip_to_string.str1.1
                0x000000001786d0f7        0xc net/built-in.o
 .rodata.ipu_dc_link_event.str1.1
                0x000000001786d103       0x18 drivers/built-in.o
 .rodata.ipu_di_sync_config.constprop.3.str1.1
                0x000000001786d11b       0x1d drivers/built-in.o
 .rodata.ipu_dmfc_init.str1.1
                0x000000001786d138       0x2f drivers/built-in.o
 .rodata.ipu_enable_channel.str1.1
                0x000000001786d167       0x25 drivers/built-in.o
 .rodata.ipu_init_channel.str1.1
                0x000000001786d18c       0x49 drivers/built-in.o
 .rodata.ipu_init_channel_buffer.str1.1
                0x000000001786d1d5       0xa9 drivers/built-in.o
 .rodata.ipu_init_sync_panel.str1.1
                0x000000001786d27e       0x3c drivers/built-in.o
 .rodata.ipu_probe.str1.1
                0x000000001786d2ba       0x1c drivers/built-in.o
 .rodata.ipu_uninit_channel.str1.1
                0x000000001786d2d6       0x2b drivers/built-in.o
 .rodata.is_gpt_valid.str1.1
                0x000000001786d301       0xea disk/built-in.o
 .rodata.jr_reset.str1.1
                0x000000001786d3eb       0x34 drivers/built-in.o
 .rodata.ldo_mode_set.str1.1
                0x000000001786d41f       0x55 board/freescale/mx6sabresd/built-in.o
                                         0x5e (size before relaxing)
 .rodata.list_sort.str1.1
                0x000000001786d474       0x34 lib/built-in.o
 .rodata.lists_bind_drivers.str1.1
                0x000000001786d4a8       0x1a drivers/built-in.o
 .rodata.lists_bind_fdt.str1.1
                0x000000001786d4c2       0x4a drivers/built-in.o
 .rodata.lmb_alloc_base.str1.1
                0x000000001786d50c       0x34 lib/built-in.o
 .rodata.load_serial.str1.1
                0x000000001786d540       0x65 cmd/built-in.o
 .rodata.load_serial_ymodem.str1.1
                0x000000001786d5a5       0x31 cmd/built-in.o
                                         0x35 (size before relaxing)
 .rodata.main_loop.str1.1
                0x000000001786d5d6       0x11 common/built-in.o
 .rodata.manufacturer
                0x000000001786d5e7        0x4 drivers/usb/gadget/built-in.o
 .rodata.match.str1.1
                0x000000001786d5eb       0x18 lib/built-in.o
 .rodata.match_entry.str1.1
                0x000000001786d603       0x1b lib/built-in.o
 .rodata.match_string.str1.1
                0x000000001786d603       0x2c lib/built-in.o
 .rodata.mdio_list_devices.str1.1
                0x000000001786d62f       0x12 common/built-in.o
                                         0x19 (size before relaxing)
 .rodata.mdio_phydev_for_ethname.str1.1
                0x000000001786d641       0x1c common/built-in.o
 .rodata.mdio_register.str1.1
                0x000000001786d65d       0x2c common/built-in.o
 .rodata.miiphy_duplex.str1.1
                0x000000001786d689       0x4f common/built-in.o
 .rodata.miiphy_get_dev_by_name.str1.1
                0x000000001786d6d8       0x13 common/built-in.o
 .rodata.miiphy_listdev.str1.1
                0x000000001786d6eb       0x2a common/built-in.o
 .rodata.miiphy_set_current_dev.str1.1
                0x000000001786d715       0x14 common/built-in.o
 .rodata.miiphy_speed.str1.1
                0x000000001786d729       0x49 common/built-in.o
 .rodata.mmc_berase.str1.1
                0x000000001786d772       0x6f drivers/built-in.o
 .rodata.mmc_bind.str1.1
                0x000000001786d7e1        0x8 drivers/built-in.o
                                          0xc (size before relaxing)
 .rodata.mmc_block_op.str1.1
                0x000000001786d7e9       0x70 drivers/built-in.o
 .rodata.mmc_bread.str1.1
                0x000000001786d859       0x47 drivers/built-in.o
 .rodata.mmc_bwrite.str1.1
                0x000000001786d8a0       0x12 drivers/built-in.o
                                         0x59 (size before relaxing)
 .rodata.mmc_file_op.str1.1
                0x000000001786d8b2       0x6d drivers/built-in.o
                                         0x8e (size before relaxing)
 .rodata.mmc_get_env_addr.str1.1
                0x000000001786d91f       0x2f env/built-in.o
                                         0x35 (size before relaxing)
 .rodata.mmc_get_env_dev.str1.1
                0x000000001786d94e        0x7 arch/arm/mach-imx/built-in.o
 .rodata.mmc_hwpart_config.str1.1
                0x000000001786d955      0x19f drivers/built-in.o
 .rodata.mmc_initialize.str1.1
                0x000000001786daf4       0x17 drivers/built-in.o
 .rodata.mmc_mode_name.str1.1
                0x000000001786db0b        0xd drivers/built-in.o
 .rodata.mmc_power_on.isra.3.str1.1
                0x000000001786db18       0x1c drivers/built-in.o
 .rodata.mmc_send_status.str1.1
                0x000000001786db34       0x32 drivers/built-in.o
 .rodata.mmc_start_init.str1.1
                0x000000001786db66       0x58 drivers/built-in.o
 .rodata.mmc_startup.str1.1
                0x000000001786dbbe       0x4f drivers/built-in.o
                                         0x55 (size before relaxing)
 .rodata.mod_i2c_mem.isra.1.str1.1
                0x000000001786dc0d       0x21 cmd/built-in.o
                                         0x28 (size before relaxing)
 .rodata.mod_mem.isra.0.str1.1
                0x000000001786dc2e        0xc cmd/built-in.o
                                         0x1d (size before relaxing)
 .rodata.mtd_arg_off.str1.1
                0x000000001786dc3a       0x38 drivers/mtd/built-in.o
 .rodata.mtd_arg_off_size.str1.1
                0x000000001786dc72       0x71 drivers/mtd/built-in.o
 .rodata.multipliers
                0x000000001786dce3       0x10 drivers/built-in.o
 .rodata.mxc_get_clock.str1.1
                0x000000001786dcf3       0x19 arch/arm/mach-imx/built-in.o
 .rodata.mxc_gpio_probe.str1.1
                0x000000001786dd0c        0x8 drivers/gpio/built-in.o
 .rodata.mxc_i2c_probe.str1.1
                0x000000001786dd14       0x45 drivers/i2c/built-in.o
                                         0x53 (size before relaxing)
 .rodata.mxcfb_map_video_memory.str1.1
                0x000000001786dd59       0x27 drivers/built-in.o
 .rodata.names.8058
                0x000000001786dd80        0x6 lib/built-in.o
 .rodata.net_auto_load.str1.1
                0x000000001786dd86        0xd net/built-in.o
 .rodata.net_bcast_ethaddr
                0x000000001786dd93        0x6 net/built-in.o
                0x000000001786dd93                net_bcast_ethaddr
 .rodata.net_loop.str1.1
                0x000000001786dd99       0xe5 net/built-in.o
                                         0xf7 (size before relaxing)
 .rodata.net_process_received_packet.str1.1
                0x000000001786de7e       0x1d net/built-in.o
 .rodata.net_start_again.str1.1
                0x000000001786de9b        0xe net/built-in.o
                                         0x15 (size before relaxing)
 .rodata.netboot_common.str1.1
                0x000000001786dea9       0x16 cmd/built-in.o
                                         0x4a (size before relaxing)
 .rodata.nfs_handler.str1.1
                0x000000001786debf       0x56 net/built-in.o
 .rodata.nfs_lookup_reply.str1.1
                0x000000001786df15       0x25 net/built-in.o
                                         0x27 (size before relaxing)
 .rodata.nfs_read_reply.isra.0.str1.1
                0x000000001786df3a        0x4 net/built-in.o
 .rodata.nfs_readlink_reply.str1.1
                0x000000001786df3e        0x2 net/built-in.o
 .rodata.nfs_start.str1.1
                0x000000001786df3e       0x1e net/built-in.o
                                         0x1f (size before relaxing)
 .rodata.nfs_timeout_handler.str1.1
                0x000000001786df5c       0x2a net/built-in.o
 .rodata.ofnode_pre_reloc.str1.1
                0x000000001786df86       0x30 drivers/built-in.o
 .rodata.on_baudrate.str1.1
                0x000000001786df86       0x42 drivers/serial/built-in.o
                                         0x74 (size before relaxing)
 .rodata.on_callbacks.str1.1
                0x000000001786dfc8      0x105 env/built-in.o
 .rodata.on_console.str1.1
                0x000000001786e0cd       0x10 common/built-in.o
                                         0x27 (size before relaxing)
 .rodata.on_flags.str1.1
                0x000000001786e0cd       0x50 env/built-in.o
 .rodata.parse_argv.str1.1
                0x000000001786e11d        0x6 cmd/built-in.o
                                          0xd (size before relaxing)
 .rodata.parse_attr.part.1.str1.1
                0x000000001786e123       0x1a lib/built-in.o
                                         0x23 (size before relaxing)
 .rodata.parse_env.isra.7.constprop.13.str1.1
                0x000000001786e13d       0x11 drivers/usb/gadget/built-in.o
 .rodata.parse_stream_outer.str1.1
                0x000000001786e14e       0x4d common/built-in.o
 .rodata.parse_string_outer.str1.1
                0x000000001786e19b        0x2 common/built-in.o
 .rodata.part_get_info_efi.str1.1
                0x000000001786e19b        0xa disk/built-in.o
 .rodata.part_get_info_extended.str1.1
                0x000000001786e19b        0xa disk/built-in.o
                                         0x11 (size before relaxing)
 .rodata.part_get_info_whole_disk.str1.1
                0x000000001786e1a5        0xb disk/built-in.o
                                         0x12 (size before relaxing)
 .rodata.part_print.str1.1
                0x000000001786e1b0       0x87 disk/built-in.o
                                         0x90 (size before relaxing)
 .rodata.part_print_dos.str1.1
                0x000000001786e237       0x2a disk/built-in.o
 .rodata.part_print_efi.str1.1
                0x000000001786e261       0xf9 disk/built-in.o
 .rodata.part_set_generic_name.str1.1
                0x000000001786e35a        0xa disk/built-in.o
 .rodata.pfuze100_bind.str1.1
                0x000000001786e364        0xb drivers/power/pmic/built-in.o
 .rodata.pfuze100_read.str1.1
                0x000000001786e36f       0x2a drivers/power/pmic/built-in.o
 .rodata.pfuze100_regulator_mode.str1.1
                0x000000001786e399        0x6 drivers/power/regulator/built-in.o
 .rodata.pfuze100_regulator_set_enable.str1.1
                0x000000001786e39f        0x8 drivers/power/regulator/built-in.o
 .rodata.pfuze100_write.str1.1
                0x000000001786e3a7       0x29 drivers/power/pmic/built-in.o
 .rodata.pfuze_common_init.str1.1
                0x000000001786e3d0       0x29 board/freescale/common/built-in.o
                                         0x32 (size before relaxing)
 .rodata.pfuze_mode_init.str1.1
                0x000000001786e3f9       0x4a board/freescale/common/built-in.o
 .rodata.phy_connect_dev.str1.1
                0x000000001786e443       0x2f drivers/net/phy/built-in.o
 .rodata.phy_reset.str1.1
                0x000000001786e472       0x15 drivers/net/phy/built-in.o
 .rodata.pinconfig_post_bind.str1.1
                0x000000001786e487        0xa drivers/built-in.o
                                         0x15 (size before relaxing)
 .rodata.pinctrl_select_state.str1.1
                0x000000001786e491       0x53 drivers/built-in.o
 .rodata.ping_start.str1.1
                0x000000001786e4e4       0x11 net/built-in.o
 .rodata.pmic_bind_children.str1.1
                0x000000001786e4f5        0xf drivers/power/pmic/built-in.o
 .rodata.prepare_access.str1.1
                0x000000001786e504       0x22 drivers/built-in.o
 .rodata.print_buffer.str1.1
                0x000000001786e526        0x6 lib/built-in.o
                                         0x17 (size before relaxing)
 .rodata.print_cpuinfo.str1.1
                0x000000001786e52c       0xdb arch/arm/mach-imx/built-in.o
                                         0xf9 (size before relaxing)
 .rodata.print_data.str1.1
                0x000000001786e607       0x27 cmd/built-in.o
                                         0x32 (size before relaxing)
 .rodata.print_freq.str1.1
                0x000000001786e62e       0x1b lib/built-in.o
 .rodata.print_jrnl_status.str1.1
                0x000000001786e649       0x34 fs/built-in.o
 .rodata.print_mmc_devices.str1.1
                0x000000001786e67d        0xd drivers/built-in.o
                                         0x1c (size before relaxing)
 .rodata.print_num.str1.1
                0x000000001786e68a       0x10 cmd/built-in.o
 .rodata.print_partition_extended.str1.1
                0x000000001786e69a       0x83 disk/built-in.o
                                         0x84 (size before relaxing)
 .rodata.print_size.str1.1
                0x000000001786e71d       0x15 lib/built-in.o
 .rodata.product
                0x000000001786e732       0x14 drivers/usb/gadget/built-in.o
 .rodata.put_ext4.str1.1
                0x000000001786e746       0x42 fs/built-in.o
 .rodata.quantifier.str1.1
                0x000000001786e788       0x17 lib/built-in.o
 .rodata.read_allocated_block.str1.1
                0x000000001786e79f      0x240 fs/built-in.o
 .rodata.read_bootsectandvi.str1.1
                0x000000001786e9df       0x1b fs/built-in.o
 .rodata.realloc.str1.1
                0x000000001786e9fa       0x25 common/built-in.o
 .rodata.regex_callback.str1.1
                0x000000001786ea1f        0x5 env/built-in.o
                                         0x20 (size before relaxing)
 .rodata.regex_sub.str1.1
                0x000000001786ea24       0xbd cmd/built-in.o
 .rodata.regulator_post_bind.str1.1
                0x000000001786eae1        0xf drivers/power/regulator/built-in.o
 .rodata.regulator_pre_probe.str1.1
                0x000000001786eae1       0x84 drivers/power/regulator/built-in.o
 .rodata.run_list_real.str1.1
                0x000000001786eb65       0x45 common/built-in.o
                                         0x4b (size before relaxing)
 .rodata.run_usb_dnl_gadget.str1.1
                0x000000001786ebaa       0x34 common/built-in.o
                                         0x4a (size before relaxing)
 .rodata.rx_handler_command.str1.1
                0x000000001786ebde       0x3e drivers/usb/gadget/built-in.o
                                         0x4e (size before relaxing)
 .rodata.rx_handler_dl_image.str1.1
                0x000000001786ec1c       0x52 drivers/usb/gadget/built-in.o
 .rodata.search_dir.str1.1
                0x000000001786ec6e       0x1b fs/built-in.o
 .rodata.set_default_env.str1.1
                0x000000001786ec89       0x2e env/built-in.o
                                         0x55 (size before relaxing)
 .rodata.set_local_var.str1.1
                0x000000001786ecb7       0x59 common/built-in.o
 .rodata.set_working_fdt_addr.str1.1
                0x000000001786ed10        0x8 cmd/built-in.o
 .rodata.show_board_info.str1.1
                0x000000001786ed18       0x11 common/built-in.o
 .rodata.show_bus.str1.1
                0x000000001786ed29       0x3f cmd/built-in.o
                                         0x41 (size before relaxing)
 .rodata.show_devices.str1.1
                0x000000001786ed68       0x2d drivers/built-in.o
                                         0x36 (size before relaxing)
 .rodata.show_dram_config.str1.1
                0x000000001786ed95        0x1 common/built-in.o
 .rodata.show_regs.str1.1
                0x000000001786ed95       0xff arch/arm/lib/built-in.o
                                        0x129 (size before relaxing)
 .rodata.simple_bus_post_bind.str1.1
                0x000000001786ee94        0x7 drivers/built-in.o
 .rodata.sleep_thread.isra.17.str1.1
                0x000000001786ee94        0xc drivers/usb/gadget/built-in.o
 .rodata.smbios_guid
                0x000000001786eea0       0x10 lib/built-in.o
 .rodata.smbios_write_type0.str1.1
                0x000000001786eeb0        0xb lib/built-in.o
                                         0x1a (size before relaxing)
 .rodata.smbios_write_type1.str1.1
                0x000000001786eebb        0x8 lib/built-in.o
 .rodata.smbios_write_type2.str1.1
                0x000000001786eebb        0xb lib/built-in.o
 .rodata.smbios_write_type3.str1.1
                0x000000001786eec6        0xa lib/built-in.o
 .rodata.smbios_write_type4.str1.1
                0x000000001786eed0        0x8 lib/built-in.o
 .rodata.source.str1.1
                0x000000001786eed0       0x7e cmd/built-in.o
 .rodata.spi_claim_bus.str1.1
                0x000000001786ef4e       0x4a drivers/spi/built-in.o
 .rodata.spi_flash_cmd_erase_ops.str1.1
                0x000000001786ef98       0x2f drivers/mtd/spi/built-in.o
 .rodata.spi_flash_cmd_write_ops.str1.1
                0x000000001786efc7       0x30 drivers/mtd/spi/built-in.o
 .rodata.spi_flash_scan.str1.1
                0x000000001786eff7      0x13c drivers/mtd/spi/built-in.o
                                        0x13f (size before relaxing)
 .rodata.spi_flash_write_common.str1.1
                0x000000001786f133        0xe drivers/mtd/spi/built-in.o
 .rodata.spi_setup_slave.str1.1
                0x000000001786f141       0x65 drivers/spi/built-in.o
 .rodata.spi_xchg_single.str1.1
                0x000000001786f1a6       0x1b drivers/spi/built-in.o
 .rodata.splash_get_pos.str1.1
                0x000000001786f1c1        0xa common/built-in.o
 .rodata.state_dfu_manifest.str1.1
                0x000000001786f1cb       0x24 drivers/usb/gadget/built-in.o
 .rodata.stdio_add_devices.str1.1
                0x000000001786f1ef        0x8 common/built-in.o
                                          0xf (size before relaxing)
 .rodata.stdio_print_current_devices.str1.1
                0x000000001786f1f7       0x70 common/built-in.o
                                         0x74 (size before relaxing)
 .rodata.store_char_in_data.str1.1
                0x000000001786f267       0x1f lib/built-in.o
 .rodata.str1.1
                0x000000001786f286       0xeb arch/arm/lib/built-in.o
 .rodata.str1.1
                0x000000001786f371       0xd2 arch/arm/mach-imx/built-in.o
                                         0xea (size before relaxing)
 .rodata.str1.1
                0x000000001786f443       0x25 board/freescale/mx6sabresd/built-in.o
                                         0x2a (size before relaxing)
 .rodata.str1.1
                0x000000001786f468     0x3731 cmd/built-in.o
                                       0x3a36 (size before relaxing)
 .rodata.str1.1
                0x0000000017872b99      0x792 common/built-in.o
                                        0x80c (size before relaxing)
 .rodata.str1.1
                0x000000001787332b       0x1b disk/built-in.o
                                         0x1e (size before relaxing)
 .rodata.str1.1
                0x0000000017873346      0x2f7 drivers/built-in.o
                                        0x353 (size before relaxing)
 .rodata.str1.1
                0x000000001787363d       0x2c drivers/gpio/built-in.o
                                         0x3e (size before relaxing)
 .rodata.str1.1
                0x0000000017873669       0x30 drivers/i2c/built-in.o
                                         0x34 (size before relaxing)
 .rodata.str1.1
                0x0000000017873699       0xdd drivers/mtd/spi/built-in.o
 .rodata.str1.1
                0x0000000017873776       0x50 drivers/net/built-in.o
 .rodata.str1.1
                0x00000000178737c6       0x79 drivers/net/phy/built-in.o
                                         0x92 (size before relaxing)
 .rodata.str1.1
                0x000000001787383f       0x49 drivers/power/pmic/built-in.o
                                         0x52 (size before relaxing)
 .rodata.str1.1
                0x0000000017873888      0x153 drivers/power/regulator/built-in.o
                                        0x170 (size before relaxing)
 .rodata.str1.1
                0x00000000178739db        0x9 drivers/serial/built-in.o
 .rodata.str1.1
                0x00000000178739db        0x9 drivers/usb/eth/built-in.o
 .rodata.str1.1
                0x00000000178739e4       0x72 drivers/usb/gadget/built-in.o
                                         0xae (size before relaxing)
 .rodata.str1.1
                0x0000000017873a56       0x27 drivers/usb/host/built-in.o
                                         0x2b (size before relaxing)
 .rodata.str1.1
                0x0000000017873a7d      0x105 env/built-in.o
                                         0x14 (size before relaxing)
 .rodata.str1.1
                0x0000000017873a7d        0xc fs/built-in.o
                                         0x15 (size before relaxing)
 .rodata.str1.1
                0x0000000017873a89      0x528 lib/built-in.o
                                        0x52d (size before relaxing)
 .rodata.str1.1
                0x0000000017873fb1        0x6 net/built-in.o
                                         0x3e (size before relaxing)
 .rodata.str1.1
                0x0000000017873fb7       0xdc test/dm/built-in.o
                                         0xe2 (size before relaxing)
 .rodata.string.str1.1
                0x0000000017874093        0x7 lib/built-in.o
 .rodata.substitute.str1.1
                0x000000001787409a       0x28 cmd/built-in.o
 .rodata.syntax_err.str1.1
                0x00000000178740c2        0xe common/built-in.o
 .rodata.tab_seq
                0x00000000178740d0        0x9 common/built-in.o
 .rodata.test_block_type.str1.1
                0x00000000178740d9        0xa disk/built-in.o
 .rodata.tftp_handler.str1.1
                0x00000000178740e3       0x72 net/built-in.o
                                         0x80 (size before relaxing)
 .rodata.tftp_send.str1.1
                0x0000000017874155       0x36 net/built-in.o
                                         0x42 (size before relaxing)
 .rodata.tftp_start.str1.1
                0x000000001787418b      0x156 net/built-in.o
                                        0x181 (size before relaxing)
 .rodata.tftp_timeout_handler.str1.1
                0x00000000178742e1       0x2a net/built-in.o
                                         0x2d (size before relaxing)
 .rodata.u_boot_hush_start.str1.1
                0x000000001787430b       0x12 common/built-in.o
 .rodata.uclass_resolve_seq.str1.1
                0x000000001787431d       0x27 drivers/built-in.o
 .rodata.udc_irq.str1.1
                0x0000000017874344       0x27 drivers/usb/gadget/built-in.o
                                         0x2e (size before relaxing)
 .rodata.us_direction
                0x000000001787436b       0x20 common/built-in.o
 .rodata.usb_child_post_bind.str1.1
                0x000000001787438b       0x25 drivers/usb/host/built-in.o
 .rodata.usb_composite_register.str1.1
                0x00000000178743b0        0xa drivers/usb/gadget/built-in.o
 .rodata.usb_display_class_sub.str1.1
                0x00000000178743ba       0xb6 cmd/built-in.o
                                         0xbc (size before relaxing)
 .rodata.usb_display_config.str1.1
                0x0000000017874470      0x10d cmd/built-in.o
                                        0x118 (size before relaxing)
 .rodata.usb_display_desc.str1.1
                0x000000001787457d       0xac cmd/built-in.o
                                         0xae (size before relaxing)
 .rodata.usb_display_string.str1.1
                0x0000000017874629        0xd cmd/built-in.o
 .rodata.usb_ether_receive.str1.1
                0x0000000017874636       0x1b drivers/usb/eth/built-in.o
 .rodata.usb_find_usb2_hub_address_port.str1.1
                0x0000000017874651       0x36 common/built-in.o
 .rodata.usb_get_class_desc.str1.1
                0x0000000017874687       0x64 cmd/built-in.o
                                         0x65 (size before relaxing)
 .rodata.usb_get_configuration_len.str1.1
                0x00000000178746eb       0x58 common/built-in.o
 .rodata.usb_hub_configure.str1.1
                0x0000000017874743       0x5f common/built-in.o
 .rodata.usb_hub_port_connect_change.str1.1
                0x00000000178747a2       0x18 common/built-in.o
 .rodata.usb_init.str1.1
                0x00000000178747ba       0x7e drivers/usb/host/built-in.o
 .rodata.usb_mass_storage_probe.str1.1
                0x0000000017874838       0x16 common/built-in.o
 .rodata.usb_scan_bus.isra.3.str1.1
                0x000000001787484e       0x4d drivers/usb/host/built-in.o
                                         0x5f (size before relaxing)
 .rodata.usb_scan_device.str1.1
                0x000000001787489b       0x2a drivers/usb/host/built-in.o
 .rodata.usb_select_config.str1.1
                0x00000000178748c5      0x220 common/built-in.o
 .rodata.usb_set_interface.str1.1
                0x0000000017874ae5       0x1f common/built-in.o
 .rodata.usb_setup_descriptor.str1.1
                0x0000000017874b04       0x1d common/built-in.o
 .rodata.usb_setup_device.str1.1
                0x0000000017874b21       0x68 common/built-in.o
 .rodata.usb_show_tree_graph.str1.1
                0x0000000017874b89       0x2b cmd/built-in.o
                                         0x3a (size before relaxing)
 .rodata.usb_stor_CBI_get_status.isra.2.str1.1
                0x0000000017874bb4       0x1f common/built-in.o
 .rodata.usb_stor_CB_transport.str1.1
                0x0000000017874bd3       0x6e common/built-in.o
 .rodata.usb_stor_get_info.str1.1
                0x0000000017874c41       0x5d common/built-in.o
 .rodata.usb_stor_info.str1.1
                0x0000000017874c9e       0x32 common/built-in.o
                                         0x40 (size before relaxing)
 .rodata.usb_stor_scan.str1.1
                0x0000000017874cd0       0x48 common/built-in.o
 .rodata.usb_storage_probe.str1.1
                0x0000000017874d18       0x5c common/built-in.o
 .rodata.uuid_bin_to_str.str1.1
                0x0000000017874d74       0x1f lib/built-in.o
                                          0x5 (size before relaxing)
 .rodata.v7_outer_cache_inval_range.str1.1
                0x0000000017874d74       0x65 arch/arm/lib/built-in.o
 .rodata.valid_elf_image.str1.1
                0x0000000017874dd9       0x52 cmd/built-in.o
 .rodata.validate_gpt_header.str1.1
                0x0000000017874e2b       0xe1 disk/built-in.o
 .rodata.var_complete.str1.1
                0x0000000017874f0c        0x1 common/built-in.o
 .rodata.vendor_id.9191
                0x0000000017874f0c        0x9 drivers/usb/gadget/built-in.o
 .rodata.version_string
                0x0000000017874f15       0x2e cmd/built-in.o
                0x0000000017874f15                version_string
 .rodata.video_display_bitmap.str1.1
                0x0000000017874f43       0xf5 drivers/built-in.o
 .rodata.video_hw_init.str1.1
                0x0000000017875038       0x8c drivers/built-in.o
 .rodata.wait_for_sr_state.str1.1
                0x00000000178750c4       0x4c drivers/i2c/built-in.o
 .rodata.write_backup_gpt.str1.1
                0x0000000017875110       0x70 drivers/usb/gadget/built-in.o
 .rodata.write_mbr_and_gpt_partitions.str1.1
                0x0000000017875180       0x7c disk/built-in.o
 .rodata.write_smbios_table.str1.1
                0x00000000178751fc        0xb lib/built-in.o
 .rodata.write_sparse_image.str1.1
                0x0000000017875207      0x1f9 common/built-in.o
                                        0x1fa (size before relaxing)
 .rodata.xmalloc.str1.1
                0x0000000017875400       0x1e common/built-in.o
 .rodata.xyzModem_error.str1.1
                0x000000001787541e        0xe common/built-in.o
 .rodata.xyzModem_stream_close.str1.1
                0x000000001787542c       0x47 common/built-in.o
                                         0x4b (size before relaxing)
 .rodata.xyzModem_stream_open.str1.1
                0x0000000017875473        0x2 common/built-in.o
 .rodata.zunzip.str1.1
                0x0000000017875473       0x47 lib/built-in.o

.hash           0x00000000178754bc       0x18
 .hash          0x00000000178754bc       0x18 arch/arm/cpu/armv7/start.o
                0x00000000178754d4                . = ALIGN (0x4)

.data           0x00000000178754d4     0xfa80
 *(.data*)
 .data.reset_cause
                0x00000000178754d4        0x4 arch/arm/mach-imx/built-in.o
 .data.imx_ccm  0x00000000178754d8        0x4 arch/arm/mach-imx/built-in.o
                0x00000000178754d8                imx_ccm
 .data.display_count
                0x00000000178754dc        0x4 board/freescale/mx6sabresd/built-in.o
                0x00000000178754dc                display_count
 .data.bootm_help_text
                0x00000000178754e0      0x38b cmd/built-in.o
 *fill*         0x000000001787586b        0x1 
 .data.cmd_bootm_sub
                0x000000001787586c       0xfc cmd/built-in.o
 .data.source_help_text
                0x0000000017875968       0x4e cmd/built-in.o
 .data.bootefi_help_text
                0x00000000178759b6      0x188 cmd/built-in.o
 .data.bootz_help_text
                0x0000000017875b3e      0x208 cmd/built-in.o
 .data.fdt_help_text
                0x0000000017875d46      0x60a cmd/built-in.o
 .data.root.8780
                0x0000000017876350        0x2 cmd/built-in.o
 .data.tabs.8864
                0x0000000017876352       0x21 cmd/built-in.o
 *fill*         0x0000000017876373        0x1 
 .data.cmd_i2c_sub
                0x0000000017876374      0x1a4 cmd/built-in.o
 .data.i2c_dp_last_length
                0x0000000017876518        0x4 cmd/built-in.o
 .data.i2c_help_text
                0x000000001787651c      0x3e9 cmd/built-in.o
 *fill*         0x0000000017876905        0x3 
 .data.do_echo  0x0000000017876908        0x4 cmd/built-in.o
 .data.dp_last_length
                0x000000001787690c        0x4 cmd/built-in.o
 .data.cmd_mmc  0x0000000017876910      0x188 cmd/built-in.o
 .data.curr_device
                0x0000000017876a98        0x4 cmd/built-in.o
 .data.cpu_help_text
                0x0000000017876a9c      0x117 cmd/built-in.o
 *fill*         0x0000000017876bb3        0x1 
 .data.usb_stor_curr_dev
                0x0000000017876bb4        0x4 cmd/built-in.o
 .data.imgextract_help_text
                0x0000000017876bb8       0x55 cmd/built-in.o
 *fill*         0x0000000017876c0d        0x3 
 .data.cmd_env_sub
                0x0000000017876c10      0x118 cmd/built-in.o
 .data.env_help_text
                0x0000000017876d28      0x24f cmd/built-in.o
 *fill*         0x0000000017876f77        0x1 
 .data.env_id   0x0000000017876f78        0x4 cmd/built-in.o
 .data.hash_algo
                0x0000000017876f7c       0x1c common/built-in.o
 .data.reserved_list
                0x0000000017876f98       0x84 common/built-in.o
 .data.init_sequence_r
                0x000000001787701c       0x7c common/built-in.o
 .data.of_busses
                0x0000000017877098       0x18 common/built-in.o
 .data.usb_scan_list
                0x00000000178770b0        0x8 common/built-in.o
 .data.hist_cur
                0x00000000178770b8        0x4 common/built-in.o
 .data.av_      0x00000000178770bc      0x408 common/built-in.o
 .data.sbrk_base
                0x00000000178774c4        0x4 common/built-in.o
 .data.trim_threshold
                0x00000000178774c8        0x4 common/built-in.o
 .data.load_addr
                0x00000000178774cc        0x4 common/built-in.o
                0x00000000178774cc                load_addr
 .data.stdio_names
                0x00000000178774d0        0xc common/built-in.o
                0x00000000178774d0                stdio_names
 .data.system_guid
                0x00000000178774dc       0x10 disk/built-in.o
 .data.imx6_snvs_pinctrl_soc_info
                0x00000000178774ec       0x10 drivers/built-in.o
 .data.imx6ul_pinctrl_soc_info
                0x00000000178774fc       0x10 drivers/built-in.o
 .data.g_jrdata
                0x000000001787750c      0x210 drivers/built-in.o
 .data.usdhc_imx7d_data
                0x000000001787771c        0x8 drivers/built-in.o
 .data.usdhc_imx8qm_data
                0x0000000017877724        0x8 drivers/built-in.o
 .data.dfu_list
                0x000000001787772c        0x8 drivers/built-in.o
 .data.bmp_logo_bitmap
                0x0000000017877734     0xb600 drivers/built-in.o
                0x0000000017877734                bmp_logo_bitmap
 .data.bmp_logo_palette
                0x0000000017882d34      0x1e0 drivers/built-in.o
                0x0000000017882d34                bmp_logo_palette
 .data.nl.9313  0x0000000017882f14        0x4 drivers/built-in.o
 .data.video_fontdata
                0x0000000017882f18     0x1000 drivers/built-in.o
 .data.video_logo_height
                0x0000000017883f18        0x4 drivers/built-in.o
 .data.ipu_clk  0x0000000017883f1c       0x38 drivers/built-in.o
 .data.ldb_clk  0x0000000017883f54       0x70 drivers/built-in.o
 .data.pixel_clk
                0x0000000017883fc4       0x70 drivers/built-in.o
 .data.bg_csc_type
                0x0000000017884034        0x4 drivers/built-in.o
 .data.color_key_4rgb
                0x0000000017884038        0x4 drivers/built-in.o
 .data.fg_csc_type
                0x000000001788403c        0x4 drivers/built-in.o
 .data.genphy_driver
                0x0000000017884040       0x34 drivers/net/phy/built-in.o
 .data.phy_drivers
                0x0000000017884074        0x8 drivers/net/phy/built-in.o
 .data.AR8021_driver
                0x000000001788407c       0x34 drivers/net/phy/built-in.o
 .data.AR8031_driver
                0x00000000178840b0       0x34 drivers/net/phy/built-in.o
 .data.AR8035_driver
                0x00000000178840e4       0x34 drivers/net/phy/built-in.o
 .data.pfuze100_ops
                0x0000000017884118        0xc drivers/power/pmic/built-in.o
 .data.pfuze100_regulators
                0x0000000017884124      0x21c drivers/power/regulator/built-in.o
 .data.pfuze100_swbst
                0x0000000017884340       0x10 drivers/power/regulator/built-in.o
 .data.pfuze100_vsnvs
                0x0000000017884350       0x20 drivers/power/regulator/built-in.o
 .data.pfuze200_regulators
                0x0000000017884370      0x1d4 drivers/power/regulator/built-in.o
 .data.pfuze3000_regulators
                0x0000000017884544      0x1d4 drivers/power/regulator/built-in.o
 .data.pfuze3000_sw2lo
                0x0000000017884718       0x20 drivers/power/regulator/built-in.o
 .data.pfuze3000_vsnvs
                0x0000000017884738       0x20 drivers/power/regulator/built-in.o
 .data.pfuze_ldo_modes
                0x0000000017884758       0x18 drivers/power/regulator/built-in.o
 .data.pfuze_sw_modes
                0x0000000017884770       0x6c drivers/power/regulator/built-in.o
 .data.pfuze_swbst_modes
                0x00000000178847dc       0x30 drivers/power/regulator/built-in.o
 .data.mxc_serial_drv
                0x000000001788480c       0x30 drivers/serial/built-in.o
 .data.one_time_rx_line_always_low_workaround_needed
                0x000000001788483c        0x4 drivers/serial/built-in.o
 .data.ci_ep_ops
                0x0000000017884840       0x28 drivers/usb/gadget/built-in.o
 .data.ci_udc_ops
                0x0000000017884868       0x2c drivers/usb/gadget/built-in.o
 .data.controller
                0x0000000017884894      0x190 drivers/usb/gadget/built-in.o
 .data.ep0_desc
                0x0000000017884a24        0x9 drivers/usb/gadget/built-in.o
 *fill*         0x0000000017884a2d        0x3 
 .data.composite_driver
                0x0000000017884a30       0x24 drivers/usb/gadget/built-in.o
 .data.device_desc
                0x0000000017884a54       0x12 drivers/usb/gadget/built-in.o
 *fill*         0x0000000017884a66        0x2 
 .data.g_dnl_composite_strings
                0x0000000017884a68        0x8 drivers/usb/gadget/built-in.o
 .data.g_dnl_driver
                0x0000000017884a70       0x24 drivers/usb/gadget/built-in.o
 .data.g_dnl_string_defs
                0x0000000017884a94       0x20 drivers/usb/gadget/built-in.o
 .data.g_dnl_string_tab
                0x0000000017884ab4        0x8 drivers/usb/gadget/built-in.o
 .data.qw_sign_buf
                0x0000000017884abc        0x7 drivers/usb/gadget/built-in.o
 *fill*         0x0000000017884ac3        0x1 
 .data.dfu_generic_strings
                0x0000000017884ac4        0x8 drivers/usb/gadget/built-in.o
 .data.dfu_intf_runtime
                0x0000000017884acc        0x9 drivers/usb/gadget/built-in.o
 *fill*         0x0000000017884ad5        0x3 
 .data.dfu_runtime_descs
                0x0000000017884ad8        0x8 drivers/usb/gadget/built-in.o
 .data.dfu_strings
                0x0000000017884ae0        0x8 drivers/usb/gadget/built-in.o
 .data.strings_dfu_generic
                0x0000000017884ae8       0x10 drivers/usb/gadget/built-in.o
 .data.stringtab_dfu
                0x0000000017884af8        0x8 drivers/usb/gadget/built-in.o
 .data.stringtab_dfu_generic
                0x0000000017884b00        0x8 drivers/usb/gadget/built-in.o
 .data.fsg_fs_bulk_in_desc
                0x0000000017884b08        0x9 drivers/usb/gadget/built-in.o
 .data.fsg_fs_bulk_out_desc
                0x0000000017884b11        0x9 drivers/usb/gadget/built-in.o
 *fill*         0x0000000017884b1a        0x2 
 .data.fsg_fs_function
                0x0000000017884b1c       0x10 drivers/usb/gadget/built-in.o
 .data.fsg_hs_bulk_in_desc
                0x0000000017884b2c        0x9 drivers/usb/gadget/built-in.o
 .data.fsg_hs_bulk_out_desc
                0x0000000017884b35        0x9 drivers/usb/gadget/built-in.o
 *fill*         0x0000000017884b3e        0x2 
 .data.fsg_hs_function
                0x0000000017884b40       0x10 drivers/usb/gadget/built-in.o
 .data.fsg_intf_desc
                0x0000000017884b50        0x9 drivers/usb/gadget/built-in.o
 *fill*         0x0000000017884b59        0x3 
 .data.fsg_strings
                0x0000000017884b5c       0x10 drivers/usb/gadget/built-in.o
 .data.fsg_strings_array
                0x0000000017884b6c        0x8 drivers/usb/gadget/built-in.o
 .data.fsg_stringtab
                0x0000000017884b74        0x8 drivers/usb/gadget/built-in.o
 .data.fastboot_common_var
                0x0000000017884b7c       0x34 drivers/usb/gadget/built-in.o
                0x0000000017884b7c                fastboot_common_var
 .data.fastboot_devinfo
                0x0000000017884bb0        0x2 drivers/usb/gadget/built-in.o
                0x0000000017884bb0                fastboot_devinfo
 *fill*         0x0000000017884bb2        0x2 
 .data.fastboot_string_defs
                0x0000000017884bb4       0x10 drivers/usb/gadget/built-in.o
 .data.fastboot_strings
                0x0000000017884bc4        0x8 drivers/usb/gadget/built-in.o
 .data.fb_cid   0x0000000017884bcc       0x10 drivers/usb/gadget/built-in.o
 .data.fb_ext_prop
                0x0000000017884bdc       0x1c drivers/usb/gadget/built-in.o
 .data.fb_ext_prop_data
                0x0000000017884bf8       0x27 drivers/usb/gadget/built-in.o
 .data.fb_ext_prop_name
                0x0000000017884c1f       0x14 drivers/usb/gadget/built-in.o
 *fill*         0x0000000017884c33        0x1 
 .data.fb_fs_function
                0x0000000017884c34        0xc drivers/usb/gadget/built-in.o
 .data.fb_hs_function
                0x0000000017884c40       0x10 drivers/usb/gadget/built-in.o
 .data.fb_os_desc
                0x0000000017884c50       0x14 drivers/usb/gadget/built-in.o
 .data.fb_os_desc_table
                0x0000000017884c64        0x8 drivers/usb/gadget/built-in.o
 .data.fb_ss_bulk_comp_desc
                0x0000000017884c6c        0x6 drivers/usb/gadget/built-in.o
 *fill*         0x0000000017884c72        0x2 
 .data.fb_ss_function
                0x0000000017884c74       0x18 drivers/usb/gadget/built-in.o
 .data.fs_ep_in
                0x0000000017884c8c        0x9 drivers/usb/gadget/built-in.o
 .data.fs_ep_out
                0x0000000017884c95        0x9 drivers/usb/gadget/built-in.o
 .data.hs_ep_in
                0x0000000017884c9e        0x9 drivers/usb/gadget/built-in.o
 .data.hs_ep_out
                0x0000000017884ca7        0x9 drivers/usb/gadget/built-in.o
 .data.interface
                0x0000000017884cb0       0x20 drivers/usb/gadget/built-in.o
 .data.interface_desc
                0x0000000017884cd0        0x9 drivers/usb/gadget/built-in.o
 .data.ss_ep_in
                0x0000000017884cd9        0x9 drivers/usb/gadget/built-in.o
 .data.ss_ep_out
                0x0000000017884ce2        0x9 drivers/usb/gadget/built-in.o
 *fill*         0x0000000017884ceb        0x1 
 .data.stringtab_fastboot
                0x0000000017884cec        0x8 drivers/usb/gadget/built-in.o
 .data.descriptor
                0x0000000017884cf4       0x39 drivers/usb/host/built-in.o
 *fill*         0x0000000017884d2d        0x3 
 .data.ehci_usb_ops
                0x0000000017884d30       0x28 drivers/usb/host/built-in.o
                0x0000000017884d30                ehci_usb_ops
 .data.env_htab
                0x0000000017884d58       0x10 env/built-in.o
                0x0000000017884d58                env_htab
 .data.first_call
                0x0000000017884d68        0x8 env/built-in.o
 .data.fstypes  0x0000000017884d70       0xa8 fs/built-in.o
 .data.ext4fs_indir1_blkno
                0x0000000017884e18        0x4 fs/built-in.o
                0x0000000017884e18                ext4fs_indir1_blkno
 .data.ext4fs_indir2_blkno
                0x0000000017884e1c        0x4 fs/built-in.o
                0x0000000017884e1c                ext4fs_indir2_blkno
 .data.ext4fs_indir3_blkno
                0x0000000017884e20        0x4 fs/built-in.o
                0x0000000017884e20                ext4fs_indir3_blkno
 .data.prev_bg_bitmap_index.8646
                0x0000000017884e24        0x4 fs/built-in.o
 .data.prev_inode_bitmap_index.8670
                0x0000000017884e28        0x4 fs/built-in.o
 .data.prev_bg_bmap_idx.8371
                0x0000000017884e2c        0x4 fs/built-in.o
 .data.prev_bg_bmap_idx.8386
                0x0000000017884e30        0x4 fs/built-in.o
 .data.prev_bg_bmap_idx.8408
                0x0000000017884e34        0x4 fs/built-in.o
 .data.prev_bg_bmap_idx.8443
                0x0000000017884e38        0x4 fs/built-in.o
 .data.first_node
                0x0000000017884e3c        0x4 fs/built-in.o
 .data.efi_is_direct_boot
                0x0000000017884e40        0x1 lib/built-in.o
 *fill*         0x0000000017884e41        0x3 
 .data.efi_obj_list
                0x0000000017884e44        0x8 lib/built-in.o
                0x0000000017884e44                efi_obj_list
 .data.efi_tpl  0x0000000017884e4c        0x4 lib/built-in.o
 .data.efi_runtime_mmio
                0x0000000017884e50        0x8 lib/built-in.o
                0x0000000017884e50                efi_runtime_mmio
 .data.lastoff.10858
                0x0000000017884e58        0x4 lib/built-in.o
 .data.efi_con_in
                0x0000000017884e5c        0xc lib/built-in.o
                0x0000000017884e5c                efi_con_in
 .data.efi_con_mode
                0x0000000017884e68       0x18 lib/built-in.o
 .data.efi_con_out
                0x0000000017884e80       0x28 lib/built-in.o
                0x0000000017884e80                efi_con_out
 .data.efi_console_control
                0x0000000017884ea8        0xc lib/built-in.o
                0x0000000017884ea8                efi_console_control
 .data.efi_cout_modes
                0x0000000017884eb4       0x24 lib/built-in.o
 .data.efi_mem  0x0000000017884ed8        0x8 lib/built-in.o
                0x0000000017884ed8                efi_mem
 .data.first_call.8518
                0x0000000017884ee0        0x4 net/built-in.o
 .data.net_native_vlan
                0x0000000017884ee4        0x2 net/built-in.o
                0x0000000017884ee4                net_native_vlan
 .data.net_our_vlan
                0x0000000017884ee6        0x2 net/built-in.o
                0x0000000017884ee6                net_our_vlan
 .data.nfs_offset
                0x0000000017884ee8        0x4 net/built-in.o
 .data.supported_nfs_versions
                0x0000000017884eec        0x1 net/built-in.o
 *fill*         0x0000000017884eed        0x1 
 .data.tftp_block_size
                0x0000000017884eee        0x2 net/built-in.o
 .data.tftp_block_size_option
                0x0000000017884ef0        0x2 net/built-in.o
 *fill*         0x0000000017884ef2        0x2 
 .data.tftp_timeout_count_max
                0x0000000017884ef4        0x4 net/built-in.o
                0x0000000017884ef4                tftp_timeout_count_max
 .data.timeout_count_max
                0x0000000017884ef8        0x4 net/built-in.o
 .data.timeout_ms
                0x0000000017884efc        0x4 net/built-in.o
 .data.test_commands
                0x0000000017884f00       0x54 test/dm/built-in.o

.got            0x0000000017884f54        0x0
 .got           0x0000000017884f54        0x0 arch/arm/cpu/armv7/start.o

.got.plt        0x0000000017884f54        0xc
 .got.plt       0x0000000017884f54        0xc arch/arm/cpu/armv7/start.o
                0x0000000017884f54                _GLOBAL_OFFSET_TABLE_

.igot.plt       0x0000000017884f60        0x0
 .igot.plt      0x0000000017884f60        0x0 arch/arm/cpu/armv7/start.o
                0x0000000017884f60                . = ALIGN (0x4)
                0x0000000017884f60                . = .
                0x0000000017884f60                . = ALIGN (0x4)

.u_boot_list    0x0000000017884f60     0x1618
 *(SORT(.u_boot_list*))
 .u_boot_list_2_cmd_1
                0x0000000017884f60        0x0 cmd/built-in.o
 .u_boot_list_2_cmd_1
                0x0000000017884f60        0x0 common/built-in.o
 .u_boot_list_2_cmd_2_base
                0x0000000017884f60       0x1c cmd/built-in.o
                0x0000000017884f60                _u_boot_list_2_cmd_2_base
 .u_boot_list_2_cmd_2_bdinfo
                0x0000000017884f7c       0x1c cmd/built-in.o
                0x0000000017884f7c                _u_boot_list_2_cmd_2_bdinfo
 .u_boot_list_2_cmd_2_bmode
                0x0000000017884f98       0x1c arch/arm/mach-imx/built-in.o
                0x0000000017884f98                _u_boot_list_2_cmd_2_bmode
 .u_boot_list_2_cmd_2_boot
                0x0000000017884fb4       0x1c cmd/built-in.o
                0x0000000017884fb4                _u_boot_list_2_cmd_2_boot
 .u_boot_list_2_cmd_2_bootd
                0x0000000017884fd0       0x1c cmd/built-in.o
                0x0000000017884fd0                _u_boot_list_2_cmd_2_bootd
 .u_boot_list_2_cmd_2_bootefi
                0x0000000017884fec       0x1c cmd/built-in.o
                0x0000000017884fec                _u_boot_list_2_cmd_2_bootefi
 .u_boot_list_2_cmd_2_bootelf
                0x0000000017885008       0x1c cmd/built-in.o
                0x0000000017885008                _u_boot_list_2_cmd_2_bootelf
 .u_boot_list_2_cmd_2_bootm
                0x0000000017885024       0x1c cmd/built-in.o
                0x0000000017885024                _u_boot_list_2_cmd_2_bootm
 .u_boot_list_2_cmd_2_bootp
                0x0000000017885040       0x1c cmd/built-in.o
                0x0000000017885040                _u_boot_list_2_cmd_2_bootp
 .u_boot_list_2_cmd_2_bootvx
                0x000000001788505c       0x1c cmd/built-in.o
                0x000000001788505c                _u_boot_list_2_cmd_2_bootvx
 .u_boot_list_2_cmd_2_bootz
                0x0000000017885078       0x1c cmd/built-in.o
                0x0000000017885078                _u_boot_list_2_cmd_2_bootz
 .u_boot_list_2_cmd_2_clocks
                0x0000000017885094       0x1c arch/arm/mach-imx/built-in.o
                0x0000000017885094                _u_boot_list_2_cmd_2_clocks
 .u_boot_list_2_cmd_2_clrlogo
                0x00000000178850b0       0x1c drivers/built-in.o
                0x00000000178850b0                _u_boot_list_2_cmd_2_clrlogo
 .u_boot_list_2_cmd_2_cmp
                0x00000000178850cc       0x1c cmd/built-in.o
                0x00000000178850cc                _u_boot_list_2_cmd_2_cmp
 .u_boot_list_2_cmd_2_coninfo
                0x00000000178850e8       0x1c cmd/built-in.o
                0x00000000178850e8                _u_boot_list_2_cmd_2_coninfo
 .u_boot_list_2_cmd_2_cp
                0x0000000017885104       0x1c cmd/built-in.o
                0x0000000017885104                _u_boot_list_2_cmd_2_cp
 .u_boot_list_2_cmd_2_cpu
                0x0000000017885120       0x1c cmd/built-in.o
                0x0000000017885120                _u_boot_list_2_cmd_2_cpu
 .u_boot_list_2_cmd_2_crc32
                0x000000001788513c       0x1c cmd/built-in.o
                0x000000001788513c                _u_boot_list_2_cmd_2_crc32
 .u_boot_list_2_cmd_2_dcache
                0x0000000017885158       0x1c cmd/built-in.o
                0x0000000017885158                _u_boot_list_2_cmd_2_dcache
 .u_boot_list_2_cmd_2_dfu
                0x0000000017885174       0x1c cmd/built-in.o
                0x0000000017885174                _u_boot_list_2_cmd_2_dfu
 .u_boot_list_2_cmd_2_dhcp
                0x0000000017885190       0x1c cmd/built-in.o
                0x0000000017885190                _u_boot_list_2_cmd_2_dhcp
 .u_boot_list_2_cmd_2_dm
                0x00000000178851ac       0x1c test/dm/built-in.o
                0x00000000178851ac                _u_boot_list_2_cmd_2_dm
 .u_boot_list_2_cmd_2_echo
                0x00000000178851c8       0x1c cmd/built-in.o
                0x00000000178851c8                _u_boot_list_2_cmd_2_echo
 .u_boot_list_2_cmd_2_editenv
                0x00000000178851e4       0x1c cmd/built-in.o
                0x00000000178851e4                _u_boot_list_2_cmd_2_editenv
 .u_boot_list_2_cmd_2_env
                0x0000000017885200       0x1c cmd/built-in.o
                0x0000000017885200                _u_boot_list_2_cmd_2_env
 .u_boot_list_2_cmd_2_exit
                0x000000001788521c       0x1c cmd/built-in.o
                0x000000001788521c                _u_boot_list_2_cmd_2_exit
 .u_boot_list_2_cmd_2_ext2load
                0x0000000017885238       0x1c cmd/built-in.o
                0x0000000017885238                _u_boot_list_2_cmd_2_ext2load
 .u_boot_list_2_cmd_2_ext2ls
                0x0000000017885254       0x1c cmd/built-in.o
                0x0000000017885254                _u_boot_list_2_cmd_2_ext2ls
 .u_boot_list_2_cmd_2_ext4load
                0x0000000017885270       0x1c cmd/built-in.o
                0x0000000017885270                _u_boot_list_2_cmd_2_ext4load
 .u_boot_list_2_cmd_2_ext4ls
                0x000000001788528c       0x1c cmd/built-in.o
                0x000000001788528c                _u_boot_list_2_cmd_2_ext4ls
 .u_boot_list_2_cmd_2_ext4size
                0x00000000178852a8       0x1c cmd/built-in.o
                0x00000000178852a8                _u_boot_list_2_cmd_2_ext4size
 .u_boot_list_2_cmd_2_ext4write
                0x00000000178852c4       0x1c cmd/built-in.o
                0x00000000178852c4                _u_boot_list_2_cmd_2_ext4write
 .u_boot_list_2_cmd_2_false
                0x00000000178852e0       0x1c cmd/built-in.o
                0x00000000178852e0                _u_boot_list_2_cmd_2_false
 .u_boot_list_2_cmd_2_fastboot
                0x00000000178852fc       0x1c cmd/built-in.o
                0x00000000178852fc                _u_boot_list_2_cmd_2_fastboot
 .u_boot_list_2_cmd_2_fatinfo
                0x0000000017885318       0x1c cmd/built-in.o
                0x0000000017885318                _u_boot_list_2_cmd_2_fatinfo
 .u_boot_list_2_cmd_2_fatload
                0x0000000017885334       0x1c cmd/built-in.o
                0x0000000017885334                _u_boot_list_2_cmd_2_fatload
 .u_boot_list_2_cmd_2_fatls
                0x0000000017885350       0x1c cmd/built-in.o
                0x0000000017885350                _u_boot_list_2_cmd_2_fatls
 .u_boot_list_2_cmd_2_fatsize
                0x000000001788536c       0x1c cmd/built-in.o
                0x000000001788536c                _u_boot_list_2_cmd_2_fatsize
 .u_boot_list_2_cmd_2_fatwrite
                0x0000000017885388       0x1c cmd/built-in.o
                0x0000000017885388                _u_boot_list_2_cmd_2_fatwrite
 .u_boot_list_2_cmd_2_fdt
                0x00000000178853a4       0x1c cmd/built-in.o
                0x00000000178853a4                _u_boot_list_2_cmd_2_fdt
 .u_boot_list_2_cmd_2_fstype
                0x00000000178853c0       0x1c cmd/built-in.o
                0x00000000178853c0                _u_boot_list_2_cmd_2_fstype
 .u_boot_list_2_cmd_2_fuse
                0x00000000178853dc       0x1c cmd/built-in.o
                0x00000000178853dc                _u_boot_list_2_cmd_2_fuse
 .u_boot_list_2_cmd_2_go
                0x00000000178853f8       0x1c cmd/built-in.o
                0x00000000178853f8                _u_boot_list_2_cmd_2_go
 .u_boot_list_2_cmd_2_gpio
                0x0000000017885414       0x1c cmd/built-in.o
                0x0000000017885414                _u_boot_list_2_cmd_2_gpio
 .u_boot_list_2_cmd_2_help
                0x0000000017885430       0x1c cmd/built-in.o
                0x0000000017885430                _u_boot_list_2_cmd_2_help
 .u_boot_list_2_cmd_2_i2c
                0x000000001788544c       0x1c cmd/built-in.o
                0x000000001788544c                _u_boot_list_2_cmd_2_i2c
 .u_boot_list_2_cmd_2_icache
                0x0000000017885468       0x1c cmd/built-in.o
                0x0000000017885468                _u_boot_list_2_cmd_2_icache
 .u_boot_list_2_cmd_2_iminfo
                0x0000000017885484       0x1c cmd/built-in.o
                0x0000000017885484                _u_boot_list_2_cmd_2_iminfo
 .u_boot_list_2_cmd_2_imxtract
                0x00000000178854a0       0x1c cmd/built-in.o
                0x00000000178854a0                _u_boot_list_2_cmd_2_imxtract
 .u_boot_list_2_cmd_2_itest
                0x00000000178854bc       0x1c cmd/built-in.o
                0x00000000178854bc                _u_boot_list_2_cmd_2_itest
 .u_boot_list_2_cmd_2_load
                0x00000000178854d8       0x1c cmd/built-in.o
                0x00000000178854d8                _u_boot_list_2_cmd_2_load
 .u_boot_list_2_cmd_2_loadb
                0x00000000178854f4       0x1c cmd/built-in.o
                0x00000000178854f4                _u_boot_list_2_cmd_2_loadb
 .u_boot_list_2_cmd_2_loads
                0x0000000017885510       0x1c cmd/built-in.o
                0x0000000017885510                _u_boot_list_2_cmd_2_loads
 .u_boot_list_2_cmd_2_loadx
                0x000000001788552c       0x1c cmd/built-in.o
                0x000000001788552c                _u_boot_list_2_cmd_2_loadx
 .u_boot_list_2_cmd_2_loady
                0x0000000017885548       0x1c cmd/built-in.o
                0x0000000017885548                _u_boot_list_2_cmd_2_loady
 .u_boot_list_2_cmd_2_loop
                0x0000000017885564       0x1c cmd/built-in.o
                0x0000000017885564                _u_boot_list_2_cmd_2_loop
 .u_boot_list_2_cmd_2_ls
                0x0000000017885580       0x1c cmd/built-in.o
                0x0000000017885580                _u_boot_list_2_cmd_2_ls
 .u_boot_list_2_cmd_2_md
                0x000000001788559c       0x1c cmd/built-in.o
                0x000000001788559c                _u_boot_list_2_cmd_2_md
 .u_boot_list_2_cmd_2_mdio
                0x00000000178855b8       0x1c cmd/built-in.o
                0x00000000178855b8                _u_boot_list_2_cmd_2_mdio
 .u_boot_list_2_cmd_2_mii
                0x00000000178855d4       0x1c cmd/built-in.o
                0x00000000178855d4                _u_boot_list_2_cmd_2_mii
 .u_boot_list_2_cmd_2_mm
                0x00000000178855f0       0x1c cmd/built-in.o
                0x00000000178855f0                _u_boot_list_2_cmd_2_mm
 .u_boot_list_2_cmd_2_mmc
                0x000000001788560c       0x1c cmd/built-in.o
                0x000000001788560c                _u_boot_list_2_cmd_2_mmc
 .u_boot_list_2_cmd_2_mmcinfo
                0x0000000017885628       0x1c cmd/built-in.o
                0x0000000017885628                _u_boot_list_2_cmd_2_mmcinfo
 .u_boot_list_2_cmd_2_mtest
                0x0000000017885644       0x1c cmd/built-in.o
                0x0000000017885644                _u_boot_list_2_cmd_2_mtest
 .u_boot_list_2_cmd_2_mw
                0x0000000017885660       0x1c cmd/built-in.o
                0x0000000017885660                _u_boot_list_2_cmd_2_mw
 .u_boot_list_2_cmd_2_nfs
                0x000000001788567c       0x1c cmd/built-in.o
                0x000000001788567c                _u_boot_list_2_cmd_2_nfs
 .u_boot_list_2_cmd_2_nm
                0x0000000017885698       0x1c cmd/built-in.o
                0x0000000017885698                _u_boot_list_2_cmd_2_nm
 .u_boot_list_2_cmd_2_ping
                0x00000000178856b4       0x1c cmd/built-in.o
                0x00000000178856b4                _u_boot_list_2_cmd_2_ping
 .u_boot_list_2_cmd_2_printenv
                0x00000000178856d0       0x1c cmd/built-in.o
                0x00000000178856d0                _u_boot_list_2_cmd_2_printenv
 .u_boot_list_2_cmd_2_question_mark
                0x00000000178856ec       0x1c cmd/built-in.o
                0x00000000178856ec                _u_boot_list_2_cmd_2_question_mark
 .u_boot_list_2_cmd_2_read
                0x0000000017885708       0x1c cmd/built-in.o
                0x0000000017885708                _u_boot_list_2_cmd_2_read
 .u_boot_list_2_cmd_2_reset
                0x0000000017885724       0x1c cmd/built-in.o
                0x0000000017885724                _u_boot_list_2_cmd_2_reset
 .u_boot_list_2_cmd_2_run
                0x0000000017885740       0x1c cmd/built-in.o
                0x0000000017885740                _u_boot_list_2_cmd_2_run
 .u_boot_list_2_cmd_2_save
                0x000000001788575c       0x1c cmd/built-in.o
                0x000000001788575c                _u_boot_list_2_cmd_2_save
 .u_boot_list_2_cmd_2_saveenv
                0x0000000017885778       0x1c cmd/built-in.o
                0x0000000017885778                _u_boot_list_2_cmd_2_saveenv
 .u_boot_list_2_cmd_2_setenv
                0x0000000017885794       0x1c cmd/built-in.o
                0x0000000017885794                _u_boot_list_2_cmd_2_setenv
 .u_boot_list_2_cmd_2_setexpr
                0x00000000178857b0       0x1c cmd/built-in.o
                0x00000000178857b0                _u_boot_list_2_cmd_2_setexpr
 .u_boot_list_2_cmd_2_sf
                0x00000000178857cc       0x1c cmd/built-in.o
                0x00000000178857cc                _u_boot_list_2_cmd_2_sf
 .u_boot_list_2_cmd_2_showvar
                0x00000000178857e8       0x1c common/built-in.o
                0x00000000178857e8                _u_boot_list_2_cmd_2_showvar
 .u_boot_list_2_cmd_2_size
                0x0000000017885804       0x1c cmd/built-in.o
                0x0000000017885804                _u_boot_list_2_cmd_2_size
 .u_boot_list_2_cmd_2_sleep
                0x0000000017885820       0x1c cmd/built-in.o
                0x0000000017885820                _u_boot_list_2_cmd_2_sleep
 .u_boot_list_2_cmd_2_source
                0x000000001788583c       0x1c cmd/built-in.o
                0x000000001788583c                _u_boot_list_2_cmd_2_source
 .u_boot_list_2_cmd_2_test
                0x0000000017885858       0x1c cmd/built-in.o
                0x0000000017885858                _u_boot_list_2_cmd_2_test
 .u_boot_list_2_cmd_2_tftpboot
                0x0000000017885874       0x1c cmd/built-in.o
                0x0000000017885874                _u_boot_list_2_cmd_2_tftpboot
 .u_boot_list_2_cmd_2_true
                0x0000000017885890       0x1c cmd/built-in.o
                0x0000000017885890                _u_boot_list_2_cmd_2_true
 .u_boot_list_2_cmd_2_ums
                0x00000000178858ac       0x1c cmd/built-in.o
                0x00000000178858ac                _u_boot_list_2_cmd_2_ums
 .u_boot_list_2_cmd_2_usb
                0x00000000178858c8       0x1c cmd/built-in.o
                0x00000000178858c8                _u_boot_list_2_cmd_2_usb
 .u_boot_list_2_cmd_2_usbboot
                0x00000000178858e4       0x1c cmd/built-in.o
                0x00000000178858e4                _u_boot_list_2_cmd_2_usbboot
 .u_boot_list_2_cmd_2_version
                0x0000000017885900       0x1c cmd/built-in.o
                0x0000000017885900                _u_boot_list_2_cmd_2_version
 .u_boot_list_2_cmd_3
                0x000000001788591c        0x0 cmd/built-in.o
 .u_boot_list_2_cmd_3
                0x000000001788591c        0x0 common/built-in.o
 .u_boot_list_2_driver_1
                0x000000001788591c        0x0 drivers/built-in.o
 .u_boot_list_2_driver_1
                0x000000001788591c        0x0 lib/built-in.o
 .u_boot_list_2_driver_2_asix_eth
                0x000000001788591c       0x44 drivers/usb/eth/built-in.o
                0x000000001788591c                _u_boot_list_2_driver_2_asix_eth
 .u_boot_list_2_driver_2_efi_blk
                0x0000000017885960       0x44 lib/built-in.o
                0x0000000017885960                _u_boot_list_2_driver_2_efi_blk
 .u_boot_list_2_driver_2_efi_block
                0x00000000178859a4       0x44 lib/built-in.o
                0x00000000178859a4                _u_boot_list_2_driver_2_efi_block
 .u_boot_list_2_driver_2_fecmxc_gem
                0x00000000178859e8       0x44 drivers/net/built-in.o
                0x00000000178859e8                _u_boot_list_2_driver_2_fecmxc_gem
 .u_boot_list_2_driver_2_fixed_regulator
                0x0000000017885a2c       0x44 drivers/power/regulator/built-in.o
                0x0000000017885a2c                _u_boot_list_2_driver_2_fixed_regulator
 .u_boot_list_2_driver_2_fsl_esdhc
                0x0000000017885a70       0x44 drivers/built-in.o
                0x0000000017885a70                _u_boot_list_2_driver_2_fsl_esdhc
 .u_boot_list_2_driver_2_gpio_mxc
                0x0000000017885ab4       0x44 drivers/gpio/built-in.o
                0x0000000017885ab4                _u_boot_list_2_driver_2_gpio_mxc
 .u_boot_list_2_driver_2_gpio_regulator
                0x0000000017885af8       0x44 drivers/power/regulator/built-in.o
                0x0000000017885af8                _u_boot_list_2_driver_2_gpio_regulator
 .u_boot_list_2_driver_2_i2c_generic_chip_drv
                0x0000000017885b3c       0x44 drivers/i2c/built-in.o
                0x0000000017885b3c                _u_boot_list_2_driver_2_i2c_generic_chip_drv
 .u_boot_list_2_driver_2_i2c_mxc
                0x0000000017885b80       0x44 drivers/i2c/built-in.o
                0x0000000017885b80                _u_boot_list_2_driver_2_i2c_mxc
 .u_boot_list_2_driver_2_imx6_pinctrl
                0x0000000017885bc4       0x44 drivers/built-in.o
                0x0000000017885bc4                _u_boot_list_2_driver_2_imx6_pinctrl
 .u_boot_list_2_driver_2_imx_thermal
                0x0000000017885c08       0x44 drivers/built-in.o
                0x0000000017885c08                _u_boot_list_2_driver_2_imx_thermal
 .u_boot_list_2_driver_2_mmc
                0x0000000017885c4c       0x44 drivers/built-in.o
                0x0000000017885c4c                _u_boot_list_2_driver_2_mmc
 .u_boot_list_2_driver_2_mmc_blk
                0x0000000017885c90       0x44 drivers/built-in.o
                0x0000000017885c90                _u_boot_list_2_driver_2_mmc_blk
 .u_boot_list_2_driver_2_pfuze100_regulator
                0x0000000017885cd4       0x44 drivers/power/regulator/built-in.o
                0x0000000017885cd4                _u_boot_list_2_driver_2_pfuze100_regulator
 .u_boot_list_2_driver_2_pinconfig_generic
                0x0000000017885d18       0x44 drivers/built-in.o
                0x0000000017885d18                _u_boot_list_2_driver_2_pinconfig_generic
 .u_boot_list_2_driver_2_pmic_pfuze100
                0x0000000017885d5c       0x44 drivers/power/pmic/built-in.o
                0x0000000017885d5c                _u_boot_list_2_driver_2_pmic_pfuze100
 .u_boot_list_2_driver_2_root_driver
                0x0000000017885da0       0x44 drivers/built-in.o
                0x0000000017885da0                _u_boot_list_2_driver_2_root_driver
 .u_boot_list_2_driver_2_simple_bus_drv
                0x0000000017885de4       0x44 drivers/built-in.o
                0x0000000017885de4                _u_boot_list_2_driver_2_simple_bus_drv
 .u_boot_list_2_driver_2_usb_dev_generic_drv
                0x0000000017885e28       0x44 drivers/usb/host/built-in.o
                0x0000000017885e28                _u_boot_list_2_driver_2_usb_dev_generic_drv
 .u_boot_list_2_driver_2_usb_generic_hub
                0x0000000017885e6c       0x44 common/built-in.o
                0x0000000017885e6c                _u_boot_list_2_driver_2_usb_generic_hub
 .u_boot_list_2_driver_2_usb_mass_storage
                0x0000000017885eb0       0x44 common/built-in.o
                0x0000000017885eb0                _u_boot_list_2_driver_2_usb_mass_storage
 .u_boot_list_2_driver_2_usb_mx6
                0x0000000017885ef4       0x44 drivers/usb/host/built-in.o
                0x0000000017885ef4                _u_boot_list_2_driver_2_usb_mx6
 .u_boot_list_2_driver_2_usb_storage_blk
                0x0000000017885f38       0x44 common/built-in.o
                0x0000000017885f38                _u_boot_list_2_driver_2_usb_storage_blk
 .u_boot_list_2_driver_3
                0x0000000017885f7c        0x0 drivers/built-in.o
 .u_boot_list_2_driver_3
                0x0000000017885f7c        0x0 lib/built-in.o
 .u_boot_list_2_driver_info_1
                0x0000000017885f7c        0x0 drivers/built-in.o
 .u_boot_list_2_driver_info_2_imx6_thermal
                0x0000000017885f7c        0x8 arch/arm/mach-imx/built-in.o
                0x0000000017885f7c                _u_boot_list_2_driver_info_2_imx6_thermal
 .u_boot_list_2_driver_info_3
                0x0000000017885f84        0x0 drivers/built-in.o
 .u_boot_list_2_env_clbk_1
                0x0000000017885f84        0x0 env/built-in.o
 .u_boot_list_2_env_clbk_2_baudrate
                0x0000000017885f84        0x8 drivers/serial/built-in.o
                0x0000000017885f84                _u_boot_list_2_env_clbk_2_baudrate
 .u_boot_list_2_env_clbk_2_bootfile
                0x0000000017885f8c        0x8 net/built-in.o
                0x0000000017885f8c                _u_boot_list_2_env_clbk_2_bootfile
 .u_boot_list_2_env_clbk_2_callbacks
                0x0000000017885f94        0x8 env/built-in.o
                0x0000000017885f94                _u_boot_list_2_env_clbk_2_callbacks
 .u_boot_list_2_env_clbk_2_console
                0x0000000017885f9c        0x8 common/built-in.o
                0x0000000017885f9c                _u_boot_list_2_env_clbk_2_console
 .u_boot_list_2_env_clbk_2_ethaddr
                0x0000000017885fa4        0x8 net/built-in.o
                0x0000000017885fa4                _u_boot_list_2_env_clbk_2_ethaddr
 .u_boot_list_2_env_clbk_2_flags
                0x0000000017885fac        0x8 env/built-in.o
                0x0000000017885fac                _u_boot_list_2_env_clbk_2_flags
 .u_boot_list_2_env_clbk_2_gatewayip
                0x0000000017885fb4        0x8 net/built-in.o
                0x0000000017885fb4                _u_boot_list_2_env_clbk_2_gatewayip
 .u_boot_list_2_env_clbk_2_ipaddr
                0x0000000017885fbc        0x8 net/built-in.o
                0x0000000017885fbc                _u_boot_list_2_env_clbk_2_ipaddr
 .u_boot_list_2_env_clbk_2_loadaddr
                0x0000000017885fc4        0x8 common/built-in.o
                0x0000000017885fc4                _u_boot_list_2_env_clbk_2_loadaddr
 .u_boot_list_2_env_clbk_2_netmask
                0x0000000017885fcc        0x8 net/built-in.o
                0x0000000017885fcc                _u_boot_list_2_env_clbk_2_netmask
 .u_boot_list_2_env_clbk_2_nvlan
                0x0000000017885fd4        0x8 net/built-in.o
                0x0000000017885fd4                _u_boot_list_2_env_clbk_2_nvlan
 .u_boot_list_2_env_clbk_2_serialno
                0x0000000017885fdc        0x8 drivers/usb/gadget/built-in.o
                0x0000000017885fdc                _u_boot_list_2_env_clbk_2_serialno
 .u_boot_list_2_env_clbk_2_serverip
                0x0000000017885fe4        0x8 net/built-in.o
                0x0000000017885fe4                _u_boot_list_2_env_clbk_2_serverip
 .u_boot_list_2_env_clbk_2_vlan
                0x0000000017885fec        0x8 net/built-in.o
                0x0000000017885fec                _u_boot_list_2_env_clbk_2_vlan
 .u_boot_list_2_env_clbk_3
                0x0000000017885ff4        0x0 env/built-in.o
 .u_boot_list_2_env_driver_1
                0x0000000017885ff4        0x0 env/built-in.o
 .u_boot_list_2_env_driver_2_mmc
                0x0000000017885ff4       0x14 env/built-in.o
                0x0000000017885ff4                _u_boot_list_2_env_driver_2_mmc
 .u_boot_list_2_env_driver_3
                0x0000000017886008        0x0 env/built-in.o
 .u_boot_list_2_g_dnl_bind_callbacks_1
                0x0000000017886008        0x0 drivers/usb/gadget/built-in.o
 .u_boot_list_2_g_dnl_bind_callbacks_2___usb_function_name_usb_dnl_dfu
                0x0000000017886008        0x8 drivers/usb/gadget/built-in.o
                0x0000000017886008                _u_boot_list_2_g_dnl_bind_callbacks_2___usb_function_name_usb_dnl_dfu
 .u_boot_list_2_g_dnl_bind_callbacks_2___usb_function_name_usb_dnl_fastboot
                0x0000000017886010        0x8 drivers/usb/gadget/built-in.o
                0x0000000017886010                _u_boot_list_2_g_dnl_bind_callbacks_2___usb_function_name_usb_dnl_fastboot
 .u_boot_list_2_g_dnl_bind_callbacks_2___usb_function_name_usb_dnl_ums
                0x0000000017886018        0x8 drivers/usb/gadget/built-in.o
                0x0000000017886018                _u_boot_list_2_g_dnl_bind_callbacks_2___usb_function_name_usb_dnl_ums
 .u_boot_list_2_g_dnl_bind_callbacks_3
                0x0000000017886020        0x0 drivers/usb/gadget/built-in.o
 .u_boot_list_2_part_driver_1
                0x0000000017886020        0x0 disk/built-in.o
 .u_boot_list_2_part_driver_2_a_efi
                0x0000000017886020       0x18 disk/built-in.o
                0x0000000017886020                _u_boot_list_2_part_driver_2_a_efi
 .u_boot_list_2_part_driver_2_dos
                0x0000000017886038       0x18 disk/built-in.o
                0x0000000017886038                _u_boot_list_2_part_driver_2_dos
 .u_boot_list_2_part_driver_3
                0x0000000017886050        0x0 disk/built-in.o
 .u_boot_list_2_uclass_1
                0x0000000017886050        0x0 drivers/built-in.o
 .u_boot_list_2_uclass_2_blk
                0x0000000017886050       0x48 drivers/built-in.o
                0x0000000017886050                _u_boot_list_2_uclass_2_blk
 .u_boot_list_2_uclass_2_efi
                0x0000000017886098       0x48 lib/built-in.o
                0x0000000017886098                _u_boot_list_2_uclass_2_efi
 .u_boot_list_2_uclass_2_eth
                0x00000000178860e0       0x48 net/built-in.o
                0x00000000178860e0                _u_boot_list_2_uclass_2_eth
 .u_boot_list_2_uclass_2_gpio
                0x0000000017886128       0x48 drivers/gpio/built-in.o
                0x0000000017886128                _u_boot_list_2_uclass_2_gpio
 .u_boot_list_2_uclass_2_i2c
                0x0000000017886170       0x48 drivers/i2c/built-in.o
                0x0000000017886170                _u_boot_list_2_uclass_2_i2c
 .u_boot_list_2_uclass_2_i2c_generic
                0x00000000178861b8       0x48 drivers/i2c/built-in.o
                0x00000000178861b8                _u_boot_list_2_uclass_2_i2c_generic
 .u_boot_list_2_uclass_2_mmc
                0x0000000017886200       0x48 drivers/built-in.o
                0x0000000017886200                _u_boot_list_2_uclass_2_mmc
 .u_boot_list_2_uclass_2_pinconfig
                0x0000000017886248       0x48 drivers/built-in.o
                0x0000000017886248                _u_boot_list_2_uclass_2_pinconfig
 .u_boot_list_2_uclass_2_pinctrl
                0x0000000017886290       0x48 drivers/built-in.o
                0x0000000017886290                _u_boot_list_2_uclass_2_pinctrl
 .u_boot_list_2_uclass_2_pmic
                0x00000000178862d8       0x48 drivers/power/pmic/built-in.o
                0x00000000178862d8                _u_boot_list_2_uclass_2_pmic
 .u_boot_list_2_uclass_2_regulator
                0x0000000017886320       0x48 drivers/power/regulator/built-in.o
                0x0000000017886320                _u_boot_list_2_uclass_2_regulator
 .u_boot_list_2_uclass_2_root
                0x0000000017886368       0x48 drivers/built-in.o
                0x0000000017886368                _u_boot_list_2_uclass_2_root
 .u_boot_list_2_uclass_2_simple_bus
                0x00000000178863b0       0x48 drivers/built-in.o
                0x00000000178863b0                _u_boot_list_2_uclass_2_simple_bus
 .u_boot_list_2_uclass_2_thermal
                0x00000000178863f8       0x48 drivers/built-in.o
                0x00000000178863f8                _u_boot_list_2_uclass_2_thermal
 .u_boot_list_2_uclass_2_usb
                0x0000000017886440       0x48 drivers/usb/host/built-in.o
                0x0000000017886440                _u_boot_list_2_uclass_2_usb
 .u_boot_list_2_uclass_2_usb_dev_generic
                0x0000000017886488       0x48 drivers/usb/host/built-in.o
                0x0000000017886488                _u_boot_list_2_uclass_2_usb_dev_generic
 .u_boot_list_2_uclass_2_usb_hub
                0x00000000178864d0       0x48 common/built-in.o
                0x00000000178864d0                _u_boot_list_2_uclass_2_usb_hub
 .u_boot_list_2_uclass_2_usb_mass_storage
                0x0000000017886518       0x48 common/built-in.o
                0x0000000017886518                _u_boot_list_2_uclass_2_usb_mass_storage
 .u_boot_list_2_uclass_3
                0x0000000017886560        0x0 drivers/built-in.o
 .u_boot_list_2_usb_driver_entry_1
                0x0000000017886560        0x0 drivers/usb/host/built-in.o
 .u_boot_list_2_usb_driver_entry_2_asix_eth
                0x0000000017886560        0x8 drivers/usb/eth/built-in.o
                0x0000000017886560                _u_boot_list_2_usb_driver_entry_2_asix_eth
 .u_boot_list_2_usb_driver_entry_2_usb_generic_hub
                0x0000000017886568        0x8 common/built-in.o
                0x0000000017886568                _u_boot_list_2_usb_driver_entry_2_usb_generic_hub
 .u_boot_list_2_usb_driver_entry_2_usb_mass_storage
                0x0000000017886570        0x8 common/built-in.o
                0x0000000017886570                _u_boot_list_2_usb_driver_entry_2_usb_mass_storage
 .u_boot_list_2_usb_driver_entry_3
                0x0000000017886578        0x0 drivers/usb/host/built-in.o
                0x0000000017886578                . = ALIGN (0x4)

.__efi_runtime_start
                0x0000000017886578        0x0
 *(.__efi_runtime_start)
 .__efi_runtime_start
                0x0000000017886578        0x0 arch/arm/lib/built-in.o

.efi_runtime    0x0000000017886578      0x118
 *(efi_runtime_text)
 efi_runtime_text
                0x0000000017886578       0x3c lib/built-in.o
                0x0000000017886578                efi_reset_system
                0x000000001788657c                efi_get_time
                0x000000001788659c                efi_update_capsule
                0x00000000178865a4                efi_query_capsule_caps
                0x00000000178865ac                efi_query_variable_info
 *(efi_runtime_data)
 *fill*         0x00000000178865b4        0x4 
 efi_runtime_data
                0x00000000178865b8       0xd8 lib/built-in.o
                0x00000000178865b8                systab
                0x0000000017886640                efi_runtime_services

.__efi_runtime_stop
                0x0000000017886690        0x0
 *(.__efi_runtime_stop)
 .__efi_runtime_stop
                0x0000000017886690        0x0 arch/arm/lib/built-in.o

.efi_runtime_rel_start
                0x0000000017886690        0x0
 *(.__efi_runtime_rel_start)
 .__efi_runtime_rel_start
                0x0000000017886690        0x0 arch/arm/lib/built-in.o

.efi_runtime_rel
                0x0000000017886690       0xa8
 *(.relefi_runtime_text)
 *(.relefi_runtime_data)
 .relefi_runtime_data
                0x0000000017886690       0xa8 arch/arm/cpu/armv7/start.o

.efi_runtime_rel_stop
                0x0000000017886738        0x0
 *(.__efi_runtime_rel_stop)
 .__efi_runtime_rel_stop
                0x0000000017886738        0x0 arch/arm/lib/built-in.o
                0x0000000017886738                . = ALIGN (0x4)

.image_copy_end
                0x0000000017886738        0x0
 *(.__image_copy_end)
 .__image_copy_end
                0x0000000017886738        0x0 arch/arm/lib/built-in.o

.rel_dyn_start  0x0000000017886738        0x0
 *(.__rel_dyn_start)
 .__rel_dyn_start
                0x0000000017886738        0x0 arch/arm/lib/built-in.o

.rel.dyn        0x0000000017886738     0xceb0
 *(.rel*)
 .rel.got       0x0000000017886738        0x0 arch/arm/cpu/armv7/start.o
 .rel.plt       0x0000000017886738        0x0 arch/arm/cpu/armv7/start.o
 .rel.iplt      0x0000000017886738        0x0 arch/arm/cpu/armv7/start.o
 .rel.text      0x0000000017886738       0x20 arch/arm/cpu/armv7/start.o
 .rel.vectors   0x0000000017886758       0x38 arch/arm/cpu/armv7/start.o
 .rel.text.relocate_vectors
                0x0000000017886790       0x20 arch/arm/cpu/armv7/start.o
 .rel.text.boot_jump_linux
                0x00000000178867b0       0x28 arch/arm/cpu/armv7/start.o
 .rel.text.boot_prep_linux
                0x00000000178867d8       0x18 arch/arm/cpu/armv7/start.o
 .rel.text.boot_prep_vxworks
                0x00000000178867f0       0x10 arch/arm/cpu/armv7/start.o
 .rel.text.bootz_setup
                0x0000000017886800       0x10 arch/arm/cpu/armv7/start.o
 .rel.text.v7_outer_cache_inval_range
                0x0000000017886810       0x18 arch/arm/cpu/armv7/start.o
 .rel.text.interrupt_init
                0x0000000017886828        0x8 arch/arm/cpu/armv7/start.o
 .rel.text.bad_mode
                0x0000000017886830        0x8 arch/arm/cpu/armv7/start.o
 .rel.text.show_regs
                0x0000000017886838       0x60 arch/arm/cpu/armv7/start.o
 .rel.text.do_undefined_instruction
                0x0000000017886898        0x8 arch/arm/cpu/armv7/start.o
 .rel.text.do_software_interrupt
                0x00000000178868a0        0x8 arch/arm/cpu/armv7/start.o
 .rel.text.do_prefetch_abort
                0x00000000178868a8        0x8 arch/arm/cpu/armv7/start.o
 .rel.text.do_data_abort
                0x00000000178868b0        0x8 arch/arm/cpu/armv7/start.o
 .rel.text.do_not_used
                0x00000000178868b8        0x8 arch/arm/cpu/armv7/start.o
 .rel.text.do_fiq
                0x00000000178868c0        0x8 arch/arm/cpu/armv7/start.o
 .rel.text.do_irq
                0x00000000178868c8        0x8 arch/arm/cpu/armv7/start.o
 .rel.text.do_reset
                0x00000000178868d0        0x8 arch/arm/cpu/armv7/start.o
 .rel.text.enable_caches
                0x00000000178868d8        0x0 arch/arm/cpu/armv7/start.o
 .rel.text.check_cache_range
                0x00000000178868d8        0x8 arch/arm/cpu/armv7/start.o
 .rel.rodata    0x00000000178868e0      0x158 arch/arm/cpu/armv7/start.o
 .rel.text.get_reset_cause
                0x0000000017886a38       0x58 arch/arm/cpu/armv7/start.o
 .rel.text.get_reboot_reason
                0x0000000017886a90        0x8 arch/arm/cpu/armv7/start.o
 .rel.text.get_imx_reset_cause
                0x0000000017886a98        0x0 arch/arm/cpu/armv7/start.o
 .rel.text.imx_ddr_size
                0x0000000017886a98       0x10 arch/arm/cpu/armv7/start.o
 .rel.text.get_imx_type
                0x0000000017886aa8       0x10 arch/arm/cpu/armv7/start.o
 .rel.text.print_cpuinfo
                0x0000000017886ab8       0x58 arch/arm/cpu/armv7/start.o
 .rel.text.set_chipselect_size
                0x0000000017886b10        0x0 arch/arm/cpu/armv7/start.o
 .rel.text.force_idle_bus
                0x0000000017886b10        0x0 arch/arm/cpu/armv7/start.o
 .rel.text.setup_i2c
                0x0000000017886b10        0x0 arch/arm/cpu/armv7/start.o
 .rel.text.board_video_skip
                0x0000000017886b10       0x48 arch/arm/cpu/armv7/start.o
 .rel.text.create_usage
                0x0000000017886b58       0x10 arch/arm/cpu/armv7/start.o
 .rel.text.do_boot_mode
                0x0000000017886b68       0x10 arch/arm/cpu/armv7/start.o
 .rel.text.add_board_boot_modes
                0x0000000017886b78       0x18 arch/arm/cpu/armv7/start.o
 .rel.text.mmc_get_env_dev
                0x0000000017886b90        0x8 arch/arm/cpu/armv7/start.o
 .rel.text.get_boot_device
                0x0000000017886b98       0x80 arch/arm/cpu/armv7/start.o
 .rel.text.check_ldo_bypass
                0x0000000017886c18       0x28 arch/arm/cpu/armv7/start.o
 .rel.text.check_1_2G
                0x0000000017886c40       0x18 arch/arm/cpu/armv7/start.o
 .rel.text.set_arm_freq_400M
                0x0000000017886c58        0x0 arch/arm/cpu/armv7/start.o
 .rel.text.prep_anatop_bypass
                0x0000000017886c58        0x8 arch/arm/cpu/armv7/start.o
 .rel.text.set_anatop_bypass
                0x0000000017886c60        0x8 arch/arm/cpu/armv7/start.o
 .rel.text.finish_anatop_bypass
                0x0000000017886c68        0x8 arch/arm/cpu/armv7/start.o
 .rel.text.get_ipg_clk
                0x0000000017886c70        0x8 arch/arm/cpu/armv7/start.o
 .rel.text.get_uart_clk
                0x0000000017886c78        0x8 arch/arm/cpu/armv7/start.o
 .rel.text.mxc_get_pll_pfd
                0x0000000017886c80        0x8 arch/arm/cpu/armv7/start.o
 .rel.text.get_usdhc_clk
                0x0000000017886c88       0x28 arch/arm/cpu/armv7/start.o
 .rel.text.enable_ocotp_clk
                0x0000000017886cb0        0x8 arch/arm/cpu/armv7/start.o
 .rel.text.enable_usboh3_clk
                0x0000000017886cb8        0x8 arch/arm/cpu/armv7/start.o
 .rel.text.enable_enet_clk
                0x0000000017886cc0        0x0 arch/arm/cpu/armv7/start.o
 .rel.text.enable_uart_clk
                0x0000000017886cc0        0x0 arch/arm/cpu/armv7/start.o
 .rel.text.enable_usdhc_clk
                0x0000000017886cc0        0x0 arch/arm/cpu/armv7/start.o
 .rel.text.enable_i2c_clk
                0x0000000017886cc0        0x8 arch/arm/cpu/armv7/start.o
 .rel.text.enable_spi_clk
                0x0000000017886cc8        0x0 arch/arm/cpu/armv7/start.o
 .rel.text.get_periph_clk
                0x0000000017886cc8        0x8 arch/arm/cpu/armv7/start.o
 .rel.text.get_axi_clk
                0x0000000017886cd0        0x8 arch/arm/cpu/armv7/start.o
 .rel.text.mxc_get_clock
                0x0000000017886cd8       0x98 arch/arm/cpu/armv7/start.o
 .rel.text.do_mx6_showclocks
                0x0000000017886d70       0x98 arch/arm/cpu/armv7/start.o
 .rel.text.cpu_reset
                0x0000000017886e08        0x8 arch/arm/cpu/armv7/start.o
 .rel.text.cpu_status
                0x0000000017886e10       0x10 arch/arm/cpu/armv7/start.o
 .rel.text.cpu_release
                0x0000000017886e20        0x8 arch/arm/cpu/armv7/start.o
 .rel.text.cpu_disable
                0x0000000017886e28        0x8 arch/arm/cpu/armv7/start.o
 .rel.rodata.CSWTCH.14
                0x0000000017886e30      0x1d0 arch/arm/cpu/armv7/start.o
 .rel.rodata.soc_boot_modes
                0x0000000017887000       0x58 arch/arm/cpu/armv7/start.o
 .rel.u_boot_list_2_cmd_2_bmode
                0x0000000017887058       0x18 arch/arm/cpu/armv7/start.o
 .rel.u_boot_list_2_driver_info_2_imx6_thermal
                0x0000000017887070       0x10 arch/arm/cpu/armv7/start.o
 .rel.u_boot_list_2_cmd_2_clocks
                0x0000000017887080       0x20 arch/arm/cpu/armv7/start.o
 .rel.text.pfuze_mode_init
                0x00000000178870a0       0x18 arch/arm/cpu/armv7/start.o
 .rel.text.pfuze_common_init
                0x00000000178870b8       0x10 arch/arm/cpu/armv7/start.o
 .rel.text.board_late_mmc_env_init
                0x00000000178870c8       0x30 arch/arm/cpu/armv7/start.o
 .rel.text.enable_backlight
                0x00000000178870f8       0x10 arch/arm/cpu/armv7/start.o
 .rel.text.enable_rgb
                0x0000000017887108        0x8 arch/arm/cpu/armv7/start.o
 .rel.text.fec_phy_reset
                0x0000000017887110        0x8 arch/arm/cpu/armv7/start.o
 .rel.text.board_mmc_init
                0x0000000017887118        0x0 arch/arm/cpu/armv7/start.o
 .rel.text.board_eth_init
                0x0000000017887118        0x0 arch/arm/cpu/armv7/start.o
 .rel.text.board_ehci_hcd_init
                0x0000000017887118        0x8 arch/arm/cpu/armv7/start.o
 .rel.text.board_early_init_f
                0x0000000017887120       0x10 arch/arm/cpu/armv7/start.o
 .rel.text.board_init
                0x0000000017887130       0x18 arch/arm/cpu/armv7/start.o
 .rel.text.ldo_mode_set
                0x0000000017887148       0x20 arch/arm/cpu/armv7/start.o
 .rel.text.board_late_init
                0x0000000017887168       0x50 arch/arm/cpu/armv7/start.o
 .rel.text.checkboard
                0x00000000178871b8        0x8 arch/arm/cpu/armv7/start.o
 .rel.rodata.board_boot_modes
                0x00000000178871c0       0x18 arch/arm/cpu/armv7/start.o
 .rel.rodata.displays
                0x00000000178871d8       0x30 arch/arm/cpu/armv7/start.o
 .rel.text.do_go
                0x0000000017887208       0x10 arch/arm/cpu/armv7/start.o
 .rel.text.do_bootm
                0x0000000017887218       0x18 arch/arm/cpu/armv7/start.o
 .rel.text.do_bootd
                0x0000000017887230        0x8 arch/arm/cpu/armv7/start.o
 .rel.text.image_info
                0x0000000017887238       0x48 arch/arm/cpu/armv7/start.o
 .rel.text.do_iminfo
                0x0000000017887280        0x8 arch/arm/cpu/armv7/start.o
 .rel.text.bootm_maybe_autostart
                0x0000000017887288       0x20 arch/arm/cpu/armv7/start.o
 .rel.text.do_help
                0x00000000178872a8       0x10 arch/arm/cpu/armv7/start.o
 .rel.text.do_version
                0x00000000178872b8       0x10 arch/arm/cpu/armv7/start.o
 .rel.text.blk_common_cmd
                0x00000000178872c8       0x90 arch/arm/cpu/armv7/start.o
 .rel.text.source
                0x0000000017887358       0x38 arch/arm/cpu/armv7/start.o
 .rel.text.do_source
                0x0000000017887390        0x8 arch/arm/cpu/armv7/start.o
 .rel.text.print_num
                0x0000000017887398        0x8 arch/arm/cpu/armv7/start.o
 .rel.text.do_bdinfo
                0x00000000178873a0       0x70 arch/arm/cpu/armv7/start.o
 .rel.text.efi_init_obj_list
                0x0000000017887410        0x8 arch/arm/cpu/armv7/start.o
 .rel.text.do_bootefi_exec
                0x0000000017887418       0x58 arch/arm/cpu/armv7/start.o
 .rel.text.do_bootefi
                0x0000000017887470       0x38 arch/arm/cpu/armv7/start.o
 .rel.text.efi_set_bootdev
                0x00000000178874a8       0x28 arch/arm/cpu/armv7/start.o
 .rel.text.do_bootz
                0x00000000178874d0       0x18 arch/arm/cpu/armv7/start.o
 .rel.text.parse_argv
                0x00000000178874e8       0x18 arch/arm/cpu/armv7/start.o
 .rel.text.invalidate_icache_all
                0x0000000017887500        0x0 arch/arm/cpu/armv7/start.o
 .rel.text.do_icache
                0x0000000017887500       0x18 arch/arm/cpu/armv7/start.o
 .rel.text.flush_dcache_all
                0x0000000017887518        0x0 arch/arm/cpu/armv7/start.o
 .rel.text.do_dcache
                0x0000000017887518       0x18 arch/arm/cpu/armv7/start.o
 .rel.text.do_coninfo
                0x0000000017887530       0x28 arch/arm/cpu/armv7/start.o
 .rel.text.do_echo
                0x0000000017887558        0x8 arch/arm/cpu/armv7/start.o
 .rel.text.valid_elf_image
                0x0000000017887560       0x10 arch/arm/cpu/armv7/start.o
 .rel.text.do_bootelf
                0x0000000017887570       0x28 arch/arm/cpu/armv7/start.o
 .rel.text.do_bootvx
                0x0000000017887598       0xe0 arch/arm/cpu/armv7/start.o
 .rel.text.do_fat_fsinfo
                0x0000000017887678       0x10 arch/arm/cpu/armv7/start.o
 .rel.text.do_fat_fswrite
                0x0000000017887688       0x18 arch/arm/cpu/armv7/start.o
 .rel.text.fdt_valid
                0x00000000178876a0       0x28 arch/arm/cpu/armv7/start.o
 .rel.text.is_printable_string
                0x00000000178876c8        0x8 arch/arm/cpu/armv7/start.o
 .rel.text.print_data
                0x00000000178876d0       0x58 arch/arm/cpu/armv7/start.o
 .rel.text.set_working_fdt_addr
                0x0000000017887728       0x10 arch/arm/cpu/armv7/start.o
 .rel.text.do_fdt
                0x0000000017887738      0x258 arch/arm/cpu/armv7/start.o
 .rel.text.do_load_wrapper
                0x0000000017887990        0x8 arch/arm/cpu/armv7/start.o
 .rel.text.do_fuse
                0x0000000017887998       0x70 arch/arm/cpu/armv7/start.o
 .rel.text.gpio_get_description
                0x0000000017887a08       0x18 arch/arm/cpu/armv7/start.o
 .rel.text.do_gpio
                0x0000000017887a20       0x50 arch/arm/cpu/armv7/start.o
 .rel.text.do_i2c
                0x0000000017887a70        0x8 arch/arm/cpu/armv7/start.o
 .rel.text.i2c_get_cur_bus
                0x0000000017887a78       0x10 arch/arm/cpu/armv7/start.o
 .rel.text.do_i2c_bus_speed
                0x0000000017887a88       0x18 arch/arm/cpu/armv7/start.o
 .rel.text.do_i2c_reset
                0x0000000017887aa0        0x8 arch/arm/cpu/armv7/start.o
 .rel.text.do_i2c_olen
                0x0000000017887aa8       0x18 arch/arm/cpu/armv7/start.o
 .rel.text.do_i2c_flags
                0x0000000017887ac0       0x18 arch/arm/cpu/armv7/start.o
 .rel.text.do_i2c_probe
                0x0000000017887ad8       0x10 arch/arm/cpu/armv7/start.o
 .rel.text.do_i2c_bus_num
                0x0000000017887ae8       0x20 arch/arm/cpu/armv7/start.o
 .rel.text.show_bus
                0x0000000017887b08       0x20 arch/arm/cpu/armv7/start.o
 .rel.text.do_i2c_show_bus
                0x0000000017887b28        0x8 arch/arm/cpu/armv7/start.o
 .rel.text.do_i2c_crc
                0x0000000017887b30       0x20 arch/arm/cpu/armv7/start.o
 .rel.text.mod_i2c_mem.isra.1
                0x0000000017887b50       0x60 arch/arm/cpu/armv7/start.o
 .rel.text.do_i2c_md
                0x0000000017887bb0       0x58 arch/arm/cpu/armv7/start.o
 .rel.text.do_i2c_read
                0x0000000017887c08       0x10 arch/arm/cpu/armv7/start.o
 .rel.text.do_i2c_mw
                0x0000000017887c18       0x10 arch/arm/cpu/armv7/start.o
 .rel.text.do_i2c_write
                0x0000000017887c28       0x18 arch/arm/cpu/armv7/start.o
 .rel.text.do_i2c_loop
                0x0000000017887c40       0x18 arch/arm/cpu/armv7/start.o
 .rel.text.binary_test
                0x0000000017887c58       0x70 arch/arm/cpu/armv7/start.o
 .rel.text.do_itest
                0x0000000017887cc8       0x40 arch/arm/cpu/armv7/start.o
 .rel.text.bin_data_init
                0x0000000017887d08       0x18 arch/arm/cpu/armv7/start.o
 .rel.text.k_data_save
                0x0000000017887d20       0x30 arch/arm/cpu/armv7/start.o
 .rel.text.k_data_restore
                0x0000000017887d50       0x30 arch/arm/cpu/armv7/start.o
 .rel.text.load_serial_ymodem
                0x0000000017887d80       0x20 arch/arm/cpu/armv7/start.o
 .rel.text.bin_data_char
                0x0000000017887da0       0x10 arch/arm/cpu/armv7/start.o
 .rel.text.chk1.constprop.1
                0x0000000017887db0        0x8 arch/arm/cpu/armv7/start.o
 .rel.text.s1_sendpacket.constprop.2
                0x0000000017887db8       0x18 arch/arm/cpu/armv7/start.o
 .rel.text.load_serial
                0x0000000017887dd0       0x68 arch/arm/cpu/armv7/start.o
 .rel.text.do_load_serial
                0x0000000017887e38       0x30 arch/arm/cpu/armv7/start.o
 .rel.text.do_load_serial_bin
                0x0000000017887e68       0xe8 arch/arm/cpu/armv7/start.o
 .rel.text.do_mem_mw
                0x0000000017887f50        0x8 arch/arm/cpu/armv7/start.o
 .rel.text.do_mem_md
                0x0000000017887f58       0x20 arch/arm/cpu/armv7/start.o
 .rel.text.do_mem_cmp
                0x0000000017887f78       0x38 arch/arm/cpu/armv7/start.o
 .rel.text.do_mem_base
                0x0000000017887fb0       0x10 arch/arm/cpu/armv7/start.o
 .rel.text.do_mem_cp
                0x0000000017887fc0       0x10 arch/arm/cpu/armv7/start.o
 .rel.text.do_mem_crc
                0x0000000017887fd0        0x8 arch/arm/cpu/armv7/start.o
 .rel.text.do_mem_mtest
                0x0000000017887fd8       0x40 arch/arm/cpu/armv7/start.o
 .rel.text.mod_mem.isra.0
                0x0000000017888018       0x48 arch/arm/cpu/armv7/start.o
 .rel.text.do_mii
                0x0000000017888060      0x160 arch/arm/cpu/armv7/start.o
 .rel.text.do_mdio
                0x00000000178881c0       0x70 arch/arm/cpu/armv7/start.o
 .rel.text.do_mmcops
                0x0000000017888230       0x18 arch/arm/cpu/armv7/start.o
 .rel.text.init_mmc_device
                0x0000000017888248        0x8 arch/arm/cpu/armv7/start.o
 .rel.text.do_mmc_rescan
                0x0000000017888250        0x8 arch/arm/cpu/armv7/start.o
 .rel.text.do_mmc_rst_func
                0x0000000017888258       0x10 arch/arm/cpu/armv7/start.o
 .rel.text.do_mmc_partconf
                0x0000000017888268       0x18 arch/arm/cpu/armv7/start.o
 .rel.text.do_mmc_boot_resize
                0x0000000017888280       0x20 arch/arm/cpu/armv7/start.o
 .rel.text.do_mmc_bootbus
                0x00000000178882a0        0x8 arch/arm/cpu/armv7/start.o
 .rel.text.do_mmc_hwpartition
                0x00000000178882a8       0xb0 arch/arm/cpu/armv7/start.o
 .rel.text.do_mmc_dev
                0x0000000017888358       0x38 arch/arm/cpu/armv7/start.o
 .rel.text.do_mmc_part
                0x0000000017888390       0x10 arch/arm/cpu/armv7/start.o
 .rel.text.do_mmc_erase
                0x00000000178883a0       0x30 arch/arm/cpu/armv7/start.o
 .rel.text.do_mmc_write
                0x00000000178883d0       0x30 arch/arm/cpu/armv7/start.o
 .rel.text.do_mmc_read
                0x0000000017888400       0x28 arch/arm/cpu/armv7/start.o
 .rel.text.do_mmcinfo
                0x0000000017888428      0x110 arch/arm/cpu/armv7/start.o
 .rel.text.do_mmc_setdsr
                0x0000000017888538       0x28 arch/arm/cpu/armv7/start.o
 .rel.text.cpu_cmd
                0x0000000017888560       0x28 arch/arm/cpu/armv7/start.o
 .rel.text.netboot_common
                0x0000000017888588       0x98 arch/arm/cpu/armv7/start.o
 .rel.text.do_ping
                0x0000000017888620       0x18 arch/arm/cpu/armv7/start.o
 .rel.text.do_raw_read
                0x0000000017888638       0x28 arch/arm/cpu/armv7/start.o
 .rel.text.do_spi_flash
                0x0000000017888660       0xe0 arch/arm/cpu/armv7/start.o
 .rel.text.substitute
                0x0000000017888740        0x8 arch/arm/cpu/armv7/start.o
 .rel.text.regex_sub
                0x0000000017888748       0x38 arch/arm/cpu/armv7/start.o
 .rel.text.do_setexpr
                0x0000000017888780       0x18 arch/arm/cpu/armv7/start.o
 .rel.text.do_test
                0x0000000017888798       0x70 arch/arm/cpu/armv7/start.o
 .rel.text.usb_get_class_desc
                0x0000000017888808       0x50 arch/arm/cpu/armv7/start.o
 .rel.text.usb_display_class_sub
                0x0000000017888858       0xc8 arch/arm/cpu/armv7/start.o
 .rel.text.usb_display_desc
                0x0000000017888920       0x38 arch/arm/cpu/armv7/start.o
 .rel.text.usb_show_tree_graph
                0x0000000017888958       0x48 arch/arm/cpu/armv7/start.o
 .rel.text.usb_display_string
                0x00000000178889a0        0x8 arch/arm/cpu/armv7/start.o
 .rel.text.usb_display_config
                0x00000000178889a8       0xa8 arch/arm/cpu/armv7/start.o
 .rel.text.do_usbboot
                0x0000000017888a50        0x8 arch/arm/cpu/armv7/start.o
 .rel.text.do_usb_start
                0x0000000017888a58        0x8 arch/arm/cpu/armv7/start.o
 .rel.text.usb_show_tree
                0x0000000017888a60        0x8 arch/arm/cpu/armv7/start.o
 .rel.text.do_usb
                0x0000000017888a68       0xf0 arch/arm/cpu/armv7/start.o
 .rel.text.common_diskboot
                0x0000000017888b58       0x28 arch/arm/cpu/armv7/start.o
 .rel.text.do_fastboot
                0x0000000017888b80       0x18 arch/arm/cpu/armv7/start.o
 .rel.text.ums_fini
                0x0000000017888b98       0x10 arch/arm/cpu/armv7/start.o
 .rel.text.do_usb_mass_storage
                0x0000000017888ba8       0x98 arch/arm/cpu/armv7/start.o
 .rel.text.do_imgextract
                0x0000000017888c40       0x90 arch/arm/cpu/armv7/start.o
 .rel.text.do_dfu
                0x0000000017888cd0       0x10 arch/arm/cpu/armv7/start.o
 .rel.text.do_env_delete
                0x0000000017888ce0       0x10 arch/arm/cpu/armv7/start.o
 .rel.text.do_env_exists
                0x0000000017888cf0        0x8 arch/arm/cpu/armv7/start.o
 .rel.text.do_env
                0x0000000017888cf8        0x8 arch/arm/cpu/armv7/start.o
 .rel.text.env_print
                0x0000000017888d00       0x18 arch/arm/cpu/armv7/start.o
 .rel.text.do_env_print
                0x0000000017888d18       0x10 arch/arm/cpu/armv7/start.o
 .rel.text.do_env_import
                0x0000000017888d28       0x48 arch/arm/cpu/armv7/start.o
 .rel.text.do_env_default
                0x0000000017888d70        0x8 arch/arm/cpu/armv7/start.o
 .rel.text._do_env_set.isra.0
                0x0000000017888d78       0x30 arch/arm/cpu/armv7/start.o
 .rel.text.get_env_id
                0x0000000017888da8        0x8 arch/arm/cpu/armv7/start.o
 .rel.text.env_set
                0x0000000017888db0        0x8 arch/arm/cpu/armv7/start.o
 .rel.text.env_set_hex
                0x0000000017888db8        0x8 arch/arm/cpu/armv7/start.o
 .rel.text.do_env_export
                0x0000000017888dc0       0x30 arch/arm/cpu/armv7/start.o
 .rel.text.env_get_f
                0x0000000017888df0        0x8 arch/arm/cpu/armv7/start.o
 .rel.text.env_get
                0x0000000017888df8        0x8 arch/arm/cpu/armv7/start.o
 .rel.text.do_env_edit.part.2
                0x0000000017888e00       0x18 arch/arm/cpu/armv7/start.o
 .rel.rodata.op_table
                0x0000000017888e18       0x68 arch/arm/cpu/armv7/start.o
 .rel.rodata.desc_and_len_tbl
                0x0000000017888e80       0x30 arch/arm/cpu/armv7/start.o
 .rel.rodata.reg_0_5_desc_tbl
                0x0000000017888eb0       0x30 arch/arm/cpu/armv7/start.o
 .rel.rodata.reg_0_desc_tbl
                0x0000000017888ee0       0x50 arch/arm/cpu/armv7/start.o
 .rel.rodata.reg_1_desc_tbl
                0x0000000017888f30       0x80 arch/arm/cpu/armv7/start.o
 .rel.rodata.reg_2_desc_tbl
                0x0000000017888fb0        0x8 arch/arm/cpu/armv7/start.o
 .rel.rodata.reg_3_desc_tbl
                0x0000000017888fb8       0x18 arch/arm/cpu/armv7/start.o
 .rel.rodata.reg_4_desc_tbl
                0x0000000017888fd0       0x60 arch/arm/cpu/armv7/start.o
 .rel.rodata.reg_5_desc_tbl
                0x0000000017889030       0x60 arch/arm/cpu/armv7/start.o
 .rel.rodata.op_adv
                0x0000000017889090       0x80 arch/arm/cpu/armv7/start.o
 .rel.rodata.CSWTCH.29
                0x0000000017889110       0x28 arch/arm/cpu/armv7/start.o
 .rel.u_boot_list_2_cmd_2_go
                0x0000000017889138       0x20 arch/arm/cpu/armv7/start.o
 .rel.u_boot_list_2_cmd_2_reset
                0x0000000017889158       0x20 arch/arm/cpu/armv7/start.o
 .rel.data.cmd_bootm_sub
                0x0000000017889178       0xd8 arch/arm/cpu/armv7/start.o
 .rel.u_boot_list_2_cmd_2_boot
                0x0000000017889250       0x20 arch/arm/cpu/armv7/start.o
 .rel.u_boot_list_2_cmd_2_bootd
                0x0000000017889270       0x20 arch/arm/cpu/armv7/start.o
 .rel.u_boot_list_2_cmd_2_bootm
                0x0000000017889290       0x20 arch/arm/cpu/armv7/start.o
 .rel.u_boot_list_2_cmd_2_iminfo
                0x00000000178892b0       0x20 arch/arm/cpu/armv7/start.o
 .rel.u_boot_list_2_cmd_2_help
                0x00000000178892d0       0x20 arch/arm/cpu/armv7/start.o
 .rel.u_boot_list_2_cmd_2_question_mark
                0x00000000178892f0       0x20 arch/arm/cpu/armv7/start.o
 .rel.u_boot_list_2_cmd_2_version
                0x0000000017889310       0x20 arch/arm/cpu/armv7/start.o
 .rel.u_boot_list_2_cmd_2_source
                0x0000000017889330       0x20 arch/arm/cpu/armv7/start.o
 .rel.u_boot_list_2_cmd_2_bdinfo
                0x0000000017889350       0x20 arch/arm/cpu/armv7/start.o
 .rel.u_boot_list_2_cmd_2_bootefi
                0x0000000017889370       0x20 arch/arm/cpu/armv7/start.o
 .rel.u_boot_list_2_cmd_2_bootz
                0x0000000017889390       0x20 arch/arm/cpu/armv7/start.o
 .rel.u_boot_list_2_cmd_2_dcache
                0x00000000178893b0       0x20 arch/arm/cpu/armv7/start.o
 .rel.u_boot_list_2_cmd_2_icache
                0x00000000178893d0       0x20 arch/arm/cpu/armv7/start.o
 .rel.u_boot_list_2_cmd_2_coninfo
                0x00000000178893f0       0x20 arch/arm/cpu/armv7/start.o
 .rel.u_boot_list_2_cmd_2_echo
                0x0000000017889410       0x20 arch/arm/cpu/armv7/start.o
 .rel.u_boot_list_2_cmd_2_bootelf
                0x0000000017889430       0x20 arch/arm/cpu/armv7/start.o
 .rel.u_boot_list_2_cmd_2_bootvx
                0x0000000017889450       0x20 arch/arm/cpu/armv7/start.o
 .rel.u_boot_list_2_cmd_2_exit
                0x0000000017889470       0x20 arch/arm/cpu/armv7/start.o
 .rel.u_boot_list_2_cmd_2_ext4load
                0x0000000017889490       0x20 arch/arm/cpu/armv7/start.o
 .rel.u_boot_list_2_cmd_2_ext4ls
                0x00000000178894b0       0x20 arch/arm/cpu/armv7/start.o
 .rel.u_boot_list_2_cmd_2_ext4size
                0x00000000178894d0       0x20 arch/arm/cpu/armv7/start.o
 .rel.u_boot_list_2_cmd_2_ext4write
                0x00000000178894f0       0x20 arch/arm/cpu/armv7/start.o
 .rel.u_boot_list_2_cmd_2_ext2load
                0x0000000017889510       0x20 arch/arm/cpu/armv7/start.o
 .rel.u_boot_list_2_cmd_2_ext2ls
                0x0000000017889530       0x20 arch/arm/cpu/armv7/start.o
 .rel.u_boot_list_2_cmd_2_fatinfo
                0x0000000017889550       0x20 arch/arm/cpu/armv7/start.o
 .rel.u_boot_list_2_cmd_2_fatload
                0x0000000017889570       0x20 arch/arm/cpu/armv7/start.o
 .rel.u_boot_list_2_cmd_2_fatls
                0x0000000017889590       0x20 arch/arm/cpu/armv7/start.o
 .rel.u_boot_list_2_cmd_2_fatsize
                0x00000000178895b0       0x20 arch/arm/cpu/armv7/start.o
 .rel.u_boot_list_2_cmd_2_fatwrite
                0x00000000178895d0       0x20 arch/arm/cpu/armv7/start.o
 .rel.u_boot_list_2_cmd_2_fdt
                0x00000000178895f0       0x20 arch/arm/cpu/armv7/start.o
 .rel.u_boot_list_2_cmd_2_fstype
                0x0000000017889610       0x20 arch/arm/cpu/armv7/start.o
 .rel.u_boot_list_2_cmd_2_load
                0x0000000017889630       0x20 arch/arm/cpu/armv7/start.o
 .rel.u_boot_list_2_cmd_2_ls
                0x0000000017889650       0x20 arch/arm/cpu/armv7/start.o
 .rel.u_boot_list_2_cmd_2_save
                0x0000000017889670       0x20 arch/arm/cpu/armv7/start.o
 .rel.u_boot_list_2_cmd_2_size
                0x0000000017889690       0x20 arch/arm/cpu/armv7/start.o
 .rel.u_boot_list_2_cmd_2_fuse
                0x00000000178896b0       0x20 arch/arm/cpu/armv7/start.o
 .rel.u_boot_list_2_cmd_2_gpio
                0x00000000178896d0       0x20 arch/arm/cpu/armv7/start.o
 .rel.data.cmd_i2c_sub
                0x00000000178896f0      0x1e0 arch/arm/cpu/armv7/start.o
 .rel.u_boot_list_2_cmd_2_i2c
                0x00000000178898d0       0x20 arch/arm/cpu/armv7/start.o
 .rel.u_boot_list_2_cmd_2_itest
                0x00000000178898f0       0x20 arch/arm/cpu/armv7/start.o
 .rel.u_boot_list_2_cmd_2_loadb
                0x0000000017889910       0x20 arch/arm/cpu/armv7/start.o
 .rel.u_boot_list_2_cmd_2_loads
                0x0000000017889930       0x20 arch/arm/cpu/armv7/start.o
 .rel.u_boot_list_2_cmd_2_loadx
                0x0000000017889950       0x20 arch/arm/cpu/armv7/start.o
 .rel.u_boot_list_2_cmd_2_loady
                0x0000000017889970       0x20 arch/arm/cpu/armv7/start.o
 .rel.u_boot_list_2_cmd_2_base
                0x0000000017889990       0x20 arch/arm/cpu/armv7/start.o
 .rel.u_boot_list_2_cmd_2_cmp
                0x00000000178899b0       0x20 arch/arm/cpu/armv7/start.o
 .rel.u_boot_list_2_cmd_2_cp
                0x00000000178899d0       0x20 arch/arm/cpu/armv7/start.o
 .rel.u_boot_list_2_cmd_2_crc32
                0x00000000178899f0       0x20 arch/arm/cpu/armv7/start.o
 .rel.u_boot_list_2_cmd_2_loop
                0x0000000017889a10       0x20 arch/arm/cpu/armv7/start.o
 .rel.u_boot_list_2_cmd_2_md
                0x0000000017889a30       0x20 arch/arm/cpu/armv7/start.o
 .rel.u_boot_list_2_cmd_2_mm
                0x0000000017889a50       0x20 arch/arm/cpu/armv7/start.o
 .rel.u_boot_list_2_cmd_2_mtest
                0x0000000017889a70       0x20 arch/arm/cpu/armv7/start.o
 .rel.u_boot_list_2_cmd_2_mw
                0x0000000017889a90       0x20 arch/arm/cpu/armv7/start.o
 .rel.u_boot_list_2_cmd_2_nm
                0x0000000017889ab0       0x20 arch/arm/cpu/armv7/start.o
 .rel.u_boot_list_2_cmd_2_mii
                0x0000000017889ad0       0x20 arch/arm/cpu/armv7/start.o
 .rel.u_boot_list_2_cmd_2_mdio
                0x0000000017889af0       0x20 arch/arm/cpu/armv7/start.o
 .rel.u_boot_list_2_cmd_2_sleep
                0x0000000017889b10       0x20 arch/arm/cpu/armv7/start.o
 .rel.data.cmd_mmc
                0x0000000017889b30      0x1c0 arch/arm/cpu/armv7/start.o
 .rel.u_boot_list_2_cmd_2_mmc
                0x0000000017889cf0       0x20 arch/arm/cpu/armv7/start.o
 .rel.u_boot_list_2_cmd_2_mmcinfo
                0x0000000017889d10       0x20 arch/arm/cpu/armv7/start.o
 .rel.u_boot_list_2_cmd_2_cpu
                0x0000000017889d30       0x20 arch/arm/cpu/armv7/start.o
 .rel.u_boot_list_2_cmd_2_bootp
                0x0000000017889d50       0x20 arch/arm/cpu/armv7/start.o
 .rel.u_boot_list_2_cmd_2_dhcp
                0x0000000017889d70       0x20 arch/arm/cpu/armv7/start.o
 .rel.u_boot_list_2_cmd_2_nfs
                0x0000000017889d90       0x20 arch/arm/cpu/armv7/start.o
 .rel.u_boot_list_2_cmd_2_ping
                0x0000000017889db0       0x20 arch/arm/cpu/armv7/start.o
 .rel.u_boot_list_2_cmd_2_tftpboot
                0x0000000017889dd0       0x20 arch/arm/cpu/armv7/start.o
 .rel.u_boot_list_2_cmd_2_read
                0x0000000017889df0       0x20 arch/arm/cpu/armv7/start.o
 .rel.u_boot_list_2_cmd_2_sf
                0x0000000017889e10       0x20 arch/arm/cpu/armv7/start.o
 .rel.u_boot_list_2_cmd_2_setexpr
                0x0000000017889e30       0x20 arch/arm/cpu/armv7/start.o
 .rel.u_boot_list_2_cmd_2_false
                0x0000000017889e50       0x18 arch/arm/cpu/armv7/start.o
 .rel.u_boot_list_2_cmd_2_test
                0x0000000017889e68       0x20 arch/arm/cpu/armv7/start.o
 .rel.u_boot_list_2_cmd_2_true
                0x0000000017889e88       0x18 arch/arm/cpu/armv7/start.o
 .rel.u_boot_list_2_cmd_2_usb
                0x0000000017889ea0       0x20 arch/arm/cpu/armv7/start.o
 .rel.u_boot_list_2_cmd_2_usbboot
                0x0000000017889ec0       0x20 arch/arm/cpu/armv7/start.o
 .rel.u_boot_list_2_cmd_2_fastboot
                0x0000000017889ee0       0x20 arch/arm/cpu/armv7/start.o
 .rel.u_boot_list_2_cmd_2_ums
                0x0000000017889f00       0x20 arch/arm/cpu/armv7/start.o
 .rel.u_boot_list_2_cmd_2_imxtract
                0x0000000017889f20       0x20 arch/arm/cpu/armv7/start.o
 .rel.u_boot_list_2_cmd_2_dfu
                0x0000000017889f40       0x20 arch/arm/cpu/armv7/start.o
 .rel.data.cmd_env_sub
                0x0000000017889f60      0x140 arch/arm/cpu/armv7/start.o
 .rel.u_boot_list_2_cmd_2_editenv
                0x000000001788a0a0       0x28 arch/arm/cpu/armv7/start.o
 .rel.u_boot_list_2_cmd_2_env
                0x000000001788a0c8       0x20 arch/arm/cpu/armv7/start.o
 .rel.u_boot_list_2_cmd_2_printenv
                0x000000001788a0e8       0x28 arch/arm/cpu/armv7/start.o
 .rel.u_boot_list_2_cmd_2_run
                0x000000001788a110       0x28 arch/arm/cpu/armv7/start.o
 .rel.u_boot_list_2_cmd_2_saveenv
                0x000000001788a138       0x20 arch/arm/cpu/armv7/start.o
 .rel.u_boot_list_2_cmd_2_setenv
                0x000000001788a158       0x28 arch/arm/cpu/armv7/start.o
 .rel.text.main_loop
                0x000000001788a180        0x8 arch/arm/cpu/armv7/start.o
 .rel.text.jumptable_init
                0x000000001788a188       0xc0 arch/arm/cpu/armv7/start.o
 .rel.text.hash_lookup_algo
                0x000000001788a248        0x8 arch/arm/cpu/armv7/start.o
 .rel.text.hash_progressive_lookup_algo
                0x000000001788a250        0x0 arch/arm/cpu/armv7/start.o
 .rel.text.hash_command
                0x000000001788a250        0x8 arch/arm/cpu/armv7/start.o
 .rel.text.mapset
                0x000000001788a258        0x8 arch/arm/cpu/armv7/start.o
 .rel.text.syntax_err
                0x000000001788a260        0x8 arch/arm/cpu/armv7/start.o
 .rel.text.xmalloc
                0x000000001788a268        0x8 arch/arm/cpu/armv7/start.o
 .rel.text.xrealloc
                0x000000001788a270        0x8 arch/arm/cpu/armv7/start.o
 .rel.text.done_word
                0x000000001788a278        0x8 arch/arm/cpu/armv7/start.o
 .rel.text.do_showvar
                0x000000001788a280       0x20 arch/arm/cpu/armv7/start.o
 .rel.text.is_assignment
                0x000000001788a2a0        0x8 arch/arm/cpu/armv7/start.o
 .rel.text.file_get
                0x000000001788a2a8       0x30 arch/arm/cpu/armv7/start.o
 .rel.text.b_addqchr
                0x000000001788a2d8        0x8 arch/arm/cpu/armv7/start.o
 .rel.text.get_local_var
                0x000000001788a2e0       0x20 arch/arm/cpu/armv7/start.o
 .rel.text.set_local_var
                0x000000001788a300       0x20 arch/arm/cpu/armv7/start.o
 .rel.text.insert_var_value_sub
                0x000000001788a320        0x8 arch/arm/cpu/armv7/start.o
 .rel.text.unset_local_var
                0x000000001788a328        0x0 arch/arm/cpu/armv7/start.o
 .rel.text.parse_string_outer
                0x000000001788a328       0x18 arch/arm/cpu/armv7/start.o
 .rel.text.run_list_real
                0x000000001788a340       0x40 arch/arm/cpu/armv7/start.o
 .rel.text.parse_stream_outer
                0x000000001788a380       0x68 arch/arm/cpu/armv7/start.o
 .rel.text.parse_file_outer
                0x000000001788a3e8       0x10 arch/arm/cpu/armv7/start.o
 .rel.text.u_boot_hush_start
                0x000000001788a3f8       0x18 arch/arm/cpu/armv7/start.o
 .rel.text.bootdelay_process
                0x000000001788a410       0x70 arch/arm/cpu/armv7/start.o
 .rel.text.autoboot_command
                0x000000001788a480       0x20 arch/arm/cpu/armv7/start.o
 .rel.text.setup_mon_len
                0x000000001788a4a0       0x10 arch/arm/cpu/armv7/start.o
 .rel.text.announce_dram_init
                0x000000001788a4b0        0x8 arch/arm/cpu/armv7/start.o
 .rel.text.init_baud_rate
                0x000000001788a4b8        0x8 arch/arm/cpu/armv7/start.o
 .rel.text.show_dram_config
                0x000000001788a4c0        0x8 arch/arm/cpu/armv7/start.o
 .rel.text.board_init_f
                0x000000001788a4c8        0x8 arch/arm/cpu/armv7/start.o
 .rel.text.initr_net
                0x000000001788a4d0        0x8 arch/arm/cpu/armv7/start.o
 .rel.text.initr_ethaddr
                0x000000001788a4d8        0x8 arch/arm/cpu/armv7/start.o
 .rel.text.initr_env
                0x000000001788a4e0       0x20 arch/arm/cpu/armv7/start.o
 .rel.text.initr_mmc
                0x000000001788a500        0x8 arch/arm/cpu/armv7/start.o
 .rel.text.initr_reloc_global_data
                0x000000001788a508       0x18 arch/arm/cpu/armv7/start.o
 .rel.text.board_init_r
                0x000000001788a520        0x8 arch/arm/cpu/armv7/start.o
 .rel.text.show_board_info
                0x000000001788a528       0x10 arch/arm/cpu/armv7/start.o
 .rel.text.bootm_find_images
                0x000000001788a538       0x18 arch/arm/cpu/armv7/start.o
 .rel.text.bootm_decomp_image
                0x000000001788a550       0x48 arch/arm/cpu/armv7/start.o
 .rel.text.do_bootm_states
                0x000000001788a598       0xc8 arch/arm/cpu/armv7/start.o
 .rel.text.do_bootm_rtems
                0x000000001788a660        0x8 arch/arm/cpu/armv7/start.o
 .rel.text.do_bootm_plan9
                0x000000001788a668       0x18 arch/arm/cpu/armv7/start.o
 .rel.text.do_bootm_standalone
                0x000000001788a680       0x18 arch/arm/cpu/armv7/start.o
 .rel.text.do_bootm_qnxelf
                0x000000001788a698        0x8 arch/arm/cpu/armv7/start.o
 .rel.text.do_bootm_netbsd
                0x000000001788a6a0       0x18 arch/arm/cpu/armv7/start.o
 .rel.text.do_bootvx_fdt
                0x000000001788a6b8       0x38 arch/arm/cpu/armv7/start.o
 .rel.text.bootm_os_get_boot_func
                0x000000001788a6f0        0x8 arch/arm/cpu/armv7/start.o
 .rel.text.fdt_support_default_count_cells
                0x000000001788a6f8        0x8 arch/arm/cpu/armv7/start.o
 .rel.text.fdt_find_or_add_subnode
                0x000000001788a700       0x10 arch/arm/cpu/armv7/start.o
 .rel.text.fdt_root
                0x000000001788a710       0x20 arch/arm/cpu/armv7/start.o
 .rel.text.fdt_initrd
                0x000000001788a730       0x30 arch/arm/cpu/armv7/start.o
 .rel.text.fdt_chosen
                0x000000001788a760       0x20 arch/arm/cpu/armv7/start.o
 .rel.text.do_fixup_by_path
                0x000000001788a780        0x8 arch/arm/cpu/armv7/start.o
 .rel.text.fdt_fixup_memory_banks
                0x000000001788a788       0x38 arch/arm/cpu/armv7/start.o
 .rel.text.fdt_fixup_ethernet
                0x000000001788a7c0       0x30 arch/arm/cpu/armv7/start.o
 .rel.text.fdt_record_loadable
                0x000000001788a7f0        0x0 arch/arm/cpu/armv7/start.o
 .rel.text.fdt_del_node_and_alias
                0x000000001788a7f0        0x0 arch/arm/cpu/armv7/start.o
 .rel.text.fdt_translate_address
                0x000000001788a7f0       0x20 arch/arm/cpu/armv7/start.o
 .rel.text.fdt_node_offset_by_compat_reg
                0x000000001788a810        0x0 arch/arm/cpu/armv7/start.o
 .rel.text.fdt_set_phandle
                0x000000001788a810        0x0 arch/arm/cpu/armv7/start.o
 .rel.text.fdt_create_phandle
                0x000000001788a810        0x0 arch/arm/cpu/armv7/start.o
 .rel.text.fdt_set_node_status
                0x000000001788a810        0x0 arch/arm/cpu/armv7/start.o
 .rel.text.fdt_add_edid
                0x000000001788a810        0x0 arch/arm/cpu/armv7/start.o
 .rel.text.fdt_verify_alias_address
                0x000000001788a810        0x0 arch/arm/cpu/armv7/start.o
 .rel.text.fdt_get_base_address
                0x000000001788a810        0x0 arch/arm/cpu/armv7/start.o
 .rel.text.fdt_read_range
                0x000000001788a810        0x0 arch/arm/cpu/armv7/start.o
 .rel.text.fdt_setup_simplefb_node
                0x000000001788a810        0x0 arch/arm/cpu/armv7/start.o
 .rel.text.fdt_fixup_display
                0x000000001788a810        0x0 arch/arm/cpu/armv7/start.o
 .rel.text.miiphy_get_dev_by_name
                0x000000001788a810       0x10 arch/arm/cpu/armv7/start.o
 .rel.text.miiphy_init
                0x000000001788a820       0x10 arch/arm/cpu/armv7/start.o
 .rel.text.mdio_register
                0x000000001788a830       0x18 arch/arm/cpu/armv7/start.o
 .rel.text.mdio_register_seq
                0x000000001788a848        0x0 arch/arm/cpu/armv7/start.o
 .rel.text.mdio_unregister
                0x000000001788a848        0x8 arch/arm/cpu/armv7/start.o
 .rel.text.mdio_list_devices
                0x000000001788a850       0x28 arch/arm/cpu/armv7/start.o
 .rel.text.miiphy_set_current_dev
                0x000000001788a878       0x10 arch/arm/cpu/armv7/start.o
 .rel.text.miiphy_get_active_dev
                0x000000001788a888        0x8 arch/arm/cpu/armv7/start.o
 .rel.text.mdio_get_current_dev
                0x000000001788a890        0x8 arch/arm/cpu/armv7/start.o
 .rel.text.mdio_phydev_for_ethname
                0x000000001788a898       0x10 arch/arm/cpu/armv7/start.o
 .rel.text.miiphy_get_current_dev
                0x000000001788a8a8        0x8 arch/arm/cpu/armv7/start.o
 .rel.text.miiphy_listdev
                0x000000001788a8b0       0x30 arch/arm/cpu/armv7/start.o
 .rel.text.miiphy_speed
                0x000000001788a8e0       0x20 arch/arm/cpu/armv7/start.o
 .rel.text.miiphy_duplex
                0x000000001788a900       0x20 arch/arm/cpu/armv7/start.o
 .rel.text.get_descriptor_len
                0x000000001788a920       0x10 arch/arm/cpu/armv7/start.o
 .rel.text.usb_setup_descriptor
                0x000000001788a930       0x10 arch/arm/cpu/armv7/start.o
 .rel.text.usb_string_sub
                0x000000001788a940        0x8 arch/arm/cpu/armv7/start.o
 .rel.text.usb_get_configuration_len
                0x000000001788a948       0x10 arch/arm/cpu/armv7/start.o
 .rel.text.usb_set_interface
                0x000000001788a958        0x8 arch/arm/cpu/armv7/start.o
 .rel.text.usb_select_config
                0x000000001788a960       0x70 arch/arm/cpu/armv7/start.o
 .rel.text.usb_setup_device
                0x000000001788a9d0       0x10 arch/arm/cpu/armv7/start.o
 .rel.text.usb_find_usb2_hub_address_port
                0x000000001788a9e0        0x8 arch/arm/cpu/armv7/start.o
 .rel.text.usb_hub_port_connect_change
                0x000000001788a9e8        0x8 arch/arm/cpu/armv7/start.o
 .rel.text.usb_hub_configure
                0x000000001788a9f0       0x28 arch/arm/cpu/armv7/start.o
 .rel.text.usb_stor_BBB_transport
                0x000000001788aa18       0x10 arch/arm/cpu/armv7/start.o
 .rel.text.usb_stor_CB_comdat
                0x000000001788aa28        0x8 arch/arm/cpu/armv7/start.o
 .rel.text.usb_stor_CBI_get_status.isra.2
                0x000000001788aa30        0x8 arch/arm/cpu/armv7/start.o
 .rel.text.usb_stor_CB_transport
                0x000000001788aa38       0x10 arch/arm/cpu/armv7/start.o
 .rel.text.usb_request_sense.constprop.11
                0x000000001788aa48        0x8 arch/arm/cpu/armv7/start.o
 .rel.text.usb_stor_read
                0x000000001788aa50        0x8 arch/arm/cpu/armv7/start.o
 .rel.text.usb_stor_write
                0x000000001788aa58        0x8 arch/arm/cpu/armv7/start.o
 .rel.text.usb_stor_info
                0x000000001788aa60       0x10 arch/arm/cpu/armv7/start.o
 .rel.text.usb_stor_reset
                0x000000001788aa70        0x8 arch/arm/cpu/armv7/start.o
 .rel.text.usb_stor_scan
                0x000000001788aa78       0x18 arch/arm/cpu/armv7/start.o
 .rel.text.usb_storage_probe
                0x000000001788aa90       0x38 arch/arm/cpu/armv7/start.o
 .rel.text.usb_stor_get_info
                0x000000001788aac8       0x20 arch/arm/cpu/armv7/start.o
 .rel.text.usb_mass_storage_probe
                0x000000001788aae8       0x18 arch/arm/cpu/armv7/start.o
 .rel.text.splash_get_pos
                0x000000001788ab00        0x8 arch/arm/cpu/armv7/start.o
 .rel.text.delete_char.part.0
                0x000000001788ab08       0x10 arch/arm/cpu/armv7/start.o
 .rel.text.cread_add_char
                0x000000001788ab18        0x8 arch/arm/cpu/armv7/start.o
 .rel.text.cli_readline_into_buffer
                0x000000001788ab20      0x178 arch/arm/cpu/armv7/start.o
 .rel.text.cli_readline
                0x000000001788ac98        0x8 arch/arm/cpu/armv7/start.o
 .rel.text.cli_simple_parse_line
                0x000000001788aca0        0x0 arch/arm/cpu/armv7/start.o
 .rel.text.cli_simple_run_command
                0x000000001788aca0        0x0 arch/arm/cpu/armv7/start.o
 .rel.text.cli_simple_loop
                0x000000001788aca0        0x0 arch/arm/cpu/armv7/start.o
 .rel.text.console_setfile
                0x000000001788aca0       0x30 arch/arm/cpu/armv7/start.o
 .rel.text.putc
                0x000000001788acd0        0x8 arch/arm/cpu/armv7/start.o
 .rel.text.puts
                0x000000001788acd8        0x8 arch/arm/cpu/armv7/start.o
 .rel.text.fgetc
                0x000000001788ace0        0x8 arch/arm/cpu/armv7/start.o
 .rel.text.ftstc
                0x000000001788ace8        0x8 arch/arm/cpu/armv7/start.o
 .rel.text.fputc
                0x000000001788acf0        0x0 arch/arm/cpu/armv7/start.o
 .rel.text.fputs
                0x000000001788acf0        0x8 arch/arm/cpu/armv7/start.o
 .rel.text.ctrlc
                0x000000001788acf8       0x10 arch/arm/cpu/armv7/start.o
 .rel.text.confirm_yesno
                0x000000001788ad08       0x20 arch/arm/cpu/armv7/start.o
 .rel.text.disable_ctrlc
                0x000000001788ad28        0x8 arch/arm/cpu/armv7/start.o
 .rel.text.had_ctrlc
                0x000000001788ad30        0x8 arch/arm/cpu/armv7/start.o
 .rel.text.clear_ctrlc
                0x000000001788ad38        0x8 arch/arm/cpu/armv7/start.o
 .rel.text.on_console
                0x000000001788ad40       0x20 arch/arm/cpu/armv7/start.o
 .rel.text.console_announce_r
                0x000000001788ad60        0x0 arch/arm/cpu/armv7/start.o
 .rel.text.stdio_print_current_devices
                0x000000001788ad60       0x40 arch/arm/cpu/armv7/start.o
 .rel.text.console_init_r
                0x000000001788ada0       0x48 arch/arm/cpu/armv7/start.o
 .rel.text.sbrk
                0x000000001788ade8       0x18 arch/arm/cpu/armv7/start.o
 .rel.text.mem_malloc_init
                0x000000001788ae00       0x18 arch/arm/cpu/armv7/start.o
 .rel.text.malloc_trim
                0x000000001788ae18       0x18 arch/arm/cpu/armv7/start.o
 .rel.text.free
                0x000000001788ae30       0x20 arch/arm/cpu/armv7/start.o
 .rel.text.malloc
                0x000000001788ae50       0x48 arch/arm/cpu/armv7/start.o
 .rel.text.calloc
                0x000000001788ae98        0x8 arch/arm/cpu/armv7/start.o
 .rel.text.realloc
                0x000000001788aea0       0x10 arch/arm/cpu/armv7/start.o
 .rel.text.mallopt
                0x000000001788aeb0        0x0 arch/arm/cpu/armv7/start.o
 .rel.text.on_loadaddr
                0x000000001788aeb0        0x8 arch/arm/cpu/armv7/start.o
 .rel.text.env_get_bootm_low
                0x000000001788aeb8        0x8 arch/arm/cpu/armv7/start.o
 .rel.text.env_get_bootm_size
                0x000000001788aec0       0x10 arch/arm/cpu/armv7/start.o
 .rel.text.env_get_bootm_mapsize
                0x000000001788aed0        0x8 arch/arm/cpu/armv7/start.o
 .rel.text.genimg_print_size
                0x000000001788aed8       0x10 arch/arm/cpu/armv7/start.o
 .rel.text.genimg_get_short_name
                0x000000001788aee8        0x0 arch/arm/cpu/armv7/start.o
 .rel.text.genimg_get_cat_name
                0x000000001788aee8        0x0 arch/arm/cpu/armv7/start.o
 .rel.text.genimg_get_cat_short_name
                0x000000001788aee8        0x0 arch/arm/cpu/armv7/start.o
 .rel.text.genimg_get_cat_count
                0x000000001788aee8        0x0 arch/arm/cpu/armv7/start.o
 .rel.text.genimg_get_cat_desc
                0x000000001788aee8        0x0 arch/arm/cpu/armv7/start.o
 .rel.text.genimg_get_os_name
                0x000000001788aee8       0x10 arch/arm/cpu/armv7/start.o
 .rel.text.genimg_get_arch_name
                0x000000001788aef8       0x10 arch/arm/cpu/armv7/start.o
 .rel.text.genimg_get_type_name
                0x000000001788af08       0x10 arch/arm/cpu/armv7/start.o
 .rel.text.genimg_get_type_short_name
                0x000000001788af18        0x0 arch/arm/cpu/armv7/start.o
 .rel.text.genimg_get_comp_name
                0x000000001788af18       0x10 arch/arm/cpu/armv7/start.o
 .rel.text.image_print_contents
                0x000000001788af28       0x58 arch/arm/cpu/armv7/start.o
 .rel.text.genimg_get_comp_short_name
                0x000000001788af80        0x0 arch/arm/cpu/armv7/start.o
 .rel.text.genimg_get_os_short_name
                0x000000001788af80        0x0 arch/arm/cpu/armv7/start.o
 .rel.text.genimg_get_arch_short_name
                0x000000001788af80        0x0 arch/arm/cpu/armv7/start.o
 .rel.text.genimg_get_os_id
                0x000000001788af80        0x0 arch/arm/cpu/armv7/start.o
 .rel.text.genimg_get_arch_id
                0x000000001788af80        0x0 arch/arm/cpu/armv7/start.o
 .rel.text.genimg_get_type_id
                0x000000001788af80        0x0 arch/arm/cpu/armv7/start.o
 .rel.text.genimg_get_comp_id
                0x000000001788af80        0x0 arch/arm/cpu/armv7/start.o
 .rel.text.genimg_get_kernel_addr_fit
                0x000000001788af80        0x8 arch/arm/cpu/armv7/start.o
 .rel.text.boot_get_ramdisk
                0x000000001788af88       0x50 arch/arm/cpu/armv7/start.o
 .rel.text.boot_ramdisk_high
                0x000000001788afd8       0x20 arch/arm/cpu/armv7/start.o
 .rel.text.android_image_get_kernel
                0x000000001788aff8      0x110 arch/arm/cpu/armv7/start.o
 .rel.text.android_image_check_header
                0x000000001788b108        0x8 arch/arm/cpu/armv7/start.o
 .rel.text.android_image_get_ramdisk
                0x000000001788b110        0x8 arch/arm/cpu/armv7/start.o
 .rel.text.android_image_get_second
                0x000000001788b118        0x8 arch/arm/cpu/armv7/start.o
 .rel.text.android_print_contents
                0x000000001788b120       0x60 arch/arm/cpu/armv7/start.o
 .rel.text.fdt_error
                0x000000001788b180       0x10 arch/arm/cpu/armv7/start.o
 .rel.text.boot_fdt_add_mem_rsv_regions
                0x000000001788b190        0x8 arch/arm/cpu/armv7/start.o
 .rel.text.boot_relocate_fdt
                0x000000001788b198       0x40 arch/arm/cpu/armv7/start.o
 .rel.text.boot_get_fdt
                0x000000001788b1d8       0x80 arch/arm/cpu/armv7/start.o
 .rel.text.image_setup_libfdt
                0x000000001788b258       0x20 arch/arm/cpu/armv7/start.o
 .rel.text.stdio_get_list
                0x000000001788b278        0x8 arch/arm/cpu/armv7/start.o
 .rel.text.stdio_get_by_name
                0x000000001788b280        0x8 arch/arm/cpu/armv7/start.o
 .rel.text.stdio_register_dev
                0x000000001788b288        0x8 arch/arm/cpu/armv7/start.o
 .rel.text.stdio_init_tables
                0x000000001788b290        0x8 arch/arm/cpu/armv7/start.o
 .rel.text.stdio_add_devices
                0x000000001788b298       0x48 arch/arm/cpu/armv7/start.o
 .rel.text.write_sparse_image
                0x000000001788b2e0       0xb8 arch/arm/cpu/armv7/start.o
 .rel.text.part_get_info_by_name_or_alias
                0x000000001788b398        0x0 arch/arm/cpu/armv7/start.o
 .rel.text.fb_mmc_flash_write
                0x000000001788b398        0x0 arch/arm/cpu/armv7/start.o
 .rel.text.fb_mmc_erase
                0x000000001788b398        0x0 arch/arm/cpu/armv7/start.o
 .rel.text.do_run
                0x000000001788b398        0x8 arch/arm/cpu/armv7/start.o
 .rel.text.cli_process_fdt
                0x000000001788b3a0       0x10 arch/arm/cpu/armv7/start.o
 .rel.text.cli_secure_boot_cmd
                0x000000001788b3b0       0x18 arch/arm/cpu/armv7/start.o
 .rel.text.run_usb_dnl_gadget
                0x000000001788b3c8       0x20 arch/arm/cpu/armv7/start.o
 .rel.text.find_cmd
                0x000000001788b3e8       0x10 arch/arm/cpu/armv7/start.o
 .rel.text.cmd_usage
                0x000000001788b3f8       0x18 arch/arm/cpu/armv7/start.o
 .rel.text._do_help
                0x000000001788b410       0x10 arch/arm/cpu/armv7/start.o
 .rel.text.var_complete
                0x000000001788b420       0x10 arch/arm/cpu/armv7/start.o
 .rel.text.cmd_auto_complete
                0x000000001788b430       0x48 arch/arm/cpu/armv7/start.o
 .rel.text.cmd_get_data_size
                0x000000001788b478        0x8 arch/arm/cpu/armv7/start.o
 .rel.text.cmd_process
                0x000000001788b480       0x18 arch/arm/cpu/armv7/start.o
 .rel.text.cmd_process_error
                0x000000001788b498        0x8 arch/arm/cpu/armv7/start.o
 .rel.text.srec_decode
                0x000000001788b4a0       0x50 arch/arm/cpu/armv7/start.o
 .rel.text.xyzModem_get_hdr
                0x000000001788b4f0       0x30 arch/arm/cpu/armv7/start.o
 .rel.text.xyzModem_stream_open
                0x000000001788b520       0x10 arch/arm/cpu/armv7/start.o
 .rel.text.xyzModem_stream_read
                0x000000001788b530        0x8 arch/arm/cpu/armv7/start.o
 .rel.text.xyzModem_stream_close
                0x000000001788b538       0x20 arch/arm/cpu/armv7/start.o
 .rel.text.xyzModem_stream_terminate
                0x000000001788b558        0x8 arch/arm/cpu/armv7/start.o
 .rel.text.xyzModem_error
                0x000000001788b560       0x10 arch/arm/cpu/armv7/start.o
 .rel.rodata.init_sequence_f
                0x000000001788b570      0x160 arch/arm/cpu/armv7/start.o
 .rel.rodata.boot_os
                0x000000001788b6d0       0x38 arch/arm/cpu/armv7/start.o
 .rel.rodata.usb_hub_ids
                0x000000001788b708        0x8 arch/arm/cpu/armv7/start.o
 .rel.rodata.usb_mass_storage_ids
                0x000000001788b710        0x8 arch/arm/cpu/armv7/start.o
 .rel.rodata.usb_storage_ops
                0x000000001788b718       0x10 arch/arm/cpu/armv7/start.o
 .rel.rodata.table_info
                0x000000001788b728        0x0 arch/arm/cpu/armv7/start.o
 .rel.rodata.uimage_arch
                0x000000001788b728      0x1a0 arch/arm/cpu/armv7/start.o
 .rel.rodata.uimage_comp
                0x000000001788b8c8       0x70 arch/arm/cpu/armv7/start.o
 .rel.rodata.uimage_os
                0x000000001788b938       0xb0 arch/arm/cpu/armv7/start.o
 .rel.rodata.uimage_type
                0x000000001788b9e8      0x210 arch/arm/cpu/armv7/start.o
 .rel.rodata.CSWTCH.28
                0x000000001788bbf8       0x40 arch/arm/cpu/armv7/start.o
 .rel.data.hash_algo
                0x000000001788bc38       0x28 arch/arm/cpu/armv7/start.o
 .rel.data.reserved_list
                0x000000001788bc60       0x58 arch/arm/cpu/armv7/start.o
 .rel.u_boot_list_2_cmd_2_showvar
                0x000000001788bcb8       0x20 arch/arm/cpu/armv7/start.o
 .rel.data.init_sequence_r
                0x000000001788bcd8       0xf8 arch/arm/cpu/armv7/start.o
 .rel.data.of_busses
                0x000000001788bdd0       0x28 arch/arm/cpu/armv7/start.o
 .rel.data.usb_scan_list
                0x000000001788bdf8       0x10 arch/arm/cpu/armv7/start.o
 .rel.u_boot_list_2_driver_2_usb_generic_hub
                0x000000001788be08       0x10 arch/arm/cpu/armv7/start.o
 .rel.u_boot_list_2_uclass_2_usb_hub
                0x000000001788be18       0x20 arch/arm/cpu/armv7/start.o
 .rel.u_boot_list_2_usb_driver_entry_2_usb_generic_hub
                0x000000001788be38       0x10 arch/arm/cpu/armv7/start.o
 .rel.u_boot_list_2_driver_2_usb_mass_storage
                0x000000001788be48       0x18 arch/arm/cpu/armv7/start.o
 .rel.u_boot_list_2_driver_2_usb_storage_blk
                0x000000001788be60       0x10 arch/arm/cpu/armv7/start.o
 .rel.u_boot_list_2_uclass_2_usb_mass_storage
                0x000000001788be70        0x8 arch/arm/cpu/armv7/start.o
 .rel.u_boot_list_2_usb_driver_entry_2_usb_mass_storage
                0x000000001788be78       0x10 arch/arm/cpu/armv7/start.o
 .rel.u_boot_list_2_env_clbk_2_console
                0x000000001788be88       0x10 arch/arm/cpu/armv7/start.o
 .rel.data.av_  0x000000001788be98      0x800 arch/arm/cpu/armv7/start.o
 .rel.u_boot_list_2_env_clbk_2_loadaddr
                0x000000001788c698       0x10 arch/arm/cpu/armv7/start.o
 .rel.data.stdio_names
                0x000000001788c6a8       0x18 arch/arm/cpu/armv7/start.o
 .rel.text.dev_print
                0x000000001788c6c0      0x120 arch/arm/cpu/armv7/start.o
 .rel.text.part_init
                0x000000001788c7e0       0x10 arch/arm/cpu/armv7/start.o
 .rel.text.part_print
                0x000000001788c7f0       0xc8 arch/arm/cpu/armv7/start.o
 .rel.text.part_get_info
                0x000000001788c8b8       0x10 arch/arm/cpu/armv7/start.o
 .rel.text.part_get_info_whole_disk
                0x000000001788c8c8       0x10 arch/arm/cpu/armv7/start.o
 .rel.text.blk_get_device_by_str
                0x000000001788c8d8       0x18 arch/arm/cpu/armv7/start.o
 .rel.text.blk_get_device_part_str
                0x000000001788c8f0       0x58 arch/arm/cpu/armv7/start.o
 .rel.text.part_get_info_by_name_type
                0x000000001788c948        0x0 arch/arm/cpu/armv7/start.o
 .rel.text.part_set_generic_name
                0x000000001788c948       0x18 arch/arm/cpu/armv7/start.o
 .rel.text.test_block_type
                0x000000001788c960       0x10 arch/arm/cpu/armv7/start.o
 .rel.text.print_partition_extended
                0x000000001788c970       0x30 arch/arm/cpu/armv7/start.o
 .rel.text.part_print_dos
                0x000000001788c9a0        0x8 arch/arm/cpu/armv7/start.o
 .rel.text.part_get_info_extended
                0x000000001788c9a8       0x20 arch/arm/cpu/armv7/start.o
 .rel.text.write_mbr_partition
                0x000000001788c9c8        0x0 arch/arm/cpu/armv7/start.o
 .rel.text.print_efiname
                0x000000001788c9c8       0x10 arch/arm/cpu/armv7/start.o
 .rel.text.validate_gpt_header
                0x000000001788c9d8       0x30 arch/arm/cpu/armv7/start.o
 .rel.text.is_gpt_valid
                0x000000001788ca08       0x40 arch/arm/cpu/armv7/start.o
 .rel.text.is_pte_valid
                0x000000001788ca48       0x10 arch/arm/cpu/armv7/start.o
 .rel.text.part_print_efi
                0x000000001788ca58       0x60 arch/arm/cpu/armv7/start.o
 .rel.text.part_get_info_efi
                0x000000001788cab8       0x30 arch/arm/cpu/armv7/start.o
 .rel.text.get_disk_guid
                0x000000001788cae8        0x0 arch/arm/cpu/armv7/start.o
 .rel.text.write_gpt_table
                0x000000001788cae8        0x0 arch/arm/cpu/armv7/start.o
 .rel.text.gpt_fill_pte
                0x000000001788cae8        0x0 arch/arm/cpu/armv7/start.o
 .rel.text.gpt_fill_header
                0x000000001788cae8        0x0 arch/arm/cpu/armv7/start.o
 .rel.text.gpt_restore
                0x000000001788cae8        0x0 arch/arm/cpu/armv7/start.o
 .rel.text.gpt_verify_headers
                0x000000001788cae8        0x0 arch/arm/cpu/armv7/start.o
 .rel.text.gpt_verify_partitions
                0x000000001788cae8        0x0 arch/arm/cpu/armv7/start.o
 .rel.text.write_mbr_and_gpt_partitions
                0x000000001788cae8        0x0 arch/arm/cpu/armv7/start.o
 .rel.text.write_backup_gpt_partitions
                0x000000001788cae8       0x28 arch/arm/cpu/armv7/start.o
 .rel.rodata.CSWTCH.48
                0x000000001788cb10       0x40 arch/arm/cpu/armv7/start.o
 .rel.u_boot_list_2_part_driver_2_dos
                0x000000001788cb50       0x20 arch/arm/cpu/armv7/start.o
 .rel.u_boot_list_2_part_driver_2_a_efi
                0x000000001788cb70       0x20 arch/arm/cpu/armv7/start.o
 .rel.text.device_bind_common.isra.0
                0x000000001788cb90       0x10 arch/arm/cpu/armv7/start.o
 .rel.text.device_probe
                0x000000001788cba0       0x18 arch/arm/cpu/armv7/start.o
 .rel.text.dev_get_platdata
                0x000000001788cbb8       0x10 arch/arm/cpu/armv7/start.o
 .rel.text.dev_get_parent_platdata
                0x000000001788cbc8       0x10 arch/arm/cpu/armv7/start.o
 .rel.text.dev_get_uclass_platdata
                0x000000001788cbd8       0x10 arch/arm/cpu/armv7/start.o
 .rel.text.dev_get_priv
                0x000000001788cbe8       0x10 arch/arm/cpu/armv7/start.o
 .rel.text.dev_get_uclass_priv
                0x000000001788cbf8       0x10 arch/arm/cpu/armv7/start.o
 .rel.text.dev_get_parent_priv
                0x000000001788cc08       0x10 arch/arm/cpu/armv7/start.o
 .rel.text.devfdt_get_addr_index
                0x000000001788cc18        0x8 arch/arm/cpu/armv7/start.o
 .rel.text.devfdt_get_addr_size_index
                0x000000001788cc20        0x0 arch/arm/cpu/armv7/start.o
 .rel.text.devfdt_get_addr_name
                0x000000001788cc20        0x0 arch/arm/cpu/armv7/start.o
 .rel.text.lists_driver_lookup_name
                0x000000001788cc20       0x10 arch/arm/cpu/armv7/start.o
 .rel.text.lists_uclass_lookup
                0x000000001788cc30       0x10 arch/arm/cpu/armv7/start.o
 .rel.text.lists_bind_drivers
                0x000000001788cc40       0x18 arch/arm/cpu/armv7/start.o
 .rel.text.lists_bind_fdt
                0x000000001788cc58       0x28 arch/arm/cpu/armv7/start.o
 .rel.text.dm_scan_fdt_node
                0x000000001788cc80       0x10 arch/arm/cpu/armv7/start.o
 .rel.text.dm_root
                0x000000001788cc90        0x8 arch/arm/cpu/armv7/start.o
 .rel.text.dm_init
                0x000000001788cc98       0x10 arch/arm/cpu/armv7/start.o
 .rel.text.dm_scan_platdata
                0x000000001788cca8        0x8 arch/arm/cpu/armv7/start.o
 .rel.text.dm_extended_scan_fdt
                0x000000001788ccb0        0x8 arch/arm/cpu/armv7/start.o
 .rel.text.uclass_resolve_seq
                0x000000001788ccb8        0x8 arch/arm/cpu/armv7/start.o
 .rel.text.dm_fdt_pre_reloc
                0x000000001788ccc0       0x18 arch/arm/cpu/armv7/start.o
 .rel.text.devres_free
                0x000000001788ccd8       0x20 arch/arm/cpu/armv7/start.o
 .rel.text.devres_add
                0x000000001788ccf8       0x20 arch/arm/cpu/armv7/start.o
 .rel.text.devm_kmalloc
                0x000000001788cd18        0x8 arch/arm/cpu/armv7/start.o
 .rel.text.devm_kfree
                0x000000001788cd20       0x28 arch/arm/cpu/armv7/start.o
 .rel.text.device_remove
                0x000000001788cd48       0x20 arch/arm/cpu/armv7/start.o
 .rel.text.simple_bus_post_bind
                0x000000001788cd68        0x8 arch/arm/cpu/armv7/start.o
 .rel.text.show_devices
                0x000000001788cd70       0x30 arch/arm/cpu/armv7/start.o
 .rel.text.dm_dump_all
                0x000000001788cda0       0x10 arch/arm/cpu/armv7/start.o
 .rel.text.dm_dump_uclass
                0x000000001788cdb0       0x20 arch/arm/cpu/armv7/start.o
 .rel.text.of_read_fmap_entry
                0x000000001788cdd0        0x0 arch/arm/cpu/armv7/start.o
 .rel.text.ofnode_get_chosen_prop
                0x000000001788cdd0        0x0 arch/arm/cpu/armv7/start.o
 .rel.text.ofnode_decode_display_timing
                0x000000001788cdd0        0x0 arch/arm/cpu/armv7/start.o
 .rel.text.ofnode_pre_reloc
                0x000000001788cdd0       0x18 arch/arm/cpu/armv7/start.o
 .rel.text.ofnode_read_resource
                0x000000001788cde8        0x0 arch/arm/cpu/armv7/start.o
 .rel.text.ofnode_read_resource_byname
                0x000000001788cde8        0x0 arch/arm/cpu/armv7/start.o
 .rel.text.pinconfig_post_bind
                0x000000001788cde8       0x10 arch/arm/cpu/armv7/start.o
 .rel.text.pinctrl_decode_pin_config
                0x000000001788cdf8        0x0 arch/arm/cpu/armv7/start.o
 .rel.text.pinctrl_select_state
                0x000000001788cdf8       0x20 arch/arm/cpu/armv7/start.o
 .rel.text.pinctrl_generic_set_state_subnode
                0x000000001788ce18        0x0 arch/arm/cpu/armv7/start.o
 .rel.text.imx_pinctrl_set_state
                0x000000001788ce18       0x28 arch/arm/cpu/armv7/start.o
 .rel.text.imx_pinctrl_probe
                0x000000001788ce40       0x28 arch/arm/cpu/armv7/start.o
 .rel.text.blk_get_if_type_name
                0x000000001788ce68        0x8 arch/arm/cpu/armv7/start.o
 .rel.text.blk_get_devnum_by_typename
                0x000000001788ce70       0x10 arch/arm/cpu/armv7/start.o
 .rel.text.blk_list_devices
                0x000000001788ce80        0x8 arch/arm/cpu/armv7/start.o
 .rel.text.blk_print_device_num
                0x000000001788ce88        0x8 arch/arm/cpu/armv7/start.o
 .rel.text.blk_show_device
                0x000000001788ce90       0x10 arch/arm/cpu/armv7/start.o
 .rel.text.blk_create_devicef
                0x000000001788cea0        0x8 arch/arm/cpu/armv7/start.o
 .rel.text.do_job
                0x000000001788cea8        0x8 arch/arm/cpu/armv7/start.o
 .rel.text.jr_reset
                0x000000001788ceb0       0x10 arch/arm/cpu/armv7/start.o
 .rel.text.caam_decap_blob
                0x000000001788cec0        0x0 arch/arm/cpu/armv7/start.o
 .rel.text.caam_gen_blob
                0x000000001788cec0        0x0 arch/arm/cpu/armv7/start.o
 .rel.text.caam_hwrng
                0x000000001788cec0        0x0 arch/arm/cpu/armv7/start.o
 .rel.text.caam_open
                0x000000001788cec0       0x68 arch/arm/cpu/armv7/start.o
 .rel.text.finish_access
                0x000000001788cf28        0x8 arch/arm/cpu/armv7/start.o
 .rel.text.prepare_access
                0x000000001788cf30        0x8 arch/arm/cpu/armv7/start.o
 .rel.text.fuse_read
                0x000000001788cf38        0x8 arch/arm/cpu/armv7/start.o
 .rel.text.fuse_sense
                0x000000001788cf40       0x10 arch/arm/cpu/armv7/start.o
 .rel.text.fuse_prog
                0x000000001788cf50        0x8 arch/arm/cpu/armv7/start.o
 .rel.text.fuse_override
                0x000000001788cf58        0x8 arch/arm/cpu/armv7/start.o
 .rel.text.mmc_set_capacity
                0x000000001788cf60       0x40 arch/arm/cpu/armv7/start.o
 .rel.text.mmc_power_on.isra.3
                0x000000001788cfa0        0x8 arch/arm/cpu/armv7/start.o
 .rel.text.mmc_mode_name
                0x000000001788cfa8       0x10 arch/arm/cpu/armv7/start.o
 .rel.text.mmc_send_status
                0x000000001788cfb8       0x10 arch/arm/cpu/armv7/start.o
 .rel.text.mmc_startup_v4
                0x000000001788cfc8        0x8 arch/arm/cpu/armv7/start.o
 .rel.text.mmc_set_card_speed.constprop.12
                0x000000001788cfd0       0x30 arch/arm/cpu/armv7/start.o
 .rel.text.mmc_bread
                0x000000001788d000       0x10 arch/arm/cpu/armv7/start.o
 .rel.text.mmc_hwpart_config
                0x000000001788d010       0x48 arch/arm/cpu/armv7/start.o
 .rel.text.mmc_startup
                0x000000001788d058       0xa0 arch/arm/cpu/armv7/start.o
 .rel.text.mmc_start_init
                0x000000001788d0f8       0x20 arch/arm/cpu/armv7/start.o
 .rel.text.mmc_initialize
                0x000000001788d118       0x10 arch/arm/cpu/armv7/start.o
 .rel.text.mmc_of_parse
                0x000000001788d128        0x0 arch/arm/cpu/armv7/start.o
 .rel.text.find_mmc_device
                0x000000001788d128        0x8 arch/arm/cpu/armv7/start.o
 .rel.text.print_mmc_devices
                0x000000001788d130       0x38 arch/arm/cpu/armv7/start.o
 .rel.text.mmc_bind
                0x000000001788d168       0x10 arch/arm/cpu/armv7/start.o
 .rel.text.mmc_berase
                0x000000001788d178       0x10 arch/arm/cpu/armv7/start.o
 .rel.text.mmc_bwrite
                0x000000001788d188       0x18 arch/arm/cpu/armv7/start.o
 .rel.text.fsl_esdhc_send_cmd
                0x000000001788d1a0       0x20 arch/arm/cpu/armv7/start.o
 .rel.text.fdt_fixup_esdhc
                0x000000001788d1c0        0x0 arch/arm/cpu/armv7/start.o
 .rel.text.fsl_esdhc_probe
                0x000000001788d1c0       0x80 arch/arm/cpu/armv7/start.o
 .rel.text.dfu_write_buffer_drain
                0x000000001788d240       0x10 arch/arm/cpu/armv7/start.o
 .rel.text.dfu_free_buf
                0x000000001788d250        0x8 arch/arm/cpu/armv7/start.o
 .rel.text.dfu_get_buf_size
                0x000000001788d258        0x8 arch/arm/cpu/armv7/start.o
 .rel.text.dfu_get_buf
                0x000000001788d260       0x28 arch/arm/cpu/armv7/start.o
 .rel.text.dfu_transaction_initiate
                0x000000001788d288        0x8 arch/arm/cpu/armv7/start.o
 .rel.text.dfu_flush
                0x000000001788d290       0x10 arch/arm/cpu/armv7/start.o
 .rel.text.dfu_write
                0x000000001788d2a0       0x18 arch/arm/cpu/armv7/start.o
 .rel.text.dfu_read
                0x000000001788d2b8       0x30 arch/arm/cpu/armv7/start.o
 .rel.text.dfu_free_entities
                0x000000001788d2e8       0x10 arch/arm/cpu/armv7/start.o
 .rel.text.dfu_config_entities
                0x000000001788d2f8       0x90 arch/arm/cpu/armv7/start.o
 .rel.text.dfu_init_env_entities
                0x000000001788d388       0x18 arch/arm/cpu/armv7/start.o
 .rel.text.dfu_get_dev_type
                0x000000001788d3a0        0x8 arch/arm/cpu/armv7/start.o
 .rel.text.dfu_get_layout
                0x000000001788d3a8        0x8 arch/arm/cpu/armv7/start.o
 .rel.text.dfu_show_entities
                0x000000001788d3b0       0x18 arch/arm/cpu/armv7/start.o
 .rel.text.dfu_get_alt_number
                0x000000001788d3c8        0x8 arch/arm/cpu/armv7/start.o
 .rel.text.dfu_get_entity
                0x000000001788d3d0        0x8 arch/arm/cpu/armv7/start.o
 .rel.text.dfu_get_alt
                0x000000001788d3d8        0x0 arch/arm/cpu/armv7/start.o
 .rel.text.dfu_write_from_mem_addr
                0x000000001788d3d8        0x0 arch/arm/cpu/armv7/start.o
 .rel.text.mmc_block_op
                0x000000001788d3d8       0x20 arch/arm/cpu/armv7/start.o
 .rel.text.mmc_file_op
                0x000000001788d3f8       0x70 arch/arm/cpu/armv7/start.o
 .rel.text.dfu_free_entity_mmc
                0x000000001788d468        0x8 arch/arm/cpu/armv7/start.o
 .rel.text.dfu_write_medium_mmc
                0x000000001788d470       0x20 arch/arm/cpu/armv7/start.o
 .rel.text.dfu_flush_medium_mmc
                0x000000001788d490       0x10 arch/arm/cpu/armv7/start.o
 .rel.text.dfu_get_medium_size_mmc
                0x000000001788d4a0       0x18 arch/arm/cpu/armv7/start.o
 .rel.text.dfu_read_medium_mmc
                0x000000001788d4b8       0x20 arch/arm/cpu/armv7/start.o
 .rel.text.dfu_fill_entity_mmc
                0x000000001788d4d8       0x90 arch/arm/cpu/armv7/start.o
 .rel.text.dfu_fill_entity_sf
                0x000000001788d568       0x80 arch/arm/cpu/armv7/start.o
 .rel.text.video_drawchars
                0x000000001788d5e8       0x80 arch/arm/cpu/armv7/start.o
 .rel.text.draw_bitmap
                0x000000001788d668       0x28 arch/arm/cpu/armv7/start.o
 .rel.text.console_newline.constprop.2
                0x000000001788d690       0x30 arch/arm/cpu/armv7/start.o
 .rel.text.cfb_video_putc
                0x000000001788d6c0       0x68 arch/arm/cpu/armv7/start.o
 .rel.text.cfb_video_puts
                0x000000001788d728       0x10 arch/arm/cpu/armv7/start.o
 .rel.text.display_rle8_bitmap
                0x000000001788d738       0x40 arch/arm/cpu/armv7/start.o
 .rel.text.plot_logo_or_black
                0x000000001788d778       0x50 arch/arm/cpu/armv7/start.o
 .rel.text.do_clrlogo
                0x000000001788d7c8       0x18 arch/arm/cpu/armv7/start.o
 .rel.text.video_display_bitmap
                0x000000001788d7e0       0x98 arch/arm/cpu/armv7/start.o
 .rel.text.video_clear
                0x000000001788d878       0x18 arch/arm/cpu/armv7/start.o
 .rel.text.drv_video_init
                0x000000001788d890       0xc0 arch/arm/cpu/armv7/start.o
 .rel.text.video_position_cursor
                0x000000001788d950        0x0 arch/arm/cpu/armv7/start.o
 .rel.text.video_get_pixel_width
                0x000000001788d950        0x0 arch/arm/cpu/armv7/start.o
 .rel.text.video_get_pixel_height
                0x000000001788d950        0x0 arch/arm/cpu/armv7/start.o
 .rel.text.video_get_screen_rows
                0x000000001788d950        0x0 arch/arm/cpu/armv7/start.o
 .rel.text.video_get_screen_columns
                0x000000001788d950        0x0 arch/arm/cpu/armv7/start.o
 .rel.text.mxcfb_map_video_memory
                0x000000001788d950        0x8 arch/arm/cpu/armv7/start.o
 .rel.text.ipuv3_fb_shutdown
                0x000000001788d958        0x8 arch/arm/cpu/armv7/start.o
 .rel.text.video_hw_init
                0x000000001788d960       0x60 arch/arm/cpu/armv7/start.o
 .rel.text.ipuv3_fb_init
                0x000000001788d9c0       0x18 arch/arm/cpu/armv7/start.o
 .rel.text.ipu_pixel_clk_set_parent
                0x000000001788d9d8       0x18 arch/arm/cpu/armv7/start.o
 .rel.text.ipu_probe
                0x000000001788d9f0       0x50 arch/arm/cpu/armv7/start.o
 .rel.text.ipu_init_channel
                0x000000001788da40       0x50 arch/arm/cpu/armv7/start.o
 .rel.text.ipu_uninit_channel
                0x000000001788da90       0x48 arch/arm/cpu/armv7/start.o
 .rel.text.ipu_enable_channel
                0x000000001788dad8       0x10 arch/arm/cpu/armv7/start.o
 .rel.text.ipu_disable_channel
                0x000000001788dae8        0x8 arch/arm/cpu/armv7/start.o
 .rel.text.ipu_init_channel_buffer
                0x000000001788daf0       0x28 arch/arm/cpu/armv7/start.o
 .rel.text.ipu_set_ldb_clock
                0x000000001788db18        0x0 arch/arm/cpu/armv7/start.o
 .rel.text.ipu_clk_enabled
                0x000000001788db18        0x8 arch/arm/cpu/armv7/start.o
 .rel.text.rgb_to_yuv
                0x000000001788db20        0x8 arch/arm/cpu/armv7/start.o
 .rel.text.ipu_dc_link_event
                0x000000001788db28       0xb0 arch/arm/cpu/armv7/start.o
 .rel.text.ipu_di_sync_config.constprop.3
                0x000000001788dbd8        0x8 arch/arm/cpu/armv7/start.o
 .rel.text.ipu_dmfc_init
                0x000000001788dbe0       0x38 arch/arm/cpu/armv7/start.o
 .rel.text.ipu_dmfc_set_wait4eot
                0x000000001788dc18       0x28 arch/arm/cpu/armv7/start.o
 .rel.text.ipu_dp_init
                0x000000001788dc40       0x20 arch/arm/cpu/armv7/start.o
 .rel.text.ipu_dp_uninit
                0x000000001788dc60       0x18 arch/arm/cpu/armv7/start.o
 .rel.text.ipu_dc_init
                0x000000001788dc78       0xb0 arch/arm/cpu/armv7/start.o
 .rel.text.ipu_dp_dc_enable
                0x000000001788dd28       0xd0 arch/arm/cpu/armv7/start.o
 .rel.text.ipu_dp_dc_disable
                0x000000001788ddf8      0x108 arch/arm/cpu/armv7/start.o
 .rel.text.ipu_init_sync_panel
                0x000000001788df00       0x38 arch/arm/cpu/armv7/start.o
 .rel.text.ipu_disp_set_global_alpha
                0x000000001788df38       0x10 arch/arm/cpu/armv7/start.o
 .rel.text.ipu_disp_set_color_key
                0x000000001788df48       0x28 arch/arm/cpu/armv7/start.o
 .rel.text._input_send_keycodes
                0x000000001788df70        0x0 arch/arm/cpu/armv7/start.o
 .rel.text.input_add_tables
                0x000000001788df70        0x0 arch/arm/cpu/armv7/start.o
 .rel.text.input_stdio_register
                0x000000001788df70        0x0 arch/arm/cpu/armv7/start.o
 .rel.text.key_matrix_decode_fdt
                0x000000001788df70        0x0 arch/arm/cpu/armv7/start.o
 .rel.text.imx_thermal_get_temp
                0x000000001788df70       0x10 arch/arm/cpu/armv7/start.o
 .rel.rodata.root_info
                0x000000001788df80        0x8 arch/arm/cpu/armv7/start.o
 .rel.rodata.generic_simple_bus_ids
                0x000000001788df88       0x10 arch/arm/cpu/armv7/start.o
 .rel.rodata.imx_pinctrl_ops
                0x000000001788df98        0x8 arch/arm/cpu/armv7/start.o
 .rel.rodata.imx6_pinctrl_match
                0x000000001788dfa0       0x80 arch/arm/cpu/armv7/start.o
 .rel.rodata.if_typename_str
                0x000000001788e020       0x58 arch/arm/cpu/armv7/start.o
 .rel.rodata.names.10347
                0x000000001788e078       0x70 arch/arm/cpu/armv7/start.o
 .rel.rodata.mmc_blk_ops
                0x000000001788e0e8       0x20 arch/arm/cpu/armv7/start.o
 .rel.rodata.fsl_esdhc_ids
                0x000000001788e108       0x50 arch/arm/cpu/armv7/start.o
 .rel.rodata.fsl_esdhc_ops
                0x000000001788e158       0x18 arch/arm/cpu/armv7/start.o
 .rel.rodata.dp_csc_array
                0x000000001788e170       0x50 arch/arm/cpu/armv7/start.o
 .rel.rodata.kbd_to_ansi364
                0x000000001788e1c0        0x0 arch/arm/cpu/armv7/start.o
 .rel.rodata.imx_thermal_ops
                0x000000001788e1c0        0x8 arch/arm/cpu/armv7/start.o
 .rel.u_boot_list_2_driver_2_root_driver
                0x000000001788e1c8        0x8 arch/arm/cpu/armv7/start.o
 .rel.u_boot_list_2_uclass_2_root
                0x000000001788e1d0        0x8 arch/arm/cpu/armv7/start.o
 .rel.u_boot_list_2_driver_2_simple_bus_drv
                0x000000001788e1d8       0x10 arch/arm/cpu/armv7/start.o
 .rel.u_boot_list_2_uclass_2_simple_bus
                0x000000001788e1e8       0x10 arch/arm/cpu/armv7/start.o
 .rel.u_boot_list_2_driver_2_pinconfig_generic
                0x000000001788e1f8        0x8 arch/arm/cpu/armv7/start.o
 .rel.u_boot_list_2_uclass_2_pinconfig
                0x000000001788e200       0x10 arch/arm/cpu/armv7/start.o
 .rel.u_boot_list_2_uclass_2_pinctrl
                0x000000001788e210       0x10 arch/arm/cpu/armv7/start.o
 .rel.u_boot_list_2_driver_2_imx6_pinctrl
                0x000000001788e220       0x28 arch/arm/cpu/armv7/start.o
 .rel.u_boot_list_2_uclass_2_blk
                0x000000001788e248        0x8 arch/arm/cpu/armv7/start.o
 .rel.u_boot_list_2_driver_2_mmc
                0x000000001788e250        0x8 arch/arm/cpu/armv7/start.o
 .rel.u_boot_list_2_driver_2_mmc_blk
                0x000000001788e258       0x18 arch/arm/cpu/armv7/start.o
 .rel.u_boot_list_2_uclass_2_mmc
                0x000000001788e270        0x8 arch/arm/cpu/armv7/start.o
 .rel.u_boot_list_2_driver_2_fsl_esdhc
                0x000000001788e278       0x28 arch/arm/cpu/armv7/start.o
 .rel.data.dfu_list
                0x000000001788e2a0       0x10 arch/arm/cpu/armv7/start.o
 .rel.u_boot_list_2_cmd_2_clrlogo
                0x000000001788e2b0       0x20 arch/arm/cpu/armv7/start.o
 .rel.data.ipu_clk
                0x000000001788e2d0       0x18 arch/arm/cpu/armv7/start.o
 .rel.data.ldb_clk
                0x000000001788e2e8       0x30 arch/arm/cpu/armv7/start.o
 .rel.data.pixel_clk
                0x000000001788e318       0x70 arch/arm/cpu/armv7/start.o
 .rel.data.kbd_entry
                0x000000001788e388        0x0 arch/arm/cpu/armv7/start.o
 .rel.u_boot_list_2_uclass_2_thermal
                0x000000001788e388        0x8 arch/arm/cpu/armv7/start.o
 .rel.u_boot_list_2_driver_2_imx_thermal
                0x000000001788e390       0x18 arch/arm/cpu/armv7/start.o
 .rel.text.check_reserved
                0x000000001788e3a8       0x10 arch/arm/cpu/armv7/start.o
 .rel.text.dm_gpio_lookup_name
                0x000000001788e3b8        0x8 arch/arm/cpu/armv7/start.o
 .rel.text.gpio_direction_input
                0x000000001788e3c0        0x8 arch/arm/cpu/armv7/start.o
 .rel.text.gpio_direction_output
                0x000000001788e3c8        0x8 arch/arm/cpu/armv7/start.o
 .rel.text.dm_gpio_get_value
                0x000000001788e3d0        0x8 arch/arm/cpu/armv7/start.o
 .rel.text.dm_gpio_set_value
                0x000000001788e3d8        0x8 arch/arm/cpu/armv7/start.o
 .rel.text.dm_gpio_get_open_drain
                0x000000001788e3e0        0x0 arch/arm/cpu/armv7/start.o
 .rel.text.dm_gpio_set_open_drain
                0x000000001788e3e0        0x0 arch/arm/cpu/armv7/start.o
 .rel.text.dm_gpio_set_dir_flags
                0x000000001788e3e0        0x8 arch/arm/cpu/armv7/start.o
 .rel.text.gpio_request_tail
                0x000000001788e3e8       0x10 arch/arm/cpu/armv7/start.o
 .rel.text.gpio_get_status
                0x000000001788e3f8       0x28 arch/arm/cpu/armv7/start.o
 .rel.text.gpio_request_by_name_nodev
                0x000000001788e420        0x8 arch/arm/cpu/armv7/start.o
 .rel.text.gpio_request_by_name
                0x000000001788e428        0x8 arch/arm/cpu/armv7/start.o
 .rel.text.gpio_get_list_count
                0x000000001788e430        0x0 arch/arm/cpu/armv7/start.o
 .rel.text.gpio_request_list_by_name_nodev
                0x000000001788e430        0x0 arch/arm/cpu/armv7/start.o
 .rel.text.mxc_gpio_probe
                0x000000001788e430        0x8 arch/arm/cpu/armv7/start.o
 .rel.rodata.gpio_function
                0x000000001788e438       0x28 arch/arm/cpu/armv7/start.o
 .rel.rodata.gpio_mxc_ops
                0x000000001788e460       0x28 arch/arm/cpu/armv7/start.o
 .rel.rodata.mxc_gpio_ids
                0x000000001788e488        0x8 arch/arm/cpu/armv7/start.o
 .rel.u_boot_list_2_uclass_2_gpio
                0x000000001788e490       0x18 arch/arm/cpu/armv7/start.o
 .rel.u_boot_list_2_driver_2_gpio_mxc
                0x000000001788e4a8       0x28 arch/arm/cpu/armv7/start.o
 .rel.text.i2c_dump_msgs
                0x000000001788e4d0        0x0 arch/arm/cpu/armv7/start.o
 .rel.text.i2c_get_chip
                0x000000001788e4d0       0x10 arch/arm/cpu/armv7/start.o
 .rel.text.i2c_post_probe
                0x000000001788e4e0        0x8 arch/arm/cpu/armv7/start.o
 .rel.text.i2c_chip_ofdata_to_platdata
                0x000000001788e4e8       0x10 arch/arm/cpu/armv7/start.o
 .rel.text.wait_for_sr_state
                0x000000001788e4f8       0x18 arch/arm/cpu/armv7/start.o
 .rel.text.i2c_imx_stop
                0x000000001788e510       0x10 arch/arm/cpu/armv7/start.o
 .rel.text.mxc_i2c_set_bus_speed
                0x000000001788e520        0x8 arch/arm/cpu/armv7/start.o
 .rel.text.i2c_idle_bus
                0x000000001788e528       0x20 arch/arm/cpu/armv7/start.o
 .rel.text.mxc_i2c_probe
                0x000000001788e548       0x28 arch/arm/cpu/armv7/start.o
 .rel.text.i2c_init_transfer.constprop.4
                0x000000001788e570       0x18 arch/arm/cpu/armv7/start.o
 .rel.rodata.mxc_i2c_ids
                0x000000001788e588       0x10 arch/arm/cpu/armv7/start.o
 .rel.rodata.mxc_i2c_ops
                0x000000001788e598       0x18 arch/arm/cpu/armv7/start.o
 .rel.u_boot_list_2_driver_2_i2c_generic_chip_drv
                0x000000001788e5b0        0x8 arch/arm/cpu/armv7/start.o
 .rel.u_boot_list_2_uclass_2_i2c
                0x000000001788e5b8       0x20 arch/arm/cpu/armv7/start.o
 .rel.u_boot_list_2_uclass_2_i2c_generic
                0x000000001788e5d8        0x8 arch/arm/cpu/armv7/start.o
 .rel.u_boot_list_2_driver_2_i2c_mxc
                0x000000001788e5e0       0x20 arch/arm/cpu/armv7/start.o
 .rel.text.__mtd_next_device
                0x000000001788e600        0x0 arch/arm/cpu/armv7/start.o
 .rel.text.del_mtd_device
                0x000000001788e600        0x0 arch/arm/cpu/armv7/start.o
 .rel.text.get_mtd_device
                0x000000001788e600        0x0 arch/arm/cpu/armv7/start.o
 .rel.text.__put_mtd_device
                0x000000001788e600        0x0 arch/arm/cpu/armv7/start.o
 .rel.text.mtd_ooblayout_find_eccregion
                0x000000001788e600        0x0 arch/arm/cpu/armv7/start.o
 .rel.text.mtd_ooblayout_get_eccbytes
                0x000000001788e600        0x0 arch/arm/cpu/armv7/start.o
 .rel.text.mtd_ooblayout_set_eccbytes
                0x000000001788e600        0x0 arch/arm/cpu/armv7/start.o
 .rel.text.mtd_ooblayout_get_databytes
                0x000000001788e600        0x0 arch/arm/cpu/armv7/start.o
 .rel.text.mtd_ooblayout_set_databytes
                0x000000001788e600        0x0 arch/arm/cpu/armv7/start.o
 .rel.text.add_mtd_device
                0x000000001788e600        0x0 arch/arm/cpu/armv7/start.o
 .rel.text.mtd_arg_off
                0x000000001788e600       0x10 arch/arm/cpu/armv7/start.o
 .rel.text.mtd_arg_off_size
                0x000000001788e610       0x28 arch/arm/cpu/armv7/start.o
 .rel.text.spi_flash_write_common
                0x000000001788e638        0x8 arch/arm/cpu/armv7/start.o
 .rel.text.spi_flash_cmd_erase_ops
                0x000000001788e640        0x8 arch/arm/cpu/armv7/start.o
 .rel.text.spi_flash_cmd_write_ops
                0x000000001788e648        0x8 arch/arm/cpu/armv7/start.o
 .rel.text.spi_flash_scan
                0x000000001788e650       0x90 arch/arm/cpu/armv7/start.o
 .rel.rodata.spi_flash_ids
                0x000000001788e6e0       0xd8 arch/arm/cpu/armv7/start.o
 .rel.text.fec_phy_write
                0x000000001788e7b8        0x8 arch/arm/cpu/armv7/start.o
 .rel.text.fec_phy_read
                0x000000001788e7c0        0x8 arch/arm/cpu/armv7/start.o
 .rel.text.fecmxc_ofdata_to_platdata
                0x000000001788e7c8        0x8 arch/arm/cpu/armv7/start.o
 .rel.text.fecmxc_send
                0x000000001788e7d0        0x8 arch/arm/cpu/armv7/start.o
 .rel.text.fecmxc_init
                0x000000001788e7d8        0x8 arch/arm/cpu/armv7/start.o
 .rel.text.fecmxc_recv
                0x000000001788e7e0       0x18 arch/arm/cpu/armv7/start.o
 .rel.text.fec_get_miibus
                0x000000001788e7f8       0x30 arch/arm/cpu/armv7/start.o
 .rel.text.fecmxc_probe
                0x000000001788e828       0x18 arch/arm/cpu/armv7/start.o
 .rel.rodata.fecmxc_ids
                0x000000001788e840       0x28 arch/arm/cpu/armv7/start.o
 .rel.rodata.fecmxc_ops
                0x000000001788e868       0x38 arch/arm/cpu/armv7/start.o
 .rel.u_boot_list_2_driver_2_fecmxc_gem
                0x000000001788e8a0       0x30 arch/arm/cpu/armv7/start.o
 .rel.text.genphy_update_link
                0x000000001788e8d0       0x28 arch/arm/cpu/armv7/start.o
 .rel.text.phy_register
                0x000000001788e8f8        0x8 arch/arm/cpu/armv7/start.o
 .rel.text.get_phy_device_by_mask
                0x000000001788e900       0x18 arch/arm/cpu/armv7/start.o
 .rel.text.phy_reset
                0x000000001788e918        0x8 arch/arm/cpu/armv7/start.o
 .rel.text.phy_connect_dev
                0x000000001788e920        0x8 arch/arm/cpu/armv7/start.o
 .rel.text.phy_connect
                0x000000001788e928        0x0 arch/arm/cpu/armv7/start.o
 .rel.text.phy_get_interface_by_name
                0x000000001788e928        0x8 arch/arm/cpu/armv7/start.o
 .rel.text.phy_atheros_init
                0x000000001788e930       0x18 arch/arm/cpu/armv7/start.o
 .rel.rodata.phy_interface_strings
                0x000000001788e948       0x88 arch/arm/cpu/armv7/start.o
 .rel.data.genphy_driver
                0x000000001788e9d0       0x20 arch/arm/cpu/armv7/start.o
 .rel.data.phy_drivers
                0x000000001788e9f0       0x10 arch/arm/cpu/armv7/start.o
 .rel.data.AR8021_driver
                0x000000001788ea00       0x20 arch/arm/cpu/armv7/start.o
 .rel.data.AR8031_driver
                0x000000001788ea20       0x20 arch/arm/cpu/armv7/start.o
 .rel.data.AR8035_driver
                0x000000001788ea40       0x20 arch/arm/cpu/armv7/start.o
 .rel.text.pmic_bind_children
                0x000000001788ea60        0x8 arch/arm/cpu/armv7/start.o
 .rel.text.pfuze100_write
                0x000000001788ea68        0x8 arch/arm/cpu/armv7/start.o
 .rel.text.pfuze100_read
                0x000000001788ea70        0x8 arch/arm/cpu/armv7/start.o
 .rel.text.pfuze100_bind
                0x000000001788ea78       0x10 arch/arm/cpu/armv7/start.o
 .rel.rodata.pfuze100_ids
                0x000000001788ea88       0x18 arch/arm/cpu/armv7/start.o
 .rel.rodata.pmic_children_info
                0x000000001788eaa0       0x20 arch/arm/cpu/armv7/start.o
 .rel.u_boot_list_2_uclass_2_pmic
                0x000000001788eac0        0x8 arch/arm/cpu/armv7/start.o
 .rel.data.pfuze100_ops
                0x000000001788eac8       0x18 arch/arm/cpu/armv7/start.o
 .rel.u_boot_list_2_driver_2_pmic_pfuze100
                0x000000001788eae0       0x20 arch/arm/cpu/armv7/start.o
 .rel.text.regulator_show
                0x000000001788eb00        0x0 arch/arm/cpu/armv7/start.o
 .rel.text.regulator_pre_probe
                0x000000001788eb00       0x30 arch/arm/cpu/armv7/start.o
 .rel.text.regulator_post_bind
                0x000000001788eb30        0x8 arch/arm/cpu/armv7/start.o
 .rel.text.pfuze100_regulator_mode
                0x000000001788eb38        0x8 arch/arm/cpu/armv7/start.o
 .rel.text.pfuze100_regulator_set_enable
                0x000000001788eb40       0x10 arch/arm/cpu/armv7/start.o
 .rel.text.pfuze100_regulator_probe
                0x000000001788eb50       0x38 arch/arm/cpu/armv7/start.o
 .rel.text.pfuze100_regulator_get_enable
                0x000000001788eb88        0x8 arch/arm/cpu/armv7/start.o
 .rel.text.fixed_regulator_set_enable
                0x000000001788eb90        0x8 arch/arm/cpu/armv7/start.o
 .rel.text.fixed_regulator_ofdata_to_platdata
                0x000000001788eb98       0x20 arch/arm/cpu/armv7/start.o
 .rel.text.gpio_regulator_set_value
                0x000000001788ebb8        0x8 arch/arm/cpu/armv7/start.o
 .rel.text.gpio_regulator_ofdata_to_platdata
                0x000000001788ebc0       0x10 arch/arm/cpu/armv7/start.o
 .rel.rodata.pfuze100_regulator_ops
                0x000000001788ebd0       0x30 arch/arm/cpu/armv7/start.o
 .rel.rodata.fixed_regulator_ids
                0x000000001788ec00        0x8 arch/arm/cpu/armv7/start.o
 .rel.rodata.fixed_regulator_ops
                0x000000001788ec08       0x20 arch/arm/cpu/armv7/start.o
 .rel.rodata.gpio_regulator_ids
                0x000000001788ec28        0x8 arch/arm/cpu/armv7/start.o
 .rel.rodata.gpio_regulator_ops
                0x000000001788ec30       0x10 arch/arm/cpu/armv7/start.o
 .rel.u_boot_list_2_uclass_2_regulator
                0x000000001788ec40       0x18 arch/arm/cpu/armv7/start.o
 .rel.data.pfuze100_regulators
                0x000000001788ec58       0x88 arch/arm/cpu/armv7/start.o
 .rel.data.pfuze200_regulators
                0x000000001788ece0       0x78 arch/arm/cpu/armv7/start.o
 .rel.data.pfuze3000_regulators
                0x000000001788ed58       0x80 arch/arm/cpu/armv7/start.o
 .rel.data.pfuze_ldo_modes
                0x000000001788edd8       0x10 arch/arm/cpu/armv7/start.o
 .rel.data.pfuze_sw_modes
                0x000000001788ede8       0x48 arch/arm/cpu/armv7/start.o
 .rel.data.pfuze_swbst_modes
                0x000000001788ee30       0x20 arch/arm/cpu/armv7/start.o
 .rel.u_boot_list_2_driver_2_pfuze100_regulator
                0x000000001788ee50       0x18 arch/arm/cpu/armv7/start.o
 .rel.u_boot_list_2_driver_2_fixed_regulator
                0x000000001788ee68       0x20 arch/arm/cpu/armv7/start.o
 .rel.u_boot_list_2_driver_2_gpio_regulator
                0x000000001788ee88       0x20 arch/arm/cpu/armv7/start.o
 .rel.text.get_current
                0x000000001788eea8       0x10 arch/arm/cpu/armv7/start.o
 .rel.text.serial_register
                0x000000001788eeb8        0x8 arch/arm/cpu/armv7/start.o
 .rel.text.serial_stdio_init
                0x000000001788eec0       0x38 arch/arm/cpu/armv7/start.o
 .rel.text.serial_assign
                0x000000001788eef8       0x10 arch/arm/cpu/armv7/start.o
 .rel.text.serial_reinit_all
                0x000000001788ef08        0x0 arch/arm/cpu/armv7/start.o
 .rel.text.on_baudrate
                0x000000001788ef08       0x18 arch/arm/cpu/armv7/start.o
 .rel.text.mxc_serial_tstc
                0x000000001788ef20        0x8 arch/arm/cpu/armv7/start.o
 .rel.text.mxc_serial_initialize
                0x000000001788ef28        0x8 arch/arm/cpu/armv7/start.o
 .rel.text.default_serial_console
                0x000000001788ef30        0x8 arch/arm/cpu/armv7/start.o
 .rel.u_boot_list_2_env_clbk_2_baudrate
                0x000000001788ef38       0x10 arch/arm/cpu/armv7/start.o
 .rel.data.mxc_serial_drv
                0x000000001788ef48       0x30 arch/arm/cpu/armv7/start.o
 .rel.text.spi_set_wordlen
                0x000000001788ef78        0x0 arch/arm/cpu/armv7/start.o
 .rel.text.spi_xchg_single
                0x000000001788ef78        0x8 arch/arm/cpu/armv7/start.o
 .rel.text.spi_setup_slave
                0x000000001788ef80       0x28 arch/arm/cpu/armv7/start.o
 .rel.text.spi_claim_bus
                0x000000001788efa8       0x10 arch/arm/cpu/armv7/start.o
 .rel.text.usb_get_dr_mode
                0x000000001788efb8        0x0 arch/arm/cpu/armv7/start.o
 .rel.rodata.usb_dr_modes
                0x000000001788efb8        0x0 arch/arm/cpu/armv7/start.o
 .rel.text.usb_ether_receive
                0x000000001788efb8        0x8 arch/arm/cpu/armv7/start.o
 .rel.text.asix_eth_start
                0x000000001788efc0       0x18 arch/arm/cpu/armv7/start.o
 .rel.rodata.asix_eth_ops
                0x000000001788efd8       0x30 arch/arm/cpu/armv7/start.o
 .rel.u_boot_list_2_driver_2_asix_eth
                0x000000001788f008       0x18 arch/arm/cpu/armv7/start.o
 .rel.u_boot_list_2_usb_driver_entry_2_asix_eth
                0x000000001788f020       0x10 arch/arm/cpu/armv7/start.o
 .rel.text.usb_ep_autoconfig
                0x000000001788f030        0x8 arch/arm/cpu/armv7/start.o
 .rel.text.usb_ep_autoconfig_reset
                0x000000001788f038        0x8 arch/arm/cpu/armv7/start.o
 .rel.text.ci_ep_free_request
                0x000000001788f040        0x8 arch/arm/cpu/armv7/start.o
 .rel.text.ci_ep_alloc_request
                0x000000001788f048        0x8 arch/arm/cpu/armv7/start.o
 .rel.text.ci_flush_qtd
                0x000000001788f050        0x8 arch/arm/cpu/armv7/start.o
 .rel.text.ci_flush_qh
                0x000000001788f058        0x8 arch/arm/cpu/armv7/start.o
 .rel.text.stop_activity
                0x000000001788f060        0x8 arch/arm/cpu/armv7/start.o
 .rel.text.ep_enable
                0x000000001788f068        0x8 arch/arm/cpu/armv7/start.o
 .rel.text.ci_ep_enable
                0x000000001788f070        0x8 arch/arm/cpu/armv7/start.o
 .rel.text.ci_ep_submit_next_request
                0x000000001788f078        0x8 arch/arm/cpu/armv7/start.o
 .rel.text.ci_ep_queue
                0x000000001788f080       0x10 arch/arm/cpu/armv7/start.o
 .rel.text.udc_irq
                0x000000001788f090       0x38 arch/arm/cpu/armv7/start.o
 .rel.text.usb_gadget_handle_interrupts
                0x000000001788f0c8        0x8 arch/arm/cpu/armv7/start.o
 .rel.text.udc_disconnect
                0x000000001788f0d0        0x8 arch/arm/cpu/armv7/start.o
 .rel.text.ci_pullup
                0x000000001788f0d8        0x8 arch/arm/cpu/armv7/start.o
 .rel.text.usb_gadget_register_driver
                0x000000001788f0e0       0x40 arch/arm/cpu/armv7/start.o
 .rel.text.usb_gadget_unregister_driver
                0x000000001788f120        0x8 arch/arm/cpu/armv7/start.o
 .rel.text.dfu_usb_get_reset
                0x000000001788f128        0x8 arch/arm/cpu/armv7/start.o
 .rel.text.composite_suspend
                0x000000001788f130        0x8 arch/arm/cpu/armv7/start.o
 .rel.text.composite_resume
                0x000000001788f138        0x8 arch/arm/cpu/armv7/start.o
 .rel.text.composite_unbind
                0x000000001788f140       0x28 arch/arm/cpu/armv7/start.o
 .rel.text.composite_bind
                0x000000001788f168       0x18 arch/arm/cpu/armv7/start.o
 .rel.text.g_dnl_do_config
                0x000000001788f180       0x10 arch/arm/cpu/armv7/start.o
 .rel.text.composite_disconnect
                0x000000001788f190        0x8 arch/arm/cpu/armv7/start.o
 .rel.text.unlikely.count_ext_compat
                0x000000001788f198       0x20 arch/arm/cpu/armv7/start.o
 .rel.text.composite_setup
                0x000000001788f1b8       0xe8 arch/arm/cpu/armv7/start.o
 .rel.text.usb_composite_register
                0x000000001788f2a0       0x18 arch/arm/cpu/armv7/start.o
 .rel.text.usb_composite_unregister
                0x000000001788f2b8       0x10 arch/arm/cpu/armv7/start.o
 .rel.text.g_dnl_set_serialnumber
                0x000000001788f2c8        0x8 arch/arm/cpu/armv7/start.o
 .rel.text.g_dnl_bind
                0x000000001788f2d0       0x30 arch/arm/cpu/armv7/start.o
 .rel.text.g_dnl_detach
                0x000000001788f300        0x8 arch/arm/cpu/armv7/start.o
 .rel.text.g_dnl_trigger_detach
                0x000000001788f308        0x8 arch/arm/cpu/armv7/start.o
 .rel.text.g_dnl_clear_detach
                0x000000001788f310        0x8 arch/arm/cpu/armv7/start.o
 .rel.text.g_dnl_register
                0x000000001788f318       0x18 arch/arm/cpu/armv7/start.o
 .rel.text.g_dnl_unregister
                0x000000001788f330        0x8 arch/arm/cpu/armv7/start.o
 .rel.text.dfu_add
                0x000000001788f338       0x58 arch/arm/cpu/armv7/start.o
 .rel.text.dfu_handle
                0x000000001788f390       0x10 arch/arm/cpu/armv7/start.o
 .rel.text.dnload_request_flush
                0x000000001788f3a0        0x8 arch/arm/cpu/armv7/start.o
 .rel.text.dfu_bind
                0x000000001788f3a8       0x28 arch/arm/cpu/armv7/start.o
 .rel.text.handle_getstatus
                0x000000001788f3d0       0x28 arch/arm/cpu/armv7/start.o
 .rel.text.state_dfu_manifest_sync
                0x000000001788f3f8        0x8 arch/arm/cpu/armv7/start.o
 .rel.text.state_dfu_dnload_idle
                0x000000001788f400       0x38 arch/arm/cpu/armv7/start.o
 .rel.text.state_app_idle
                0x000000001788f438        0x8 arch/arm/cpu/armv7/start.o
 .rel.text.state_dfu_upload_idle
                0x000000001788f440       0x28 arch/arm/cpu/armv7/start.o
 .rel.text.state_dfu_manifest
                0x000000001788f468        0x8 arch/arm/cpu/armv7/start.o
 .rel.text.state_dfu_idle
                0x000000001788f470       0x48 arch/arm/cpu/armv7/start.o
 .rel.text.fsg_setup
                0x000000001788f4b8       0x18 arch/arm/cpu/armv7/start.o
 .rel.text.sleep_thread.isra.17
                0x000000001788f4d0       0x70 arch/arm/cpu/armv7/start.o
 .rel.text.do_read
                0x000000001788f540       0x20 arch/arm/cpu/armv7/start.o
 .rel.text.do_write
                0x000000001788f560       0x28 arch/arm/cpu/armv7/start.o
 .rel.text.send_status
                0x000000001788f588       0x18 arch/arm/cpu/armv7/start.o
 .rel.text.check_command.isra.18
                0x000000001788f5a0       0x10 arch/arm/cpu/armv7/start.o
 .rel.text.fsg_add
                0x000000001788f5b0       0x80 arch/arm/cpu/armv7/start.o
 .rel.text.do_set_interface
                0x000000001788f630       0x30 arch/arm/cpu/armv7/start.o
 .rel.text.fsg_main_thread
                0x000000001788f660       0x78 arch/arm/cpu/armv7/start.o
 .rel.text.fsg_bind
                0x000000001788f6d8       0x38 arch/arm/cpu/armv7/start.o
 .rel.text.fsg_init
                0x000000001788f710       0x18 arch/arm/cpu/armv7/start.o
 .rel.text.fastboot_complete
                0x000000001788f728        0x8 arch/arm/cpu/armv7/start.o
 .rel.text.get_block_size
                0x000000001788f730       0x20 arch/arm/cpu/armv7/start.o
 .rel.text.fastboot_tx_write
                0x000000001788f750       0x10 arch/arm/cpu/armv7/start.o
 .rel.text.cb_continue
                0x000000001788f760       0x18 arch/arm/cpu/armv7/start.o
 .rel.text.cb_boot
                0x000000001788f778       0x18 arch/arm/cpu/armv7/start.o
 .rel.text.cb_reboot_bootloader
                0x000000001788f790       0x18 arch/arm/cpu/armv7/start.o
 .rel.text.rx_handler_command
                0x000000001788f7a8       0x30 arch/arm/cpu/armv7/start.o
 .rel.text.fastboot_unbind
                0x000000001788f7d8       0x10 arch/arm/cpu/armv7/start.o
 .rel.text.fastboot_add
                0x000000001788f7e8       0x38 arch/arm/cpu/armv7/start.o
 .rel.text.do_bootm_on_complete
                0x000000001788f820       0x20 arch/arm/cpu/armv7/start.o
 .rel.text.fastboot_tx_write_more
                0x000000001788f840       0x28 arch/arm/cpu/armv7/start.o
 .rel.text.fastboot_bind
                0x000000001788f868       0x78 arch/arm/cpu/armv7/start.o
 .rel.text.rx_bytes_expected.isra.0
                0x000000001788f8e0       0x10 arch/arm/cpu/armv7/start.o
 .rel.text.cb_download
                0x000000001788f8f0       0x40 arch/arm/cpu/armv7/start.o
 .rel.text.rx_handler_dl_image
                0x000000001788f930       0x40 arch/arm/cpu/armv7/start.o
 .rel.text.fastboot_fifo_complete
                0x000000001788f970       0x10 arch/arm/cpu/armv7/start.o
 .rel.text.bootloader_mmc_offset
                0x000000001788f980        0x8 arch/arm/cpu/armv7/start.o
 .rel.text.do_acmd_complete
                0x000000001788f988        0x8 arch/arm/cpu/armv7/start.o
 .rel.text.cb_run_uboot_acmd
                0x000000001788f990       0x38 arch/arm/cpu/armv7/start.o
 .rel.text.cb_upload
                0x000000001788f9c8       0x30 arch/arm/cpu/armv7/start.o
 .rel.text.fastboot_set_alt
                0x000000001788f9f8       0x60 arch/arm/cpu/armv7/start.o
 .rel.text.parse_env.isra.7.constprop.13
                0x000000001788fa58       0x10 arch/arm/cpu/armv7/start.o
 .rel.text.bootloader_gpt_overlay
                0x000000001788fa68        0x8 arch/arm/cpu/armv7/start.o
 .rel.text.write_backup_gpt
                0x000000001788fa70       0x38 arch/arm/cpu/armv7/start.o
 .rel.text.fastboot_flash_add_ptn
                0x000000001788faa8       0x10 arch/arm/cpu/armv7/start.o
 .rel.text._fastboot_parts_load_from_ptable
                0x000000001788fab8       0x90 arch/arm/cpu/armv7/start.o
 .rel.text.fastboot_flash_dump_ptn
                0x000000001788fb48       0x18 arch/arm/cpu/armv7/start.o
 .rel.text.fastboot_flash_find_ptn
                0x000000001788fb60       0x10 arch/arm/cpu/armv7/start.o
 .rel.text.read_from_partition_multi
                0x000000001788fb70        0x0 arch/arm/cpu/armv7/start.o
 .rel.text.cb_erase
                0x000000001788fb70       0x98 arch/arm/cpu/armv7/start.o
 .rel.text.get_single_var
                0x000000001788fc08      0x148 arch/arm/cpu/armv7/start.o
 .rel.text.cb_getvar
                0x000000001788fd50       0xf8 arch/arm/cpu/armv7/start.o
 .rel.text.fastboot_flash_find_index
                0x000000001788fe48        0x0 arch/arm/cpu/armv7/start.o
 .rel.text.fastboot_flash_get_ptn
                0x000000001788fe48        0x0 arch/arm/cpu/armv7/start.o
 .rel.text.fastboot_flash_get_ptn_count
                0x000000001788fe48        0x0 arch/arm/cpu/armv7/start.o
 .rel.text.board_fastboot_setup
                0x000000001788fe48       0xa8 arch/arm/cpu/armv7/start.o
 .rel.text.fastboot_setup
                0x000000001788fef0       0x48 arch/arm/cpu/armv7/start.o
 .rel.text.cb_run_uboot_cmd
                0x000000001788ff38       0x28 arch/arm/cpu/armv7/start.o
 .rel.text.fastboot_run_bootmode
                0x000000001788ff60        0x8 arch/arm/cpu/armv7/start.o
 .rel.text.fastboot_fail
                0x000000001788ff68       0x10 arch/arm/cpu/armv7/start.o
 .rel.text.fastboot_okay
                0x000000001788ff78       0x10 arch/arm/cpu/armv7/start.o
 .rel.text.cb_flash
                0x000000001788ff88      0x180 arch/arm/cpu/armv7/start.o
 .rel.text.cb_reboot
                0x0000000017890108       0x28 arch/arm/cpu/armv7/start.o
 .rel.rodata.ci_ep_init
                0x0000000017890130       0x50 arch/arm/cpu/armv7/start.o
 .rel.rodata.dfu_state
                0x0000000017890180       0x50 arch/arm/cpu/armv7/start.o
 .rel.rodata.cmd_dispatch_info
                0x00000000178901d0       0xc0 arch/arm/cpu/armv7/start.o
 .rel.data.ci_ep_ops
                0x0000000017890290       0x30 arch/arm/cpu/armv7/start.o
 .rel.data.ci_udc_ops
                0x00000000178902c0        0x8 arch/arm/cpu/armv7/start.o
 .rel.data.controller
                0x00000000178902c8       0x10 arch/arm/cpu/armv7/start.o
 .rel.data.composite_driver
                0x00000000178902d8       0x38 arch/arm/cpu/armv7/start.o
 .rel.data.g_dnl_composite_strings
                0x0000000017890310        0x8 arch/arm/cpu/armv7/start.o
 .rel.data.g_dnl_driver
                0x0000000017890318       0x20 arch/arm/cpu/armv7/start.o
 .rel.data.g_dnl_string_defs
                0x0000000017890338       0x18 arch/arm/cpu/armv7/start.o
 .rel.data.g_dnl_string_tab
                0x0000000017890350        0x8 arch/arm/cpu/armv7/start.o
 .rel.u_boot_list_2_env_clbk_2_serialno
                0x0000000017890358       0x10 arch/arm/cpu/armv7/start.o
 .rel.data.dfu_generic_strings
                0x0000000017890368        0x8 arch/arm/cpu/armv7/start.o
 .rel.data.dfu_runtime_descs
                0x0000000017890370        0x8 arch/arm/cpu/armv7/start.o
 .rel.data.dfu_strings
                0x0000000017890378        0x8 arch/arm/cpu/armv7/start.o
 .rel.data.strings_dfu_generic
                0x0000000017890380        0x8 arch/arm/cpu/armv7/start.o
 .rel.data.stringtab_dfu_generic
                0x0000000017890388        0x8 arch/arm/cpu/armv7/start.o
 .rel.u_boot_list_2_g_dnl_bind_callbacks_2___usb_function_name_usb_dnl_dfu
                0x0000000017890390       0x10 arch/arm/cpu/armv7/start.o
 .rel.data.fsg_fs_function
                0x00000000178903a0       0x18 arch/arm/cpu/armv7/start.o
 .rel.data.fsg_hs_function
                0x00000000178903b8       0x18 arch/arm/cpu/armv7/start.o
 .rel.data.fsg_strings
                0x00000000178903d0        0x8 arch/arm/cpu/armv7/start.o
 .rel.data.fsg_strings_array
                0x00000000178903d8        0x8 arch/arm/cpu/armv7/start.o
 .rel.data.fsg_stringtab
                0x00000000178903e0        0x8 arch/arm/cpu/armv7/start.o
 .rel.u_boot_list_2_g_dnl_bind_callbacks_2___usb_function_name_usb_dnl_ums
                0x00000000178903e8       0x10 arch/arm/cpu/armv7/start.o
 .rel.data.fastboot_common_var
                0x00000000178903f8       0x68 arch/arm/cpu/armv7/start.o
 .rel.data.fastboot_string_defs
                0x0000000017890460        0x8 arch/arm/cpu/armv7/start.o
 .rel.data.fastboot_strings
                0x0000000017890468        0x8 arch/arm/cpu/armv7/start.o
 .rel.data.fb_ext_prop
                0x0000000017890470       0x10 arch/arm/cpu/armv7/start.o
 .rel.data.fb_fs_function
                0x0000000017890480       0x18 arch/arm/cpu/armv7/start.o
 .rel.data.fb_hs_function
                0x0000000017890498       0x18 arch/arm/cpu/armv7/start.o
 .rel.data.fb_os_desc
                0x00000000178904b0        0x8 arch/arm/cpu/armv7/start.o
 .rel.data.fb_os_desc_table
                0x00000000178904b8        0x8 arch/arm/cpu/armv7/start.o
 .rel.data.fb_ss_function
                0x00000000178904c0       0x28 arch/arm/cpu/armv7/start.o
 .rel.data.stringtab_fastboot
                0x00000000178904e8        0x8 arch/arm/cpu/armv7/start.o
 .rel.u_boot_list_2_g_dnl_bind_callbacks_2___usb_function_name_usb_dnl_fastboot
                0x00000000178904f0       0x10 arch/arm/cpu/armv7/start.o
 .rel.text.usb_child_post_bind
                0x0000000017890500       0x10 arch/arm/cpu/armv7/start.o
 .rel.text.usb_disable_asynch
                0x0000000017890510        0x8 arch/arm/cpu/armv7/start.o
 .rel.text.usb_stop
                0x0000000017890518        0x8 arch/arm/cpu/armv7/start.o
 .rel.text.usb_scan_device
                0x0000000017890520       0x20 arch/arm/cpu/armv7/start.o
 .rel.text.usb_scan_bus.isra.3
                0x0000000017890540       0x20 arch/arm/cpu/armv7/start.o
 .rel.text.usb_init
                0x0000000017890560       0x38 arch/arm/cpu/armv7/start.o
 .rel.text.ehci_td_buffer
                0x0000000017890598        0x8 arch/arm/cpu/armv7/start.o
 .rel.text.ehci_shutdown
                0x00000000178905a0        0x8 arch/arm/cpu/armv7/start.o
 .rel.text.disable_periodic.isra.1
                0x00000000178905a8        0x8 arch/arm/cpu/armv7/start.o
 .rel.text.enable_periodic.isra.2
                0x00000000178905b0        0x8 arch/arm/cpu/armv7/start.o
 .rel.text._ehci_destroy_int_queue
                0x00000000178905b8        0x8 arch/arm/cpu/armv7/start.o
 .rel.text.ehci_submit_async
                0x00000000178905c0       0x30 arch/arm/cpu/armv7/start.o
 .rel.text._ehci_create_int_queue.isra.5
                0x00000000178905f0       0x10 arch/arm/cpu/armv7/start.o
 .rel.text.ehci_submit_int_msg
                0x0000000017890600        0x8 arch/arm/cpu/armv7/start.o
 .rel.text.ehci_submit_control_msg
                0x0000000017890608       0x28 arch/arm/cpu/armv7/start.o
 .rel.text.ehci_register
                0x0000000017890630       0x38 arch/arm/cpu/armv7/start.o
 .rel.text.usb_phy_mode
                0x0000000017890668        0x0 arch/arm/cpu/armv7/start.o
 .rel.text.ehci_mx6_common_init
                0x0000000017890668        0x8 arch/arm/cpu/armv7/start.o
 .rel.text.ehci_usb_probe
                0x0000000017890670       0x30 arch/arm/cpu/armv7/start.o
 .rel.text.mx6_init_after_reset
                0x00000000178906a0       0x10 arch/arm/cpu/armv7/start.o
 .rel.text.ehci_usb_ofdata_to_platdata
                0x00000000178906b0       0x28 arch/arm/cpu/armv7/start.o
 .rel.rodata.mx6_ehci_ops
                0x00000000178906d8       0x10 arch/arm/cpu/armv7/start.o
 .rel.rodata.mx6_usb_ids
                0x00000000178906e8        0x8 arch/arm/cpu/armv7/start.o
 .rel.u_boot_list_2_driver_2_usb_dev_generic_drv
                0x00000000178906f0        0x8 arch/arm/cpu/armv7/start.o
 .rel.u_boot_list_2_uclass_2_usb
                0x00000000178906f8       0x20 arch/arm/cpu/armv7/start.o
 .rel.u_boot_list_2_uclass_2_usb_dev_generic
                0x0000000017890718        0x8 arch/arm/cpu/armv7/start.o
 .rel.data.ehci_usb_ops
                0x0000000017890720       0x38 arch/arm/cpu/armv7/start.o
 .rel.u_boot_list_2_driver_2_usb_mx6
                0x0000000017890758       0x30 arch/arm/cpu/armv7/start.o
 .rel.text.set_default_env
                0x0000000017890788       0x28 arch/arm/cpu/armv7/start.o
 .rel.text.set_default_vars
                0x00000000178907b0       0x10 arch/arm/cpu/armv7/start.o
 .rel.text.env_import
                0x00000000178907c0       0x28 arch/arm/cpu/armv7/start.o
 .rel.text.env_export
                0x00000000178907e8       0x18 arch/arm/cpu/armv7/start.o
 .rel.text.env_relocate
                0x0000000017890800        0x8 arch/arm/cpu/armv7/start.o
 .rel.text.env_complete
                0x0000000017890808       0x18 arch/arm/cpu/armv7/start.o
 .rel.text.env_driver_lookup
                0x0000000017890820       0x10 arch/arm/cpu/armv7/start.o
 .rel.text.env_get_char
                0x0000000017890830        0x8 arch/arm/cpu/armv7/start.o
 .rel.text.env_load
                0x0000000017890838       0x18 arch/arm/cpu/armv7/start.o
 .rel.text.env_save
                0x0000000017890850       0x18 arch/arm/cpu/armv7/start.o
 .rel.text.env_init
                0x0000000017890868        0x8 arch/arm/cpu/armv7/start.o
 .rel.text.regex_callback
                0x0000000017890870       0x10 arch/arm/cpu/armv7/start.o
 .rel.text.env_attr_lookup
                0x0000000017890880        0x8 arch/arm/cpu/armv7/start.o
 .rel.text.find_env_callback
                0x0000000017890888       0x10 arch/arm/cpu/armv7/start.o
 .rel.text.on_callbacks
                0x0000000017890898       0x20 arch/arm/cpu/armv7/start.o
 .rel.text.set_callback
                0x00000000178908b8        0x8 arch/arm/cpu/armv7/start.o
 .rel.text.env_callback_init
                0x00000000178908c0       0x20 arch/arm/cpu/armv7/start.o
 .rel.text.skip_num
                0x00000000178908e0        0x8 arch/arm/cpu/armv7/start.o
 .rel.text.on_flags
                0x00000000178908e8       0x20 arch/arm/cpu/armv7/start.o
 .rel.text.env_flags_parse_vartype
                0x0000000017890908       0x10 arch/arm/cpu/armv7/start.o
 .rel.text.env_flags_parse_varaccess
                0x0000000017890918       0x10 arch/arm/cpu/armv7/start.o
 .rel.text.set_flags
                0x0000000017890928       0x10 arch/arm/cpu/armv7/start.o
 .rel.text.env_flags_parse_varaccess_from_binflags
                0x0000000017890938        0x0 arch/arm/cpu/armv7/start.o
 .rel.text.env_flags_init
                0x0000000017890938       0x30 arch/arm/cpu/armv7/start.o
 .rel.text.env_flags_validate
                0x0000000017890968       0x68 arch/arm/cpu/armv7/start.o
 .rel.text.mmc_get_env_addr
                0x00000000178909d0       0x20 arch/arm/cpu/armv7/start.o
 .rel.text.fini_mmc_for_env.isra.0
                0x00000000178909f0        0x8 arch/arm/cpu/armv7/start.o
 .rel.text.init_mmc_for_env
                0x00000000178909f8       0x28 arch/arm/cpu/armv7/start.o
 .rel.text.env_mmc_save
                0x0000000017890a20       0x20 arch/arm/cpu/armv7/start.o
 .rel.text.env_mmc_load
                0x0000000017890a40        0x8 arch/arm/cpu/armv7/start.o
 .rel.data.env_htab
                0x0000000017890a48        0x8 arch/arm/cpu/armv7/start.o
 .rel.u_boot_list_2_env_clbk_2_callbacks
                0x0000000017890a50       0x10 arch/arm/cpu/armv7/start.o
 .rel.u_boot_list_2_env_clbk_2_flags
                0x0000000017890a60       0x10 arch/arm/cpu/armv7/start.o
 .rel.u_boot_list_2_env_driver_2_mmc
                0x0000000017890a70       0x18 arch/arm/cpu/armv7/start.o
 .rel.text.fs_probe_unsupported
                0x0000000017890a88        0x8 arch/arm/cpu/armv7/start.o
 .rel.text.fs_get_info
                0x0000000017890a90        0x8 arch/arm/cpu/armv7/start.o
 .rel.text.fs_close
                0x0000000017890a98        0x8 arch/arm/cpu/armv7/start.o
 .rel.text.fs_set_blk_dev
                0x0000000017890aa0       0x30 arch/arm/cpu/armv7/start.o
 .rel.text.fs_set_blk_dev_with_part
                0x0000000017890ad0       0x20 arch/arm/cpu/armv7/start.o
 .rel.text.fs_uuid
                0x0000000017890af0        0x0 arch/arm/cpu/armv7/start.o
 .rel.text.fs_ls
                0x0000000017890af0        0x8 arch/arm/cpu/armv7/start.o
 .rel.text.fs_exists
                0x0000000017890af8        0x8 arch/arm/cpu/armv7/start.o
 .rel.text.fs_size
                0x0000000017890b00        0x8 arch/arm/cpu/armv7/start.o
 .rel.text.fs_read
                0x0000000017890b08        0x8 arch/arm/cpu/armv7/start.o
 .rel.text.fs_write
                0x0000000017890b10       0x10 arch/arm/cpu/armv7/start.o
 .rel.text.fs_opendir
                0x0000000017890b20       0x20 arch/arm/cpu/armv7/start.o
 .rel.text.fs_readdir
                0x0000000017890b40       0x10 arch/arm/cpu/armv7/start.o
 .rel.text.fs_closedir
                0x0000000017890b50        0x8 arch/arm/cpu/armv7/start.o
 .rel.text.fs_ls_generic
                0x0000000017890b58       0x20 arch/arm/cpu/armv7/start.o
 .rel.text.do_size
                0x0000000017890b78        0x8 arch/arm/cpu/armv7/start.o
 .rel.text.do_load
                0x0000000017890b80       0x50 arch/arm/cpu/armv7/start.o
 .rel.text.do_ls
                0x0000000017890bd0        0x8 arch/arm/cpu/armv7/start.o
 .rel.text.do_save
                0x0000000017890bd8       0x28 arch/arm/cpu/armv7/start.o
 .rel.text.do_fs_uuid
                0x0000000017890c00        0x0 arch/arm/cpu/armv7/start.o
 .rel.text.do_fs_type
                0x0000000017890c00       0x10 arch/arm/cpu/armv7/start.o
 .rel.text.get_fs
                0x0000000017890c10        0x8 arch/arm/cpu/armv7/start.o
 .rel.text.ext4fs_free_node
                0x0000000017890c18        0x8 arch/arm/cpu/armv7/start.o
 .rel.text.ext4fs_read_file
                0x0000000017890c20        0x8 arch/arm/cpu/armv7/start.o
 .rel.text.ext4fs_ls
                0x0000000017890c28       0x10 arch/arm/cpu/armv7/start.o
 .rel.text.ext4fs_read
                0x0000000017890c38       0x10 arch/arm/cpu/armv7/start.o
 .rel.text.ext4_read_file
                0x0000000017890c48        0x8 arch/arm/cpu/armv7/start.o
 .rel.text.ext4fs_uuid
                0x0000000017890c50        0x8 arch/arm/cpu/armv7/start.o
 .rel.text.put_ext4
                0x0000000017890c58       0x20 arch/arm/cpu/armv7/start.o
 .rel.text.ext4fs_set_block_bmap
                0x0000000017890c78        0x8 arch/arm/cpu/armv7/start.o
 .rel.text.ext4fs_reset_block_bmap
                0x0000000017890c80        0x8 arch/arm/cpu/armv7/start.o
 .rel.text.ext4fs_set_inode_bmap
                0x0000000017890c88        0x8 arch/arm/cpu/armv7/start.o
 .rel.text.ext4fs_reset_inode_bmap
                0x0000000017890c90        0x8 arch/arm/cpu/armv7/start.o
 .rel.text.ext4fs_get_new_blk_no
                0x0000000017890c98       0x10 arch/arm/cpu/armv7/start.o
 .rel.text.ext4fs_get_new_inode_no
                0x0000000017890ca8       0x10 arch/arm/cpu/armv7/start.o
 .rel.text.ext4fs_allocate_blocks
                0x0000000017890cb8       0x30 arch/arm/cpu/armv7/start.o
 .rel.text.ext4fs_iget
                0x0000000017890ce8        0x8 arch/arm/cpu/armv7/start.o
 .rel.text.read_allocated_block
                0x0000000017890cf0       0xb0 arch/arm/cpu/armv7/start.o
 .rel.text.ext4fs_update_parent_dentry
                0x0000000017890da0       0x48 arch/arm/cpu/armv7/start.o
 .rel.text.search_dir
                0x0000000017890de8       0x10 arch/arm/cpu/armv7/start.o
 .rel.text.ext4fs_get_parent_inode_num
                0x0000000017890df8       0x28 arch/arm/cpu/armv7/start.o
 .rel.text.ext4fs_filename_unlink
                0x0000000017890e20       0x20 arch/arm/cpu/armv7/start.o
 .rel.text.ext4fs_reinit_global
                0x0000000017890e40       0x48 arch/arm/cpu/armv7/start.o
 .rel.text.ext4fs_close
                0x0000000017890e88       0x10 arch/arm/cpu/armv7/start.o
 .rel.text.ext4fs_iterate_dir
                0x0000000017890e98       0x30 arch/arm/cpu/armv7/start.o
 .rel.text.ext4fs_find_file1
                0x0000000017890ec8       0x10 arch/arm/cpu/armv7/start.o
 .rel.text.ext4fs_find_file
                0x0000000017890ed8        0x8 arch/arm/cpu/armv7/start.o
 .rel.text.ext4fs_open
                0x0000000017890ee0       0x10 arch/arm/cpu/armv7/start.o
 .rel.text.ext4fs_mount
                0x0000000017890ef0       0x10 arch/arm/cpu/armv7/start.o
 .rel.text.ext4fs_set_blk_dev
                0x0000000017890f00       0x10 arch/arm/cpu/armv7/start.o
 .rel.text.ext4fs_devread
                0x0000000017890f10        0x8 arch/arm/cpu/armv7/start.o
 .rel.text.ext4fs_update
                0x0000000017890f18       0x10 arch/arm/cpu/armv7/start.o
 .rel.text.ext4fs_get_bgdtable
                0x0000000017890f28        0x8 arch/arm/cpu/armv7/start.o
 .rel.text.ext4fs_deinit
                0x0000000017890f30        0x8 arch/arm/cpu/armv7/start.o
 .rel.text.ext4fs_init
                0x0000000017890f38       0x10 arch/arm/cpu/armv7/start.o
 .rel.text.ext4fs_write
                0x0000000017890f48       0x60 arch/arm/cpu/armv7/start.o
 .rel.text.ext4_write_file
                0x0000000017890fa8       0x10 arch/arm/cpu/armv7/start.o
 .rel.text.ext4fs_dump_metadata
                0x0000000017890fb8        0x8 arch/arm/cpu/armv7/start.o
 .rel.text.ext4fs_free_journal
                0x0000000017890fc0       0x28 arch/arm/cpu/armv7/start.o
 .rel.text.ext4fs_log_gdt
                0x0000000017890fe8       0x10 arch/arm/cpu/armv7/start.o
 .rel.text.ext4fs_log_journal
                0x0000000017890ff8       0x20 arch/arm/cpu/armv7/start.o
 .rel.text.ext4fs_put_metadata
                0x0000000017891018       0x20 arch/arm/cpu/armv7/start.o
 .rel.text.print_revoke_blks
                0x0000000017891038        0x0 arch/arm/cpu/armv7/start.o
 .rel.text.ext4fs_push_revoke_blk
                0x0000000017891038       0x28 arch/arm/cpu/armv7/start.o
 .rel.text.ext4fs_free_revoke_blks
                0x0000000017891060       0x18 arch/arm/cpu/armv7/start.o
 .rel.text.check_blknr_for_revoke
                0x0000000017891078        0x8 arch/arm/cpu/armv7/start.o
 .rel.text.recover_transaction
                0x0000000017891080       0x10 arch/arm/cpu/armv7/start.o
 .rel.text.print_jrnl_status
                0x0000000017891090       0x10 arch/arm/cpu/armv7/start.o
 .rel.text.ext4fs_check_journal_state
                0x00000000178910a0       0x18 arch/arm/cpu/armv7/start.o
 .rel.text.ext4fs_init_journal
                0x00000000178910b8       0x38 arch/arm/cpu/armv7/start.o
 .rel.text.ext4fs_update_journal
                0x00000000178910f0       0x20 arch/arm/cpu/armv7/start.o
 .rel.text.ext2fs_crc16
                0x0000000017891110        0x8 arch/arm/cpu/armv7/start.o
 .rel.text.downcase
                0x0000000017891118        0x8 arch/arm/cpu/armv7/start.o
 .rel.text.disk_read
                0x0000000017891120       0x10 arch/arm/cpu/armv7/start.o
 .rel.text.get_cluster
                0x0000000017891130        0x8 arch/arm/cpu/armv7/start.o
 .rel.text.read_bootsectandvi
                0x0000000017891138       0x20 arch/arm/cpu/armv7/start.o
 .rel.text.fat_itr_root
                0x0000000017891158       0x10 arch/arm/cpu/armv7/start.o
 .rel.text.disk_write
                0x0000000017891168       0x20 arch/arm/cpu/armv7/start.o
 .rel.text.flush_dirty_fat_buffer
                0x0000000017891188        0x8 arch/arm/cpu/armv7/start.o
 .rel.text.get_fatent
                0x0000000017891190        0x8 arch/arm/cpu/armv7/start.o
 .rel.text.set_cluster
                0x0000000017891198        0x8 arch/arm/cpu/armv7/start.o
 .rel.text.set_name
                0x00000000178911a0        0x8 arch/arm/cpu/armv7/start.o
 .rel.text.check_overflow
                0x00000000178911a8        0x8 arch/arm/cpu/armv7/start.o
 .rel.text.flush_dir_table.constprop.7
                0x00000000178911b0       0x28 arch/arm/cpu/armv7/start.o
 .rel.text.do_fat_write
                0x00000000178911d8       0x80 arch/arm/cpu/armv7/start.o
 .rel.text.fat_set_blk_dev
                0x0000000017891258       0x28 arch/arm/cpu/armv7/start.o
 .rel.text.fat_register_device
                0x0000000017891280        0x0 arch/arm/cpu/armv7/start.o
 .rel.text.file_fat_detectfs
                0x0000000017891280       0xb0 arch/arm/cpu/armv7/start.o
 .rel.text.file_fat_read_at
                0x0000000017891330       0x18 arch/arm/cpu/armv7/start.o
 .rel.text.fat_read_file
                0x0000000017891348        0x8 arch/arm/cpu/armv7/start.o
 .rel.text.file_fat_write
                0x0000000017891350       0x10 arch/arm/cpu/armv7/start.o
 .rel.text.fs_devread
                0x0000000017891360       0x30 arch/arm/cpu/armv7/start.o
 .rel.data.fstypes
                0x0000000017891390      0x100 arch/arm/cpu/armv7/start.o
 .rel.text.efi_uc_destroy
                0x0000000017891490        0x8 arch/arm/cpu/armv7/start.o
 .rel.text.efi_uc_init
                0x0000000017891498        0x8 arch/arm/cpu/armv7/start.o
 .rel.text.check_node_type
                0x00000000178914a0       0x10 arch/arm/cpu/armv7/start.o
 .rel.text.efi_uc_start
                0x00000000178914b0        0x8 arch/arm/cpu/armv7/start.o
 .rel.text.efi_uc_supported
                0x00000000178914b8        0x8 arch/arm/cpu/armv7/start.o
 .rel.text.disconnect_child
                0x00000000178914c0        0x8 arch/arm/cpu/armv7/start.o
 .rel.text.efi_uc_stop
                0x00000000178914c8       0x20 arch/arm/cpu/armv7/start.o
 .rel.text.efi_driver_init
                0x00000000178914e8       0x40 arch/arm/cpu/armv7/start.o
 .rel.text.efi_bl_bind
                0x0000000017891528       0x10 arch/arm/cpu/armv7/start.o
 .rel.text.efi_load_pe
                0x0000000017891538       0xb8 arch/arm/cpu/armv7/start.o
 .rel.text.indent_string
                0x00000000178915f0        0x0 arch/arm/cpu/armv7/start.o
 .rel.text.__efi_entry_check
                0x00000000178915f0       0x18 arch/arm/cpu/armv7/start.o
 .rel.text.__efi_exit_check
                0x0000000017891608       0x10 arch/arm/cpu/armv7/start.o
 .rel.text.efi_get_next_monotonic_count
                0x0000000017891618        0x8 arch/arm/cpu/armv7/start.o
 .rel.text.efi_start_image
                0x0000000017891620       0x18 arch/arm/cpu/armv7/start.o
 .rel.text.efi_close_event
                0x0000000017891638        0x8 arch/arm/cpu/armv7/start.o
 .rel.text.efi_restore_tpl
                0x0000000017891640        0x8 arch/arm/cpu/armv7/start.o
 .rel.text.efi_raise_tpl
                0x0000000017891648        0x8 arch/arm/cpu/armv7/start.o
 .rel.text.efi_save_gd
                0x0000000017891650        0x8 arch/arm/cpu/armv7/start.o
 .rel.text.efi_restore_gd
                0x0000000017891658        0x8 arch/arm/cpu/armv7/start.o
 .rel.text.__efi_nesting
                0x0000000017891660        0x0 arch/arm/cpu/armv7/start.o
 .rel.text.__efi_nesting_inc
                0x0000000017891660        0x0 arch/arm/cpu/armv7/start.o
 .rel.text.__efi_nesting_dec
                0x0000000017891660        0x0 arch/arm/cpu/armv7/start.o
 .rel.text.efi_signal_event
                0x0000000017891660        0x8 arch/arm/cpu/armv7/start.o
 .rel.text.efi_exit_boot_services
                0x0000000017891668       0x20 arch/arm/cpu/armv7/start.o
 .rel.text.efi_signal_event_ext
                0x0000000017891688        0x8 arch/arm/cpu/armv7/start.o
 .rel.text.efi_add_handle
                0x0000000017891690        0x8 arch/arm/cpu/armv7/start.o
 .rel.text.efi_create_event
                0x0000000017891698        0x8 arch/arm/cpu/armv7/start.o
 .rel.text.efi_timer_check
                0x00000000178916a0        0x8 arch/arm/cpu/armv7/start.o
 .rel.text.efi_check_event
                0x00000000178916a8        0x8 arch/arm/cpu/armv7/start.o
 .rel.text.efi_wait_for_event
                0x00000000178916b0       0x10 arch/arm/cpu/armv7/start.o
 .rel.text.efi_set_timer
                0x00000000178916c0        0x8 arch/arm/cpu/armv7/start.o
 .rel.text.efi_search_obj
                0x00000000178916c8        0x8 arch/arm/cpu/armv7/start.o
 .rel.text.efi_locate_protocol
                0x00000000178916d0        0x8 arch/arm/cpu/armv7/start.o
 .rel.text.efi_locate_handle
                0x00000000178916d8        0x8 arch/arm/cpu/armv7/start.o
 .rel.text.efi_locate_device_path
                0x00000000178916e0        0x8 arch/arm/cpu/armv7/start.o
 .rel.text.efi_disconnect_controller
                0x00000000178916e8        0x8 arch/arm/cpu/armv7/start.o
 .rel.text.efi_bind_controller
                0x00000000178916f0        0x8 arch/arm/cpu/armv7/start.o
 .rel.text.efi_connect_controller
                0x00000000178916f8        0x8 arch/arm/cpu/armv7/start.o
 .rel.text.efi_add_protocol
                0x0000000017891700        0x8 arch/arm/cpu/armv7/start.o
 .rel.text.efi_install_configuration_table
                0x0000000017891708       0x10 arch/arm/cpu/armv7/start.o
 .rel.text.efi_setup_loaded_image
                0x0000000017891718       0x38 arch/arm/cpu/armv7/start.o
 .rel.text.efi_load_image_from_path
                0x0000000017891750       0x10 arch/arm/cpu/armv7/start.o
 .rel.text.efi_load_image
                0x0000000017891760        0x8 arch/arm/cpu/armv7/start.o
 .rel.text.efi_runtime_relocate
                0x0000000017891768       0x28 arch/arm/cpu/armv7/start.o
 .rel.text.efi_set_virtual_address_map
                0x0000000017891790       0x18 arch/arm/cpu/armv7/start.o
 .rel.text.efi_add_runtime_mmio
                0x00000000178917a8        0x0 arch/arm/cpu/armv7/start.o
 .rel.text.efi_cout_enable_cursor
                0x00000000178917a8        0x8 arch/arm/cpu/armv7/start.o
 .rel.text.efi_cout_set_cursor_position
                0x00000000178917b0       0x10 arch/arm/cpu/armv7/start.o
 .rel.text.efi_cout_clear_screen
                0x00000000178917c0        0x8 arch/arm/cpu/armv7/start.o
 .rel.text.efi_cout_set_attribute
                0x00000000178917c8       0x18 arch/arm/cpu/armv7/start.o
 .rel.text.efi_cout_output_string
                0x00000000178917e0       0x40 arch/arm/cpu/armv7/start.o
 .rel.text.efi_console_timer_notify
                0x0000000017891820        0x8 arch/arm/cpu/armv7/start.o
 .rel.text.efi_cout_set_mode
                0x0000000017891828        0x8 arch/arm/cpu/armv7/start.o
 .rel.text.efi_cout_query_mode
                0x0000000017891830       0x30 arch/arm/cpu/armv7/start.o
 .rel.text.efi_console_register
                0x0000000017891860       0x70 arch/arm/cpu/armv7/start.o
 .rel.text.efi_find_free_memory
                0x00000000178918d0        0x8 arch/arm/cpu/armv7/start.o
 .rel.text.efi_add_memory_map
                0x00000000178918d8       0x10 arch/arm/cpu/armv7/start.o
 .rel.text.efi_get_memory_map
                0x00000000178918e8        0x8 arch/arm/cpu/armv7/start.o
 .rel.text.efi_memory_init
                0x00000000178918f0       0x10 arch/arm/cpu/armv7/start.o
 .rel.text.efi_convert_single_device_node_to_text
                0x0000000017891900       0x98 arch/arm/cpu/armv7/start.o
 .rel.text.dp_fill
                0x0000000017891998        0x8 arch/arm/cpu/armv7/start.o
 .rel.text.find_obj
                0x00000000178919a0       0x10 arch/arm/cpu/armv7/start.o
 .rel.text.efi_dp_append
                0x00000000178919b0        0x0 arch/arm/cpu/armv7/start.o
 .rel.text.efi_dp_append_node
                0x00000000178919b0        0x8 arch/arm/cpu/armv7/start.o
 .rel.text.efi_dp_from_dev
                0x00000000178919b8        0x0 arch/arm/cpu/armv7/start.o
 .rel.text.efi_dp_from_part
                0x00000000178919b8        0x8 arch/arm/cpu/armv7/start.o
 .rel.text.efi_dp_from_file
                0x00000000178919c0        0x8 arch/arm/cpu/armv7/start.o
 .rel.text.efi_dp_from_eth
                0x00000000178919c8        0x8 arch/arm/cpu/armv7/start.o
 .rel.text.efi_dp_from_mem
                0x00000000178919d0        0x8 arch/arm/cpu/armv7/start.o
 .rel.text.efi_file_getinfo
                0x00000000178919d8        0x8 arch/arm/cpu/armv7/start.o
 .rel.text.file_open
                0x00000000178919e0       0x28 arch/arm/cpu/armv7/start.o
 .rel.text.efi_file_from_path
                0x0000000017891a08        0x8 arch/arm/cpu/armv7/start.o
 .rel.text.efi_simple_file_system
                0x0000000017891a10        0x8 arch/arm/cpu/armv7/start.o
 .rel.text.efi_to_native
                0x0000000017891a18        0x8 arch/arm/cpu/armv7/start.o
 .rel.text.parse_attr.part.1
                0x0000000017891a20       0x20 arch/arm/cpu/armv7/start.o
 .rel.text.efi_get_variable
                0x0000000017891a40       0x18 arch/arm/cpu/armv7/start.o
 .rel.text.efi_set_variable
                0x0000000017891a58       0x48 arch/arm/cpu/armv7/start.o
 .rel.text.get_var.constprop.0
                0x0000000017891aa0       0x10 arch/arm/cpu/armv7/start.o
 .rel.text.efi_bootmgr_load
                0x0000000017891ab0       0x30 arch/arm/cpu/armv7/start.o
 .rel.text.efi_watchdog_timer_notify
                0x0000000017891ae0       0x10 arch/arm/cpu/armv7/start.o
 .rel.text.efi_set_watchdog
                0x0000000017891af0        0x8 arch/arm/cpu/armv7/start.o
 .rel.text.efi_watchdog_register
                0x0000000017891af8       0x20 arch/arm/cpu/armv7/start.o
 .rel.text.efi_disk_add_dev.isra.0.part.1
                0x0000000017891b18       0x38 arch/arm/cpu/armv7/start.o
 .rel.text.efi_fs_from_path
                0x0000000017891b50        0x8 arch/arm/cpu/armv7/start.o
 .rel.text.efi_disk_create_partitions
                0x0000000017891b58       0x18 arch/arm/cpu/armv7/start.o
 .rel.text.efi_disk_register
                0x0000000017891b70       0x20 arch/arm/cpu/armv7/start.o
 .rel.text.efi_net_push
                0x0000000017891b90       0x10 arch/arm/cpu/armv7/start.o
 .rel.text.efi_network_timer_notify
                0x0000000017891ba0       0x18 arch/arm/cpu/armv7/start.o
 .rel.text.efi_net_get_status
                0x0000000017891bb8       0x10 arch/arm/cpu/armv7/start.o
 .rel.text.efi_net_transmit
                0x0000000017891bc8        0x8 arch/arm/cpu/armv7/start.o
 .rel.text.efi_net_receive
                0x0000000017891bd0       0x18 arch/arm/cpu/armv7/start.o
 .rel.text.efi_net_set_dhcp_ack
                0x0000000017891be8        0x8 arch/arm/cpu/armv7/start.o
 .rel.text.efi_net_register
                0x0000000017891bf0       0xb8 arch/arm/cpu/armv7/start.o
 .rel.text.efi_smbios_register
                0x0000000017891ca8        0x8 arch/arm/cpu/armv7/start.o
 .rel.text.crc7
                0x0000000017891cb0        0x0 arch/arm/cpu/armv7/start.o
 .rel.text.crc16_ccitt
                0x0000000017891cb0        0x8 arch/arm/cpu/armv7/start.o
 .rel.text.smbios_write_type3
                0x0000000017891cb8        0x8 arch/arm/cpu/armv7/start.o
 .rel.text.smbios_write_type2
                0x0000000017891cc0       0x10 arch/arm/cpu/armv7/start.o
 .rel.text.smbios_write_type0
                0x0000000017891cd0       0x18 arch/arm/cpu/armv7/start.o
 .rel.text.smbios_write_type1
                0x0000000017891ce8       0x18 arch/arm/cpu/armv7/start.o
 .rel.text.smbios_write_type4
                0x0000000017891d00        0x8 arch/arm/cpu/armv7/start.o
 .rel.text.write_smbios_table
                0x0000000017891d08       0x18 arch/arm/cpu/armv7/start.o
 .rel.text.initcall_run_list
                0x0000000017891d20        0x8 arch/arm/cpu/armv7/start.o
 .rel.text.lmb_alloc_base
                0x0000000017891d28        0x8 arch/arm/cpu/armv7/start.o
 .rel.text.list_sort
                0x0000000017891d30        0x8 arch/arm/cpu/armv7/start.o
 .rel.text.inflate_fast
                0x0000000017891d38       0x18 arch/arm/cpu/armv7/start.o
 .rel.text.inflate_table
                0x0000000017891d50       0x20 arch/arm/cpu/armv7/start.o
 .rel.text.inflateInit2_
                0x0000000017891d70       0x10 arch/arm/cpu/armv7/start.o
 .rel.text.inflate
                0x0000000017891d80      0x188 arch/arm/cpu/armv7/start.o
 .rel.text.gzip_parse_header
                0x0000000017891f08       0x10 arch/arm/cpu/armv7/start.o
 .rel.text.zunzip
                0x0000000017891f18       0x28 arch/arm/cpu/armv7/start.o
 .rel.text.fdt_next_tag
                0x0000000017891f40       0x48 arch/arm/cpu/armv7/start.o
 .rel.text.fdt_strerror
                0x0000000017891f88       0x20 arch/arm/cpu/armv7/start.o
 .rel.text.fdt_create_empty_tree
                0x0000000017891fa8        0x0 arch/arm/cpu/armv7/start.o
 .rel.text.fdt_address_cells
                0x0000000017891fa8        0x8 arch/arm/cpu/armv7/start.o
 .rel.text.fdt_size_cells
                0x0000000017891fb0        0x8 arch/arm/cpu/armv7/start.o
 .rel.text.fdt_get_phandle
                0x0000000017891fb8       0x10 arch/arm/cpu/armv7/start.o
 .rel.text.fdt_get_alias_namelen
                0x0000000017891fc8        0x8 arch/arm/cpu/armv7/start.o
 .rel.text.fdt_node_check_compatible
                0x0000000017891fd0        0x8 arch/arm/cpu/armv7/start.o
 .rel.text.fdt_find_regions
                0x0000000017891fd8        0x0 arch/arm/cpu/armv7/start.o
 .rel.text.fdt_add_alias_regions
                0x0000000017891fd8        0x0 arch/arm/cpu/armv7/start.o
 .rel.text.fdt_next_region
                0x0000000017891fd8        0x0 arch/arm/cpu/armv7/start.o
 .rel.text.fdtdec_get_compatible
                0x0000000017891fd8        0x0 arch/arm/cpu/armv7/start.o
 .rel.text.fdtdec_get_is_enabled
                0x0000000017891fd8       0x10 arch/arm/cpu/armv7/start.o
 .rel.text.fdtdec_lookup
                0x0000000017891fe8        0x0 arch/arm/cpu/armv7/start.o
 .rel.text.fdtdec_next_compatible
                0x0000000017891fe8        0x0 arch/arm/cpu/armv7/start.o
 .rel.text.fdtdec_next_compatible_subnode
                0x0000000017891fe8        0x0 arch/arm/cpu/armv7/start.o
 .rel.text.fdtdec_next_alias
                0x0000000017891fe8        0x0 arch/arm/cpu/armv7/start.o
 .rel.text.fdtdec_add_aliases_for_id
                0x0000000017891fe8        0x0 arch/arm/cpu/armv7/start.o
 .rel.text.fdtdec_get_alias_seq
                0x0000000017891fe8        0x8 arch/arm/cpu/armv7/start.o
 .rel.text.fdtdec_get_chosen_prop
                0x0000000017891ff0        0x0 arch/arm/cpu/armv7/start.o
 .rel.text.fdtdec_prepare_fdt
                0x0000000017891ff0        0x8 arch/arm/cpu/armv7/start.o
 .rel.text.fdtdec_get_config_int
                0x0000000017891ff8        0x8 arch/arm/cpu/armv7/start.o
 .rel.text.fdtdec_get_config_bool
                0x0000000017892000        0x0 arch/arm/cpu/armv7/start.o
 .rel.text.fdtdec_get_config_string
                0x0000000017892000        0x8 arch/arm/cpu/armv7/start.o
 .rel.text.fdtdec_decode_memory_region
                0x0000000017892008        0x0 arch/arm/cpu/armv7/start.o
 .rel.text.fdtdec_decode_display_timing
                0x0000000017892008        0x0 arch/arm/cpu/armv7/start.o
 .rel.text.fdtdec_setup_memory_size
                0x0000000017892008        0x0 arch/arm/cpu/armv7/start.o
 .rel.text.fdtdec_setup_memory_banksize
                0x0000000017892008        0x0 arch/arm/cpu/armv7/start.o
 .rel.text.board_fdt_blob_setup
                0x0000000017892008        0x8 arch/arm/cpu/armv7/start.o
 .rel.text.fdtdec_setup
                0x0000000017892010        0x8 arch/arm/cpu/armv7/start.o
 .rel.text.match_string
                0x0000000017892018        0x8 arch/arm/cpu/armv7/start.o
 .rel.text.match_entry
                0x0000000017892020        0x8 arch/arm/cpu/armv7/start.o
 .rel.text.hcreate_r
                0x0000000017892028        0x8 arch/arm/cpu/armv7/start.o
 .rel.text.hdestroy_r
                0x0000000017892030        0x8 arch/arm/cpu/armv7/start.o
 .rel.text.hmatch_r
                0x0000000017892038        0x8 arch/arm/cpu/armv7/start.o
 .rel.text.hsearch_r
                0x0000000017892040        0x8 arch/arm/cpu/armv7/start.o
 .rel.text.hdelete_r
                0x0000000017892048        0x8 arch/arm/cpu/armv7/start.o
 .rel.text.hexport_r
                0x0000000017892050       0x18 arch/arm/cpu/armv7/start.o
 .rel.text.himport_r
                0x0000000017892068       0x20 arch/arm/cpu/armv7/start.o
 .rel.text.display_options_get_banner_priv
                0x0000000017892088       0x28 arch/arm/cpu/armv7/start.o
 .rel.text.display_options
                0x00000000178920b0        0x8 arch/arm/cpu/armv7/start.o
 .rel.text.print_freq
                0x00000000178920b8        0x0 arch/arm/cpu/armv7/start.o
 .rel.text.print_size
                0x00000000178920b8       0x28 arch/arm/cpu/armv7/start.o
 .rel.text.print_buffer
                0x00000000178920e0       0x28 arch/arm/cpu/armv7/start.o
 .rel.text.crc32_no_comp
                0x0000000017892108        0x8 arch/arm/cpu/armv7/start.o
 .rel.text.hang
                0x0000000017892110        0x8 arch/arm/cpu/armv7/start.o
 .rel.text.skip_spaces
                0x0000000017892118        0x8 arch/arm/cpu/armv7/start.o
 .rel.text.strim
                0x0000000017892120        0x8 arch/arm/cpu/armv7/start.o
 .rel.text.emit
                0x0000000017892128        0x8 arch/arm/cpu/armv7/start.o
 .rel.text.store_char_in_data
                0x0000000017892130        0x8 arch/arm/cpu/armv7/start.o
 .rel.text.match
                0x0000000017892138       0x98 arch/arm/cpu/armv7/start.o
 .rel.text.quantifier
                0x00000000178921d0        0x8 arch/arm/cpu/armv7/start.o
 .rel.text.fixup_branch
                0x00000000178921d8        0x8 arch/arm/cpu/armv7/start.o
 .rel.text.compile
                0x00000000178921e0       0x28 arch/arm/cpu/armv7/start.o
 .rel.text.slre_compile
                0x0000000017892208        0x8 arch/arm/cpu/armv7/start.o
 .rel.text.strncasecmp
                0x0000000017892210        0x8 arch/arm/cpu/armv7/start.o
 .rel.text.strtok
                0x0000000017892218        0x8 arch/arm/cpu/armv7/start.o
 .rel.text.uuid_str_valid
                0x0000000017892220        0x8 arch/arm/cpu/armv7/start.o
 .rel.text.uuid_bin_to_str
                0x0000000017892228       0x18 arch/arm/cpu/armv7/start.o
 .rel.text.number
                0x0000000017892240        0x8 arch/arm/cpu/armv7/start.o
 .rel.text.string16
                0x0000000017892248        0x8 arch/arm/cpu/armv7/start.o
 .rel.text.string
                0x0000000017892250        0x8 arch/arm/cpu/armv7/start.o
 .rel.text.vsnprintf_internal
                0x0000000017892258       0x10 arch/arm/cpu/armv7/start.o
 .rel.text.__assert_fail
                0x0000000017892268        0x0 arch/arm/cpu/armv7/start.o
 .rel.text.simple_itoa
                0x0000000017892268        0x8 arch/arm/cpu/armv7/start.o
 .rel.text.print_grouped_ull
                0x0000000017892270        0x0 arch/arm/cpu/armv7/start.o
 .rel.text._parse_integer_fixup_radix
                0x0000000017892270        0x8 arch/arm/cpu/armv7/start.o
 .rel.text.simple_strtoul
                0x0000000017892278        0x8 arch/arm/cpu/armv7/start.o
 .rel.text.simple_strtoull
                0x0000000017892280        0x8 arch/arm/cpu/armv7/start.o
 .rel.text.trailing_strtoln
                0x0000000017892288        0x8 arch/arm/cpu/armv7/start.o
 .rel.text.strmhz
                0x0000000017892290        0x0 arch/arm/cpu/armv7/start.o
 .rel.rodata.driver_ops
                0x0000000017892290       0x18 arch/arm/cpu/armv7/start.o
 .rel.rodata.efi_blk_ops
                0x00000000178922a8       0x10 arch/arm/cpu/armv7/start.o
 .rel.rodata.efi_boot_services
                0x00000000178922b8      0x158 arch/arm/cpu/armv7/start.o
 .rel.rodata.efi_runtime_detach_list
                0x0000000017892410       0x80 arch/arm/cpu/armv7/start.o
 .rel.rodata.efi_device_path_to_text
                0x0000000017892490       0x10 arch/arm/cpu/armv7/start.o
 .rel.rodata.efi_file_handle_protocol
                0x00000000178924a0       0x50 arch/arm/cpu/armv7/start.o
 .rel.rodata.smbios_write_funcs
                0x00000000178924f0       0x38 arch/arm/cpu/armv7/start.o
 .rel.rodata.z_errmsg
                0x0000000017892528        0x0 arch/arm/cpu/armv7/start.o
 .rel.rodata.fdt_errtable
                0x0000000017892528       0x88 arch/arm/cpu/armv7/start.o
 .rel.rodata.compat_names
                0x00000000178925b0        0x0 arch/arm/cpu/armv7/start.o
 .rel.u_boot_list_2_uclass_2_efi
                0x00000000178925b0       0x18 arch/arm/cpu/armv7/start.o
 .rel.u_boot_list_2_driver_2_efi_blk
                0x00000000178925c8       0x10 arch/arm/cpu/armv7/start.o
 .rel.u_boot_list_2_driver_2_efi_block
                0x00000000178925d8       0x10 arch/arm/cpu/armv7/start.o
 .rel.data.efi_obj_list
                0x00000000178925e8       0x10 arch/arm/cpu/armv7/start.o
 .rel.data.efi_runtime_mmio
                0x00000000178925f8       0x10 arch/arm/cpu/armv7/start.o
 .rel.data.efi_con_in
                0x0000000017892608       0x10 arch/arm/cpu/armv7/start.o
 .rel.data.efi_con_out
                0x0000000017892618       0x50 arch/arm/cpu/armv7/start.o
 .rel.data.efi_console_control
                0x0000000017892668       0x18 arch/arm/cpu/armv7/start.o
 .rel.data.efi_mem
                0x0000000017892680       0x10 arch/arm/cpu/armv7/start.o
 .rel.data.current
                0x0000000017892690        0x0 arch/arm/cpu/armv7/start.o
 .rel.text.arp_init
                0x0000000017892690       0x30 arch/arm/cpu/armv7/start.o
 .rel.text.arp_raw_request
                0x00000000178926c0       0x18 arch/arm/cpu/armv7/start.o
 .rel.text.arp_request
                0x00000000178926d8       0x38 arch/arm/cpu/armv7/start.o
 .rel.text.arp_timeout_check
                0x0000000017892710       0x28 arch/arm/cpu/armv7/start.o
 .rel.text.arp_receive
                0x0000000017892738       0x40 arch/arm/cpu/armv7/start.o
 .rel.text.dhcp_extended
                0x0000000017892778       0x28 arch/arm/cpu/armv7/start.o
 .rel.text.dhcp_process_options
                0x00000000178927a0       0x68 arch/arm/cpu/armv7/start.o
 .rel.text.dhcp_packet_process_options
                0x0000000017892808        0x8 arch/arm/cpu/armv7/start.o
 .rel.text.dhcp_handler
                0x0000000017892810       0x90 arch/arm/cpu/armv7/start.o
 .rel.text.bootp_reset
                0x00000000178928a0       0x20 arch/arm/cpu/armv7/start.o
 .rel.text.bootp_request
                0x00000000178928c0       0x78 arch/arm/cpu/armv7/start.o
 .rel.text.bootp_timeout_handler
                0x0000000017892938       0x28 arch/arm/cpu/armv7/start.o
 .rel.text.eth_post_probe
                0x0000000017892960       0x30 arch/arm/cpu/armv7/start.o
 .rel.text.eth_write_hwaddr
                0x0000000017892990       0x10 arch/arm/cpu/armv7/start.o
 .rel.text.eth_post_bind
                0x00000000178929a0        0x8 arch/arm/cpu/armv7/start.o
 .rel.text.eth_get_dev
                0x00000000178929a8        0x8 arch/arm/cpu/armv7/start.o
 .rel.text.eth_set_dev
                0x00000000178929b0        0x8 arch/arm/cpu/armv7/start.o
 .rel.text.eth_get_dev_by_name
                0x00000000178929b8        0x8 arch/arm/cpu/armv7/start.o
 .rel.text.eth_init
                0x00000000178929c0       0x28 arch/arm/cpu/armv7/start.o
 .rel.text.eth_initialize
                0x00000000178929e8       0x28 arch/arm/cpu/armv7/start.o
 .rel.text.eth_env_set_enetaddr
                0x0000000017892a10        0x8 arch/arm/cpu/armv7/start.o
 .rel.text.eth_env_get_enetaddr_by_index
                0x0000000017892a18       0x10 arch/arm/cpu/armv7/start.o
 .rel.text.eth_env_set_enetaddr_by_index
                0x0000000017892a28       0x10 arch/arm/cpu/armv7/start.o
 .rel.text.eth_mac_skip
                0x0000000017892a38       0x10 arch/arm/cpu/armv7/start.o
 .rel.text.eth_get_name
                0x0000000017892a48        0x8 arch/arm/cpu/armv7/start.o
 .rel.text.eth_current_changed
                0x0000000017892a50       0x18 arch/arm/cpu/armv7/start.o
 .rel.text.eth_try_another
                0x0000000017892a68       0x20 arch/arm/cpu/armv7/start.o
 .rel.text.eth_set_current
                0x0000000017892a88       0x20 arch/arm/cpu/armv7/start.o
 .rel.text.net_clear_handlers
                0x0000000017892aa8       0x20 arch/arm/cpu/armv7/start.o
 .rel.text.start_again_timeout_handler
                0x0000000017892ac8        0x8 arch/arm/cpu/armv7/start.o
 .rel.text.on_ipaddr
                0x0000000017892ad0        0x8 arch/arm/cpu/armv7/start.o
 .rel.text.on_gatewayip
                0x0000000017892ad8        0x8 arch/arm/cpu/armv7/start.o
 .rel.text.on_netmask
                0x0000000017892ae0        0x8 arch/arm/cpu/armv7/start.o
 .rel.text.on_serverip
                0x0000000017892ae8        0x8 arch/arm/cpu/armv7/start.o
 .rel.text.net_init_loop
                0x0000000017892af0        0x8 arch/arm/cpu/armv7/start.o
 .rel.text.net_auto_load
                0x0000000017892af8       0x18 arch/arm/cpu/armv7/start.o
 .rel.text.net_init
                0x0000000017892b10       0x20 arch/arm/cpu/armv7/start.o
 .rel.text.net_start_again
                0x0000000017892b30       0x78 arch/arm/cpu/armv7/start.o
 .rel.text.net_loop
                0x0000000017892ba8      0x178 arch/arm/cpu/armv7/start.o
 .rel.text.net_get_udp_handler
                0x0000000017892d20        0x0 arch/arm/cpu/armv7/start.o
 .rel.text.net_set_udp_handler
                0x0000000017892d20       0x10 arch/arm/cpu/armv7/start.o
 .rel.text.net_get_arp_handler
                0x0000000017892d30        0x8 arch/arm/cpu/armv7/start.o
 .rel.text.net_set_arp_handler
                0x0000000017892d38        0x0 arch/arm/cpu/armv7/start.o
 .rel.text.net_set_timeout_handler
                0x0000000017892d38       0x18 arch/arm/cpu/armv7/start.o
 .rel.text.net_process_received_packet
                0x0000000017892d50       0x40 arch/arm/cpu/armv7/start.o
 .rel.text.net_eth_hdr_size
                0x0000000017892d90        0x8 arch/arm/cpu/armv7/start.o
 .rel.text.net_set_ether
                0x0000000017892d98       0x10 arch/arm/cpu/armv7/start.o
 .rel.text.net_update_ether
                0x0000000017892da8        0x8 arch/arm/cpu/armv7/start.o
 .rel.text.net_set_ip_header
                0x0000000017892db0        0x8 arch/arm/cpu/armv7/start.o
 .rel.text.net_set_udp_header
                0x0000000017892db8        0x8 arch/arm/cpu/armv7/start.o
 .rel.text.net_send_udp_packet
                0x0000000017892dc0       0x40 arch/arm/cpu/armv7/start.o
 .rel.text.on_bootfile
                0x0000000017892e00        0x8 arch/arm/cpu/armv7/start.o
 .rel.text.ip_to_string
                0x0000000017892e08        0x8 arch/arm/cpu/armv7/start.o
 .rel.text.vlan_to_string
                0x0000000017892e10        0x0 arch/arm/cpu/armv7/start.o
 .rel.text.on_nvlan
                0x0000000017892e10        0x8 arch/arm/cpu/armv7/start.o
 .rel.text.on_vlan
                0x0000000017892e18        0x8 arch/arm/cpu/armv7/start.o
 .rel.text.rpc_lookup_reply
                0x0000000017892e20       0x18 arch/arm/cpu/armv7/start.o
 .rel.text.nfs_mount_reply
                0x0000000017892e38       0x18 arch/arm/cpu/armv7/start.o
 .rel.text.nfs_umountall_reply
                0x0000000017892e50       0x18 arch/arm/cpu/armv7/start.o
 .rel.text.nfs_lookup_reply
                0x0000000017892e68       0x30 arch/arm/cpu/armv7/start.o
 .rel.text.nfs_readlink_reply
                0x0000000017892e98       0x20 arch/arm/cpu/armv7/start.o
 .rel.text.rpc_req
                0x0000000017892eb8       0x40 arch/arm/cpu/armv7/start.o
 .rel.text.nfs_umountall_req
                0x0000000017892ef8       0x10 arch/arm/cpu/armv7/start.o
 .rel.text.nfs_read_reply.isra.0
                0x0000000017892f08       0x30 arch/arm/cpu/armv7/start.o
 .rel.text.nfs_readlink_req
                0x0000000017892f38       0x18 arch/arm/cpu/armv7/start.o
 .rel.text.nfs_lookup_req
                0x0000000017892f50       0x10 arch/arm/cpu/armv7/start.o
 .rel.text.nfs_read_req
                0x0000000017892f60       0x18 arch/arm/cpu/armv7/start.o
 .rel.text.nfs_send
                0x0000000017892f78       0x68 arch/arm/cpu/armv7/start.o
 .rel.text.nfs_handler
                0x0000000017892fe0       0xa8 arch/arm/cpu/armv7/start.o
 .rel.text.nfs_timeout_handler
                0x0000000017893088       0x20 arch/arm/cpu/armv7/start.o
 .rel.text.nfs_start
                0x00000000178930a8       0x88 arch/arm/cpu/armv7/start.o
 .rel.text.ping_timeout_handler
                0x0000000017893130        0x8 arch/arm/cpu/armv7/start.o
 .rel.text.ping_start
                0x0000000017893138       0x58 arch/arm/cpu/armv7/start.o
 .rel.text.ping_receive
                0x0000000017893190       0x18 arch/arm/cpu/armv7/start.o
 .rel.text.tftp_send
                0x00000000178931a8       0xb8 arch/arm/cpu/armv7/start.o
 .rel.text.tftp_handler
                0x0000000017893260       0xd0 arch/arm/cpu/armv7/start.o
 .rel.text.tftp_timeout_handler
                0x0000000017893330       0x40 arch/arm/cpu/armv7/start.o
 .rel.text.tftp_start
                0x0000000017893370      0x148 arch/arm/cpu/armv7/start.o
 .rel.u_boot_list_2_env_clbk_2_ethaddr
                0x00000000178934b8       0x10 arch/arm/cpu/armv7/start.o
 .rel.u_boot_list_2_uclass_2_eth
                0x00000000178934c8       0x28 arch/arm/cpu/armv7/start.o
 .rel.u_boot_list_2_env_clbk_2_bootfile
                0x00000000178934f0       0x10 arch/arm/cpu/armv7/start.o
 .rel.u_boot_list_2_env_clbk_2_gatewayip
                0x0000000017893500       0x10 arch/arm/cpu/armv7/start.o
 .rel.u_boot_list_2_env_clbk_2_ipaddr
                0x0000000017893510       0x10 arch/arm/cpu/armv7/start.o
 .rel.u_boot_list_2_env_clbk_2_netmask
                0x0000000017893520       0x10 arch/arm/cpu/armv7/start.o
 .rel.u_boot_list_2_env_clbk_2_nvlan
                0x0000000017893530       0x10 arch/arm/cpu/armv7/start.o
 .rel.u_boot_list_2_env_clbk_2_serverip
                0x0000000017893540       0x10 arch/arm/cpu/armv7/start.o
 .rel.u_boot_list_2_env_clbk_2_vlan
                0x0000000017893550       0x10 arch/arm/cpu/armv7/start.o
 .rel.text.do_dm
                0x0000000017893560        0x8 arch/arm/cpu/armv7/start.o
 .rel.data.test_commands
                0x0000000017893568       0x60 arch/arm/cpu/armv7/start.o
 .rel.u_boot_list_2_cmd_2_dm
                0x00000000178935c8       0x20 arch/arm/cpu/armv7/start.o
 .rel.text.raise
                0x00000000178935e8        0x0 arch/arm/cpu/armv7/start.o

.rel_dyn_end    0x00000000178935e8        0x0
 *(.__rel_dyn_end)
 .__rel_dyn_end
                0x00000000178935e8        0x0 arch/arm/lib/built-in.o

.end            0x00000000178935e8        0x0
 *(.__end)
 .__end         0x00000000178935e8        0x0 arch/arm/lib/built-in.o
                0x00000000178935e8                _image_binary_end = .
                0x0000000017894000                . = ALIGN (0x1000)

.mmutable
 *(.mmutable)

.bss_start      0x0000000017886738        0x0
 *(.__bss_start)
 .__bss_start   0x0000000017886738        0x0 arch/arm/lib/built-in.o
                0x0000000017886738                __bss_start
                0x0000000017886738                __bss_base = .

.bss            0x0000000017886738    0x38a60
 *(.bss*)
 .bss.params    0x0000000017886738        0x4 arch/arm/lib/built-in.o
 .bss.modes     0x000000001788673c        0x8 arch/arm/mach-imx/built-in.o
 .bss.arm_orig_podf
                0x0000000017886744        0x4 arch/arm/mach-imx/built-in.o
 .bss.ldo_bypass
                0x0000000017886748        0x4 arch/arm/mach-imx/built-in.o
 .bss.bootefi_device_path
                0x000000001788674c        0x4 cmd/built-in.o
 .bss.bootefi_image_path
                0x0000000017886750        0x4 cmd/built-in.o
 .bss.efi_obj_list_initalized
                0x0000000017886754        0x1 cmd/built-in.o
 *fill*         0x0000000017886755        0x3 
 .bss.data.8753
                0x0000000017886758      0x400 cmd/built-in.o
 .bss.working_fdt
                0x0000000017886b58        0x4 cmd/built-in.o
                0x0000000017886b58                working_fdt
 .bss.i2c_cur_bus
                0x0000000017886b5c        0x4 cmd/built-in.o
 .bss.i2c_dp_last_addr
                0x0000000017886b60        0x4 cmd/built-in.o
 .bss.i2c_dp_last_alen
                0x0000000017886b64        0x4 cmd/built-in.o
 .bss.i2c_dp_last_chip
                0x0000000017886b68        0x4 cmd/built-in.o
 .bss.i2c_mm_last_addr
                0x0000000017886b6c        0x4 cmd/built-in.o
 .bss.i2c_mm_last_alen
                0x0000000017886b70        0x4 cmd/built-in.o
 .bss.i2c_mm_last_chip
                0x0000000017886b74        0x4 cmd/built-in.o
 .bss.a_b       0x0000000017886b78       0x18 cmd/built-in.o
 .bss.bin_start_address
                0x0000000017886b90        0x4 cmd/built-in.o
 .bss.his_eol   0x0000000017886b94        0x1 cmd/built-in.o
 .bss.his_pad_char
                0x0000000017886b95        0x1 cmd/built-in.o
 *fill*         0x0000000017886b96        0x2 
 .bss.his_pad_count
                0x0000000017886b98        0x4 cmd/built-in.o
 .bss.his_quote
                0x0000000017886b9c        0x1 cmd/built-in.o
 *fill*         0x0000000017886b9d        0x3 
 .bss.k_data_escape
                0x0000000017886ba0        0x4 cmd/built-in.o
 .bss.k_data_escape_saved
                0x0000000017886ba4        0x4 cmd/built-in.o
 .bss.os_data_addr
                0x0000000017886ba8        0x4 cmd/built-in.o
 .bss.os_data_addr_saved
                0x0000000017886bac        0x4 cmd/built-in.o
 .bss.os_data_char
                0x0000000017886bb0        0x4 cmd/built-in.o
 .bss.os_data_init
                0x0000000017886bb4        0x4 cmd/built-in.o
 .bss.os_data_state
                0x0000000017886bb8        0x4 cmd/built-in.o
 .bss.os_data_state_saved
                0x0000000017886bbc        0x4 cmd/built-in.o
 .bss.send_parms
                0x0000000017886bc0       0x14 cmd/built-in.o
 .bss.send_ptr  0x0000000017886bd4        0x4 cmd/built-in.o
 .bss.base_address
                0x0000000017886bd8        0x4 cmd/built-in.o
 .bss.dp_last_addr
                0x0000000017886bdc        0x4 cmd/built-in.o
 .bss.dp_last_size
                0x0000000017886be0        0x4 cmd/built-in.o
 .bss.mm_last_addr
                0x0000000017886be4        0x4 cmd/built-in.o
 .bss.mm_last_size
                0x0000000017886be8        0x4 cmd/built-in.o
 .bss.last_addr_hi
                0x0000000017886bec        0x8 cmd/built-in.o
 .bss.last_addr_lo
                0x0000000017886bf4        0x8 cmd/built-in.o
 .bss.last_data
                0x0000000017886bfc        0x8 cmd/built-in.o
 .bss.last_mask
                0x0000000017886c04        0x4 cmd/built-in.o
 .bss.last_op   0x0000000017886c08        0x4 cmd/built-in.o
 .bss.last_reg_hi
                0x0000000017886c0c        0x8 cmd/built-in.o
 .bss.last_reg_lo
                0x0000000017886c14        0x8 cmd/built-in.o
 .bss.last_devad_hi
                0x0000000017886c1c        0x4 cmd/built-in.o
 .bss.last_devad_lo
                0x0000000017886c20        0x4 cmd/built-in.o
 .bss.flash     0x0000000017886c24        0x4 cmd/built-in.o
 .bss.ums       0x0000000017886c28        0x4 cmd/built-in.o
 .bss.ums_count
                0x0000000017886c2c        0x4 cmd/built-in.o
 .bss.buf.8328  0x0000000017886c30       0x28 common/built-in.o
 .bss.do_repeat
                0x0000000017886c58        0x4 common/built-in.o
 .bss.flag_repeat
                0x0000000017886c5c        0x4 common/built-in.o
 .bss.ifs       0x0000000017886c60        0x4 common/built-in.o
 .bss.last_return_code
                0x0000000017886c64        0x4 common/built-in.o
 .bss.map       0x0000000017886c68      0x100 common/built-in.o
 .bss.the_command.8128
                0x0000000017886d68      0x201 common/built-in.o
 *fill*         0x0000000017886f69        0x3 
 .bss.top_vars  0x0000000017886f6c        0x4 common/built-in.o
 .bss.stored_bootdelay
                0x0000000017886f70        0x4 common/built-in.o
 .bss.monitor_flash_len
                0x0000000017886f74        0x4 common/built-in.o
                0x0000000017886f74                monitor_flash_len
 .bss.images    0x0000000017886f78      0x130 common/built-in.o
                0x0000000017886f78                images
 .bss.current_mii
                0x00000000178870a8        0x4 common/built-in.o
 .bss.mii_devs  0x00000000178870ac        0x8 common/built-in.o
 .bss.usb_started
                0x00000000178870b4        0x1 common/built-in.o
                0x00000000178870b4                usb_started
 *fill*         0x00000000178870b5        0x3 
 .bss.running.10806
                0x00000000178870b8        0x4 common/built-in.o
 .bss.CBWTag    0x00000000178870bc        0x4 common/built-in.o
 *fill*         0x00000000178870c0        0x0 
 .bss.usb_ccb   0x00000000178870c0       0xc0 common/built-in.o
 .bss.usb_max_devs
                0x0000000017887180        0x4 common/built-in.o
 .bss.console_buffer
                0x0000000017887184      0x201 common/built-in.o
                0x0000000017887184                console_buffer
 *fill*         0x0000000017887385        0x3 
 .bss.hist_add_idx
                0x0000000017887388        0x4 common/built-in.o
 .bss.hist_lines
                0x000000001788738c     0x2814 common/built-in.o
 .bss.hist_list
                0x0000000017889ba0       0x50 common/built-in.o
 .bss.hist_max  0x0000000017889bf0        0x4 common/built-in.o
 .bss.hist_num  0x0000000017889bf4        0x4 common/built-in.o
 .bss.initted.7994
                0x0000000017889bf8        0x4 common/built-in.o
 .bss.ctrlc_disabled
                0x0000000017889bfc        0x4 common/built-in.o
 .bss.ctrlc_was_pressed
                0x0000000017889c00        0x4 common/built-in.o
 .bss.current_mallinfo
                0x0000000017889c04       0x28 common/built-in.o
 .bss.max_sbrked_mem
                0x0000000017889c2c        0x4 common/built-in.o
 .bss.max_total_mem
                0x0000000017889c30        0x4 common/built-in.o
 .bss.mem_malloc_brk
                0x0000000017889c34        0x4 common/built-in.o
                0x0000000017889c34                mem_malloc_brk
 .bss.mem_malloc_end
                0x0000000017889c38        0x4 common/built-in.o
                0x0000000017889c38                mem_malloc_end
 .bss.mem_malloc_start
                0x0000000017889c3c        0x4 common/built-in.o
                0x0000000017889c3c                mem_malloc_start
 .bss.top_pad   0x0000000017889c40        0x4 common/built-in.o
 .bss.andr_tmp_str
                0x0000000017889c44      0x201 common/built-in.o
 *fill*         0x0000000017889e45        0x3 
 .bss.devs      0x0000000017889e48       0x4c common/built-in.o
 .bss.stdio_devices
                0x0000000017889e94        0xc common/built-in.o
                0x0000000017889e94                stdio_devices
 .bss.tmp_buf   0x0000000017889ea0      0x201 common/built-in.o
 .bss.tmp_buf.7887
                0x000000001788a0a1      0x200 common/built-in.o
 *fill*         0x000000001788a2a1        0x3 
 .bss.xyz       0x000000001788a2a4      0x434 common/built-in.o
 .bss.name.9121
                0x000000001788a6d8       0x25 disk/built-in.o
 *fill*         0x000000001788a6fd        0x3 
 .bss.imx6_pinctrl_soc_info
                0x000000001788a700       0x10 drivers/built-in.o
 .bss.initialized.10832
                0x000000001788a710        0x4 drivers/built-in.o
 .bss.alt_num_cnt
                0x000000001788a714        0x4 drivers/built-in.o
 .bss.dfu_alt_num
                0x000000001788a718        0x4 drivers/built-in.o
 .bss.dfu_buf   0x000000001788a71c        0x4 drivers/built-in.o
 .bss.dfu_buf_size
                0x000000001788a720        0x4 drivers/built-in.o
 .bss.dfu_hash_algo
                0x000000001788a724        0x4 drivers/built-in.o
 .bss.dfu_file_buf
                0x000000001788a728        0x4 drivers/built-in.o
 .bss.dfu_file_buf_filled
                0x000000001788a72c        0x4 drivers/built-in.o
 .bss.dfu_file_buf_len
                0x000000001788a730        0x8 drivers/built-in.o
 .bss.bgx       0x000000001788a738        0x4 drivers/built-in.o
 .bss.cfb_do_flush_cache
                0x000000001788a73c        0x4 drivers/built-in.o
 .bss.console_col
                0x000000001788a740        0x4 drivers/built-in.o
 .bss.console_row
                0x000000001788a744        0x4 drivers/built-in.o
 .bss.eorx      0x000000001788a748        0x4 drivers/built-in.o
 .bss.fgx       0x000000001788a74c        0x4 drivers/built-in.o
 .bss.pGD       0x000000001788a750        0x4 drivers/built-in.o
 .bss.video_console_address
                0x000000001788a754        0x4 drivers/built-in.o
 .bss.video_fb_address
                0x000000001788a758        0x4 drivers/built-in.o
 .bss.video_logo_xpos
                0x000000001788a75c        0x4 drivers/built-in.o
 .bss.video_logo_ypos
                0x000000001788a760        0x4 drivers/built-in.o
 .bss.g_dp_in_use
                0x000000001788a764        0x1 drivers/built-in.o
 .bss.gdisp     0x000000001788a765        0x1 drivers/built-in.o
 *fill*         0x000000001788a766        0x2 
 .bss.gmode     0x000000001788a768        0x4 drivers/built-in.o
 .bss.gpixfmt   0x000000001788a76c        0x4 drivers/built-in.o
 .bss.mxcfb_info
                0x000000001788a770        0xc drivers/built-in.o
 .bss.panel     0x000000001788a77c       0x90 drivers/built-in.o
 .bss.g_channel_enable_mask
                0x000000001788a80c        0x4 drivers/built-in.o
                0x000000001788a80c                g_channel_enable_mask
 .bss.g_channel_init_mask
                0x000000001788a810        0x4 drivers/built-in.o
                0x000000001788a810                g_channel_init_mask
 .bss.g_dc_di_assignment
                0x000000001788a814        0xa drivers/built-in.o
                0x000000001788a814                g_dc_di_assignment
 *fill*         0x000000001788a81e        0x2 
 .bss.g_di_clk  0x000000001788a820        0x8 drivers/built-in.o
                0x000000001788a820                g_di_clk
 .bss.g_ipu_clk
                0x000000001788a828        0x4 drivers/built-in.o
                0x000000001788a828                g_ipu_clk
 .bss.g_ipu_clk_enabled
                0x000000001788a82c        0x1 drivers/built-in.o
                0x000000001788a82c                g_ipu_clk_enabled
 *fill*         0x000000001788a82d        0x3 
 .bss.g_ldb_clk
                0x000000001788a830        0x8 drivers/built-in.o
                0x000000001788a830                g_ldb_clk
 .bss.g_pixel_clk
                0x000000001788a838        0x8 drivers/built-in.o
                0x000000001788a838                g_pixel_clk
 .bss.ipu_cpmem_base
                0x000000001788a840        0x4 drivers/built-in.o
                0x000000001788a840                ipu_cpmem_base
 .bss.ipu_dc_tmpl_reg
                0x000000001788a844        0x4 drivers/built-in.o
                0x000000001788a844                ipu_dc_tmpl_reg
 .bss.ipu_dc_use_count
                0x000000001788a848        0x4 drivers/built-in.o
 .bss.ipu_di_use_count
                0x000000001788a84c        0x8 drivers/built-in.o
 .bss.ipu_dmfc_use_count
                0x000000001788a854        0x4 drivers/built-in.o
 .bss.ipu_dp_use_count
                0x000000001788a858        0x4 drivers/built-in.o
 .bss.dmfc_size_23
                0x000000001788a85c        0x4 drivers/built-in.o
 .bss.dmfc_size_24
                0x000000001788a860        0x4 drivers/built-in.o
 .bss.dmfc_size_27
                0x000000001788a864        0x4 drivers/built-in.o
 .bss.dmfc_size_28
                0x000000001788a868        0x4 drivers/built-in.o
 .bss.dmfc_size_29
                0x000000001788a86c        0x4 drivers/built-in.o
 .bss.dmfc_type_setup
                0x000000001788a870        0x4 drivers/built-in.o
                0x000000001788a870                dmfc_type_setup
 .bss.g_di1_tvout
                0x000000001788a874        0x4 drivers/built-in.o
                0x000000001788a874                g_di1_tvout
 .bss.serial_current
                0x000000001788a878        0x4 drivers/serial/built-in.o
 .bss.serial_devices
                0x000000001788a87c        0x4 drivers/serial/built-in.o
 .bss.epnum     0x000000001788a880        0x4 drivers/usb/gadget/built-in.o
 .bss.composite
                0x000000001788a884        0x4 drivers/usb/gadget/built-in.o
 .bss.g_dnl_detach_request
                0x000000001788a888        0x1 drivers/usb/gadget/built-in.o
 .bss.g_dnl_serial
                0x000000001788a889      0x100 drivers/usb/gadget/built-in.o
 *fill*         0x000000001788a989        0x3 
 .bss.dfu_defer_flush
                0x000000001788a98c        0x4 drivers/usb/gadget/built-in.o
                0x000000001788a98c                dfu_defer_flush
 .bss.controller_index
                0x000000001788a990        0x4 drivers/usb/gadget/built-in.o
 .bss.state.9097
                0x000000001788a994        0x4 drivers/usb/gadget/built-in.o
 .bss.the_fsg_common
                0x000000001788a998        0x4 drivers/usb/gadget/built-in.o
 .bss.ums       0x000000001788a99c        0x4 drivers/usb/gadget/built-in.o
 .bss.ums_count
                0x000000001788a9a0        0x4 drivers/usb/gadget/built-in.o
 .bss.unknown.9353
                0x000000001788a9a4       0x10 drivers/usb/gadget/built-in.o
 .bss.boot_dev_part.11615
                0x000000001788a9b4       0x20 drivers/usb/gadget/built-in.o
 .bss.download_bytes
                0x000000001788a9d4        0x4 drivers/usb/gadget/built-in.o
 .bss.download_size
                0x000000001788a9d8        0x4 drivers/usb/gadget/built-in.o
 .bss.fastboot_func
                0x000000001788a9dc        0x4 drivers/usb/gadget/built-in.o
 .bss.fb_response_str
                0x000000001788a9e0        0x4 drivers/usb/gadget/built-in.o
 .bss.g_a_cmd_buff
                0x000000001788a9e4       0x40 drivers/usb/gadget/built-in.o
 .bss.g_pcount  0x000000001788aa24        0x4 drivers/usb/gadget/built-in.o
                0x000000001788aa24                g_pcount
 .bss.g_ptable  0x000000001788aa28      0xc00 drivers/usb/gadget/built-in.o
                0x000000001788aa28                g_ptable
 .bss.metrics   0x000000001788b628       0x1c drivers/usb/gadget/built-in.o
                0x000000001788b628                metrics
 .bss.serial.11747
                0x000000001788b644       0x20 drivers/usb/gadget/built-in.o
 .bss.asynch_allowed
                0x000000001788b664        0x1 drivers/usb/host/built-in.o
 *fill*         0x000000001788b665        0x3 
 .bss.callback_list
                0x000000001788b668        0x4 env/built-in.o
 .bss.flags_list
                0x000000001788b66c        0x4 env/built-in.o
 .bss.env_mmc_orig_hwpart
                0x000000001788b670        0x1 env/built-in.o
 *fill*         0x000000001788b671        0x3 
 .bss.fs_dev_desc
                0x000000001788b674        0x4 fs/built-in.o
 .bss.fs_dev_part
                0x000000001788b678        0x4 fs/built-in.o
 .bss.fs_partition
                0x000000001788b67c       0x78 fs/built-in.o
 .bss.fs_type   0x000000001788b6f4        0x4 fs/built-in.o
 .bss.ext_fs    0x000000001788b6f8       0x48 fs/built-in.o
                0x000000001788b6f8                ext_fs
 .bss.ext4fs_file
                0x000000001788b740        0x4 fs/built-in.o
                0x000000001788b740                ext4fs_file
 .bss.ext4fs_indir1_block
                0x000000001788b744        0x4 fs/built-in.o
                0x000000001788b744                ext4fs_indir1_block
 .bss.ext4fs_indir1_size
                0x000000001788b748        0x4 fs/built-in.o
                0x000000001788b748                ext4fs_indir1_size
 .bss.ext4fs_indir2_block
                0x000000001788b74c        0x4 fs/built-in.o
                0x000000001788b74c                ext4fs_indir2_block
 .bss.ext4fs_indir2_size
                0x000000001788b750        0x4 fs/built-in.o
                0x000000001788b750                ext4fs_indir2_size
 .bss.ext4fs_indir3_block
                0x000000001788b754        0x4 fs/built-in.o
                0x000000001788b754                ext4fs_indir3_block
 .bss.ext4fs_indir3_size
                0x000000001788b758        0x4 fs/built-in.o
                0x000000001788b758                ext4fs_indir3_size
 .bss.ext4fs_root
                0x000000001788b75c        0x4 fs/built-in.o
                0x000000001788b75c                ext4fs_root
 .bss.g_parent_inode
                0x000000001788b760        0x4 fs/built-in.o
                0x000000001788b760                g_parent_inode
 .bss.symlinknest
                0x000000001788b764        0x4 fs/built-in.o
 .bss.part_info
                0x000000001788b768        0x4 fs/built-in.o
 .bss.part_offset
                0x000000001788b76c        0x4 fs/built-in.o
                0x000000001788b76c                part_offset
 .bss.dirty_block_ptr
                0x000000001788b770      0x190 fs/built-in.o
                0x000000001788b770                dirty_block_ptr
 .bss.gd_index  0x000000001788b900        0x4 fs/built-in.o
                0x000000001788b900                gd_index
 .bss.gindex    0x000000001788b904        0x4 fs/built-in.o
                0x000000001788b904                gindex
 .bss.journal_ptr
                0x000000001788b908      0x190 fs/built-in.o
                0x000000001788b908                journal_ptr
 .bss.jrnl_blk_idx
                0x000000001788ba98        0x4 fs/built-in.o
                0x000000001788ba98                jrnl_blk_idx
 .bss.prev_node
                0x000000001788ba9c        0x4 fs/built-in.o
 .bss.revk_blk_list
                0x000000001788baa0        0x4 fs/built-in.o
 .bss.cur_dev   0x000000001788baa4        0x4 fs/built-in.o
 .bss.cur_part_info
                0x000000001788baa8       0x78 fs/built-in.o
 .bss.dir_curclust
                0x000000001788bb20        0x4 fs/built-in.o
 *fill*         0x000000001788bb24       0x1c 
 .bss.do_fat_read_at_block
                0x000000001788bb40    0x10000 fs/built-in.o
                0x000000001788bb40                do_fat_read_at_block
 .bss.empty_dentptr
                0x000000001789bb40        0x4 fs/built-in.o
 *fill*         0x000000001789bb44       0x3c 
 .bss.get_contents_vfatname_block
                0x000000001789bb80    0x10000 fs/built-in.o
                0x000000001789bb80                get_contents_vfatname_block
 .bss.get_dentfromdir_block
                0x00000000178abb80    0x10000 fs/built-in.o
                0x00000000178abb80                get_dentfromdir_block
 .bss.num_of_fats
                0x00000000178bbb80        0x1 fs/built-in.o
 *fill*         0x00000000178bbb81        0x3 
 .bss.total_sector
                0x00000000178bbb84        0x4 fs/built-in.o
 .bss.app_gd    0x00000000178bbb88        0x4 lib/built-in.o
 *fill*         0x00000000178bbb8c        0x4 
 .bss.efi_events
                0x00000000178bbb90      0x280 lib/built-in.o
 .bss.efi_gd    0x00000000178bbe10        0x4 lib/built-in.o
 .bss.entry_count
                0x00000000178bbe14        0x4 lib/built-in.o
 .bss.mono.10039
                0x00000000178bbe18        0x8 lib/built-in.o
 .bss.ret.9954  0x00000000178bbe20        0x4 lib/built-in.o
 .bss.console_size_queried
                0x00000000178bbe24        0x1 lib/built-in.o
 *fill*         0x00000000178bbe25        0x3 
 .bss.console_timer_event
                0x00000000178bbe28        0x4 lib/built-in.o
 .bss.rs        0x00000000178bbe2c        0x4 lib/built-in.o
 .bss.watchdog_timer_event
                0x00000000178bbe30        0x4 lib/built-in.o
 .bss.dhcp_ack  0x00000000178bbe34        0x4 lib/built-in.o
 .bss.network_timer_event
                0x00000000178bbe38        0x4 lib/built-in.o
 .bss.new_rx_packet
                0x00000000178bbe3c        0x1 lib/built-in.o
 *fill*         0x00000000178bbe3d        0x3 
 .bss.new_tx_packet
                0x00000000178bbe40        0x4 lib/built-in.o
 .bss.wait_for_packet
                0x00000000178bbe44        0x4 lib/built-in.o
 .bss.errno     0x00000000178bbe48        0x4 lib/built-in.o
                0x00000000178bbe48                errno
 .bss.___strtok
                0x00000000178bbe4c        0x4 lib/built-in.o
                0x00000000178bbe4c                ___strtok
 .bss.local.9339
                0x00000000178bbe50       0x16 lib/built-in.o
 *fill*         0x00000000178bbe66        0x2 
 .bss.arp_tx_packet
                0x00000000178bbe68        0x4 net/built-in.o
 .bss.arp_tx_packet_buf
                0x00000000178bbe6c      0x640 net/built-in.o
 .bss.arp_wait_packet_ethaddr
                0x00000000178bc4ac        0x4 net/built-in.o
                0x00000000178bc4ac                arp_wait_packet_ethaddr
 .bss.arp_wait_timer_start
                0x00000000178bc4b0        0x4 net/built-in.o
                0x00000000178bc4b0                arp_wait_timer_start
 .bss.arp_wait_try
                0x00000000178bc4b4        0x4 net/built-in.o
                0x00000000178bc4b4                arp_wait_try
 .bss.arp_wait_tx_packet_size
                0x00000000178bc4b8        0x4 net/built-in.o
                0x00000000178bc4b8                arp_wait_tx_packet_size
 .bss.net_arp_wait_packet_ip
                0x00000000178bc4bc        0x4 net/built-in.o
                0x00000000178bc4bc                net_arp_wait_packet_ip
 .bss.net_arp_wait_reply_ip
                0x00000000178bc4c0        0x4 net/built-in.o
 .bss.bootp_ids
                0x00000000178bc4c4       0x10 net/built-in.o
                0x00000000178bc4c4                bootp_ids
 .bss.bootp_num_ids
                0x00000000178bc4d4        0x4 net/built-in.o
                0x00000000178bc4d4                bootp_num_ids
 .bss.bootp_start
                0x00000000178bc4d8        0x4 net/built-in.o
                0x00000000178bc4d8                bootp_start
 .bss.bootp_timeout
                0x00000000178bc4dc        0x4 net/built-in.o
                0x00000000178bc4dc                bootp_timeout
 .bss.bootp_try
                0x00000000178bc4e0        0x4 net/built-in.o
                0x00000000178bc4e0                bootp_try
 .bss.dhcp_leasetime
                0x00000000178bc4e4        0x4 net/built-in.o
 .bss.dhcp_option_overload
                0x00000000178bc4e8        0x1 net/built-in.o
 *fill*         0x00000000178bc4e9        0x3 
 .bss.dhcp_server_ip
                0x00000000178bc4ec        0x4 net/built-in.o
 .bss.dhcp_state
                0x00000000178bc4f0        0x4 net/built-in.o
 .bss.net_hostname
                0x00000000178bc4f4       0x20 net/built-in.o
                0x00000000178bc4f4                net_hostname
 .bss.net_nis_domain
                0x00000000178bc514       0x20 net/built-in.o
                0x00000000178bc514                net_nis_domain
 .bss.net_root_path
                0x00000000178bc534       0x40 net/built-in.o
                0x00000000178bc534                net_root_path
 .bss.time_taken_max
                0x00000000178bc574        0x4 net/built-in.o
 .bss.eth_errno
                0x00000000178bc578        0x4 net/built-in.o
 .bss.act.10320
                0x00000000178bc57c        0x4 net/built-in.o
 .bss.env_changed_id.10321
                0x00000000178bc580        0x4 net/built-in.o
 .bss.first_failed.10315
                0x00000000178bc584        0x4 net/built-in.o
 .bss.arp_packet_handler
                0x00000000178bc588        0x4 net/built-in.o
 .bss.net_boot_file_expected_size_in_blocks
                0x00000000178bc58c        0x4 net/built-in.o
                0x00000000178bc58c                net_boot_file_expected_size_in_blocks
 .bss.net_boot_file_name
                0x00000000178bc590      0x400 net/built-in.o
                0x00000000178bc590                net_boot_file_name
 .bss.net_boot_file_size
                0x00000000178bc990        0x4 net/built-in.o
                0x00000000178bc990                net_boot_file_size
 .bss.net_dev_exists
                0x00000000178bc994        0x4 net/built-in.o
 .bss.net_dns_server
                0x00000000178bc998        0x4 net/built-in.o
                0x00000000178bc998                net_dns_server
 .bss.net_ethaddr
                0x00000000178bc99c        0x6 net/built-in.o
                0x00000000178bc99c                net_ethaddr
 *fill*         0x00000000178bc9a2        0x2 
 .bss.net_gateway
                0x00000000178bc9a4        0x4 net/built-in.o
                0x00000000178bc9a4                net_gateway
 .bss.net_ip    0x00000000178bc9a8        0x4 net/built-in.o
                0x00000000178bc9a8                net_ip
 .bss.net_ip_id
                0x00000000178bc9ac        0x4 net/built-in.o
 .bss.net_netmask
                0x00000000178bc9b0        0x4 net/built-in.o
                0x00000000178bc9b0                net_netmask
 .bss.net_null_ethaddr
                0x00000000178bc9b4        0x6 net/built-in.o
                0x00000000178bc9b4                net_null_ethaddr
 .bss.net_pkt_buf
                0x00000000178bc9ba     0x1e40 net/built-in.o
 *fill*         0x00000000178be7fa        0x2 
 .bss.net_restart_wrap
                0x00000000178be7fc        0x4 net/built-in.o
                0x00000000178be7fc                net_restart_wrap
 .bss.net_restarted
                0x00000000178be800        0x4 net/built-in.o
 .bss.net_rx_packet
                0x00000000178be804        0x4 net/built-in.o
                0x00000000178be804                net_rx_packet
 .bss.net_rx_packet_len
                0x00000000178be808        0x4 net/built-in.o
                0x00000000178be808                net_rx_packet_len
 .bss.net_rx_packets
                0x00000000178be80c       0x10 net/built-in.o
                0x00000000178be80c                net_rx_packets
 .bss.net_server_ethaddr
                0x00000000178be81c        0x6 net/built-in.o
                0x00000000178be81c                net_server_ethaddr
 *fill*         0x00000000178be822        0x2 
 .bss.net_server_ip
                0x00000000178be824        0x4 net/built-in.o
                0x00000000178be824                net_server_ip
 .bss.net_state
                0x00000000178be828        0x4 net/built-in.o
                0x00000000178be828                net_state
 .bss.net_try_count
                0x00000000178be82c        0x4 net/built-in.o
 .bss.net_tx_packet
                0x00000000178be830        0x4 net/built-in.o
                0x00000000178be830                net_tx_packet
 .bss.push_packet
                0x00000000178be834        0x4 net/built-in.o
                0x00000000178be834                push_packet
 .bss.time_delta
                0x00000000178be838        0x4 net/built-in.o
 .bss.time_handler
                0x00000000178be83c        0x4 net/built-in.o
 .bss.time_start
                0x00000000178be840        0x8 net/built-in.o
 .bss.udp_packet_handler
                0x00000000178be848        0x4 net/built-in.o
 .bss.dirfh     0x00000000178be84c       0x20 net/built-in.o
 .bss.filefh    0x00000000178be86c       0x40 net/built-in.o
 .bss.filefh3_length
                0x00000000178be8ac        0x4 net/built-in.o
 .bss.fs_mounted
                0x00000000178be8b0        0x4 net/built-in.o
 .bss.nfs_download_state
                0x00000000178be8b4        0x4 net/built-in.o
 .bss.nfs_filename
                0x00000000178be8b8        0x4 net/built-in.o
 .bss.nfs_len   0x00000000178be8bc        0x4 net/built-in.o
 .bss.nfs_our_port
                0x00000000178be8c0        0x4 net/built-in.o
 .bss.nfs_path  0x00000000178be8c4        0x4 net/built-in.o
 .bss.nfs_path_buff
                0x00000000178be8c8      0x800 net/built-in.o
 .bss.nfs_server_ip
                0x00000000178bf0c8        0x4 net/built-in.o
 .bss.nfs_server_mount_port
                0x00000000178bf0cc        0x4 net/built-in.o
 .bss.nfs_server_port
                0x00000000178bf0d0        0x4 net/built-in.o
 .bss.nfs_state
                0x00000000178bf0d4        0x4 net/built-in.o
 .bss.nfs_timeout_count
                0x00000000178bf0d8        0x4 net/built-in.o
 .bss.rpc_id    0x00000000178bf0dc        0x4 net/built-in.o
 .bss.net_ping_ip
                0x00000000178bf0e0        0x4 net/built-in.o
                0x00000000178bf0e0                net_ping_ip
 .bss.ping_seq_number
                0x00000000178bf0e4        0x2 net/built-in.o
 .bss.default_filename
                0x00000000178bf0e6        0xd net/built-in.o
 *fill*         0x00000000178bf0f3        0x1 
 .bss.tftp_block_wrap
                0x00000000178bf0f4        0x4 net/built-in.o
 .bss.tftp_block_wrap_offset
                0x00000000178bf0f8        0x4 net/built-in.o
 .bss.tftp_cur_block
                0x00000000178bf0fc        0x4 net/built-in.o
 .bss.tftp_filename
                0x00000000178bf100       0x80 net/built-in.o
 .bss.tftp_our_port
                0x00000000178bf180        0x4 net/built-in.o
 .bss.tftp_prev_block
                0x00000000178bf184        0x4 net/built-in.o
 .bss.tftp_remote_ip
                0x00000000178bf188        0x4 net/built-in.o
 .bss.tftp_remote_port
                0x00000000178bf18c        0x4 net/built-in.o
 .bss.tftp_state
                0x00000000178bf190        0x4 net/built-in.o
 .bss.timeout_count
                0x00000000178bf194        0x4 net/built-in.o
                0x00000000178bf198                . = ALIGN (0x4)
                0x00000000178bf198                __bss_limit = .

.bss_end        0x00000000178bf198        0x0
 *(.__bss_end)
 .__bss_end     0x00000000178bf198        0x0 arch/arm/lib/built-in.o
                0x00000000178bf198                __bss_end

.dynsym         0x00000000178935e8       0x30
 *(.dynsym)
 .dynsym        0x00000000178935e8       0x30 arch/arm/cpu/armv7/start.o

.dynbss         0x0000000017893618        0x0
 *(.dynbss)
 .dynbss        0x0000000017893618        0x0 arch/arm/cpu/armv7/start.o

.dynstr         0x0000000017893618        0x1
 *(.dynstr*)
 .dynstr        0x0000000017893618        0x1 arch/arm/cpu/armv7/start.o

.dynamic        0x000000001789361c       0x88
 *(.dynamic*)
 .dynamic       0x000000001789361c       0x88 arch/arm/cpu/armv7/start.o
                0x000000001789361c                _DYNAMIC

.plt            0x00000000178936a4        0x0
 *(.plt*)
 .plt           0x00000000178936a4        0x0 arch/arm/cpu/armv7/start.o

.interp
 *(.interp*)

.gnu.hash
 *(.gnu.hash)

.gnu            0x00000000178936a4        0x0
 *(.gnu*)
 .gnu.version_d
                0x00000000178936a4        0x0 arch/arm/cpu/armv7/start.o
 .gnu.version   0x00000000178936a4        0x0 arch/arm/cpu/armv7/start.o
 .gnu.version_r
                0x00000000178936a4        0x0 arch/arm/cpu/armv7/start.o

.ARM.exidx
 *(.ARM.exidx*)

.gnu.linkonce.armexidx
 *(.gnu.linkonce.armexidx.*)
LOAD arch/arm/cpu/armv7/start.o
START GROUP
LOAD arch/arm/cpu/built-in.o
LOAD arch/arm/cpu/armv7/built-in.o
LOAD arch/arm/lib/built-in.o
LOAD arch/arm/mach-imx/built-in.o
LOAD board/freescale/common/built-in.o
LOAD board/freescale/mx6sabresd/built-in.o
LOAD cmd/built-in.o
LOAD common/built-in.o
LOAD disk/built-in.o
LOAD drivers/built-in.o
LOAD drivers/dma/built-in.o
LOAD drivers/gpio/built-in.o
LOAD drivers/i2c/built-in.o
LOAD drivers/mtd/built-in.o
LOAD drivers/mtd/onenand/built-in.o
LOAD drivers/mtd/spi/built-in.o
LOAD drivers/net/built-in.o
LOAD drivers/net/phy/built-in.o
LOAD drivers/pci/built-in.o
LOAD drivers/power/built-in.o
LOAD drivers/power/battery/built-in.o
LOAD drivers/power/domain/built-in.o
LOAD drivers/power/fuel_gauge/built-in.o
LOAD drivers/power/mfd/built-in.o
LOAD drivers/power/pmic/built-in.o
LOAD drivers/power/regulator/built-in.o
LOAD drivers/serial/built-in.o
LOAD drivers/spi/built-in.o
LOAD drivers/usb/cdns3/built-in.o
LOAD drivers/usb/common/built-in.o
LOAD drivers/usb/dwc3/built-in.o
LOAD drivers/usb/emul/built-in.o
LOAD drivers/usb/eth/built-in.o
LOAD drivers/usb/gadget/built-in.o
LOAD drivers/usb/gadget/udc/built-in.o
LOAD drivers/usb/host/built-in.o
LOAD drivers/usb/musb-new/built-in.o
LOAD drivers/usb/musb/built-in.o
LOAD drivers/usb/phy/built-in.o
LOAD drivers/usb/ulpi/built-in.o
LOAD env/built-in.o
LOAD fs/built-in.o
LOAD lib/built-in.o
LOAD net/built-in.o
LOAD test/built-in.o
LOAD test/dm/built-in.o
END GROUP
LOAD arch/arm/lib/eabi_compat.o
LOAD arch/arm/lib/lib.a
OUTPUT(u-boot elf32-littlearm)

.ARM.attributes
                0x0000000000000000       0x2b
 .ARM.attributes
                0x0000000000000000       0x1f arch/arm/cpu/armv7/start.o
 .ARM.attributes
                0x000000000000001f       0x2d arch/arm/cpu/armv7/built-in.o
 .ARM.attributes
                0x000000000000004c       0x2b arch/arm/lib/built-in.o
 .ARM.attributes
                0x0000000000000077       0x2d arch/arm/mach-imx/built-in.o
 .ARM.attributes
                0x00000000000000a4       0x2d board/freescale/common/built-in.o
 .ARM.attributes
                0x00000000000000d1       0x2d board/freescale/mx6sabresd/built-in.o
 .ARM.attributes
                0x00000000000000fe       0x2f cmd/built-in.o
 .ARM.attributes
                0x000000000000012d       0x2d common/built-in.o
 .ARM.attributes
                0x000000000000015a       0x2d disk/built-in.o
 .ARM.attributes
                0x0000000000000187       0x2f drivers/built-in.o
 .ARM.attributes
                0x00000000000001b6       0x2d drivers/gpio/built-in.o
 .ARM.attributes
                0x00000000000001e3       0x2d drivers/i2c/built-in.o
 .ARM.attributes
                0x0000000000000210       0x2d drivers/mtd/built-in.o
 .ARM.attributes
                0x000000000000023d       0x2f drivers/mtd/spi/built-in.o
 .ARM.attributes
                0x000000000000026c       0x2d drivers/net/built-in.o
 .ARM.attributes
                0x0000000000000299       0x2d drivers/net/phy/built-in.o
 .ARM.attributes
                0x00000000000002c6       0x2d drivers/power/pmic/built-in.o
 .ARM.attributes
                0x00000000000002f3       0x2d drivers/power/regulator/built-in.o
 .ARM.attributes
                0x0000000000000320       0x2d drivers/serial/built-in.o
 .ARM.attributes
                0x000000000000034d       0x2d drivers/spi/built-in.o
 .ARM.attributes
                0x000000000000037a       0x2d drivers/usb/eth/built-in.o
 .ARM.attributes
                0x00000000000003a7       0x2d drivers/usb/gadget/built-in.o
 .ARM.attributes
                0x00000000000003d4       0x2d drivers/usb/host/built-in.o
 .ARM.attributes
                0x0000000000000401       0x2d env/built-in.o
 .ARM.attributes
                0x000000000000042e       0x2d fs/built-in.o
 .ARM.attributes
                0x000000000000045b       0x2f lib/built-in.o
 .ARM.attributes
                0x000000000000048a       0x2d net/built-in.o
 .ARM.attributes
                0x00000000000004b7       0x2d test/dm/built-in.o
 .ARM.attributes
                0x00000000000004e4       0x1f arch/arm/lib/lib.a(ashldi3.o)
 .ARM.attributes
                0x0000000000000503       0x1f arch/arm/lib/lib.a(lib1funcs.o)
 .ARM.attributes
                0x0000000000000522       0x1f arch/arm/lib/lib.a(lshrdi3.o)
 .ARM.attributes
                0x0000000000000541       0x1f arch/arm/lib/lib.a(uldivmod.o)
 .ARM.attributes
                0x0000000000000560       0x2d arch/arm/lib/lib.a(div0.o)

.comment        0x0000000000000000       0x24
 .comment       0x0000000000000000       0x24 arch/arm/cpu/armv7/built-in.o
                                         0x94 (size before relaxing)
 .comment       0x0000000000000024      0x197 arch/arm/lib/built-in.o
 .comment       0x0000000000000024      0x206 arch/arm/mach-imx/built-in.o
 .comment       0x0000000000000024       0x4a board/freescale/common/built-in.o
 .comment       0x0000000000000024       0x25 board/freescale/mx6sabresd/built-in.o
 .comment       0x0000000000000024      0x637 cmd/built-in.o
 .comment       0x0000000000000024      0x50f common/built-in.o
 .comment       0x0000000000000024       0x6f disk/built-in.o
 .comment       0x0000000000000024      0x5a3 drivers/built-in.o
 .comment       0x0000000000000024       0x4a drivers/gpio/built-in.o
 .comment       0x0000000000000024       0x4a drivers/i2c/built-in.o
 .comment       0x0000000000000024       0x4a drivers/mtd/built-in.o
 .comment       0x0000000000000024       0x94 drivers/mtd/spi/built-in.o
 .comment       0x0000000000000024       0x25 drivers/net/built-in.o
 .comment       0x0000000000000024       0x4a drivers/net/phy/built-in.o
 .comment       0x0000000000000024       0x4a drivers/power/pmic/built-in.o
 .comment       0x0000000000000024       0x94 drivers/power/regulator/built-in.o
 .comment       0x0000000000000024       0x4a drivers/serial/built-in.o
 .comment       0x0000000000000024       0x4a drivers/spi/built-in.o
 .comment       0x0000000000000024       0x4a drivers/usb/eth/built-in.o
 .comment       0x0000000000000024      0x128 drivers/usb/gadget/built-in.o
 .comment       0x0000000000000024       0x6f drivers/usb/host/built-in.o
 .comment       0x0000000000000024       0xde env/built-in.o
 .comment       0x0000000000000024      0x14d fs/built-in.o
 .comment       0x0000000000000024      0x8ac lib/built-in.o
 .comment       0x0000000000000024      0x14d net/built-in.o
 .comment       0x0000000000000024       0x25 test/dm/built-in.o
 .comment       0x0000000000000024       0x25 arch/arm/lib/lib.a(div0.o)

.note.GNU-stack
                0x0000000000000000        0x0
 .note.GNU-stack
                0x0000000000000000        0x0 arch/arm/cpu/armv7/built-in.o
 .note.GNU-stack
                0x0000000000000000        0x0 arch/arm/lib/built-in.o
 .note.GNU-stack
                0x0000000000000000        0x0 arch/arm/mach-imx/built-in.o
 .note.GNU-stack
                0x0000000000000000        0x0 board/freescale/common/built-in.o
 .note.GNU-stack
                0x0000000000000000        0x0 board/freescale/mx6sabresd/built-in.o
 .note.GNU-stack
                0x0000000000000000        0x0 cmd/built-in.o
 .note.GNU-stack
                0x0000000000000000        0x0 common/built-in.o
 .note.GNU-stack
                0x0000000000000000        0x0 disk/built-in.o
 .note.GNU-stack
                0x0000000000000000        0x0 drivers/built-in.o
 .note.GNU-stack
                0x0000000000000000        0x0 drivers/gpio/built-in.o
 .note.GNU-stack
                0x0000000000000000        0x0 drivers/i2c/built-in.o
 .note.GNU-stack
                0x0000000000000000        0x0 drivers/mtd/built-in.o
 .note.GNU-stack
                0x0000000000000000        0x0 drivers/mtd/spi/built-in.o
 .note.GNU-stack
                0x0000000000000000        0x0 drivers/net/built-in.o
 .note.GNU-stack
                0x0000000000000000        0x0 drivers/net/phy/built-in.o
 .note.GNU-stack
                0x0000000000000000        0x0 drivers/power/pmic/built-in.o
 .note.GNU-stack
                0x0000000000000000        0x0 drivers/power/regulator/built-in.o
 .note.GNU-stack
                0x0000000000000000        0x0 drivers/serial/built-in.o
 .note.GNU-stack
                0x0000000000000000        0x0 drivers/spi/built-in.o
 .note.GNU-stack
                0x0000000000000000        0x0 drivers/usb/eth/built-in.o
 .note.GNU-stack
                0x0000000000000000        0x0 drivers/usb/gadget/built-in.o
 .note.GNU-stack
                0x0000000000000000        0x0 drivers/usb/host/built-in.o
 .note.GNU-stack
                0x0000000000000000        0x0 env/built-in.o
 .note.GNU-stack
                0x0000000000000000        0x0 fs/built-in.o
 .note.GNU-stack
                0x0000000000000000        0x0 lib/built-in.o
 .note.GNU-stack
                0x0000000000000000        0x0 net/built-in.o
 .note.GNU-stack
                0x0000000000000000        0x0 test/dm/built-in.o
 .note.GNU-stack
                0x0000000000000000        0x0 arch/arm/lib/lib.a(div0.o)

.debug_line     0x0000000000000000    0x3e996
 .debug_line    0x0000000000000000       0x98 arch/arm/cpu/armv7/start.o
 .debug_line    0x0000000000000098      0x6f7 arch/arm/cpu/armv7/built-in.o
 .debug_line    0x000000000000078f     0x17f2 arch/arm/lib/built-in.o
 .debug_line    0x0000000000001f81     0x2996 arch/arm/mach-imx/built-in.o
 .debug_line    0x0000000000004917      0x3a8 board/freescale/common/built-in.o
 .debug_line    0x0000000000004cbf      0x68c board/freescale/mx6sabresd/built-in.o
 .debug_line    0x000000000000534b     0x7415 cmd/built-in.o
 .debug_line    0x000000000000c760     0x8cbe common/built-in.o
 .debug_line    0x000000000001541e     0x10a4 disk/built-in.o
 .debug_line    0x00000000000164c2     0xa207 drivers/built-in.o
 .debug_line    0x00000000000206c9      0xb5a drivers/gpio/built-in.o
 .debug_line    0x0000000000021223      0xa68 drivers/i2c/built-in.o
 .debug_line    0x0000000000021c8b      0x9b1 drivers/mtd/built-in.o
 .debug_line    0x000000000002263c      0xc50 drivers/mtd/spi/built-in.o
 .debug_line    0x000000000002328c      0x6f4 drivers/net/built-in.o
 .debug_line    0x0000000000023980      0x8aa drivers/net/phy/built-in.o
 .debug_line    0x000000000002422a      0x5ed drivers/power/pmic/built-in.o
 .debug_line    0x0000000000024817      0xe84 drivers/power/regulator/built-in.o
 .debug_line    0x000000000002569b      0x6ce drivers/serial/built-in.o
 .debug_line    0x0000000000025d69      0x635 drivers/spi/built-in.o
 .debug_line    0x000000000002639e      0x7df drivers/usb/eth/built-in.o
 .debug_line    0x0000000000026b7d     0x4365 drivers/usb/gadget/built-in.o
 .debug_line    0x000000000002aee2     0x1572 drivers/usb/host/built-in.o
 .debug_line    0x000000000002c454      0xfdd env/built-in.o
 .debug_line    0x000000000002d431     0x3874 fs/built-in.o
 .debug_line    0x0000000000030ca5     0xb068 lib/built-in.o
 .debug_line    0x000000000003bd0d     0x27b8 net/built-in.o
 .debug_line    0x000000000003e4c5      0x259 test/dm/built-in.o
 .debug_line    0x000000000003e71e       0x4c arch/arm/lib/lib.a(ashldi3.o)
 .debug_line    0x000000000003e76a       0xf1 arch/arm/lib/lib.a(lib1funcs.o)
 .debug_line    0x000000000003e85b       0x4c arch/arm/lib/lib.a(lshrdi3.o)
 .debug_line    0x000000000003e8a7       0xab arch/arm/lib/lib.a(uldivmod.o)
 .debug_line    0x000000000003e952       0x44 arch/arm/lib/lib.a(div0.o)

.debug_info     0x0000000000000000   0x1f82a8
 .debug_info    0x0000000000000000       0x64 arch/arm/cpu/armv7/start.o
 .debug_info    0x0000000000000064     0x2c5a arch/arm/cpu/armv7/built-in.o
 .debug_info    0x0000000000002cbe     0xb936 arch/arm/lib/built-in.o
 .debug_info    0x000000000000e5f4    0x19c0d arch/arm/mach-imx/built-in.o
 .debug_info    0x0000000000028201     0x1cfe board/freescale/common/built-in.o
 .debug_info    0x0000000000029eff     0x6c54 board/freescale/mx6sabresd/built-in.o
 .debug_info    0x0000000000030b53    0x3f62d cmd/built-in.o
 .debug_info    0x0000000000070180    0x428e4 common/built-in.o
 .debug_info    0x00000000000b2a64     0x6f1d disk/built-in.o
 .debug_info    0x00000000000b9981    0x4fce5 drivers/built-in.o
 .debug_info    0x0000000000109666     0x51b9 drivers/gpio/built-in.o
 .debug_info    0x000000000010e81f     0x5458 drivers/i2c/built-in.o
 .debug_info    0x0000000000113c77     0x4466 drivers/mtd/built-in.o
 .debug_info    0x00000000001180dd     0x6329 drivers/mtd/spi/built-in.o
 .debug_info    0x000000000011e406     0x3fb5 drivers/net/built-in.o
 .debug_info    0x00000000001223bb     0x394c drivers/net/phy/built-in.o
 .debug_info    0x0000000000125d07     0x326f drivers/power/pmic/built-in.o
 .debug_info    0x0000000000128f76     0x76de drivers/power/regulator/built-in.o
 .debug_info    0x0000000000130654     0x3321 drivers/serial/built-in.o
 .debug_info    0x0000000000133975     0x2d60 drivers/spi/built-in.o
 .debug_info    0x00000000001366d5     0x4bb7 drivers/usb/eth/built-in.o
 .debug_info    0x000000000013b28c    0x1f77a drivers/usb/gadget/built-in.o
 .debug_info    0x000000000015aa06     0xbc54 drivers/usb/host/built-in.o
 .debug_info    0x000000000016665a     0x8689 env/built-in.o
 .debug_info    0x000000000016ece3    0x18df3 fs/built-in.o
 .debug_info    0x0000000000187ad6    0x5c02d lib/built-in.o
 .debug_info    0x00000000001e3b03    0x12f8a net/built-in.o
 .debug_info    0x00000000001f6a8d     0x1645 test/dm/built-in.o
 .debug_info    0x00000000001f80d2       0x60 arch/arm/lib/lib.a(ashldi3.o)
 .debug_info    0x00000000001f8132       0x5e arch/arm/lib/lib.a(lib1funcs.o)
 .debug_info    0x00000000001f8190       0x60 arch/arm/lib/lib.a(lshrdi3.o)
 .debug_info    0x00000000001f81f0       0x61 arch/arm/lib/lib.a(uldivmod.o)
 .debug_info    0x00000000001f8251       0x57 arch/arm/lib/lib.a(div0.o)

.debug_abbrev   0x0000000000000000    0x3dc83
 .debug_abbrev  0x0000000000000000       0x14 arch/arm/cpu/armv7/start.o
 .debug_abbrev  0x0000000000000014      0x999 arch/arm/cpu/armv7/built-in.o
 .debug_abbrev  0x00000000000009ad     0x1d28 arch/arm/lib/built-in.o
 .debug_abbrev  0x00000000000026d5     0x2d3b arch/arm/mach-imx/built-in.o
 .debug_abbrev  0x0000000000005410      0x540 board/freescale/common/built-in.o
 .debug_abbrev  0x0000000000005950      0x555 board/freescale/mx6sabresd/built-in.o
 .debug_abbrev  0x0000000000005ea5     0x8c3f cmd/built-in.o
 .debug_abbrev  0x000000000000eae4     0x87b9 common/built-in.o
 .debug_abbrev  0x000000000001729d      0xf55 disk/built-in.o
 .debug_abbrev  0x00000000000181f2     0x9f25 drivers/built-in.o
 .debug_abbrev  0x0000000000022117      0x9d1 drivers/gpio/built-in.o
 .debug_abbrev  0x0000000000022ae8      0xaa0 drivers/i2c/built-in.o
 .debug_abbrev  0x0000000000023588      0x83d drivers/mtd/built-in.o
 .debug_abbrev  0x0000000000023dc5      0xd67 drivers/mtd/spi/built-in.o
 .debug_abbrev  0x0000000000024b2c      0x5ce drivers/net/built-in.o
 .debug_abbrev  0x00000000000250fa      0x783 drivers/net/phy/built-in.o
 .debug_abbrev  0x000000000002587d      0x6a8 drivers/power/pmic/built-in.o
 .debug_abbrev  0x0000000000025f25      0xf3b drivers/power/regulator/built-in.o
 .debug_abbrev  0x0000000000026e60      0x888 drivers/serial/built-in.o
 .debug_abbrev  0x00000000000276e8      0x752 drivers/spi/built-in.o
 .debug_abbrev  0x0000000000027e3a      0x87c drivers/usb/eth/built-in.o
 .debug_abbrev  0x00000000000286b6     0x28ec drivers/usb/gadget/built-in.o
 .debug_abbrev  0x000000000002afa2     0x10eb drivers/usb/host/built-in.o
 .debug_abbrev  0x000000000002c08d     0x1639 env/built-in.o
 .debug_abbrev  0x000000000002d6c6     0x268a fs/built-in.o
 .debug_abbrev  0x000000000002fd50     0xb623 lib/built-in.o
 .debug_abbrev  0x000000000003b373     0x2578 net/built-in.o
 .debug_abbrev  0x000000000003d8eb      0x2ec test/dm/built-in.o
 .debug_abbrev  0x000000000003dbd7       0x14 arch/arm/lib/lib.a(ashldi3.o)
 .debug_abbrev  0x000000000003dbeb       0x12 arch/arm/lib/lib.a(lib1funcs.o)
 .debug_abbrev  0x000000000003dbfd       0x14 arch/arm/lib/lib.a(lshrdi3.o)
 .debug_abbrev  0x000000000003dc11       0x14 arch/arm/lib/lib.a(uldivmod.o)
 .debug_abbrev  0x000000000003dc25       0x5e arch/arm/lib/lib.a(div0.o)

.debug_aranges  0x0000000000000000     0x69b0
 .debug_aranges
                0x0000000000000000       0x20 arch/arm/cpu/armv7/start.o
 .debug_aranges
                0x0000000000000020      0x128 arch/arm/cpu/armv7/built-in.o
 .debug_aranges
                0x0000000000000148      0x358 arch/arm/lib/built-in.o
 .debug_aranges
                0x00000000000004a0      0x450 arch/arm/mach-imx/built-in.o
 .debug_aranges
                0x00000000000008f0       0x50 board/freescale/common/built-in.o
 .debug_aranges
                0x0000000000000940       0xc0 board/freescale/mx6sabresd/built-in.o
 .debug_aranges
                0x0000000000000a00      0x9e8 cmd/built-in.o
 .debug_aranges
                0x00000000000013e8      0xf10 common/built-in.o
 .debug_aranges
                0x00000000000022f8      0x168 disk/built-in.o
 .debug_aranges
                0x0000000000002460     0x1010 drivers/built-in.o
 .debug_aranges
                0x0000000000003470      0x1b8 drivers/gpio/built-in.o
 .debug_aranges
                0x0000000000003628      0x120 drivers/i2c/built-in.o
 .debug_aranges
                0x0000000000003748      0x190 drivers/mtd/built-in.o
 .debug_aranges
                0x00000000000038d8      0x100 drivers/mtd/spi/built-in.o
 .debug_aranges
                0x00000000000039d8       0xa0 drivers/net/built-in.o
 .debug_aranges
                0x0000000000003a78      0x108 drivers/net/phy/built-in.o
 .debug_aranges
                0x0000000000003b80       0x90 drivers/power/pmic/built-in.o
 .debug_aranges
                0x0000000000003c10      0x180 drivers/power/regulator/built-in.o
 .debug_aranges
                0x0000000000003d90      0x110 drivers/serial/built-in.o
 .debug_aranges
                0x0000000000003ea0       0x88 drivers/spi/built-in.o
 .debug_aranges
                0x0000000000003f28       0xd0 drivers/usb/eth/built-in.o
 .debug_aranges
                0x0000000000003ff8      0x5c0 drivers/usb/gadget/built-in.o
 .debug_aranges
                0x00000000000045b8      0x220 drivers/usb/host/built-in.o
 .debug_aranges
                0x00000000000047d8      0x1d0 env/built-in.o
 .debug_aranges
                0x00000000000049a8      0x4d8 fs/built-in.o
 .debug_aranges
                0x0000000000004e80     0x1608 lib/built-in.o
 .debug_aranges
                0x0000000000006488      0x428 net/built-in.o
 .debug_aranges
                0x00000000000068b0       0x38 test/dm/built-in.o
 .debug_aranges
                0x00000000000068e8       0x20 arch/arm/lib/lib.a(ashldi3.o)
 .debug_aranges
                0x0000000000006908       0x48 arch/arm/lib/lib.a(lib1funcs.o)
 .debug_aranges
                0x0000000000006950       0x20 arch/arm/lib/lib.a(lshrdi3.o)
 .debug_aranges
                0x0000000000006970       0x20 arch/arm/lib/lib.a(uldivmod.o)
 .debug_aranges
                0x0000000000006990       0x20 arch/arm/lib/lib.a(div0.o)

.debug_frame    0x0000000000000000    0x132c0
 .debug_frame   0x0000000000000000      0x1e8 arch/arm/cpu/armv7/built-in.o
 .debug_frame   0x00000000000001e8      0x4cc arch/arm/lib/built-in.o
 .debug_frame   0x00000000000006b4      0x9f8 arch/arm/mach-imx/built-in.o
 .debug_frame   0x00000000000010ac       0x90 board/freescale/common/built-in.o
 .debug_frame   0x000000000000113c      0x204 board/freescale/mx6sabresd/built-in.o
 .debug_frame   0x0000000000001340     0x1a68 cmd/built-in.o
 .debug_frame   0x0000000000002da8     0x2d54 common/built-in.o
 .debug_frame   0x0000000000005afc      0x5ac disk/built-in.o
 .debug_frame   0x00000000000060a8     0x2e68 drivers/built-in.o
 .debug_frame   0x0000000000008f10      0x5f0 drivers/gpio/built-in.o
 .debug_frame   0x0000000000009500      0x3ec drivers/i2c/built-in.o
 .debug_frame   0x00000000000098ec      0x5e4 drivers/mtd/built-in.o
 .debug_frame   0x0000000000009ed0      0x2c0 drivers/mtd/spi/built-in.o
 .debug_frame   0x000000000000a190      0x1f0 drivers/net/built-in.o
 .debug_frame   0x000000000000a380      0x310 drivers/net/phy/built-in.o
 .debug_frame   0x000000000000a690      0x18c drivers/power/pmic/built-in.o
 .debug_frame   0x000000000000a81c      0x4c8 drivers/power/regulator/built-in.o
 .debug_frame   0x000000000000ace4      0x29c drivers/serial/built-in.o
 .debug_frame   0x000000000000af80      0x15c drivers/spi/built-in.o
 .debug_frame   0x000000000000b0dc      0x294 drivers/usb/eth/built-in.o
 .debug_frame   0x000000000000b370     0x1268 drivers/usb/gadget/built-in.o
 .debug_frame   0x000000000000c5d8      0x65c drivers/usb/host/built-in.o
 .debug_frame   0x000000000000cc34      0x52c env/built-in.o
 .debug_frame   0x000000000000d160     0x1158 fs/built-in.o
 .debug_frame   0x000000000000e2b8     0x4220 lib/built-in.o
 .debug_frame   0x00000000000124d8      0xd4c net/built-in.o
 .debug_frame   0x0000000000013224       0x7c test/dm/built-in.o
 .debug_frame   0x00000000000132a0       0x20 arch/arm/lib/lib.a(div0.o)

.debug_str      0x0000000000000000    0x2fb92
 .debug_str     0x0000000000000000      0xad6 arch/arm/cpu/armv7/built-in.o
                                       0x2634 (size before relaxing)
 .debug_str     0x0000000000000ad6     0x246f arch/arm/lib/built-in.o
                                       0xa562 (size before relaxing)
 .debug_str     0x0000000000002f45     0x6ec9 arch/arm/mach-imx/built-in.o
                                      0x19318 (size before relaxing)
 .debug_str     0x0000000000009e0e      0x3f2 board/freescale/common/built-in.o
                                       0x1c55 (size before relaxing)
 .debug_str     0x000000000000a200     0x7f20 board/freescale/mx6sabresd/built-in.o
                                       0xa41b (size before relaxing)
 .debug_str     0x0000000000012120     0x479d cmd/built-in.o
                                      0x309e2 (size before relaxing)
 .debug_str     0x00000000000168bd     0x42b4 common/built-in.o
                                      0x2f672 (size before relaxing)
 .debug_str     0x000000000001ab71      0x8ab disk/built-in.o
                                       0x3efe (size before relaxing)
 .debug_str     0x000000000001b41c     0x5874 drivers/built-in.o
                                      0x364e8 (size before relaxing)
 .debug_str     0x0000000000020c90      0x523 drivers/gpio/built-in.o
                                       0x2fcf (size before relaxing)
 .debug_str     0x00000000000211b3      0x3e8 drivers/i2c/built-in.o
                                       0x2fad (size before relaxing)
 .debug_str     0x000000000002159b      0xa52 drivers/mtd/built-in.o
                                       0x26e0 (size before relaxing)
 .debug_str     0x0000000000021fed      0x3fe drivers/mtd/spi/built-in.o
                                       0x486d (size before relaxing)
 .debug_str     0x00000000000223eb      0x7d6 drivers/net/built-in.o
                                       0x1f3c (size before relaxing)
 .debug_str     0x0000000000022bc1      0x25a drivers/net/phy/built-in.o
                                       0x1eaf (size before relaxing)
 .debug_str     0x0000000000022e1b      0x1aa drivers/power/pmic/built-in.o
                                       0x2ba8 (size before relaxing)
 .debug_str     0x0000000000022fc5      0x851 drivers/power/regulator/built-in.o
                                       0x5eaa (size before relaxing)
 .debug_str     0x0000000000023816      0x223 drivers/serial/built-in.o
                                       0x2700 (size before relaxing)
 .debug_str     0x0000000000023a39      0x197 drivers/spi/built-in.o
                                       0x2087 (size before relaxing)
 .debug_str     0x0000000000023bd0      0x36c drivers/usb/eth/built-in.o
                                       0x32c7 (size before relaxing)
 .debug_str     0x0000000000023f3c     0x2bd5 drivers/usb/gadget/built-in.o
                                       0xe81c (size before relaxing)
 .debug_str     0x0000000000026b11      0x936 drivers/usb/host/built-in.o
                                       0x673d (size before relaxing)
 .debug_str     0x0000000000027447      0x74b env/built-in.o
                                       0x7069 (size before relaxing)
 .debug_str     0x0000000000027b92     0x1ced fs/built-in.o
                                       0xd128 (size before relaxing)
 .debug_str     0x000000000002987f     0x4f58 lib/built-in.o
                                      0x3a063 (size before relaxing)
 .debug_str     0x000000000002e7d7     0x1327 net/built-in.o
                                       0xe443 (size before relaxing)
 .debug_str     0x000000000002fafe       0x79 test/dm/built-in.o
                                       0x13b1 (size before relaxing)
 .debug_str     0x000000000002fb77       0x1b arch/arm/lib/lib.a(div0.o)
                                        0x1b0 (size before relaxing)

.debug_loc      0x0000000000000000    0x9b82a
 .debug_loc     0x0000000000000000      0x41e arch/arm/cpu/armv7/built-in.o
 .debug_loc     0x000000000000041e      0xf63 arch/arm/lib/built-in.o
 .debug_loc     0x0000000000001381     0x3875 arch/arm/mach-imx/built-in.o
 .debug_loc     0x0000000000004bf6      0x206 board/freescale/common/built-in.o
 .debug_loc     0x0000000000004dfc      0xbc6 board/freescale/mx6sabresd/built-in.o
 .debug_loc     0x00000000000059c2     0xffba cmd/built-in.o
 .debug_loc     0x000000000001597c    0x1452a common/built-in.o
 .debug_loc     0x0000000000029ea6     0x284b disk/built-in.o
 .debug_loc     0x000000000002c6f1    0x177ce drivers/built-in.o
 .debug_loc     0x0000000000043ebf     0x1dc2 drivers/gpio/built-in.o
 .debug_loc     0x0000000000045c81     0x1dc6 drivers/i2c/built-in.o
 .debug_loc     0x0000000000047a47     0x258e drivers/mtd/built-in.o
 .debug_loc     0x0000000000049fd5     0x1db5 drivers/mtd/spi/built-in.o
 .debug_loc     0x000000000004bd8a     0x1753 drivers/net/built-in.o
 .debug_loc     0x000000000004d4dd     0x1f26 drivers/net/phy/built-in.o
 .debug_loc     0x000000000004f403      0x7ce drivers/power/pmic/built-in.o
 .debug_loc     0x000000000004fbd1     0x1873 drivers/power/regulator/built-in.o
 .debug_loc     0x0000000000051444      0x678 drivers/serial/built-in.o
 .debug_loc     0x0000000000051abc     0x100f drivers/spi/built-in.o
 .debug_loc     0x0000000000052acb      0xd45 drivers/usb/eth/built-in.o
 .debug_loc     0x0000000000053810     0xd46d drivers/usb/gadget/built-in.o
 .debug_loc     0x0000000000060c7d     0x436e drivers/usb/host/built-in.o
 .debug_loc     0x0000000000064feb     0x1a57 env/built-in.o
 .debug_loc     0x0000000000066a42     0xecd9 fs/built-in.o
 .debug_loc     0x000000000007571b    0x20b7e lib/built-in.o
 .debug_loc     0x0000000000096299     0x5307 net/built-in.o
 .debug_loc     0x000000000009b5a0      0x28a test/dm/built-in.o

.debug_ranges   0x0000000000000000    0x10368
 .debug_ranges  0x0000000000000000      0x128 arch/arm/cpu/armv7/built-in.o
 .debug_ranges  0x0000000000000128      0x378 arch/arm/lib/built-in.o
 .debug_ranges  0x00000000000004a0      0x848 arch/arm/mach-imx/built-in.o
 .debug_ranges  0x0000000000000ce8       0x30 board/freescale/common/built-in.o
 .debug_ranges  0x0000000000000d18      0x148 board/freescale/mx6sabresd/built-in.o
 .debug_ranges  0x0000000000000e60     0x15b8 cmd/built-in.o
 .debug_ranges  0x0000000000002418     0x1dd8 common/built-in.o
 .debug_ranges  0x00000000000041f0      0x568 disk/built-in.o
 .debug_ranges  0x0000000000004758     0x2f38 drivers/built-in.o
 .debug_ranges  0x0000000000007690      0x310 drivers/gpio/built-in.o
 .debug_ranges  0x00000000000079a0      0x398 drivers/i2c/built-in.o
 .debug_ranges  0x0000000000007d38      0x238 drivers/mtd/built-in.o
 .debug_ranges  0x0000000000007f70      0x228 drivers/mtd/spi/built-in.o
 .debug_ranges  0x0000000000008198      0x418 drivers/net/built-in.o
 .debug_ranges  0x00000000000085b0      0x3a8 drivers/net/phy/built-in.o
 .debug_ranges  0x0000000000008958       0x70 drivers/power/pmic/built-in.o
 .debug_ranges  0x00000000000089c8      0x260 drivers/power/regulator/built-in.o
 .debug_ranges  0x0000000000008c28      0x138 drivers/serial/built-in.o
 .debug_ranges  0x0000000000008d60      0x148 drivers/spi/built-in.o
 .debug_ranges  0x0000000000008ea8      0x1f0 drivers/usb/eth/built-in.o
 .debug_ranges  0x0000000000009098     0x1d10 drivers/usb/gadget/built-in.o
 .debug_ranges  0x000000000000ada8      0x7e0 drivers/usb/host/built-in.o
 .debug_ranges  0x000000000000b588      0x338 env/built-in.o
 .debug_ranges  0x000000000000b8c0     0x1408 fs/built-in.o
 .debug_ranges  0x000000000000ccc8     0x2b80 lib/built-in.o
 .debug_ranges  0x000000000000f848      0xaa8 net/built-in.o
 .debug_ranges  0x00000000000102f0       0x28 test/dm/built-in.o
 .debug_ranges  0x0000000000010318       0x40 arch/arm/lib/lib.a(lib1funcs.o)
 .debug_ranges  0x0000000000010358       0x10 arch/arm/lib/lib.a(div0.o)
