
484d4143-2d53-4841-3120-4a6f636b6542.elf:     file format elf32-littlearm
484d4143-2d53-4841-3120-4a6f636b6542.elf
architecture: arm, flags 0x00000150:
HAS_SYMS, DYNAMIC, D_PAGED
start address 0x00000020

Program Header:
0x70000001 off    0x00018468 vaddr 0x00008468 paddr 0x00008468 align 2**2
         filesz 0x00000648 memsz 0x00000648 flags r--
    LOAD off    0x00010000 vaddr 0x00000000 paddr 0x00000000 align 2**16
         filesz 0x00006de8 memsz 0x00006de8 flags r-x
    LOAD off    0x00016de8 vaddr 0x00006de8 paddr 0x00006de8 align 2**16
         filesz 0x00002004 memsz 0x00002004 flags r--
    LOAD off    0x00019000 vaddr 0x00009000 paddr 0x00009000 align 2**16
         filesz 0x0000008c memsz 0x0000aa10 flags rw-
 DYNAMIC off    0x00018be0 vaddr 0x00008be0 paddr 0x00008be0 align 2**2
         filesz 0x00000080 memsz 0x00000080 flags rw-

Dynamic Section:
  HASH                 0x00008da8
  STRTAB               0x00008d20
  SYMTAB               0x00008c60
  STRSZ                0x00000088
  SYMENT               0x00000010
  DEBUG                0x00000000
  REL                  0x00008ae0
  RELSZ                0x00000100
  RELENT               0x00000008
  FLAGS_1              0x08000000
  RELCOUNT             0x00000017
private flags = 5000400: [Version5 EABI] [hard-float ABI]

Sections:
Idx Name          Size      VMA       LMA       File off  Algn
  0 .ta_head      00000020  00000000  00000000  00010000  2**3
                  CONTENTS, ALLOC, LOAD, DATA
  1 .text         00006dc8  00000020  00000020  00010020  2**3
                  CONTENTS, ALLOC, LOAD, READONLY, CODE
  2 .rodata       00001553  00006de8  00006de8  00016de8  2**2
                  CONTENTS, ALLOC, LOAD, READONLY, DATA
  3 .ARM.extab    000000fc  0000833c  0000833c  0001833c  2**2
                  CONTENTS, ALLOC, LOAD, READONLY, DATA
  4 .ARM.extab.text.utee_panic 0000000c  00008438  00008438  00018438  2**2
                  CONTENTS, ALLOC, LOAD, READONLY, DATA
  5 .ARM.extab.text.unlikely 0000000c  00008444  00008444  00018444  2**2
                  CONTENTS, ALLOC, LOAD, READONLY, DATA
  6 .ARM.extab.text.__aeabi_ldivmod 0000000c  00008450  00008450  00018450  2**2
                  CONTENTS, ALLOC, LOAD, READONLY, DATA
  7 .ARM.extab.text.__aeabi_uldivmod 0000000c  0000845c  0000845c  0001845c  2**2
                  CONTENTS, ALLOC, LOAD, READONLY, DATA
  8 .ARM.exidx    00000648  00008468  00008468  00018468  2**2
                  CONTENTS, ALLOC, LOAD, READONLY, DATA
  9 .got          00000030  00008ab0  00008ab0  00018ab0  2**2
                  CONTENTS, ALLOC, LOAD, DATA
 10 .dynsym       000000c0  00008c60  00008c60  00018c60  2**2
                  CONTENTS, ALLOC, LOAD, READONLY, DATA
 11 .rel.got      00000048  00008b98  00008b98  00018b98  2**2
                  CONTENTS, ALLOC, LOAD, READONLY, DATA
 12 .dynamic      00000080  00008be0  00008be0  00018be0  2**2
                  CONTENTS, ALLOC, LOAD, DATA
 13 .dynstr       00000088  00008d20  00008d20  00018d20  2**0
                  CONTENTS, ALLOC, LOAD, READONLY, DATA
 14 .hash         00000044  00008da8  00008da8  00018da8  2**2
                  CONTENTS, ALLOC, LOAD, READONLY, DATA
 15 .data         0000008c  00009000  00009000  00019000  2**2
                  CONTENTS, ALLOC, LOAD, DATA
 16 .bss          0000a984  0000908c  0000908c  0001908c  2**2
                  ALLOC
 17 .debug_info   00011eec  00000000  00000000  0001908c  2**0
                  CONTENTS, READONLY, DEBUGGING
 18 .debug_abbrev 0000462a  00000000  00000000  0002af78  2**0
                  CONTENTS, READONLY, DEBUGGING
 19 .debug_loc    0001027f  00000000  00000000  0002f5a2  2**0
                  CONTENTS, READONLY, DEBUGGING
 20 .debug_aranges 000007f0  00000000  00000000  0003f828  2**3
                  CONTENTS, READONLY, DEBUGGING
 21 .debug_ranges 000009d0  00000000  00000000  00040018  2**3
                  CONTENTS, READONLY, DEBUGGING
 22 .debug_macro  00005c64  00000000  00000000  000409e8  2**0
                  CONTENTS, READONLY, DEBUGGING
 23 .debug_line   00006f2f  00000000  00000000  0004664c  2**0
                  CONTENTS, READONLY, DEBUGGING
 24 .debug_str    00011926  00000000  00000000  0004d57b  2**0
                  CONTENTS, READONLY, DEBUGGING
 25 .comment      00000024  00000000  00000000  0005eea1  2**0
                  CONTENTS, READONLY
 26 .ARM.attributes 00000035  00000000  00000000  0005eec5  2**0
                  CONTENTS, READONLY
 27 .debug_frame  00002118  00000000  00000000  0005eefc  2**2
                  CONTENTS, READONLY, DEBUGGING
 28 .rel.dyn      000000b8  00008ae0  00008ae0  00018ae0  2**2
                  CONTENTS, ALLOC, LOAD, READONLY, DATA
SYMBOL TABLE:
00000000 l    d  .ta_head	00000000 .ta_head
00000020 l    d  .text	00000000 .text
00006de8 l    d  .rodata	00000000 .rodata
0000833c l    d  .ARM.extab	00000000 .ARM.extab
00008438 l    d  .ARM.extab.text.utee_panic	00000000 .ARM.extab.text.utee_panic
00008444 l    d  .ARM.extab.text.unlikely	00000000 .ARM.extab.text.unlikely
00008450 l    d  .ARM.extab.text.__aeabi_ldivmod	00000000 .ARM.extab.text.__aeabi_ldivmod
0000845c l    d  .ARM.extab.text.__aeabi_uldivmod	00000000 .ARM.extab.text.__aeabi_uldivmod
00008468 l    d  .ARM.exidx	00000000 .ARM.exidx
00008ab0 l    d  .got	00000000 .got
00008b98 l    d  .rel.got	00000000 .rel.got
00008be0 l    d  .dynamic	00000000 .dynamic
00008c60 l    d  .dynsym	00000000 .dynsym
00008d20 l    d  .dynstr	00000000 .dynstr
00008da8 l    d  .hash	00000000 .hash
00009000 l    d  .data	00000000 .data
0000908c l    d  .bss	00000000 .bss
00000000 l    d  .debug_info	00000000 .debug_info
00000000 l    d  .debug_abbrev	00000000 .debug_abbrev
00000000 l    d  .debug_loc	00000000 .debug_loc
00000000 l    d  .debug_aranges	00000000 .debug_aranges
00000000 l    d  .debug_ranges	00000000 .debug_ranges
00000000 l    d  .debug_macro	00000000 .debug_macro
00000000 l    d  .debug_line	00000000 .debug_line
00000000 l    d  .debug_str	00000000 .debug_str
00000000 l    d  .comment	00000000 .comment
00000000 l    d  .ARM.attributes	00000000 .ARM.attributes
00000000 l    d  .debug_frame	00000000 .debug_frame
00008ae0 l    d  .rel.dyn	00000000 .rel.dyn
00000000 l    df *ABS*	00000000 user_ta_header.c
00006dec l     O .rodata	00000004 __compound_literal.5
00006df0 l     O .rodata	00000004 __compound_literal.4
00006df4 l     O .rodata	00000004 __compound_literal.3
00006df8 l     O .rodata	00000001 __compound_literal.2
00006df9 l     O .rodata	00000001 __compound_literal.1
00006dfa l     O .rodata	00000001 __compound_literal.0
00000000 l    df *ABS*	00000000 hotp_ta.c
00007b5c l     O .rodata	00000014 __func__.6205
00007b70 l     O .rodata	00000009 __func__.6216
00007b79 l     O .rodata	0000000a __func__.6192
0000908c l     O .bss	00000040 K
000090cc l     O .bss	00000004 K_len
000090d0 l     O .bss	00000008 counter
00000000 l    df *ABS*	00000000 tee_api_objects.c
00000000 l    df *ABS*	00000000 tee_api_operations.c
00000a24 l     F .text	0000015c tee_buffer_update
00000000 l    df *ABS*	00000000 user_ta_entry.c
00001fec l     F .text	0000001c ta_header_get_session
00002008 l     F .text	00000068 ta_header_remove_session
000090d8 l     O .bss	00000001 init_done
00009074 l     O .data	00000008 ta_sessions
00000000 l    df *ABS*	00000000 utee_syscalls_a32.o
00000000 l    df *ABS*	00000000 gprof_a32.o
00000000 l    df *ABS*	00000000 tee_api_arith.c
00002c64 l     F .text	0000001c TEE_BigInt_Panic
0000910c l     O .bss	000018f0 mempool_u32
00009100 l     O .bss	00000008 mem.6436
00009108 l     O .bss	00000004 mempool
00000000 l    df *ABS*	00000000 tee_api.c
00007d28 l     O .rodata	0000000b __func__.6699
0000a9fc l     O .bss	00000004 tee_api_instance_data
00000000 l    df *ABS*	00000000 trace_ext.c
00000000 l    df *ABS*	00000000 bget_malloc.c
00003004 l     F .text	000000d8 create_free_block.constprop.11
00007d44 l     O .rodata	00000012 __func__.5801
00007d56 l     O .rodata	00000005 __func__.5679
00007d5b l     O .rodata	00000006 __func__.5694
00007d61 l     O .rodata	00000005 __func__.5711
00007d66 l     O .rodata	00000006 __func__.5703
00007d6c l     O .rodata	00000006 __func__.5720
00007d72 l     O .rodata	0000000d __func__.5837
00007d7f l     O .rodata	0000000c __func__.5811
00007d8b l     O .rodata	0000000b __func__.5822
00007d96 l     O .rodata	00000010 __func__.5889
00007da6 l     O .rodata	0000000e __func__.5843
00007db4 l     O .rodata	00000013 __func__.5749
0000aa00 l     O .bss	00000004 malloc_pool_len
0000aa04 l     O .bss	00000004 malloc_pool
0000907c l     O .data	00000010 malloc_poolset
00000000 l    df *ABS*	00000000 snprintk.c
000081a8 l     O .rodata	00000011 HEXDIGITS
000081b9 l     O .rodata	00000011 hexdigits
00000000 l    df *ABS*	00000000 trace.c
00004134 l     F .text	0000004e append
00008202 l     O .rodata	00000005 lvl_strs.5552
00008207 l     O .rodata	0000000a __func__.5603
00000000 l    df *ABS*	00000000 mempool.c
0000824b l     O .rodata	00000013 __func__.5543
00000000 l    df *ABS*	00000000 arm32_aeabi_divmod_a32.o
00000000 l    df *ABS*	00000000 arm32_aeabi_ldivmod_a32.o
00000000 l    df *ABS*	00000000 mpa_misc.c
00000000 l    df *ABS*	00000000 mpa_montgomery.c
00000000 l    df *ABS*	00000000 mpa_primetest.c
00007a64 l     O .rodata	00000010 const_miller_rabin_proof_limit
00007a74 l     O .rodata	0000001c proof_a.5912
00007a90 l     O .rodata	0000000c const_two
00007a9c l     O .rodata	000000b8 const_small_prime_factors
00000000 l    df *ABS*	00000000 mpa_expmod.c
00000000 l    df *ABS*	00000000 mpa_io.c
00004bbc l     F .text	0000002a __mpa_word_to_hexstr
00004be6 l     F .text	0000009c __mpa_mpanum_to_hexstr
00004c82 l     F .text	00000026 __mpa_isspace
00012a08 l     O .bss	00001002 buf.5972
0000829d l     O .rodata	0000000c __func__.5986
000082a9 l     O .rodata	0000000c __func__.6000
00000000 l    df *ABS*	00000000 assert.c
00000000 l    df *ABS*	00000000 tee_api_panic.c
00000000 l    df *ABS*	00000000 snprintf.c
00000000 l    df *ABS*	00000000 memcmp.c
00000000 l    df *ABS*	00000000 memcpy.c
00000000 l    df *ABS*	00000000 memmove.c
00000000 l    df *ABS*	00000000 memset.c
00000000 l    df *ABS*	00000000 strlen.c
00000000 l    df *ABS*	00000000 arm32_aeabi_divmod.c
00005140 l     F .text	0000004a uint_div_qr
00000000 l    df *ABS*	00000000 buf_compare_ct.c
00000000 l    df *ABS*	00000000 aeabi_unwind.c
00000000 l    df *ABS*	00000000 memchr.c
00000000 l    df *ABS*	00000000 arm32_aeabi_ldivmod.c
00000000 l    df *ABS*	00000000 mpa_conv.c
00000000 l    df *ABS*	00000000 mpa_div.c
00000000 l    df *ABS*	00000000 mpa_gcd.c
00005aa2 l     F .text	0000004c __mpa_divby2
00005aee l     F .text	000000e4 __mpa_gcd.part.0
00005bd2 l     F .text	00000236 __mpa_egcd
00000000 l    df *ABS*	00000000 mpa_mem_static.c
00000000 l    df *ABS*	00000000 mpa_mul.c
00000000 l    df *ABS*	00000000 mpa_random.c
00000000 l    df *ABS*	00000000 mpa_shift.c
00000000 l    df *ABS*	00000000 mpa_addsub.c
00000000 l    df *ABS*	00000000 mpa_cmp.c
00000000 l    df *ABS*	00000000 mpa_init.c
00000000 l    df *ABS*	00000000 mpa_modulus.c
00000000 l    df *ABS*	00000000 
00008be0 l     O *ABS*	00000000 _DYNAMIC
00008ab0 l     O *ABS*	00000000 _GLOBAL_OFFSET_TABLE_
00006da8 l     F .text	00000010 __utee_log_from_thumb
00006db8 l     F .text	00000010 __utee_cache_operation_from_thumb
00006dc8 l     F .text	00000010 __utee_panic_from_thumb
00006dd8 l     F .text	00000010 __utee_check_access_rights_from_thumb
000027a0 g     F .text	00000018 utee_se_channel_transmit
000044b0 g     F .text	00000004 ret_idivmod_values
00002fe0 g     F .text	00000022 putchar
00006bdc g     F .text	00000012 mpa_init_static
00000500 g     F .text	00000070 TEE_PopulateTransientObject
00004518 g     F .text	00000022 mpa_copy
00002bd8 g     F .text	00000020 TEE_BigIntConvertToFMM
00002b10 g     F .text	00000008 TEE_BigIntSquareMod
000028dc g     F .text	00000004 TEE_BigIntShiftRight
000054c0 g     F .text	00000042 mpa_get_S32
0000454e g     F .text	0000002a mpa_highest_bit_index
00002590 g     F .text	00000018 utee_storage_obj_create
000053b8 g     F .text	000000ec __l_divmod
00002764 g     F .text	00000014 utee_se_session_close
00002210 g     F .text	00000014 utee_return
00001412 g     F .text	00000030 TEE_DigestUpdate
000026c0 g     F .text	00000014 utee_se_service_get_readers
00002f4c g     F .text	00000004 TEE_Realloc
00005574 g     F .text	000000be __mpa_div_q_r_internal_word
0000127c g     F .text	000000f4 TEE_SetOperationKey2
0000683c g     F .text	00000104 mpa_sub
00002f82 g     F .text	0000003a printf
00002224 g     F .text	00000014 utee_log
00007b54 g     O .rodata	00000004 NR_STORED_PRIMES
00000570 g     F .text	00000022 TEE_InitRefAttribute
00002d6a g     F .text	00000066 TEE_InvokeTACommand
000045a4 g     F .text	00000014 mpa_can_hold
00006056 g     F .text	00000050 __mpa_abs_mul_word
00001a0c g     F .text	00000118 TEE_AEEncryptFinal
000047f4 g     F .text	0000003c mpa_montgomery_mul
0000410c g     F .text	0000000e vsnprintk
000045b8 g     F .text	00000008 mpa_parity
000050ec g     F .text	00000034 memmove
00006582 g     F .text	0000001a __mpa_full_adder_ackum
0000508c g     F .text	0000001e snprintf
000028d8 g     F .text	00000004 TEE_BigIntCmpS32
00000592 g     F .text	00000022 TEE_InitValueAttribute
00005322 g     F .text	00000002 __aeabi_unwind_cpp_pr0
000028f8 g     F .text	00000010 TEE_BigIntAdd
00002264 g     F .text	00000014 utee_get_property_name_to_index
000051aa g     F .text	00000020 __aeabi_uimod
00006dfc g     O .rodata	00000004 ta_heap_size
00007b58 g     O .rodata	00000004 MAX_TABULATED_PRIME
000004d0 g     F .text	00000030 TEE_ResetTransientObject
00002348 g     F .text	00000018 utee_cryp_state_alloc
00002518 g     F .text	00000018 utee_authenc_enc_final
0000603e g     F .text	00000018 __mpa_mul_add_word_cum
000014b4 g     F .text	00000056 TEE_CipherInit
00002918 g     F .text	00000004 TEE_BigIntNeg
00005a14 g     F .text	0000008e mpa_div
00000020 g       .text	00000000 __text_start
00000870 g     F .text	0000002c TEE_StartPersistentObjectEnumerator
00006e04 g     O .rodata	0000000c const_one
00003994 g     F .text	00000048 malloc_buffer_overlaps_heap
00006b32 g     F .text	0000000a __mpa_abs_less_than
00002a30 g     F .text	00000060 TEE_BigIntSubMod
00001888 g     F .text	00000070 TEE_AEInit
00006222 g     F .text	000000a0 mpa_get_random
000041b4 g     F .text	00000144 trace_printf
00002698 g     F .text	00000014 utee_se_service_open
000050d6 g     F .text	00000016 memcpy
00002374 g     F .text	00000014 utee_cryp_state_free
00004502 g     F .text	00000016 mpa_wipe
00002bf8 g     F .text	00000050 TEE_BigIntConvertFromFMM
00005088 g     F .text	00000004 TEE_Panic
0000278c g     F .text	00000014 utee_se_channel_get_select_resp
000044d0 g     F .text	00000018 __aeabi_uldivmod
00001370 g     F .text	000000a2 TEE_CopyOperation
00002fbc g     F .text	00000024 puts
00002c48 g     F .text	0000001c TEE_BigIntComputeFMM
00005502 g     F .text	0000000c mpa_set_word
00006388 g     F .text	000000f4 mpa_shift_left
000023f4 g     F .text	00000018 utee_cipher_final
00006134 g     F .text	00000082 mpa_mul
00002eec g     F .text	00000016 TEE_GetREETime
00000810 g     F .text	00000038 TEE_AllocatePersistentObjectEnumerator
00009004 g     O .data	0000006c ta_props
00001c2c g     F .text	000000bc TEE_AsymmetricEncrypt
00003534 g     F .text	00000018 malloc
0000245c g     F .text	00000014 utee_cryp_obj_close
000026fc g     F .text	00000014 utee_se_reader_open_session
000044b4 g     F .text	00000004 ret_uidivmod_values
000050aa g     F .text	0000000e vsnprintf
0000064c g     F .text	00000048 TEE_GenerateKey
00009000 g     O .data	00000004 trace_level
000028d4 g     F .text	00000004 TEE_BigIntCmp
00006de8 g     O .rodata	00000004 ta_num_props
0000341c g     F .text	0000007c bgetr
00002500 g     F .text	00000018 utee_authenc_update_payload
00004482 g     F .text	0000002e mempool_free
0000150a g     F .text	000000fa TEE_CipherUpdate
00002888 g     F .text	00000034 TEE_BigIntConvertToOctetString
000010fa g     F .text	000000b6 TEE_GetOperationInfoMultiple
000027cc g     F .text	00000014 utee_cache_operation
000024d4 g     F .text	00000018 utee_authenc_init
000028e0 g     F .text	0000000e TEE_BigIntGetBit
00006e00 g     O .rodata	00000003 trace_ext_prefix
0000659c g     F .text	000000aa __mpa_abs_add
000031f8 g     F .text	0000005c bgetz
00002e3c g     F .text	0000000c TEE_GetInstanceData
00002e6a g     F .text	0000001e TEE_Wait
00002648 g     F .text	00000014 utee_storage_obj_write
0000601e g     F .text	00000010 mpa_free_static_temp_var
00004830 g     F .text	00000278 mpa_is_prob_prime
00005326 g     F .text	00000002 __aeabi_unwind_cpp_pr2
000027b8 g     F .text	00000014 utee_se_channel_close
000061b6 g     F .text	0000006c mpa_mul_word
00002f5a g     F .text	00000006 TEE_CacheFlush
00000024 g     F .text	00000002 TA_DestroyEntryPoint
0000504c g     F .text	00000028 _assert_log
00002868 g     F .text	0000000a TEE_BigIntFMMContextSizeInU32
00001824 g     F .text	00000064 TEE_MACCompareFinal
00005238 g     F .text	00000070 __aeabi_imod
000007ca g     F .text	00000046 TEE_RenamePersistentObject
00001442 g     F .text	00000072 TEE_DigestDoFinal
00005632 g     F .text	000003e2 __mpa_div_q_r
000027ec g     F .text	00000038 _TEE_MathAPI_Init
00002620 g     F .text	00000014 utee_storage_next_enum
0000aa08 g     O .bss	00008000 ta_heap
00002b18 g     F .text	00000044 TEE_BigIntInvMod
00000034 g     F .text	00000002 TA_CloseSessionEntryPoint
00001ce8 g     F .text	000000c0 TEE_AsymmetricDecrypt
00000694 g     F .text	00000064 TEE_OpenPersistentObject
00002238 g     F .text	00000014 __utee_panic
00002360 g     F .text	00000014 utee_cryp_state_copy
00000036 g     F .text	00000262 TA_InvokeCommandEntryPoint
00004ed8 g     F .text	0000009c mpa_set_oct_str
0000274c g     F .text	00000018 utee_se_session_open_channel
00004438 g     F .text	0000004a mempool_alloc
000062f8 g     F .text	0000004c __mpa_shift_words_left
00002448 g     F .text	00000014 utee_cryp_obj_alloc
00002334 g     F .text	00000014 utee_set_ta_time
00002434 g     F .text	00000014 utee_cryp_obj_get_attr
0000061c g     F .text	00000030 TEE_CopyObjectAttributes
0000462c g     F .text	00000060 __mpa_montgomery_sub_ack
0000355c g     F .text	00000028 calloc
00002f02 g     F .text	0000004a TEE_Malloc
000022f8 g     F .text	00000014 utee_mask_cancellation
00002470 g     F .text	00000014 utee_cryp_obj_reset
00002e24 g     F .text	0000000a TEE_CheckMemoryAccessRights
00013a10 g       .bss	00000000 __gprof_buf_end
00005344 g     F .text	00000074 __ul_divmod
00006940 g     F .text	00000010 mpa_neg
00006e2c g     O .rodata	00000c38 PRIME_TABLE
000008f0 g     F .text	00000040 TEE_ReadObjectData
00000368 g     F .text	00000070 TEE_GetObjectBufferAttribute
00000026 g     F .text	0000000e TA_OpenSessionEntryPoint
00005e08 g     F .text	000000aa mpa_gcd
0000453a g     F .text	00000014 mpa_abs
0000260c g     F .text	00000014 utee_storage_start_enum
00000b80 g     F .text	00000026 TEE_FreeOperation
00004cae g     F .text	000001d6 mpa_set_str
000025bc g     F .text	00000014 utee_storage_obj_rename
000090dc g     O .bss	00000004 ta_param_types
00000298 g     F .text	0000003a __utee_from_attr
000051f0 g     F .text	00000048 __aeabi_idiv
00002bb8 g     F .text	00000020 TEE_BigIntIsProbablePrime
00006014 g     F .text	0000000a mpa_alloc_static_temp_var
00000790 g     F .text	00000024 TEE_CloseAndDeletePersistentObject1
0000224c g     F .text	00000018 utee_get_property
00001b24 g     F .text	00000108 TEE_AEDecryptFinal
00002824 g     F .text	00000004 TEE_BigIntInit
00002e48 g     F .text	00000004 TEE_MemMove
00002872 g     F .text	00000016 TEE_BigIntConvertFromOctetString
00009070 g     O .data	00000004 _ref__utee_mcount
00001718 g     F .text	00000056 TEE_MACInit
00001da8 g     F .text	000000b4 TEE_AsymmetricSignDigest
00005328 g     F .text	0000001c memchr
00002dec g     F .text	0000001c TEE_UnmaskCancellation
000002d2 g     F .text	0000002a TEE_GetObjectInfo
00006cbe g     F .text	00000042 mpa_mul_mod
000025a8 g     F .text	00000014 utee_storage_obj_del
0000193e g     F .text	000000ce TEE_AEUpdate
00002670 g     F .text	00000014 utee_storage_obj_seek
000004a0 g     F .text	00000030 TEE_FreeTransientObject
00004724 g     F .text	000000d0 mpa_compute_fmm_context
0000239c g     F .text	00000014 utee_hash_update
00001fd4 g     F .text	00000018 rand
000027e0  w    F .text	0000000c __utee_mcount
000010d8 g     F .text	00000022 TEE_GetOperationInfo
00002978 g     F .text	00000058 TEE_BigIntMod
00002778 g     F .text	00000014 utee_se_channel_select_next
00002290 g     F .text	00000014 utee_close_ta_session
0000293c g     F .text	0000003c TEE_BigIntDiv
000023dc g     F .text	00000018 utee_cipher_update
0000031c g     F .text	00000020 TEE_RestrictObjectUsage1
00002738 g     F .text	00000014 utee_se_session_get_atr
00003584 g     F .text	00000018 realloc
00006646 g     F .text	00000074 __mpa_abs_add_ackum
000043f4 g     F .text	00000044 mempool_alloc_pool
00002560 g     F .text	00000018 utee_asymm_verify
0000291c g     F .text	00000010 TEE_BigIntMul
000011b0 g     F .text	00000040 TEE_ResetOperation
0000550e g     F .text	0000000c mpa_get_word
00002e50 g     F .text	00000004 TEE_MemFill
000050b8 g     F .text	0000001e memcmp
000037e8 g     F .text	000000d0 malloc_add_pool
0000176e g     F .text	0000004e TEE_MACUpdate
000041a0 g     F .text	00000014 trace_get_level
000024c0 g     F .text	00000014 utee_cryp_random_number_generate
0000033c g     F .text	0000002c TEE_RestrictObjectUsage
00002860 g     F .text	00000008 TEE_BigIntFMMSizeInU32
00002828 g     F .text	0000000e TEE_BigIntInitFMM
00002548 g     F .text	00000018 utee_asymm_operate
0000045c g     F .text	00000014 TEE_CloseObject
00002070 g     F .text	0000018c __utee_entry
00006de8 g       .text	00000000 __text_end
00002b5c g     F .text	00000040 TEE_BigIntRelativePrime
000062c2 g     F .text	00000036 mpa_get_random_digits
00003498 g     F .text	0000009c bpool
000054a4 g     F .text	0000001c mpa_set_S32
00006bee g     F .text	00000036 mpa_init_static_fmm_context
00002dd0 g     F .text	0000001c TEE_GetCancellationFlag
000026ac g     F .text	00000014 utee_se_service_close
00002ec4 g     F .text	00000028 TEE_SetTAPersistentTime
00006950 g     F .text	000000be mpa_add_word
000026d4 g     F .text	00000014 utee_se_reader_get_prop
00005120 g     F .text	00000010 memset
00002e88 g     F .text	0000003c TEE_GetTAPersistentTime
000042f8 g     F .text	000000fc dhex_dump
000006f8 g     F .text	00000098 TEE_CreatePersistentObject
00002e08 g     F .text	0000001c TEE_MaskCancellation
0000656a g     F .text	00000018 __mpa_full_sub
000018f8 g     F .text	00000046 TEE_AEUpdateAAD
00002634 g     F .text	00000014 utee_storage_obj_read
0000518a g     F .text	00000020 __aeabi_uidiv
00000970 g     F .text	00000038 TEE_TruncateObjectData
00002484 g     F .text	00000014 utee_cryp_obj_populate
00006b3c g     F .text	00000046 mpa_cmp
00006d00 g     F .text	000000a4 mpa_inv_mod
00006a0e g     F .text	000000c2 mpa_sub_word
0000602e g     F .text	00000010 __mpa_mul_add_word
0000674e g     F .text	000000ee mpa_add
00004aa8 g     F .text	00000114 mpa_exp_mod
000002fc g     F .text	00000020 TEE_GetObjectInfo1
00006344 g     F .text	00000044 __mpa_shift_words_right
00004182 g     F .text	0000001e trace_set_level
00002724 g     F .text	00000014 utee_se_session_is_closed
0000240c g     F .text	00000014 utee_cryp_obj_get_info
000003d8 g     F .text	00000084 TEE_GetObjectValueAttribute
000011f0 g     F .text	0000008c TEE_SetOperationKey
000025d0 g     F .text	00000014 utee_storage_alloc_enum
000025f8 g     F .text	00000014 utee_storage_reset_enum
0000265c g     F .text	00000014 utee_storage_obj_trunc
00006c24 g     F .text	00000016 mpa_mod
00006b22 g     F .text	00000010 __mpa_abs_greater_than
000028c0 g     F .text	00000014 TEE_BigIntConvertToS32
00002908 g     F .text	00000010 TEE_BigIntSub
000022bc g     F .text	00000014 utee_get_cancellation_flag
00002388 g     F .text	00000014 utee_hash_init
00005084 g     F .text	00000004 tahead_get_trace_level
00002c80 g     F .text	00000052 __utee_from_param
000009a8 g     F .text	0000007c TEE_SeekObjectData
00006e10 g     O .rodata	00000010 Const_1_LShift_Base
00002cd2 g     F .text	00000040 __utee_to_param
0000359c g     F .text	0000024c memalign
00001604 g     F .text	00000114 TEE_CipherDoFinal
000028bc g     F .text	00000004 TEE_BigIntConvertFromS32
00006c7c g     F .text	00000042 mpa_sub_mod
00002420 g     F .text	00000014 utee_cryp_obj_restrict_usage
000038b8 g     F .text	000000dc malloc_buffer_is_within_alloced
00002498 g     F .text	00000014 utee_cryp_obj_copy
0000647c g     F .text	000000d6 mpa_shift_right
00002836 g     F .text	0000002a TEE_BigIntInitFMMContext
000024ac g     F .text	00000014 utee_cryp_derive_key
0000468c g     F .text	00000098 __mpa_montgomery_mul
00004f74 g     F .text	000000d6 mpa_get_oct_str
00006b82 g     F .text	0000005a mpa_cmp_short
00002530 g     F .text	00000018 utee_authenc_dec_final
00000930 g     F .text	00000040 TEE_WriteObjectData
0000085c g     F .text	00000014 TEE_ResetPersistentObjectEnumerator
00006ad0 g     F .text	00000052 __mpa_abs_cmp
0000292c g     F .text	00000010 TEE_BigIntSquare
00000020 g     F .text	00000004 TA_CreateEntryPoint
0000411a g     F .text	0000001a snprintk
000028ee g     F .text	0000000a TEE_BigIntGetBitCount
00002a90 g     F .text	00000080 TEE_BigIntMulMod
00001f08 g     F .text	000000ba TEE_DeriveKey
000090e0 g     O .bss	00000020 ta_params
000060a6 g     F .text	0000008e __mpa_abs_mul
000030dc g     F .text	0000011c bget
00000470 g     F .text	00000030 TEE_AllocateTransientObject
00002f50 g     F .text	00000004 TEE_Free
000026e8 g     F .text	00000014 utee_se_reader_get_name
00002f60 g     F .text	00000006 TEE_CacheInvalidate
000023c8 g     F .text	00000014 utee_cipher_init
000051ca g     F .text	00000026 __aeabi_uidivmod
00005074 g     F .text	00000010 _assert_break
000029d0 g     F .text	00000060 TEE_BigIntAddMod
000025e4 g     F .text	00000014 utee_storage_free_enum
000024ec g     F .text	00000014 utee_authenc_update_aad
00004578 g     F .text	0000002c mpa_get_bit
00000ba6 g     F .text	00000532 TEE_AllocateOperation
00001fc2 g     F .text	00000012 TEE_GenerateRandom
00002e4c g     F .text	00000004 TEE_MemCompare
000039dc g     F .text	00000730 __vsnprintf
00000848 g     F .text	00000014 TEE_FreePersistentObjectEnumerator
00002d12 g     F .text	00000044 TEE_OpenTASession
000021fc g     F .text	00000014 utee_panic
00002f68 g     F .text	00000014 trace_ext_puts
00002f7c g     F .text	00000006 trace_ext_get_thread_id
000007b4 g     F .text	00000016 TEE_CloseAndDeletePersistentObject
00002f54 g     F .text	00000006 TEE_CacheClean
00002278 g     F .text	00000018 utee_open_ta_session
000052f6 g     F .text	0000002c buf_compare_ct
0000551a g     F .text	0000005a __mpa_div_dword
000044e8 g     F .text	0000001a __mpa_set_unused_digits_to_zero
00006e20 g     O .rodata	0000000c const_largest_deci_base
00004ca8 g     F .text	00000006 mpa_get_str_size
000005b4 g     F .text	00000068 TEE_CopyObjectAttributes1
000023b0 g     F .text	00000018 utee_hash_final
00005130 g     F .text	00000010 strlen
00002b9c g     F .text	0000001c TEE_BigIntComputeExtendedGcd
00005324 g     F .text	00000002 __aeabi_unwind_cpp_pr1
00005eb2 g     F .text	0000013a mpa_extended_gcd
00006c3a g     F .text	00000042 mpa_add_mod
00002578 g     F .text	00000018 utee_storage_obj_open
000022a4 g     F .text	00000018 utee_invoke_ta_command
00004e84 g     F .text	00000054 mpa_get_str
0000230c g     F .text	00000014 utee_wait
00002e54 g     F .text	00000016 TEE_GetSystemTime
00000000 g     O .ta_head	00000020 ta_head
00003254 g     F .text	000001c8 brel
00005fec g     F .text	00000028 mpa_alloc_static_temp_var_size
00002320 g     F .text	00000014 utee_get_time
000045cc g     F .text	00000060 __mpa_montgomery_mul_add
00002e2e g     F .text	0000000e TEE_SetInstanceData
000052a8 g     F .text	0000004e __aeabi_idivmod
000022e4 g     F .text	00000014 utee_unmask_cancellation
000044b8 g     F .text	00000018 __aeabi_ldivmod
000022d0 g     F .text	00000014 utee_check_access_rights
00002710 g     F .text	00000014 utee_se_reader_close_sessions
0000089c g     F .text	00000054 TEE_GetNextPersistentObject
00002684 g     F .text	00000014 utee_cryp_obj_generate_key
00002d56 g     F .text	00000014 TEE_CloseTASession
000045c0 g     F .text	0000000c mpa_constant_one
00001e5c g     F .text	000000ac TEE_AsymmetricVerifyDigest
00006552 g     F .text	00000018 __mpa_full_adder
000066ba g     F .text	00000094 __mpa_abs_sub
00013a10 g       .bss	00000000 __gprof_buf_start
0000354c g     F .text	00000010 free
000017bc g     F .text	00000068 TEE_MACComputeFinal



Disassembly of section .text:

00000020 <TA_CreateEntryPoint>:
TA_CreateEntryPoint():
/home/yin/imx-optee/optee_examples/hotp/ta/hotp_ta.c:191
      20:	2000      	movs	r0, #0
      22:	4770      	bx	lr

00000024 <TA_DestroyEntryPoint>:
TA_DestroyEntryPoint():
/home/yin/imx-optee/optee_examples/hotp/ta/hotp_ta.c:194
      24:	4770      	bx	lr

00000026 <TA_OpenSessionEntryPoint>:
TA_OpenSessionEntryPoint():
/home/yin/imx-optee/optee_examples/hotp/ta/hotp_ta.c:205
      26:	2800      	cmp	r0, #0
/home/yin/imx-optee/optee_examples/hotp/ta/hotp_ta.c:209
      28:	4801      	ldr	r0, [pc, #4]	; (30 <TA_OpenSessionEntryPoint+0xa>)
      2a:	bf08      	it	eq
      2c:	2000      	moveq	r0, #0
      2e:	4770      	bx	lr
      30:	ffff0006 	.word	0xffff0006

00000034 <TA_CloseSessionEntryPoint>:
TA_CloseSessionEntryPoint():
/home/yin/imx-optee/optee_examples/hotp/ta/hotp_ta.c:212
      34:	4770      	bx	lr

00000036 <TA_InvokeCommandEntryPoint>:
TA_InvokeCommandEntryPoint():
/home/yin/imx-optee/optee_examples/hotp/ta/hotp_ta.c:218
      36:	e92d 47f0 	stmdb	sp!, {r4, r5, r6, r7, r8, r9, sl, lr}
      3a:	461d      	mov	r5, r3
      3c:	b090      	sub	sp, #64	; 0x40
/home/yin/imx-optee/optee_examples/hotp/ta/hotp_ta.c:219
      3e:	460e      	mov	r6, r1
      40:	b119      	cbz	r1, 4a <TA_InvokeCommandEntryPoint+0x14>
      42:	2901      	cmp	r1, #1
      44:	d02f      	beq.n	a6 <TA_InvokeCommandEntryPoint+0x70>
/home/yin/imx-optee/optee_examples/hotp/ta/hotp_ta.c:227
      46:	4c7c      	ldr	r4, [pc, #496]	; (238 <TA_InvokeCommandEntryPoint+0x202>)
      48:	e029      	b.n	9e <TA_InvokeCommandEntryPoint+0x68>
register_shared_key():
/home/yin/imx-optee/optee_examples/hotp/ta/hotp_ta.c:138
      4a:	2a05      	cmp	r2, #5
      4c:	d00d      	beq.n	6a <TA_InvokeCommandEntryPoint+0x34>
/home/yin/imx-optee/optee_examples/hotp/ta/hotp_ta.c:139
      4e:	2305      	movs	r3, #5
      50:	487d      	ldr	r0, [pc, #500]	; (248 <TA_InvokeCommandEntryPoint+0x212>)
      52:	9301      	str	r3, [sp, #4]
      54:	218b      	movs	r1, #139	; 0x8b
      56:	4b7d      	ldr	r3, [pc, #500]	; (24c <TA_InvokeCommandEntryPoint+0x216>)
      58:	9202      	str	r2, [sp, #8]
      5a:	4478      	add	r0, pc
      5c:	447b      	add	r3, pc
      5e:	9300      	str	r3, [sp, #0]
      60:	2301      	movs	r3, #1
      62:	461a      	mov	r2, r3
get_hotp():
/home/yin/imx-optee/optee_examples/hotp/ta/hotp_ta.c:166
      64:	f004 f8a6 	bl	41b4 <trace_printf>
      68:	e7ed      	b.n	46 <TA_InvokeCommandEntryPoint+0x10>
register_shared_key():
/home/yin/imx-optee/optee_examples/hotp/ta/hotp_ta.c:143
      6a:	4c79      	ldr	r4, [pc, #484]	; (250 <TA_InvokeCommandEntryPoint+0x21a>)
      6c:	2240      	movs	r2, #64	; 0x40
      6e:	447c      	add	r4, pc
      70:	4620      	mov	r0, r4
      72:	f005 f855 	bl	5120 <memset>
/home/yin/imx-optee/optee_examples/hotp/ta/hotp_ta.c:144
      76:	e895 0006 	ldmia.w	r5, {r1, r2}
      7a:	4620      	mov	r0, r4
      7c:	f005 f82b 	bl	50d6 <memcpy>
/home/yin/imx-optee/optee_examples/hotp/ta/hotp_ta.c:146
      80:	686b      	ldr	r3, [r5, #4]
/home/yin/imx-optee/optee_examples/hotp/ta/hotp_ta.c:147
      82:	2203      	movs	r2, #3
      84:	4873      	ldr	r0, [pc, #460]	; (254 <TA_InvokeCommandEntryPoint+0x21e>)
      86:	2193      	movs	r1, #147	; 0x93
/home/yin/imx-optee/optee_examples/hotp/ta/hotp_ta.c:146
      88:	6423      	str	r3, [r4, #64]	; 0x40
/home/yin/imx-optee/optee_examples/hotp/ta/hotp_ta.c:147
      8a:	9302      	str	r3, [sp, #8]
      8c:	4478      	add	r0, pc
      8e:	4b72      	ldr	r3, [pc, #456]	; (258 <TA_InvokeCommandEntryPoint+0x222>)
      90:	9401      	str	r4, [sp, #4]
/home/yin/imx-optee/optee_examples/hotp/ta/hotp_ta.c:149
      92:	4634      	mov	r4, r6
/home/yin/imx-optee/optee_examples/hotp/ta/hotp_ta.c:147
      94:	447b      	add	r3, pc
      96:	9300      	str	r3, [sp, #0]
      98:	2301      	movs	r3, #1
      9a:	f004 f88b 	bl	41b4 <trace_printf>
TA_InvokeCommandEntryPoint():
/home/yin/imx-optee/optee_examples/hotp/ta/hotp_ta.c:229
      9e:	4620      	mov	r0, r4
      a0:	b010      	add	sp, #64	; 0x40
      a2:	e8bd 87f0 	ldmia.w	sp!, {r4, r5, r6, r7, r8, r9, sl, pc}
get_hotp():
/home/yin/imx-optee/optee_examples/hotp/ta/hotp_ta.c:165
      a6:	2a02      	cmp	r2, #2
/home/yin/imx-optee/optee_examples/hotp/ta/hotp_ta.c:157
      a8:	f04f 0314 	mov.w	r3, #20
      ac:	9305      	str	r3, [sp, #20]
/home/yin/imx-optee/optee_examples/hotp/ta/hotp_ta.c:165
      ae:	d00c      	beq.n	ca <TA_InvokeCommandEntryPoint+0x94>
/home/yin/imx-optee/optee_examples/hotp/ta/hotp_ta.c:166
      b0:	2302      	movs	r3, #2
      b2:	486a      	ldr	r0, [pc, #424]	; (25c <TA_InvokeCommandEntryPoint+0x226>)
      b4:	9301      	str	r3, [sp, #4]
      b6:	4b6a      	ldr	r3, [pc, #424]	; (260 <TA_InvokeCommandEntryPoint+0x22a>)
      b8:	4478      	add	r0, pc
      ba:	9202      	str	r2, [sp, #8]
      bc:	3014      	adds	r0, #20
      be:	460a      	mov	r2, r1
      c0:	447b      	add	r3, pc
      c2:	9300      	str	r3, [sp, #0]
      c4:	460b      	mov	r3, r1
      c6:	21a6      	movs	r1, #166	; 0xa6
      c8:	e7cc      	b.n	64 <TA_InvokeCommandEntryPoint+0x2e>
/home/yin/imx-optee/optee_examples/hotp/ta/hotp_ta.c:170
      ca:	f8df 8198 	ldr.w	r8, [pc, #408]	; 264 <TA_InvokeCommandEntryPoint+0x22e>
hmac_sha1():
/home/yin/imx-optee/optee_examples/hotp/ta/hotp_ta.c:46
      ce:	2300      	movs	r3, #0
      d0:	af08      	add	r7, sp, #32
      d2:	9308      	str	r3, [sp, #32]
      d4:	607b      	str	r3, [r7, #4]
get_hotp():
/home/yin/imx-optee/optee_examples/hotp/ta/hotp_ta.c:170
      d6:	44f8      	add	r8, pc
hmac_sha1():
/home/yin/imx-optee/optee_examples/hotp/ta/hotp_ta.c:46
      d8:	60bb      	str	r3, [r7, #8]
get_hotp():
/home/yin/imx-optee/optee_examples/hotp/ta/hotp_ta.c:170
      da:	f8d8 9040 	ldr.w	r9, [r8, #64]	; 0x40
hmac_sha1():
/home/yin/imx-optee/optee_examples/hotp/ta/hotp_ta.c:47
      de:	9306      	str	r3, [sp, #24]
/home/yin/imx-optee/optee_examples/hotp/ta/hotp_ta.c:48
      e0:	9307      	str	r3, [sp, #28]
/home/yin/imx-optee/optee_examples/hotp/ta/hotp_ta.c:51
      e2:	f1a9 030a 	sub.w	r3, r9, #10
      e6:	2b36      	cmp	r3, #54	; 0x36
      e8:	f200 80a3 	bhi.w	232 <TA_InvokeCommandEntryPoint+0x1fc>
/home/yin/imx-optee/optee_examples/hotp/ta/hotp_ta.c:62
      ec:	ea4f 0ac9 	mov.w	sl, r9, lsl #3
      f0:	2204      	movs	r2, #4
      f2:	4952      	ldr	r1, [pc, #328]	; (23c <TA_InvokeCommandEntryPoint+0x206>)
      f4:	a807      	add	r0, sp, #28
      f6:	4653      	mov	r3, sl
      f8:	f000 fd55 	bl	ba6 <TEE_AllocateOperation>
/home/yin/imx-optee/optee_examples/hotp/ta/hotp_ta.c:64
      fc:	4604      	mov	r4, r0
      fe:	2800      	cmp	r0, #0
     100:	d049      	beq.n	196 <TA_InvokeCommandEntryPoint+0x160>
/home/yin/imx-optee/optee_examples/hotp/ta/hotp_ta.c:65
     102:	4b59      	ldr	r3, [pc, #356]	; (268 <TA_InvokeCommandEntryPoint+0x232>)
     104:	4632      	mov	r2, r6
     106:	9001      	str	r0, [sp, #4]
     108:	2141      	movs	r1, #65	; 0x41
     10a:	4858      	ldr	r0, [pc, #352]	; (26c <TA_InvokeCommandEntryPoint+0x236>)
     10c:	447b      	add	r3, pc
     10e:	9300      	str	r3, [sp, #0]
     110:	4633      	mov	r3, r6
     112:	4478      	add	r0, pc
/home/yin/imx-optee/optee_examples/hotp/ta/hotp_ta.c:76
     114:	301d      	adds	r0, #29
     116:	f004 f84d 	bl	41b4 <trace_printf>
/home/yin/imx-optee/optee_examples/hotp/ta/hotp_ta.c:105
     11a:	9807      	ldr	r0, [sp, #28]
     11c:	b108      	cbz	r0, 122 <TA_InvokeCommandEntryPoint+0xec>
/home/yin/imx-optee/optee_examples/hotp/ta/hotp_ta.c:106
     11e:	f000 fd2f 	bl	b80 <TEE_FreeOperation>
/home/yin/imx-optee/optee_examples/hotp/ta/hotp_ta.c:109
     122:	9806      	ldr	r0, [sp, #24]
     124:	f000 f9bc 	bl	4a0 <TEE_FreeTransientObject>
     128:	4b51      	ldr	r3, [pc, #324]	; (270 <TA_InvokeCommandEntryPoint+0x23a>)
get_hotp():
/home/yin/imx-optee/optee_examples/hotp/ta/hotp_ta.c:173
     12a:	4952      	ldr	r1, [pc, #328]	; (274 <TA_InvokeCommandEntryPoint+0x23e>)
     12c:	447b      	add	r3, pc
     12e:	4479      	add	r1, pc
     130:	334c      	adds	r3, #76	; 0x4c
     132:	3144      	adds	r1, #68	; 0x44
/home/yin/imx-optee/optee_examples/hotp/ta/hotp_ta.c:174
     134:	f813 2c01 	ldrb.w	r2, [r3, #-1]
     138:	3201      	adds	r2, #1
     13a:	b2d2      	uxtb	r2, r2
     13c:	f803 2d01 	strb.w	r2, [r3, #-1]!
     140:	b90a      	cbnz	r2, 146 <TA_InvokeCommandEntryPoint+0x110>
/home/yin/imx-optee/optee_examples/hotp/ta/hotp_ta.c:173
     142:	4299      	cmp	r1, r3
     144:	d1f6      	bne.n	134 <TA_InvokeCommandEntryPoint+0xfe>
truncate():
/home/yin/imx-optee/optee_examples/hotp/ta/hotp_ta.c:121
     146:	f89d 203f 	ldrb.w	r2, [sp, #63]	; 0x3f
     14a:	ab10      	add	r3, sp, #64	; 0x40
/home/yin/imx-optee/optee_examples/hotp/ta/hotp_ta.c:126
     14c:	493c      	ldr	r1, [pc, #240]	; (240 <TA_InvokeCommandEntryPoint+0x20a>)
/home/yin/imx-optee/optee_examples/hotp/ta/hotp_ta.c:121
     14e:	f002 020f 	and.w	r2, r2, #15
     152:	441a      	add	r2, r3
     154:	f812 3c14 	ldrb.w	r3, [r2, #-20]
/home/yin/imx-optee/optee_examples/hotp/ta/hotp_ta.c:122
     158:	f812 0c13 	ldrb.w	r0, [r2, #-19]
/home/yin/imx-optee/optee_examples/hotp/ta/hotp_ta.c:121
     15c:	061b      	lsls	r3, r3, #24
     15e:	f003 43fe 	and.w	r3, r3, #2130706432	; 0x7f000000
     162:	ea43 4300 	orr.w	r3, r3, r0, lsl #16
/home/yin/imx-optee/optee_examples/hotp/ta/hotp_ta.c:124
     166:	f812 0c11 	ldrb.w	r0, [r2, #-17]
/home/yin/imx-optee/optee_examples/hotp/ta/hotp_ta.c:123
     16a:	4303      	orrs	r3, r0
     16c:	f812 0c12 	ldrb.w	r0, [r2, #-18]
/home/yin/imx-optee/optee_examples/hotp/ta/hotp_ta.c:126
     170:	ea43 2000 	orr.w	r0, r3, r0, lsl #8
     174:	f005 f829 	bl	51ca <__aeabi_uidivmod>
get_hotp():
/home/yin/imx-optee/optee_examples/hotp/ta/hotp_ta.c:179
     178:	4b3f      	ldr	r3, [pc, #252]	; (278 <TA_InvokeCommandEntryPoint+0x242>)
truncate():
/home/yin/imx-optee/optee_examples/hotp/ta/hotp_ta.c:126
     17a:	460e      	mov	r6, r1
get_hotp():
/home/yin/imx-optee/optee_examples/hotp/ta/hotp_ta.c:179
     17c:	483f      	ldr	r0, [pc, #252]	; (27c <TA_InvokeCommandEntryPoint+0x246>)
     17e:	2203      	movs	r2, #3
     180:	9101      	str	r1, [sp, #4]
     182:	21b3      	movs	r1, #179	; 0xb3
     184:	447b      	add	r3, pc
     186:	4478      	add	r0, pc
     188:	9300      	str	r3, [sp, #0]
     18a:	3014      	adds	r0, #20
     18c:	2301      	movs	r3, #1
     18e:	f004 f811 	bl	41b4 <trace_printf>
/home/yin/imx-optee/optee_examples/hotp/ta/hotp_ta.c:180
     192:	602e      	str	r6, [r5, #0]
TA_InvokeCommandEntryPoint():
/home/yin/imx-optee/optee_examples/hotp/ta/hotp_ta.c:224
     194:	e783      	b.n	9e <TA_InvokeCommandEntryPoint+0x68>
hmac_sha1():
/home/yin/imx-optee/optee_examples/hotp/ta/hotp_ta.c:73
     196:	aa06      	add	r2, sp, #24
     198:	4651      	mov	r1, sl
     19a:	482a      	ldr	r0, [pc, #168]	; (244 <TA_InvokeCommandEntryPoint+0x20e>)
     19c:	f000 f968 	bl	470 <TEE_AllocateTransientObject>
/home/yin/imx-optee/optee_examples/hotp/ta/hotp_ta.c:75
     1a0:	4604      	mov	r4, r0
     1a2:	b148      	cbz	r0, 1b8 <TA_InvokeCommandEntryPoint+0x182>
/home/yin/imx-optee/optee_examples/hotp/ta/hotp_ta.c:76
     1a4:	4b36      	ldr	r3, [pc, #216]	; (280 <TA_InvokeCommandEntryPoint+0x24a>)
     1a6:	4632      	mov	r2, r6
     1a8:	9001      	str	r0, [sp, #4]
     1aa:	214c      	movs	r1, #76	; 0x4c
     1ac:	4835      	ldr	r0, [pc, #212]	; (284 <TA_InvokeCommandEntryPoint+0x24e>)
     1ae:	447b      	add	r3, pc
     1b0:	9300      	str	r3, [sp, #0]
     1b2:	4633      	mov	r3, r6
     1b4:	4478      	add	r0, pc
     1b6:	e7ad      	b.n	114 <TA_InvokeCommandEntryPoint+0xde>
/home/yin/imx-optee/optee_examples/hotp/ta/hotp_ta.c:84
     1b8:	464b      	mov	r3, r9
     1ba:	4642      	mov	r2, r8
     1bc:	f04f 4140 	mov.w	r1, #3221225472	; 0xc0000000
     1c0:	4638      	mov	r0, r7
     1c2:	f000 f9d5 	bl	570 <TEE_InitRefAttribute>
/home/yin/imx-optee/optee_examples/hotp/ta/hotp_ta.c:87
     1c6:	4632      	mov	r2, r6
     1c8:	4639      	mov	r1, r7
     1ca:	9806      	ldr	r0, [sp, #24]
     1cc:	f000 f998 	bl	500 <TEE_PopulateTransientObject>
/home/yin/imx-optee/optee_examples/hotp/ta/hotp_ta.c:88
     1d0:	4604      	mov	r4, r0
     1d2:	b148      	cbz	r0, 1e8 <TA_InvokeCommandEntryPoint+0x1b2>
/home/yin/imx-optee/optee_examples/hotp/ta/hotp_ta.c:89
     1d4:	4b2c      	ldr	r3, [pc, #176]	; (288 <TA_InvokeCommandEntryPoint+0x252>)
     1d6:	4632      	mov	r2, r6
     1d8:	9001      	str	r0, [sp, #4]
     1da:	2159      	movs	r1, #89	; 0x59
     1dc:	482b      	ldr	r0, [pc, #172]	; (28c <TA_InvokeCommandEntryPoint+0x256>)
     1de:	447b      	add	r3, pc
     1e0:	9300      	str	r3, [sp, #0]
     1e2:	4633      	mov	r3, r6
     1e4:	4478      	add	r0, pc
     1e6:	e795      	b.n	114 <TA_InvokeCommandEntryPoint+0xde>
/home/yin/imx-optee/optee_examples/hotp/ta/hotp_ta.c:94
     1e8:	9906      	ldr	r1, [sp, #24]
     1ea:	9807      	ldr	r0, [sp, #28]
     1ec:	f001 f800 	bl	11f0 <TEE_SetOperationKey>
/home/yin/imx-optee/optee_examples/hotp/ta/hotp_ta.c:95
     1f0:	4604      	mov	r4, r0
     1f2:	b148      	cbz	r0, 208 <TA_InvokeCommandEntryPoint+0x1d2>
/home/yin/imx-optee/optee_examples/hotp/ta/hotp_ta.c:96
     1f4:	4b26      	ldr	r3, [pc, #152]	; (290 <TA_InvokeCommandEntryPoint+0x25a>)
     1f6:	4632      	mov	r2, r6
     1f8:	9001      	str	r0, [sp, #4]
     1fa:	2160      	movs	r1, #96	; 0x60
     1fc:	4825      	ldr	r0, [pc, #148]	; (294 <TA_InvokeCommandEntryPoint+0x25e>)
     1fe:	447b      	add	r3, pc
     200:	9300      	str	r3, [sp, #0]
     202:	4633      	mov	r3, r6
     204:	4478      	add	r0, pc
     206:	e785      	b.n	114 <TA_InvokeCommandEntryPoint+0xde>
/home/yin/imx-optee/optee_examples/hotp/ta/hotp_ta.c:101
     208:	4602      	mov	r2, r0
     20a:	4601      	mov	r1, r0
     20c:	9807      	ldr	r0, [sp, #28]
     20e:	f001 fa83 	bl	1718 <TEE_MACInit>
/home/yin/imx-optee/optee_examples/hotp/ta/hotp_ta.c:102
     212:	2208      	movs	r2, #8
     214:	f108 0144 	add.w	r1, r8, #68	; 0x44
     218:	9807      	ldr	r0, [sp, #28]
     21a:	f001 faa8 	bl	176e <TEE_MACUpdate>
/home/yin/imx-optee/optee_examples/hotp/ta/hotp_ta.c:103
     21e:	ab05      	add	r3, sp, #20
     220:	4622      	mov	r2, r4
     222:	9300      	str	r3, [sp, #0]
     224:	4621      	mov	r1, r4
     226:	ab0b      	add	r3, sp, #44	; 0x2c
     228:	9807      	ldr	r0, [sp, #28]
     22a:	f001 fac7 	bl	17bc <TEE_MACComputeFinal>
     22e:	4604      	mov	r4, r0
     230:	e773      	b.n	11a <TA_InvokeCommandEntryPoint+0xe4>
/home/yin/imx-optee/optee_examples/hotp/ta/hotp_ta.c:52
     232:	4c01      	ldr	r4, [pc, #4]	; (238 <TA_InvokeCommandEntryPoint+0x202>)
     234:	e778      	b.n	128 <TA_InvokeCommandEntryPoint+0xf2>
     236:	bf00      	nop
     238:	ffff0006 	.word	0xffff0006
     23c:	30000002 	.word	0x30000002
     240:	000f4240 	.word	0x000f4240
     244:	a0000002 	.word	0xa0000002
     248:	00007afe 	.word	0x00007afe
     24c:	00007b23 	.word	0x00007b23
     250:	0000901a 	.word	0x0000901a
     254:	00007acc 	.word	0x00007acc
     258:	00007b05 	.word	0x00007b05
     25c:	00007aa0 	.word	0x00007aa0
     260:	00007abf 	.word	0x00007abf
     264:	00008fb2 	.word	0x00008fb2
     268:	00007aab 	.word	0x00007aab
     26c:	00007a46 	.word	0x00007a46
     270:	00008f5c 	.word	0x00008f5c
     274:	00008f5a 	.word	0x00008f5a
     278:	00007a3a 	.word	0x00007a3a
     27c:	000079d2 	.word	0x000079d2
     280:	00007a09 	.word	0x00007a09
     284:	000079a4 	.word	0x000079a4
     288:	000079d9 	.word	0x000079d9
     28c:	00007974 	.word	0x00007974
     290:	000079b9 	.word	0x000079b9
     294:	00007954 	.word	0x00007954

00000298 <__utee_from_attr>:
__utee_from_attr():
/home/yin/imx-optee/imx-optee-os/lib/libutee/tee_api_objects.c:19
     298:	2318      	movs	r3, #24
     29a:	b530      	push	{r4, r5, lr}
     29c:	fb03 0202 	mla	r2, r3, r2, r0
/home/yin/imx-optee/imx-optee-os/lib/libutee/tee_api_objects.c:25
     2a0:	2400      	movs	r4, #0
/home/yin/imx-optee/imx-optee-os/lib/libutee/tee_api_objects.c:22 (discriminator 1)
     2a2:	4290      	cmp	r0, r2
     2a4:	d100      	bne.n	2a8 <__utee_from_attr+0x10>
/home/yin/imx-optee/imx-optee-os/lib/libutee/tee_api_objects.c:32
     2a6:	bd30      	pop	{r4, r5, pc}
/home/yin/imx-optee/imx-optee-os/lib/libutee/tee_api_objects.c:23
     2a8:	680b      	ldr	r3, [r1, #0]
     2aa:	6103      	str	r3, [r0, #16]
/home/yin/imx-optee/imx-optee-os/lib/libutee/tee_api_objects.c:24
     2ac:	f013 5300 	ands.w	r3, r3, #536870912	; 0x20000000
     2b0:	d008      	beq.n	2c4 <__utee_from_attr+0x2c>
/home/yin/imx-optee/imx-optee-os/lib/libutee/tee_api_objects.c:25
     2b2:	684b      	ldr	r3, [r1, #4]
     2b4:	e880 0018 	stmia.w	r0, {r3, r4}
/home/yin/imx-optee/imx-optee-os/lib/libutee/tee_api_objects.c:26
     2b8:	688b      	ldr	r3, [r1, #8]
     2ba:	60c4      	str	r4, [r0, #12]
     2bc:	6083      	str	r3, [r0, #8]
     2be:	310c      	adds	r1, #12
     2c0:	3018      	adds	r0, #24
     2c2:	e7ee      	b.n	2a2 <__utee_from_attr+0xa>
/home/yin/imx-optee/imx-optee-os/lib/libutee/tee_api_objects.c:28
     2c4:	684d      	ldr	r5, [r1, #4]
     2c6:	6043      	str	r3, [r0, #4]
     2c8:	6005      	str	r5, [r0, #0]
/home/yin/imx-optee/imx-optee-os/lib/libutee/tee_api_objects.c:29
     2ca:	688d      	ldr	r5, [r1, #8]
     2cc:	60c3      	str	r3, [r0, #12]
     2ce:	6085      	str	r5, [r0, #8]
     2d0:	e7f5      	b.n	2be <__utee_from_attr+0x26>

000002d2 <TEE_GetObjectInfo>:
TEE_GetObjectInfo():
/home/yin/imx-optee/imx-optee-os/lib/libutee/tee_api_objects.c:42
     2d2:	b510      	push	{r4, lr}
     2d4:	460c      	mov	r4, r1
/home/yin/imx-optee/imx-optee-os/lib/libutee/tee_api_objects.c:45
     2d6:	f002 e89a 	blx	240c <utee_cryp_obj_get_info>
/home/yin/imx-optee/imx-optee-os/lib/libutee/tee_api_objects.c:47
     2da:	b108      	cbz	r0, 2e0 <TEE_GetObjectInfo+0xe>
/home/yin/imx-optee/imx-optee-os/lib/libutee/tee_api_objects.c:48
     2dc:	f004 fed4 	bl	5088 <TEE_Panic>
/home/yin/imx-optee/imx-optee-os/lib/libutee/tee_api_objects.c:50
     2e0:	6822      	ldr	r2, [r4, #0]
     2e2:	4b05      	ldr	r3, [pc, #20]	; (2f8 <TEE_GetObjectInfo+0x26>)
     2e4:	429a      	cmp	r2, r3
     2e6:	d106      	bne.n	2f6 <TEE_GetObjectInfo+0x24>
/home/yin/imx-optee/imx-optee-os/lib/libutee/tee_api_objects.c:51
     2e8:	2300      	movs	r3, #0
     2ea:	6063      	str	r3, [r4, #4]
/home/yin/imx-optee/imx-optee-os/lib/libutee/tee_api_objects.c:52
     2ec:	60a3      	str	r3, [r4, #8]
/home/yin/imx-optee/imx-optee-os/lib/libutee/tee_api_objects.c:53
     2ee:	60e3      	str	r3, [r4, #12]
/home/yin/imx-optee/imx-optee-os/lib/libutee/tee_api_objects.c:54
     2f0:	6123      	str	r3, [r4, #16]
/home/yin/imx-optee/imx-optee-os/lib/libutee/tee_api_objects.c:55
     2f2:	6163      	str	r3, [r4, #20]
/home/yin/imx-optee/imx-optee-os/lib/libutee/tee_api_objects.c:56
     2f4:	61a3      	str	r3, [r4, #24]
     2f6:	bd10      	pop	{r4, pc}
     2f8:	a00000be 	.word	0xa00000be

000002fc <TEE_GetObjectInfo1>:
TEE_GetObjectInfo1():
/home/yin/imx-optee/imx-optee-os/lib/libutee/tee_api_objects.c:61
     2fc:	b510      	push	{r4, lr}
/home/yin/imx-optee/imx-optee-os/lib/libutee/tee_api_objects.c:64
     2fe:	f002 e886 	blx	240c <utee_cryp_obj_get_info>
/home/yin/imx-optee/imx-optee-os/lib/libutee/tee_api_objects.c:66
     302:	4604      	mov	r4, r0
     304:	b130      	cbz	r0, 314 <TEE_GetObjectInfo1+0x18>
/home/yin/imx-optee/imx-optee-os/lib/libutee/tee_api_objects.c:66 (discriminator 1)
     306:	4b04      	ldr	r3, [pc, #16]	; (318 <TEE_GetObjectInfo1+0x1c>)
     308:	f020 0202 	bic.w	r2, r0, #2
     30c:	429a      	cmp	r2, r3
     30e:	d001      	beq.n	314 <TEE_GetObjectInfo1+0x18>
/home/yin/imx-optee/imx-optee-os/lib/libutee/tee_api_objects.c:69
     310:	f004 feba 	bl	5088 <TEE_Panic>
/home/yin/imx-optee/imx-optee-os/lib/libutee/tee_api_objects.c:72
     314:	4620      	mov	r0, r4
     316:	bd10      	pop	{r4, pc}
     318:	f0100001 	.word	0xf0100001

0000031c <TEE_RestrictObjectUsage1>:
TEE_RestrictObjectUsage1():
/home/yin/imx-optee/imx-optee-os/lib/libutee/tee_api_objects.c:96
     31c:	b510      	push	{r4, lr}
/home/yin/imx-optee/imx-optee-os/lib/libutee/tee_api_objects.c:99
     31e:	f002 e880 	blx	2420 <utee_cryp_obj_restrict_usage>
/home/yin/imx-optee/imx-optee-os/lib/libutee/tee_api_objects.c:101
     322:	4604      	mov	r4, r0
     324:	b130      	cbz	r0, 334 <TEE_RestrictObjectUsage1+0x18>
/home/yin/imx-optee/imx-optee-os/lib/libutee/tee_api_objects.c:101 (discriminator 1)
     326:	4b04      	ldr	r3, [pc, #16]	; (338 <TEE_RestrictObjectUsage1+0x1c>)
     328:	f020 0202 	bic.w	r2, r0, #2
     32c:	429a      	cmp	r2, r3
     32e:	d001      	beq.n	334 <TEE_RestrictObjectUsage1+0x18>
/home/yin/imx-optee/imx-optee-os/lib/libutee/tee_api_objects.c:104
     330:	f004 feaa 	bl	5088 <TEE_Panic>
/home/yin/imx-optee/imx-optee-os/lib/libutee/tee_api_objects.c:107
     334:	4620      	mov	r0, r4
     336:	bd10      	pop	{r4, pc}
     338:	f0100001 	.word	0xf0100001

0000033c <TEE_RestrictObjectUsage>:
TEE_RestrictObjectUsage():
/home/yin/imx-optee/imx-optee-os/lib/libutee/tee_api_objects.c:81
     33c:	b530      	push	{r4, r5, lr}
     33e:	b089      	sub	sp, #36	; 0x24
     340:	460d      	mov	r5, r1
/home/yin/imx-optee/imx-optee-os/lib/libutee/tee_api_objects.c:85
     342:	a901      	add	r1, sp, #4
/home/yin/imx-optee/imx-optee-os/lib/libutee/tee_api_objects.c:81
     344:	4604      	mov	r4, r0
/home/yin/imx-optee/imx-optee-os/lib/libutee/tee_api_objects.c:85
     346:	f002 e862 	blx	240c <utee_cryp_obj_get_info>
/home/yin/imx-optee/imx-optee-os/lib/libutee/tee_api_objects.c:86
     34a:	9a01      	ldr	r2, [sp, #4]
     34c:	4b05      	ldr	r3, [pc, #20]	; (364 <TEE_RestrictObjectUsage+0x28>)
     34e:	429a      	cmp	r2, r3
     350:	d006      	beq.n	360 <TEE_RestrictObjectUsage+0x24>
/home/yin/imx-optee/imx-optee-os/lib/libutee/tee_api_objects.c:89
     352:	4629      	mov	r1, r5
     354:	4620      	mov	r0, r4
     356:	f7ff ffe1 	bl	31c <TEE_RestrictObjectUsage1>
/home/yin/imx-optee/imx-optee-os/lib/libutee/tee_api_objects.c:91
     35a:	b108      	cbz	r0, 360 <TEE_RestrictObjectUsage+0x24>
/home/yin/imx-optee/imx-optee-os/lib/libutee/tee_api_objects.c:92
     35c:	f004 fe94 	bl	5088 <TEE_Panic>
/home/yin/imx-optee/imx-optee-os/lib/libutee/tee_api_objects.c:93
     360:	b009      	add	sp, #36	; 0x24
     362:	bd30      	pop	{r4, r5, pc}
     364:	a00000be 	.word	0xa00000be

00000368 <TEE_GetObjectBufferAttribute>:
TEE_GetObjectBufferAttribute():
/home/yin/imx-optee/imx-optee-os/lib/libutee/tee_api_objects.c:112
     368:	e92d 41f0 	stmdb	sp!, {r4, r5, r6, r7, r8, lr}
     36c:	b08a      	sub	sp, #40	; 0x28
     36e:	460e      	mov	r6, r1
/home/yin/imx-optee/imx-optee-os/lib/libutee/tee_api_objects.c:117
     370:	a903      	add	r1, sp, #12
/home/yin/imx-optee/imx-optee-os/lib/libutee/tee_api_objects.c:112
     372:	4607      	mov	r7, r0
     374:	4690      	mov	r8, r2
     376:	461d      	mov	r5, r3
/home/yin/imx-optee/imx-optee-os/lib/libutee/tee_api_objects.c:117
     378:	f002 e848 	blx	240c <utee_cryp_obj_get_info>
/home/yin/imx-optee/imx-optee-os/lib/libutee/tee_api_objects.c:118
     37c:	4604      	mov	r4, r0
     37e:	b970      	cbnz	r0, 39e <TEE_GetObjectBufferAttribute+0x36>
/home/yin/imx-optee/imx-optee-os/lib/libutee/tee_api_objects.c:122
     380:	00b3      	lsls	r3, r6, #2
     382:	d422      	bmi.n	3ca <TEE_GetObjectBufferAttribute+0x62>
/home/yin/imx-optee/imx-optee-os/lib/libutee/tee_api_objects.c:127
     384:	682b      	ldr	r3, [r5, #0]
/home/yin/imx-optee/imx-optee-os/lib/libutee/tee_api_objects.c:128
     386:	4642      	mov	r2, r8
     388:	4631      	mov	r1, r6
     38a:	4638      	mov	r0, r7
/home/yin/imx-optee/imx-optee-os/lib/libutee/tee_api_objects.c:127
     38c:	e88d 0018 	stmia.w	sp, {r3, r4}
/home/yin/imx-optee/imx-optee-os/lib/libutee/tee_api_objects.c:128
     390:	466b      	mov	r3, sp
     392:	f002 e850 	blx	2434 <utee_cryp_obj_get_attr>
/home/yin/imx-optee/imx-optee-os/lib/libutee/tee_api_objects.c:130
     396:	9b00      	ldr	r3, [sp, #0]
/home/yin/imx-optee/imx-optee-os/lib/libutee/tee_api_objects.c:133
     398:	4604      	mov	r4, r0
/home/yin/imx-optee/imx-optee-os/lib/libutee/tee_api_objects.c:130
     39a:	602b      	str	r3, [r5, #0]
/home/yin/imx-optee/imx-optee-os/lib/libutee/tee_api_objects.c:133
     39c:	b188      	cbz	r0, 3c2 <TEE_GetObjectBufferAttribute+0x5a>
/home/yin/imx-optee/imx-optee-os/lib/libutee/tee_api_objects.c:133 (discriminator 1)
     39e:	4b0c      	ldr	r3, [pc, #48]	; (3d0 <TEE_GetObjectBufferAttribute+0x68>)
     3a0:	429c      	cmp	r4, r3
     3a2:	d00e      	beq.n	3c2 <TEE_GetObjectBufferAttribute+0x5a>
/home/yin/imx-optee/imx-optee-os/lib/libutee/tee_api_objects.c:134
     3a4:	3308      	adds	r3, #8
     3a6:	429c      	cmp	r4, r3
     3a8:	d00b      	beq.n	3c2 <TEE_GetObjectBufferAttribute+0x5a>
/home/yin/imx-optee/imx-optee-os/lib/libutee/tee_api_objects.c:135
     3aa:	f1a3 637e 	sub.w	r3, r3, #266338304	; 0xfe00000
     3ae:	f1a3 130f 	sub.w	r3, r3, #983055	; 0xf000f
     3b2:	429c      	cmp	r4, r3
     3b4:	d005      	beq.n	3c2 <TEE_GetObjectBufferAttribute+0x5a>
/home/yin/imx-optee/imx-optee-os/lib/libutee/tee_api_objects.c:136
     3b6:	3302      	adds	r3, #2
     3b8:	429c      	cmp	r4, r3
     3ba:	d002      	beq.n	3c2 <TEE_GetObjectBufferAttribute+0x5a>
/home/yin/imx-optee/imx-optee-os/lib/libutee/tee_api_objects.c:138
     3bc:	4620      	mov	r0, r4
     3be:	f004 fe63 	bl	5088 <TEE_Panic>
/home/yin/imx-optee/imx-optee-os/lib/libutee/tee_api_objects.c:141
     3c2:	4620      	mov	r0, r4
     3c4:	b00a      	add	sp, #40	; 0x28
     3c6:	e8bd 81f0 	ldmia.w	sp!, {r4, r5, r6, r7, r8, pc}
/home/yin/imx-optee/imx-optee-os/lib/libutee/tee_api_objects.c:123
     3ca:	4c02      	ldr	r4, [pc, #8]	; (3d4 <TEE_GetObjectBufferAttribute+0x6c>)
     3cc:	e7f6      	b.n	3bc <TEE_GetObjectBufferAttribute+0x54>
     3ce:	bf00      	nop
     3d0:	ffff0008 	.word	0xffff0008
     3d4:	ffff0006 	.word	0xffff0006

000003d8 <TEE_GetObjectValueAttribute>:
TEE_GetObjectValueAttribute():
/home/yin/imx-optee/imx-optee-os/lib/libutee/tee_api_objects.c:146
     3d8:	e92d 41f0 	stmdb	sp!, {r4, r5, r6, r7, r8, lr}
     3dc:	b08c      	sub	sp, #48	; 0x30
     3de:	460f      	mov	r7, r1
     3e0:	4616      	mov	r6, r2
     3e2:	461d      	mov	r5, r3
/home/yin/imx-optee/imx-optee-os/lib/libutee/tee_api_objects.c:150
     3e4:	2208      	movs	r2, #8
     3e6:	2300      	movs	r3, #0
/home/yin/imx-optee/imx-optee-os/lib/libutee/tee_api_objects.c:152
     3e8:	a905      	add	r1, sp, #20
/home/yin/imx-optee/imx-optee-os/lib/libutee/tee_api_objects.c:146
     3ea:	4680      	mov	r8, r0
/home/yin/imx-optee/imx-optee-os/lib/libutee/tee_api_objects.c:150
     3ec:	e9cd 2300 	strd	r2, r3, [sp]
/home/yin/imx-optee/imx-optee-os/lib/libutee/tee_api_objects.c:152
     3f0:	f002 e80c 	blx	240c <utee_cryp_obj_get_info>
/home/yin/imx-optee/imx-optee-os/lib/libutee/tee_api_objects.c:153
     3f4:	4604      	mov	r4, r0
     3f6:	b948      	cbnz	r0, 40c <TEE_GetObjectValueAttribute+0x34>
/home/yin/imx-optee/imx-optee-os/lib/libutee/tee_api_objects.c:157
     3f8:	00bb      	lsls	r3, r7, #2
     3fa:	d527      	bpl.n	44c <TEE_GetObjectValueAttribute+0x74>
/home/yin/imx-optee/imx-optee-os/lib/libutee/tee_api_objects.c:162
     3fc:	466b      	mov	r3, sp
     3fe:	aa03      	add	r2, sp, #12
     400:	4639      	mov	r1, r7
     402:	4640      	mov	r0, r8
     404:	f002 e816 	blx	2434 <utee_cryp_obj_get_attr>
/home/yin/imx-optee/imx-optee-os/lib/libutee/tee_api_objects.c:166
     408:	4604      	mov	r4, r0
     40a:	b158      	cbz	r0, 424 <TEE_GetObjectValueAttribute+0x4c>
/home/yin/imx-optee/imx-optee-os/lib/libutee/tee_api_objects.c:166 (discriminator 1)
     40c:	4b10      	ldr	r3, [pc, #64]	; (450 <TEE_GetObjectValueAttribute+0x78>)
     40e:	429c      	cmp	r4, r3
     410:	d008      	beq.n	424 <TEE_GetObjectValueAttribute+0x4c>
/home/yin/imx-optee/imx-optee-os/lib/libutee/tee_api_objects.c:167
     412:	4b10      	ldr	r3, [pc, #64]	; (454 <TEE_GetObjectValueAttribute+0x7c>)
     414:	429c      	cmp	r4, r3
     416:	d005      	beq.n	424 <TEE_GetObjectValueAttribute+0x4c>
/home/yin/imx-optee/imx-optee-os/lib/libutee/tee_api_objects.c:168
     418:	3302      	adds	r3, #2
     41a:	429c      	cmp	r4, r3
     41c:	d002      	beq.n	424 <TEE_GetObjectValueAttribute+0x4c>
/home/yin/imx-optee/imx-optee-os/lib/libutee/tee_api_objects.c:170
     41e:	4620      	mov	r0, r4
     420:	f004 fe32 	bl	5088 <TEE_Panic>
/home/yin/imx-optee/imx-optee-os/lib/libutee/tee_api_objects.c:172
     424:	e9dd 2300 	ldrd	r2, r3, [sp]
     428:	2b00      	cmp	r3, #0
     42a:	bf08      	it	eq
     42c:	2a08      	cmpeq	r2, #8
     42e:	d002      	beq.n	436 <TEE_GetObjectValueAttribute+0x5e>
/home/yin/imx-optee/imx-optee-os/lib/libutee/tee_api_objects.c:173
     430:	2000      	movs	r0, #0
     432:	f004 fe29 	bl	5088 <TEE_Panic>
/home/yin/imx-optee/imx-optee-os/lib/libutee/tee_api_objects.c:175
     436:	b92c      	cbnz	r4, 444 <TEE_GetObjectValueAttribute+0x6c>
/home/yin/imx-optee/imx-optee-os/lib/libutee/tee_api_objects.c:176
     438:	b10e      	cbz	r6, 43e <TEE_GetObjectValueAttribute+0x66>
/home/yin/imx-optee/imx-optee-os/lib/libutee/tee_api_objects.c:177
     43a:	9b03      	ldr	r3, [sp, #12]
     43c:	6033      	str	r3, [r6, #0]
/home/yin/imx-optee/imx-optee-os/lib/libutee/tee_api_objects.c:178
     43e:	b10d      	cbz	r5, 444 <TEE_GetObjectValueAttribute+0x6c>
/home/yin/imx-optee/imx-optee-os/lib/libutee/tee_api_objects.c:179
     440:	9b04      	ldr	r3, [sp, #16]
     442:	602b      	str	r3, [r5, #0]
/home/yin/imx-optee/imx-optee-os/lib/libutee/tee_api_objects.c:183
     444:	4620      	mov	r0, r4
     446:	b00c      	add	sp, #48	; 0x30
     448:	e8bd 81f0 	ldmia.w	sp!, {r4, r5, r6, r7, r8, pc}
/home/yin/imx-optee/imx-optee-os/lib/libutee/tee_api_objects.c:158
     44c:	4c02      	ldr	r4, [pc, #8]	; (458 <TEE_GetObjectValueAttribute+0x80>)
     44e:	e7e6      	b.n	41e <TEE_GetObjectValueAttribute+0x46>
     450:	ffff0008 	.word	0xffff0008
     454:	f0100001 	.word	0xf0100001
     458:	ffff0006 	.word	0xffff0006

0000045c <TEE_CloseObject>:
TEE_CloseObject():
/home/yin/imx-optee/imx-optee-os/lib/libutee/tee_api_objects.c:186
     45c:	b508      	push	{r3, lr}
/home/yin/imx-optee/imx-optee-os/lib/libutee/tee_api_objects.c:189
     45e:	b130      	cbz	r0, 46e <TEE_CloseObject+0x12>
/home/yin/imx-optee/imx-optee-os/lib/libutee/tee_api_objects.c:192
     460:	f001 effc 	blx	245c <utee_cryp_obj_close>
/home/yin/imx-optee/imx-optee-os/lib/libutee/tee_api_objects.c:193
     464:	b118      	cbz	r0, 46e <TEE_CloseObject+0x12>
/home/yin/imx-optee/imx-optee-os/lib/libutee/tee_api_objects.c:195
     466:	e8bd 4008 	ldmia.w	sp!, {r3, lr}
/home/yin/imx-optee/imx-optee-os/lib/libutee/tee_api_objects.c:194
     46a:	f004 be0d 	b.w	5088 <TEE_Panic>
     46e:	bd08      	pop	{r3, pc}

00000470 <TEE_AllocateTransientObject>:
TEE_AllocateTransientObject():
/home/yin/imx-optee/imx-optee-os/lib/libutee/tee_api_objects.c:202
     470:	b537      	push	{r0, r1, r2, r4, r5, lr}
     472:	4615      	mov	r5, r2
/home/yin/imx-optee/imx-optee-os/lib/libutee/tee_api_objects.c:206
     474:	aa01      	add	r2, sp, #4
     476:	f001 efe8 	blx	2448 <utee_cryp_obj_alloc>
/home/yin/imx-optee/imx-optee-os/lib/libutee/tee_api_objects.c:208
     47a:	4604      	mov	r4, r0
     47c:	b150      	cbz	r0, 494 <TEE_AllocateTransientObject+0x24>
/home/yin/imx-optee/imx-optee-os/lib/libutee/tee_api_objects.c:208 (discriminator 1)
     47e:	4b07      	ldr	r3, [pc, #28]	; (49c <TEE_AllocateTransientObject+0x2c>)
     480:	4298      	cmp	r0, r3
     482:	d004      	beq.n	48e <TEE_AllocateTransientObject+0x1e>
/home/yin/imx-optee/imx-optee-os/lib/libutee/tee_api_objects.c:209
     484:	3b02      	subs	r3, #2
     486:	4298      	cmp	r0, r3
     488:	d001      	beq.n	48e <TEE_AllocateTransientObject+0x1e>
/home/yin/imx-optee/imx-optee-os/lib/libutee/tee_api_objects.c:211
     48a:	f004 fdfd 	bl	5088 <TEE_Panic>
/home/yin/imx-optee/imx-optee-os/lib/libutee/tee_api_objects.c:217
     48e:	4620      	mov	r0, r4
     490:	b003      	add	sp, #12
     492:	bd30      	pop	{r4, r5, pc}
/home/yin/imx-optee/imx-optee-os/lib/libutee/tee_api_objects.c:214
     494:	9b01      	ldr	r3, [sp, #4]
     496:	602b      	str	r3, [r5, #0]
     498:	e7f9      	b.n	48e <TEE_AllocateTransientObject+0x1e>
     49a:	bf00      	nop
     49c:	ffff000c 	.word	0xffff000c

000004a0 <TEE_FreeTransientObject>:
TEE_FreeTransientObject():
/home/yin/imx-optee/imx-optee-os/lib/libutee/tee_api_objects.c:220
     4a0:	b510      	push	{r4, lr}
/home/yin/imx-optee/imx-optee-os/lib/libutee/tee_api_objects.c:224
     4a2:	4604      	mov	r4, r0
/home/yin/imx-optee/imx-optee-os/lib/libutee/tee_api_objects.c:220
     4a4:	b088      	sub	sp, #32
/home/yin/imx-optee/imx-optee-os/lib/libutee/tee_api_objects.c:224
     4a6:	b188      	cbz	r0, 4cc <TEE_FreeTransientObject+0x2c>
/home/yin/imx-optee/imx-optee-os/lib/libutee/tee_api_objects.c:227
     4a8:	a901      	add	r1, sp, #4
     4aa:	f001 efb0 	blx	240c <utee_cryp_obj_get_info>
/home/yin/imx-optee/imx-optee-os/lib/libutee/tee_api_objects.c:228
     4ae:	b108      	cbz	r0, 4b4 <TEE_FreeTransientObject+0x14>
/home/yin/imx-optee/imx-optee-os/lib/libutee/tee_api_objects.c:229
     4b0:	f004 fdea 	bl	5088 <TEE_Panic>
/home/yin/imx-optee/imx-optee-os/lib/libutee/tee_api_objects.c:231
     4b4:	9b07      	ldr	r3, [sp, #28]
     4b6:	03db      	lsls	r3, r3, #15
     4b8:	d502      	bpl.n	4c0 <TEE_FreeTransientObject+0x20>
/home/yin/imx-optee/imx-optee-os/lib/libutee/tee_api_objects.c:232
     4ba:	2000      	movs	r0, #0
     4bc:	f004 fde4 	bl	5088 <TEE_Panic>
/home/yin/imx-optee/imx-optee-os/lib/libutee/tee_api_objects.c:234
     4c0:	4620      	mov	r0, r4
     4c2:	f001 efcc 	blx	245c <utee_cryp_obj_close>
/home/yin/imx-optee/imx-optee-os/lib/libutee/tee_api_objects.c:235
     4c6:	b108      	cbz	r0, 4cc <TEE_FreeTransientObject+0x2c>
/home/yin/imx-optee/imx-optee-os/lib/libutee/tee_api_objects.c:236
     4c8:	f004 fdde 	bl	5088 <TEE_Panic>
/home/yin/imx-optee/imx-optee-os/lib/libutee/tee_api_objects.c:237
     4cc:	b008      	add	sp, #32
     4ce:	bd10      	pop	{r4, pc}

000004d0 <TEE_ResetTransientObject>:
TEE_ResetTransientObject():
/home/yin/imx-optee/imx-optee-os/lib/libutee/tee_api_objects.c:240
     4d0:	b510      	push	{r4, lr}
/home/yin/imx-optee/imx-optee-os/lib/libutee/tee_api_objects.c:244
     4d2:	4604      	mov	r4, r0
/home/yin/imx-optee/imx-optee-os/lib/libutee/tee_api_objects.c:240
     4d4:	b088      	sub	sp, #32
/home/yin/imx-optee/imx-optee-os/lib/libutee/tee_api_objects.c:244
     4d6:	b188      	cbz	r0, 4fc <TEE_ResetTransientObject+0x2c>
/home/yin/imx-optee/imx-optee-os/lib/libutee/tee_api_objects.c:247
     4d8:	a901      	add	r1, sp, #4
     4da:	f001 ef98 	blx	240c <utee_cryp_obj_get_info>
/home/yin/imx-optee/imx-optee-os/lib/libutee/tee_api_objects.c:248
     4de:	b108      	cbz	r0, 4e4 <TEE_ResetTransientObject+0x14>
/home/yin/imx-optee/imx-optee-os/lib/libutee/tee_api_objects.c:249
     4e0:	f004 fdd2 	bl	5088 <TEE_Panic>
/home/yin/imx-optee/imx-optee-os/lib/libutee/tee_api_objects.c:251
     4e4:	9b07      	ldr	r3, [sp, #28]
     4e6:	03db      	lsls	r3, r3, #15
     4e8:	d502      	bpl.n	4f0 <TEE_ResetTransientObject+0x20>
/home/yin/imx-optee/imx-optee-os/lib/libutee/tee_api_objects.c:252
     4ea:	2000      	movs	r0, #0
     4ec:	f004 fdcc 	bl	5088 <TEE_Panic>
/home/yin/imx-optee/imx-optee-os/lib/libutee/tee_api_objects.c:254
     4f0:	4620      	mov	r0, r4
     4f2:	f001 efbe 	blx	2470 <utee_cryp_obj_reset>
/home/yin/imx-optee/imx-optee-os/lib/libutee/tee_api_objects.c:255
     4f6:	b108      	cbz	r0, 4fc <TEE_ResetTransientObject+0x2c>
/home/yin/imx-optee/imx-optee-os/lib/libutee/tee_api_objects.c:256
     4f8:	f004 fdc6 	bl	5088 <TEE_Panic>
/home/yin/imx-optee/imx-optee-os/lib/libutee/tee_api_objects.c:257
     4fc:	b008      	add	sp, #32
     4fe:	bd10      	pop	{r4, pc}

00000500 <TEE_PopulateTransientObject>:
TEE_PopulateTransientObject():
/home/yin/imx-optee/imx-optee-os/lib/libutee/tee_api_objects.c:265
     500:	2318      	movs	r3, #24
/home/yin/imx-optee/imx-optee-os/lib/libutee/tee_api_objects.c:262
     502:	e92d 41f0 	stmdb	sp!, {r4, r5, r6, r7, r8, lr}
/home/yin/imx-optee/imx-optee-os/lib/libutee/tee_api_objects.c:265
     506:	4353      	muls	r3, r2
/home/yin/imx-optee/imx-optee-os/lib/libutee/tee_api_objects.c:262
     508:	b088      	sub	sp, #32
     50a:	af00      	add	r7, sp, #0
     50c:	4688      	mov	r8, r1
/home/yin/imx-optee/imx-optee-os/lib/libutee/tee_api_objects.c:267
     50e:	1d39      	adds	r1, r7, #4
/home/yin/imx-optee/imx-optee-os/lib/libutee/tee_api_objects.c:262
     510:	4606      	mov	r6, r0
/home/yin/imx-optee/imx-optee-os/lib/libutee/tee_api_objects.c:265
     512:	3308      	adds	r3, #8
/home/yin/imx-optee/imx-optee-os/lib/libutee/tee_api_objects.c:262
     514:	4614      	mov	r4, r2
/home/yin/imx-optee/imx-optee-os/lib/libutee/tee_api_objects.c:265
     516:	ebad 0d03 	sub.w	sp, sp, r3
     51a:	466d      	mov	r5, sp
/home/yin/imx-optee/imx-optee-os/lib/libutee/tee_api_objects.c:267
     51c:	f001 ef76 	blx	240c <utee_cryp_obj_get_info>
/home/yin/imx-optee/imx-optee-os/lib/libutee/tee_api_objects.c:268
     520:	b108      	cbz	r0, 526 <TEE_PopulateTransientObject+0x26>
/home/yin/imx-optee/imx-optee-os/lib/libutee/tee_api_objects.c:269
     522:	f004 fdb1 	bl	5088 <TEE_Panic>
/home/yin/imx-optee/imx-optee-os/lib/libutee/tee_api_objects.c:272
     526:	69fb      	ldr	r3, [r7, #28]
     528:	03da      	lsls	r2, r3, #15
     52a:	d502      	bpl.n	532 <TEE_PopulateTransientObject+0x32>
/home/yin/imx-optee/imx-optee-os/lib/libutee/tee_api_objects.c:273
     52c:	2000      	movs	r0, #0
     52e:	f004 fdab 	bl	5088 <TEE_Panic>
/home/yin/imx-optee/imx-optee-os/lib/libutee/tee_api_objects.c:276
     532:	69fb      	ldr	r3, [r7, #28]
     534:	039b      	lsls	r3, r3, #14
     536:	d502      	bpl.n	53e <TEE_PopulateTransientObject+0x3e>
/home/yin/imx-optee/imx-optee-os/lib/libutee/tee_api_objects.c:277
     538:	2000      	movs	r0, #0
     53a:	f004 fda5 	bl	5088 <TEE_Panic>
/home/yin/imx-optee/imx-optee-os/lib/libutee/tee_api_objects.c:279
     53e:	4622      	mov	r2, r4
     540:	4641      	mov	r1, r8
     542:	4628      	mov	r0, r5
     544:	f7ff fea8 	bl	298 <__utee_from_attr>
/home/yin/imx-optee/imx-optee-os/lib/libutee/tee_api_objects.c:280
     548:	4622      	mov	r2, r4
     54a:	4629      	mov	r1, r5
     54c:	4630      	mov	r0, r6
     54e:	f001 ef9a 	blx	2484 <utee_cryp_obj_populate>
/home/yin/imx-optee/imx-optee-os/lib/libutee/tee_api_objects.c:281
     552:	4604      	mov	r4, r0
     554:	b120      	cbz	r0, 560 <TEE_PopulateTransientObject+0x60>
/home/yin/imx-optee/imx-optee-os/lib/libutee/tee_api_objects.c:281 (discriminator 1)
     556:	4b05      	ldr	r3, [pc, #20]	; (56c <TEE_PopulateTransientObject+0x6c>)
     558:	4298      	cmp	r0, r3
     55a:	d001      	beq.n	560 <TEE_PopulateTransientObject+0x60>
/home/yin/imx-optee/imx-optee-os/lib/libutee/tee_api_objects.c:282
     55c:	f004 fd94 	bl	5088 <TEE_Panic>
/home/yin/imx-optee/imx-optee-os/lib/libutee/tee_api_objects.c:284
     560:	4620      	mov	r0, r4
     562:	3720      	adds	r7, #32
     564:	46bd      	mov	sp, r7
     566:	e8bd 81f0 	ldmia.w	sp!, {r4, r5, r6, r7, r8, pc}
     56a:	bf00      	nop
     56c:	ffff0006 	.word	0xffff0006

00000570 <TEE_InitRefAttribute>:
TEE_InitRefAttribute():
/home/yin/imx-optee/imx-optee-os/lib/libutee/tee_api_objects.c:288
     570:	b5f8      	push	{r3, r4, r5, r6, r7, lr}
     572:	460d      	mov	r5, r1
     574:	4617      	mov	r7, r2
     576:	461e      	mov	r6, r3
/home/yin/imx-optee/imx-optee-os/lib/libutee/tee_api_objects.c:289
     578:	4604      	mov	r4, r0
     57a:	b908      	cbnz	r0, 580 <TEE_InitRefAttribute+0x10>
/home/yin/imx-optee/imx-optee-os/lib/libutee/tee_api_objects.c:290
     57c:	f004 fd84 	bl	5088 <TEE_Panic>
/home/yin/imx-optee/imx-optee-os/lib/libutee/tee_api_objects.c:291
     580:	00ab      	lsls	r3, r5, #2
     582:	d502      	bpl.n	58a <TEE_InitRefAttribute+0x1a>
/home/yin/imx-optee/imx-optee-os/lib/libutee/tee_api_objects.c:292
     584:	2000      	movs	r0, #0
     586:	f004 fd7f 	bl	5088 <TEE_Panic>
/home/yin/imx-optee/imx-optee-os/lib/libutee/tee_api_objects.c:294
     58a:	e884 00a0 	stmia.w	r4, {r5, r7}
/home/yin/imx-optee/imx-optee-os/lib/libutee/tee_api_objects.c:295
     58e:	60a6      	str	r6, [r4, #8]
     590:	bdf8      	pop	{r3, r4, r5, r6, r7, pc}

00000592 <TEE_InitValueAttribute>:
TEE_InitValueAttribute():
/home/yin/imx-optee/imx-optee-os/lib/libutee/tee_api_objects.c:300
     592:	b5f8      	push	{r3, r4, r5, r6, r7, lr}
     594:	460d      	mov	r5, r1
     596:	4617      	mov	r7, r2
     598:	461e      	mov	r6, r3
/home/yin/imx-optee/imx-optee-os/lib/libutee/tee_api_objects.c:301
     59a:	4604      	mov	r4, r0
     59c:	b908      	cbnz	r0, 5a2 <TEE_InitValueAttribute+0x10>
/home/yin/imx-optee/imx-optee-os/lib/libutee/tee_api_objects.c:302
     59e:	f004 fd73 	bl	5088 <TEE_Panic>
/home/yin/imx-optee/imx-optee-os/lib/libutee/tee_api_objects.c:303
     5a2:	f015 5000 	ands.w	r0, r5, #536870912	; 0x20000000
     5a6:	d101      	bne.n	5ac <TEE_InitValueAttribute+0x1a>
/home/yin/imx-optee/imx-optee-os/lib/libutee/tee_api_objects.c:304
     5a8:	f004 fd6e 	bl	5088 <TEE_Panic>
/home/yin/imx-optee/imx-optee-os/lib/libutee/tee_api_objects.c:306
     5ac:	e884 00a0 	stmia.w	r4, {r5, r7}
/home/yin/imx-optee/imx-optee-os/lib/libutee/tee_api_objects.c:307
     5b0:	60a6      	str	r6, [r4, #8]
     5b2:	bdf8      	pop	{r3, r4, r5, r6, r7, pc}

000005b4 <TEE_CopyObjectAttributes1>:
TEE_CopyObjectAttributes1():
/home/yin/imx-optee/imx-optee-os/lib/libutee/tee_api_objects.c:333
     5b4:	b570      	push	{r4, r5, r6, lr}
     5b6:	b08e      	sub	sp, #56	; 0x38
     5b8:	460d      	mov	r5, r1
/home/yin/imx-optee/imx-optee-os/lib/libutee/tee_api_objects.c:338
     5ba:	4669      	mov	r1, sp
/home/yin/imx-optee/imx-optee-os/lib/libutee/tee_api_objects.c:333
     5bc:	4606      	mov	r6, r0
/home/yin/imx-optee/imx-optee-os/lib/libutee/tee_api_objects.c:338
     5be:	f001 ef26 	blx	240c <utee_cryp_obj_get_info>
/home/yin/imx-optee/imx-optee-os/lib/libutee/tee_api_objects.c:339
     5c2:	4604      	mov	r4, r0
     5c4:	b9e0      	cbnz	r0, 600 <TEE_CopyObjectAttributes1+0x4c>
/home/yin/imx-optee/imx-optee-os/lib/libutee/tee_api_objects.c:342
     5c6:	a907      	add	r1, sp, #28
     5c8:	4628      	mov	r0, r5
     5ca:	f001 ef20 	blx	240c <utee_cryp_obj_get_info>
/home/yin/imx-optee/imx-optee-os/lib/libutee/tee_api_objects.c:343
     5ce:	4604      	mov	r4, r0
     5d0:	b9b0      	cbnz	r0, 600 <TEE_CopyObjectAttributes1+0x4c>
/home/yin/imx-optee/imx-optee-os/lib/libutee/tee_api_objects.c:346
     5d2:	9b0d      	ldr	r3, [sp, #52]	; 0x34
     5d4:	0399      	lsls	r1, r3, #14
     5d6:	d401      	bmi.n	5dc <TEE_CopyObjectAttributes1+0x28>
/home/yin/imx-optee/imx-optee-os/lib/libutee/tee_api_objects.c:347
     5d8:	f004 fd56 	bl	5088 <TEE_Panic>
/home/yin/imx-optee/imx-optee-os/lib/libutee/tee_api_objects.c:349
     5dc:	9b06      	ldr	r3, [sp, #24]
     5de:	03da      	lsls	r2, r3, #15
     5e0:	d502      	bpl.n	5e8 <TEE_CopyObjectAttributes1+0x34>
/home/yin/imx-optee/imx-optee-os/lib/libutee/tee_api_objects.c:350
     5e2:	2000      	movs	r0, #0
     5e4:	f004 fd50 	bl	5088 <TEE_Panic>
/home/yin/imx-optee/imx-optee-os/lib/libutee/tee_api_objects.c:352
     5e8:	9b06      	ldr	r3, [sp, #24]
     5ea:	039b      	lsls	r3, r3, #14
     5ec:	d502      	bpl.n	5f4 <TEE_CopyObjectAttributes1+0x40>
/home/yin/imx-optee/imx-optee-os/lib/libutee/tee_api_objects.c:353
     5ee:	2000      	movs	r0, #0
     5f0:	f004 fd4a 	bl	5088 <TEE_Panic>
/home/yin/imx-optee/imx-optee-os/lib/libutee/tee_api_objects.c:355
     5f4:	4629      	mov	r1, r5
     5f6:	4630      	mov	r0, r6
     5f8:	f001 ef4e 	blx	2498 <utee_cryp_obj_copy>
/home/yin/imx-optee/imx-optee-os/lib/libutee/tee_api_objects.c:359
     5fc:	4604      	mov	r4, r0
     5fe:	b140      	cbz	r0, 612 <TEE_CopyObjectAttributes1+0x5e>
/home/yin/imx-optee/imx-optee-os/lib/libutee/tee_api_objects.c:359 (discriminator 1)
     600:	4b05      	ldr	r3, [pc, #20]	; (618 <TEE_CopyObjectAttributes1+0x64>)
     602:	429c      	cmp	r4, r3
     604:	d005      	beq.n	612 <TEE_CopyObjectAttributes1+0x5e>
/home/yin/imx-optee/imx-optee-os/lib/libutee/tee_api_objects.c:360
     606:	3302      	adds	r3, #2
     608:	429c      	cmp	r4, r3
     60a:	d002      	beq.n	612 <TEE_CopyObjectAttributes1+0x5e>
/home/yin/imx-optee/imx-optee-os/lib/libutee/tee_api_objects.c:362
     60c:	4620      	mov	r0, r4
     60e:	f004 fd3b 	bl	5088 <TEE_Panic>
/home/yin/imx-optee/imx-optee-os/lib/libutee/tee_api_objects.c:365
     612:	4620      	mov	r0, r4
     614:	b00e      	add	sp, #56	; 0x38
     616:	bd70      	pop	{r4, r5, r6, pc}
     618:	f0100001 	.word	0xf0100001

0000061c <TEE_CopyObjectAttributes>:
TEE_CopyObjectAttributes():
/home/yin/imx-optee/imx-optee-os/lib/libutee/tee_api_objects.c:318
     61c:	b530      	push	{r4, r5, lr}
     61e:	460c      	mov	r4, r1
     620:	b089      	sub	sp, #36	; 0x24
     622:	4605      	mov	r5, r0
/home/yin/imx-optee/imx-optee-os/lib/libutee/tee_api_objects.c:322
     624:	a901      	add	r1, sp, #4
     626:	4620      	mov	r0, r4
     628:	f001 eef0 	blx	240c <utee_cryp_obj_get_info>
/home/yin/imx-optee/imx-optee-os/lib/libutee/tee_api_objects.c:323
     62c:	9a01      	ldr	r2, [sp, #4]
     62e:	4b06      	ldr	r3, [pc, #24]	; (648 <TEE_CopyObjectAttributes+0x2c>)
     630:	429a      	cmp	r2, r3
     632:	d006      	beq.n	642 <TEE_CopyObjectAttributes+0x26>
/home/yin/imx-optee/imx-optee-os/lib/libutee/tee_api_objects.c:326
     634:	4621      	mov	r1, r4
     636:	4628      	mov	r0, r5
     638:	f7ff ffbc 	bl	5b4 <TEE_CopyObjectAttributes1>
/home/yin/imx-optee/imx-optee-os/lib/libutee/tee_api_objects.c:327
     63c:	b108      	cbz	r0, 642 <TEE_CopyObjectAttributes+0x26>
/home/yin/imx-optee/imx-optee-os/lib/libutee/tee_api_objects.c:328
     63e:	f004 fd23 	bl	5088 <TEE_Panic>
/home/yin/imx-optee/imx-optee-os/lib/libutee/tee_api_objects.c:329
     642:	b009      	add	sp, #36	; 0x24
     644:	bd30      	pop	{r4, r5, pc}
     646:	bf00      	nop
     648:	a00000be 	.word	0xa00000be

0000064c <TEE_GenerateKey>:
TEE_GenerateKey():
/home/yin/imx-optee/imx-optee-os/lib/libutee/tee_api_objects.c:369
     64c:	e92d 41f0 	stmdb	sp!, {r4, r5, r6, r7, r8, lr}
     650:	4688      	mov	r8, r1
     652:	4611      	mov	r1, r2
/home/yin/imx-optee/imx-optee-os/lib/libutee/tee_api_objects.c:371
     654:	2218      	movs	r2, #24
     656:	435a      	muls	r2, r3
/home/yin/imx-optee/imx-optee-os/lib/libutee/tee_api_objects.c:369
     658:	af00      	add	r7, sp, #0
     65a:	461c      	mov	r4, r3
     65c:	4606      	mov	r6, r0
/home/yin/imx-optee/imx-optee-os/lib/libutee/tee_api_objects.c:371
     65e:	3208      	adds	r2, #8
     660:	ebad 0d02 	sub.w	sp, sp, r2
/home/yin/imx-optee/imx-optee-os/lib/libutee/tee_api_objects.c:373
     664:	461a      	mov	r2, r3
     666:	4668      	mov	r0, sp
     668:	f7ff fe16 	bl	298 <__utee_from_attr>
/home/yin/imx-optee/imx-optee-os/lib/libutee/tee_api_objects.c:374
     66c:	4623      	mov	r3, r4
     66e:	466a      	mov	r2, sp
     670:	4641      	mov	r1, r8
     672:	4630      	mov	r0, r6
     674:	f002 e806 	blx	2684 <utee_cryp_obj_generate_key>
/home/yin/imx-optee/imx-optee-os/lib/libutee/tee_api_objects.c:377
     678:	4604      	mov	r4, r0
     67a:	b120      	cbz	r0, 686 <TEE_GenerateKey+0x3a>
/home/yin/imx-optee/imx-optee-os/lib/libutee/tee_api_objects.c:377 (discriminator 1)
     67c:	4b04      	ldr	r3, [pc, #16]	; (690 <TEE_GenerateKey+0x44>)
     67e:	4298      	cmp	r0, r3
     680:	d001      	beq.n	686 <TEE_GenerateKey+0x3a>
/home/yin/imx-optee/imx-optee-os/lib/libutee/tee_api_objects.c:378
     682:	f004 fd01 	bl	5088 <TEE_Panic>
/home/yin/imx-optee/imx-optee-os/lib/libutee/tee_api_objects.c:381
     686:	4620      	mov	r0, r4
     688:	46bd      	mov	sp, r7
     68a:	e8bd 81f0 	ldmia.w	sp!, {r4, r5, r6, r7, r8, pc}
     68e:	bf00      	nop
     690:	ffff0006 	.word	0xffff0006

00000694 <TEE_OpenPersistentObject>:
TEE_OpenPersistentObject():
/home/yin/imx-optee/imx-optee-os/lib/libutee/tee_api_objects.c:388
     694:	b530      	push	{r4, r5, lr}
     696:	b085      	sub	sp, #20
     698:	9d08      	ldr	r5, [sp, #32]
/home/yin/imx-optee/imx-optee-os/lib/libutee/tee_api_objects.c:392
     69a:	b919      	cbnz	r1, 6a4 <TEE_OpenPersistentObject+0x10>
     69c:	4c12      	ldr	r4, [pc, #72]	; (6e8 <TEE_OpenPersistentObject+0x54>)
/home/yin/imx-optee/imx-optee-os/lib/libutee/tee_api_objects.c:422
     69e:	4620      	mov	r0, r4
     6a0:	b005      	add	sp, #20
     6a2:	bd30      	pop	{r4, r5, pc}
/home/yin/imx-optee/imx-optee-os/lib/libutee/tee_api_objects.c:397
     6a4:	2a40      	cmp	r2, #64	; 0x40
     6a6:	d809      	bhi.n	6bc <TEE_OpenPersistentObject+0x28>
/home/yin/imx-optee/imx-optee-os/lib/libutee/tee_api_objects.c:402
     6a8:	b145      	cbz	r5, 6bc <TEE_OpenPersistentObject+0x28>
/home/yin/imx-optee/imx-optee-os/lib/libutee/tee_api_objects.c:407
     6aa:	ac03      	add	r4, sp, #12
     6ac:	9400      	str	r4, [sp, #0]
     6ae:	f001 ef64 	blx	2578 <utee_storage_obj_open>
/home/yin/imx-optee/imx-optee-os/lib/libutee/tee_api_objects.c:409
     6b2:	4604      	mov	r4, r0
     6b4:	b920      	cbnz	r0, 6c0 <TEE_OpenPersistentObject+0x2c>
/home/yin/imx-optee/imx-optee-os/lib/libutee/tee_api_objects.c:410
     6b6:	9b03      	ldr	r3, [sp, #12]
     6b8:	602b      	str	r3, [r5, #0]
     6ba:	e7f0      	b.n	69e <TEE_OpenPersistentObject+0xa>
     6bc:	4c0b      	ldr	r4, [pc, #44]	; (6ec <TEE_OpenPersistentObject+0x58>)
     6be:	e00e      	b.n	6de <TEE_OpenPersistentObject+0x4a>
/home/yin/imx-optee/imx-optee-os/lib/libutee/tee_api_objects.c:413
     6c0:	4b09      	ldr	r3, [pc, #36]	; (6e8 <TEE_OpenPersistentObject+0x54>)
     6c2:	4298      	cmp	r0, r3
     6c4:	d0ea      	beq.n	69c <TEE_OpenPersistentObject+0x8>
/home/yin/imx-optee/imx-optee-os/lib/libutee/tee_api_objects.c:414
     6c6:	4b0a      	ldr	r3, [pc, #40]	; (6f0 <TEE_OpenPersistentObject+0x5c>)
     6c8:	429c      	cmp	r4, r3
     6ca:	d0e8      	beq.n	69e <TEE_OpenPersistentObject+0xa>
/home/yin/imx-optee/imx-optee-os/lib/libutee/tee_api_objects.c:415
     6cc:	3309      	adds	r3, #9
     6ce:	429c      	cmp	r4, r3
     6d0:	d0e5      	beq.n	69e <TEE_OpenPersistentObject+0xa>
/home/yin/imx-optee/imx-optee-os/lib/libutee/tee_api_objects.c:416
     6d2:	4b08      	ldr	r3, [pc, #32]	; (6f4 <TEE_OpenPersistentObject+0x60>)
     6d4:	429c      	cmp	r4, r3
     6d6:	d0e2      	beq.n	69e <TEE_OpenPersistentObject+0xa>
/home/yin/imx-optee/imx-optee-os/lib/libutee/tee_api_objects.c:417
     6d8:	3302      	adds	r3, #2
     6da:	429c      	cmp	r4, r3
     6dc:	d0df      	beq.n	69e <TEE_OpenPersistentObject+0xa>
/home/yin/imx-optee/imx-optee-os/lib/libutee/tee_api_objects.c:419
     6de:	4620      	mov	r0, r4
     6e0:	f004 fcd2 	bl	5088 <TEE_Panic>
/home/yin/imx-optee/imx-optee-os/lib/libutee/tee_api_objects.c:421
     6e4:	e7db      	b.n	69e <TEE_OpenPersistentObject+0xa>
     6e6:	bf00      	nop
     6e8:	ffff0008 	.word	0xffff0008
     6ec:	ffff0006 	.word	0xffff0006
     6f0:	ffff0003 	.word	0xffff0003
     6f4:	f0100001 	.word	0xf0100001

000006f8 <TEE_CreatePersistentObject>:
TEE_CreatePersistentObject():
/home/yin/imx-optee/imx-optee-os/lib/libutee/tee_api_objects.c:430
     6f8:	b530      	push	{r4, r5, lr}
     6fa:	b087      	sub	sp, #28
     6fc:	9c0d      	ldr	r4, [sp, #52]	; 0x34
/home/yin/imx-optee/imx-optee-os/lib/libutee/tee_api_objects.c:434
     6fe:	2900      	cmp	r1, #0
     700:	d033      	beq.n	76a <TEE_CreatePersistentObject+0x72>
/home/yin/imx-optee/imx-optee-os/lib/libutee/tee_api_objects.c:439
     702:	2a40      	cmp	r2, #64	; 0x40
     704:	d835      	bhi.n	772 <TEE_CreatePersistentObject+0x7a>
/home/yin/imx-optee/imx-optee-os/lib/libutee/tee_api_objects.c:444
     706:	ad05      	add	r5, sp, #20
     708:	9503      	str	r5, [sp, #12]
     70a:	9d0c      	ldr	r5, [sp, #48]	; 0x30
     70c:	9502      	str	r5, [sp, #8]
     70e:	9d0b      	ldr	r5, [sp, #44]	; 0x2c
     710:	9501      	str	r5, [sp, #4]
     712:	9d0a      	ldr	r5, [sp, #40]	; 0x28
     714:	9500      	str	r5, [sp, #0]
     716:	f001 ef3c 	blx	2590 <utee_storage_obj_create>
/home/yin/imx-optee/imx-optee-os/lib/libutee/tee_api_objects.c:447
     71a:	b970      	cbnz	r0, 73a <TEE_CreatePersistentObject+0x42>
/home/yin/imx-optee/imx-optee-os/lib/libutee/tee_api_objects.c:448
     71c:	b11c      	cbz	r4, 726 <TEE_CreatePersistentObject+0x2e>
/home/yin/imx-optee/imx-optee-os/lib/libutee/tee_api_objects.c:449
     71e:	9b05      	ldr	r3, [sp, #20]
     720:	6023      	str	r3, [r4, #0]
/home/yin/imx-optee/imx-optee-os/lib/libutee/tee_api_objects.c:468
     722:	b007      	add	sp, #28
     724:	bd30      	pop	{r4, r5, pc}
/home/yin/imx-optee/imx-optee-os/lib/libutee/tee_api_objects.c:451
     726:	9805      	ldr	r0, [sp, #20]
     728:	f001 ee98 	blx	245c <utee_cryp_obj_close>
/home/yin/imx-optee/imx-optee-os/lib/libutee/tee_api_objects.c:452
     72c:	2800      	cmp	r0, #0
     72e:	d0f8      	beq.n	722 <TEE_CreatePersistentObject+0x2a>
/home/yin/imx-optee/imx-optee-os/lib/libutee/tee_api_objects.c:458
     730:	4b12      	ldr	r3, [pc, #72]	; (77c <TEE_CreatePersistentObject+0x84>)
     732:	4298      	cmp	r0, r3
     734:	d106      	bne.n	744 <TEE_CreatePersistentObject+0x4c>
/home/yin/imx-optee/imx-optee-os/lib/libutee/tee_api_objects.c:467
     736:	4811      	ldr	r0, [pc, #68]	; (77c <TEE_CreatePersistentObject+0x84>)
     738:	e7f3      	b.n	722 <TEE_CreatePersistentObject+0x2a>
/home/yin/imx-optee/imx-optee-os/lib/libutee/tee_api_objects.c:456
     73a:	2c00      	cmp	r4, #0
     73c:	d0f8      	beq.n	730 <TEE_CreatePersistentObject+0x38>
/home/yin/imx-optee/imx-optee-os/lib/libutee/tee_api_objects.c:457
     73e:	2300      	movs	r3, #0
     740:	6023      	str	r3, [r4, #0]
     742:	e7f5      	b.n	730 <TEE_CreatePersistentObject+0x38>
/home/yin/imx-optee/imx-optee-os/lib/libutee/tee_api_objects.c:458 (discriminator 1)
     744:	4b0e      	ldr	r3, [pc, #56]	; (780 <TEE_CreatePersistentObject+0x88>)
     746:	4298      	cmp	r0, r3
     748:	d0eb      	beq.n	722 <TEE_CreatePersistentObject+0x2a>
/home/yin/imx-optee/imx-optee-os/lib/libutee/tee_api_objects.c:459
     74a:	3309      	adds	r3, #9
     74c:	4298      	cmp	r0, r3
     74e:	d0e8      	beq.n	722 <TEE_CreatePersistentObject+0x2a>
/home/yin/imx-optee/imx-optee-os/lib/libutee/tee_api_objects.c:460
     750:	4b0c      	ldr	r3, [pc, #48]	; (784 <TEE_CreatePersistentObject+0x8c>)
     752:	4298      	cmp	r0, r3
     754:	d0e5      	beq.n	722 <TEE_CreatePersistentObject+0x2a>
/home/yin/imx-optee/imx-optee-os/lib/libutee/tee_api_objects.c:461
     756:	4b0c      	ldr	r3, [pc, #48]	; (788 <TEE_CreatePersistentObject+0x90>)
     758:	4298      	cmp	r0, r3
     75a:	d0e2      	beq.n	722 <TEE_CreatePersistentObject+0x2a>
/home/yin/imx-optee/imx-optee-os/lib/libutee/tee_api_objects.c:462
     75c:	3302      	adds	r3, #2
     75e:	4298      	cmp	r0, r3
     760:	d0df      	beq.n	722 <TEE_CreatePersistentObject+0x2a>
/home/yin/imx-optee/imx-optee-os/lib/libutee/tee_api_objects.c:465
     762:	f004 fc91 	bl	5088 <TEE_Panic>
/home/yin/imx-optee/imx-optee-os/lib/libutee/tee_api_objects.c:467
     766:	2000      	movs	r0, #0
     768:	e7db      	b.n	722 <TEE_CreatePersistentObject+0x2a>
/home/yin/imx-optee/imx-optee-os/lib/libutee/tee_api_objects.c:456
     76a:	2c00      	cmp	r4, #0
     76c:	d0e3      	beq.n	736 <TEE_CreatePersistentObject+0x3e>
/home/yin/imx-optee/imx-optee-os/lib/libutee/tee_api_objects.c:435
     76e:	4803      	ldr	r0, [pc, #12]	; (77c <TEE_CreatePersistentObject+0x84>)
     770:	e7e5      	b.n	73e <TEE_CreatePersistentObject+0x46>
/home/yin/imx-optee/imx-optee-os/lib/libutee/tee_api_objects.c:440
     772:	4806      	ldr	r0, [pc, #24]	; (78c <TEE_CreatePersistentObject+0x94>)
/home/yin/imx-optee/imx-optee-os/lib/libutee/tee_api_objects.c:456
     774:	2c00      	cmp	r4, #0
     776:	d1e2      	bne.n	73e <TEE_CreatePersistentObject+0x46>
     778:	e7f3      	b.n	762 <TEE_CreatePersistentObject+0x6a>
     77a:	bf00      	nop
     77c:	ffff0008 	.word	0xffff0008
     780:	ffff0003 	.word	0xffff0003
     784:	ffff3041 	.word	0xffff3041
     788:	f0100001 	.word	0xf0100001
     78c:	ffff0006 	.word	0xffff0006

00000790 <TEE_CloseAndDeletePersistentObject1>:
TEE_CloseAndDeletePersistentObject1():
/home/yin/imx-optee/imx-optee-os/lib/libutee/tee_api_objects.c:490
     790:	b510      	push	{r4, lr}
/home/yin/imx-optee/imx-optee-os/lib/libutee/tee_api_objects.c:493
     792:	b150      	cbz	r0, 7aa <TEE_CloseAndDeletePersistentObject1+0x1a>
/home/yin/imx-optee/imx-optee-os/lib/libutee/tee_api_objects.c:496
     794:	f001 ef08 	blx	25a8 <utee_storage_obj_del>
/home/yin/imx-optee/imx-optee-os/lib/libutee/tee_api_objects.c:498
     798:	4604      	mov	r4, r0
     79a:	b120      	cbz	r0, 7a6 <TEE_CloseAndDeletePersistentObject1+0x16>
     79c:	4b04      	ldr	r3, [pc, #16]	; (7b0 <TEE_CloseAndDeletePersistentObject1+0x20>)
     79e:	4298      	cmp	r0, r3
     7a0:	d001      	beq.n	7a6 <TEE_CloseAndDeletePersistentObject1+0x16>
/home/yin/imx-optee/imx-optee-os/lib/libutee/tee_api_objects.c:499
     7a2:	f004 fc71 	bl	5088 <TEE_Panic>
/home/yin/imx-optee/imx-optee-os/lib/libutee/tee_api_objects.c:502
     7a6:	4620      	mov	r0, r4
     7a8:	bd10      	pop	{r4, pc}
/home/yin/imx-optee/imx-optee-os/lib/libutee/tee_api_objects.c:494
     7aa:	4c01      	ldr	r4, [pc, #4]	; (7b0 <TEE_CloseAndDeletePersistentObject1+0x20>)
     7ac:	e7fb      	b.n	7a6 <TEE_CloseAndDeletePersistentObject1+0x16>
     7ae:	bf00      	nop
     7b0:	f0100003 	.word	0xf0100003

000007b4 <TEE_CloseAndDeletePersistentObject>:
TEE_CloseAndDeletePersistentObject():
/home/yin/imx-optee/imx-optee-os/lib/libutee/tee_api_objects.c:477
     7b4:	b508      	push	{r3, lr}
/home/yin/imx-optee/imx-optee-os/lib/libutee/tee_api_objects.c:480
     7b6:	b138      	cbz	r0, 7c8 <TEE_CloseAndDeletePersistentObject+0x14>
/home/yin/imx-optee/imx-optee-os/lib/libutee/tee_api_objects.c:483
     7b8:	f7ff ffea 	bl	790 <TEE_CloseAndDeletePersistentObject1>
/home/yin/imx-optee/imx-optee-os/lib/libutee/tee_api_objects.c:485
     7bc:	b120      	cbz	r0, 7c8 <TEE_CloseAndDeletePersistentObject+0x14>
/home/yin/imx-optee/imx-optee-os/lib/libutee/tee_api_objects.c:486
     7be:	2000      	movs	r0, #0
/home/yin/imx-optee/imx-optee-os/lib/libutee/tee_api_objects.c:487
     7c0:	e8bd 4008 	ldmia.w	sp!, {r3, lr}
/home/yin/imx-optee/imx-optee-os/lib/libutee/tee_api_objects.c:486
     7c4:	f004 bc60 	b.w	5088 <TEE_Panic>
     7c8:	bd08      	pop	{r3, pc}

000007ca <TEE_RenamePersistentObject>:
TEE_RenamePersistentObject():
/home/yin/imx-optee/imx-optee-os/lib/libutee/tee_api_objects.c:508
     7ca:	b510      	push	{r4, lr}
/home/yin/imx-optee/imx-optee-os/lib/libutee/tee_api_objects.c:511
     7cc:	b1a0      	cbz	r0, 7f8 <TEE_RenamePersistentObject+0x2e>
/home/yin/imx-optee/imx-optee-os/lib/libutee/tee_api_objects.c:516
     7ce:	b1a9      	cbz	r1, 7fc <TEE_RenamePersistentObject+0x32>
/home/yin/imx-optee/imx-optee-os/lib/libutee/tee_api_objects.c:521
     7d0:	2a40      	cmp	r2, #64	; 0x40
     7d2:	d813      	bhi.n	7fc <TEE_RenamePersistentObject+0x32>
/home/yin/imx-optee/imx-optee-os/lib/libutee/tee_api_objects.c:526
     7d4:	f001 eef2 	blx	25bc <utee_storage_obj_rename>
/home/yin/imx-optee/imx-optee-os/lib/libutee/tee_api_objects.c:530
     7d8:	4604      	mov	r4, r0
     7da:	b158      	cbz	r0, 7f4 <TEE_RenamePersistentObject+0x2a>
/home/yin/imx-optee/imx-optee-os/lib/libutee/tee_api_objects.c:530 (discriminator 1)
     7dc:	4b08      	ldr	r3, [pc, #32]	; (800 <TEE_RenamePersistentObject+0x36>)
     7de:	4298      	cmp	r0, r3
     7e0:	d008      	beq.n	7f4 <TEE_RenamePersistentObject+0x2a>
/home/yin/imx-optee/imx-optee-os/lib/libutee/tee_api_objects.c:531
     7e2:	4b08      	ldr	r3, [pc, #32]	; (804 <TEE_RenamePersistentObject+0x3a>)
     7e4:	4298      	cmp	r0, r3
     7e6:	d005      	beq.n	7f4 <TEE_RenamePersistentObject+0x2a>
/home/yin/imx-optee/imx-optee-os/lib/libutee/tee_api_objects.c:532
     7e8:	3302      	adds	r3, #2
     7ea:	4298      	cmp	r0, r3
     7ec:	d002      	beq.n	7f4 <TEE_RenamePersistentObject+0x2a>
/home/yin/imx-optee/imx-optee-os/lib/libutee/tee_api_objects.c:534
     7ee:	4620      	mov	r0, r4
     7f0:	f004 fc4a 	bl	5088 <TEE_Panic>
/home/yin/imx-optee/imx-optee-os/lib/libutee/tee_api_objects.c:537
     7f4:	4620      	mov	r0, r4
     7f6:	bd10      	pop	{r4, pc}
/home/yin/imx-optee/imx-optee-os/lib/libutee/tee_api_objects.c:512
     7f8:	4c03      	ldr	r4, [pc, #12]	; (808 <TEE_RenamePersistentObject+0x3e>)
     7fa:	e7f8      	b.n	7ee <TEE_RenamePersistentObject+0x24>
/home/yin/imx-optee/imx-optee-os/lib/libutee/tee_api_objects.c:517
     7fc:	4c03      	ldr	r4, [pc, #12]	; (80c <TEE_RenamePersistentObject+0x42>)
     7fe:	e7f6      	b.n	7ee <TEE_RenamePersistentObject+0x24>
     800:	ffff0003 	.word	0xffff0003
     804:	f0100001 	.word	0xf0100001
     808:	ffff0008 	.word	0xffff0008
     80c:	ffff0006 	.word	0xffff0006

00000810 <TEE_AllocatePersistentObjectEnumerator>:
TEE_AllocatePersistentObjectEnumerator():
/home/yin/imx-optee/imx-optee-os/lib/libutee/tee_api_objects.c:541
     810:	b537      	push	{r0, r1, r2, r4, r5, lr}
/home/yin/imx-optee/imx-optee-os/lib/libutee/tee_api_objects.c:545
     812:	4605      	mov	r5, r0
     814:	b190      	cbz	r0, 83c <TEE_AllocatePersistentObjectEnumerator+0x2c>
/home/yin/imx-optee/imx-optee-os/lib/libutee/tee_api_objects.c:548
     816:	a801      	add	r0, sp, #4
     818:	f001 eeda 	blx	25d0 <utee_storage_alloc_enum>
/home/yin/imx-optee/imx-optee-os/lib/libutee/tee_api_objects.c:550
     81c:	4604      	mov	r4, r0
     81e:	b108      	cbz	r0, 824 <TEE_AllocatePersistentObjectEnumerator+0x14>
/home/yin/imx-optee/imx-optee-os/lib/libutee/tee_api_objects.c:551
     820:	2300      	movs	r3, #0
     822:	9301      	str	r3, [sp, #4]
/home/yin/imx-optee/imx-optee-os/lib/libutee/tee_api_objects.c:553
     824:	9b01      	ldr	r3, [sp, #4]
     826:	602b      	str	r3, [r5, #0]
/home/yin/imx-optee/imx-optee-os/lib/libutee/tee_api_objects.c:555
     828:	b12c      	cbz	r4, 836 <TEE_AllocatePersistentObjectEnumerator+0x26>
/home/yin/imx-optee/imx-optee-os/lib/libutee/tee_api_objects.c:555 (discriminator 1)
     82a:	4b05      	ldr	r3, [pc, #20]	; (840 <TEE_AllocatePersistentObjectEnumerator+0x30>)
     82c:	429c      	cmp	r4, r3
     82e:	d002      	beq.n	836 <TEE_AllocatePersistentObjectEnumerator+0x26>
/home/yin/imx-optee/imx-optee-os/lib/libutee/tee_api_objects.c:557
     830:	4620      	mov	r0, r4
     832:	f004 fc29 	bl	5088 <TEE_Panic>
/home/yin/imx-optee/imx-optee-os/lib/libutee/tee_api_objects.c:560
     836:	4620      	mov	r0, r4
     838:	b003      	add	sp, #12
     83a:	bd30      	pop	{r4, r5, pc}
/home/yin/imx-optee/imx-optee-os/lib/libutee/tee_api_objects.c:546
     83c:	4c01      	ldr	r4, [pc, #4]	; (844 <TEE_AllocatePersistentObjectEnumerator+0x34>)
     83e:	e7fa      	b.n	836 <TEE_AllocatePersistentObjectEnumerator+0x26>
     840:	ffff0003 	.word	0xffff0003
     844:	ffff0006 	.word	0xffff0006

00000848 <TEE_FreePersistentObjectEnumerator>:
TEE_FreePersistentObjectEnumerator():
/home/yin/imx-optee/imx-optee-os/lib/libutee/tee_api_objects.c:563
     848:	b508      	push	{r3, lr}
/home/yin/imx-optee/imx-optee-os/lib/libutee/tee_api_objects.c:566
     84a:	b130      	cbz	r0, 85a <TEE_FreePersistentObjectEnumerator+0x12>
/home/yin/imx-optee/imx-optee-os/lib/libutee/tee_api_objects.c:569
     84c:	f001 eeca 	blx	25e4 <utee_storage_free_enum>
/home/yin/imx-optee/imx-optee-os/lib/libutee/tee_api_objects.c:571
     850:	b118      	cbz	r0, 85a <TEE_FreePersistentObjectEnumerator+0x12>
/home/yin/imx-optee/imx-optee-os/lib/libutee/tee_api_objects.c:573
     852:	e8bd 4008 	ldmia.w	sp!, {r3, lr}
/home/yin/imx-optee/imx-optee-os/lib/libutee/tee_api_objects.c:572
     856:	f004 bc17 	b.w	5088 <TEE_Panic>
     85a:	bd08      	pop	{r3, pc}

0000085c <TEE_ResetPersistentObjectEnumerator>:
TEE_ResetPersistentObjectEnumerator():
/home/yin/imx-optee/imx-optee-os/lib/libutee/tee_api_objects.c:576
     85c:	b508      	push	{r3, lr}
/home/yin/imx-optee/imx-optee-os/lib/libutee/tee_api_objects.c:579
     85e:	b130      	cbz	r0, 86e <TEE_ResetPersistentObjectEnumerator+0x12>
/home/yin/imx-optee/imx-optee-os/lib/libutee/tee_api_objects.c:582
     860:	f001 eeca 	blx	25f8 <utee_storage_reset_enum>
/home/yin/imx-optee/imx-optee-os/lib/libutee/tee_api_objects.c:584
     864:	b118      	cbz	r0, 86e <TEE_ResetPersistentObjectEnumerator+0x12>
/home/yin/imx-optee/imx-optee-os/lib/libutee/tee_api_objects.c:586
     866:	e8bd 4008 	ldmia.w	sp!, {r3, lr}
/home/yin/imx-optee/imx-optee-os/lib/libutee/tee_api_objects.c:585
     86a:	f004 bc0d 	b.w	5088 <TEE_Panic>
     86e:	bd08      	pop	{r3, pc}

00000870 <TEE_StartPersistentObjectEnumerator>:
TEE_StartPersistentObjectEnumerator():
/home/yin/imx-optee/imx-optee-os/lib/libutee/tee_api_objects.c:591
     870:	b510      	push	{r4, lr}
/home/yin/imx-optee/imx-optee-os/lib/libutee/tee_api_objects.c:594
     872:	f001 eecc 	blx	260c <utee_storage_start_enum>
/home/yin/imx-optee/imx-optee-os/lib/libutee/tee_api_objects.c:597
     876:	4604      	mov	r4, r0
     878:	b148      	cbz	r0, 88e <TEE_StartPersistentObjectEnumerator+0x1e>
/home/yin/imx-optee/imx-optee-os/lib/libutee/tee_api_objects.c:597 (discriminator 1)
     87a:	4b06      	ldr	r3, [pc, #24]	; (894 <TEE_StartPersistentObjectEnumerator+0x24>)
     87c:	4298      	cmp	r0, r3
     87e:	d006      	beq.n	88e <TEE_StartPersistentObjectEnumerator+0x1e>
/home/yin/imx-optee/imx-optee-os/lib/libutee/tee_api_objects.c:598
     880:	4b05      	ldr	r3, [pc, #20]	; (898 <TEE_StartPersistentObjectEnumerator+0x28>)
     882:	f020 0202 	bic.w	r2, r0, #2
     886:	429a      	cmp	r2, r3
     888:	d001      	beq.n	88e <TEE_StartPersistentObjectEnumerator+0x1e>
/home/yin/imx-optee/imx-optee-os/lib/libutee/tee_api_objects.c:601
     88a:	f004 fbfd 	bl	5088 <TEE_Panic>
/home/yin/imx-optee/imx-optee-os/lib/libutee/tee_api_objects.c:604
     88e:	4620      	mov	r0, r4
     890:	bd10      	pop	{r4, pc}
     892:	bf00      	nop
     894:	ffff0008 	.word	0xffff0008
     898:	f0100001 	.word	0xf0100001

0000089c <TEE_GetNextPersistentObject>:
TEE_GetNextPersistentObject():
/home/yin/imx-optee/imx-optee-os/lib/libutee/tee_api_objects.c:609
     89c:	b510      	push	{r4, lr}
     89e:	461c      	mov	r4, r3
     8a0:	b08a      	sub	sp, #40	; 0x28
/home/yin/imx-optee/imx-optee-os/lib/libutee/tee_api_objects.c:615
     8a2:	b1e2      	cbz	r2, 8de <TEE_GetNextPersistentObject+0x42>
/home/yin/imx-optee/imx-optee-os/lib/libutee/tee_api_objects.c:620
     8a4:	b1db      	cbz	r3, 8de <TEE_GetNextPersistentObject+0x42>
/home/yin/imx-optee/imx-optee-os/lib/libutee/tee_api_objects.c:625
     8a6:	b901      	cbnz	r1, 8aa <TEE_GetNextPersistentObject+0xe>
/home/yin/imx-optee/imx-optee-os/lib/libutee/tee_api_objects.c:628
     8a8:	a903      	add	r1, sp, #12
/home/yin/imx-optee/imx-optee-os/lib/libutee/tee_api_objects.c:629
     8aa:	6823      	ldr	r3, [r4, #0]
     8ac:	9300      	str	r3, [sp, #0]
     8ae:	2300      	movs	r3, #0
     8b0:	9301      	str	r3, [sp, #4]
/home/yin/imx-optee/imx-optee-os/lib/libutee/tee_api_objects.c:630
     8b2:	466b      	mov	r3, sp
     8b4:	f001 eeb4 	blx	2620 <utee_storage_next_enum>
/home/yin/imx-optee/imx-optee-os/lib/libutee/tee_api_objects.c:632
     8b8:	9b00      	ldr	r3, [sp, #0]
     8ba:	6023      	str	r3, [r4, #0]
/home/yin/imx-optee/imx-optee-os/lib/libutee/tee_api_objects.c:635
     8bc:	4604      	mov	r4, r0
     8be:	b158      	cbz	r0, 8d8 <TEE_GetNextPersistentObject+0x3c>
/home/yin/imx-optee/imx-optee-os/lib/libutee/tee_api_objects.c:635 (discriminator 1)
     8c0:	4b08      	ldr	r3, [pc, #32]	; (8e4 <TEE_GetNextPersistentObject+0x48>)
     8c2:	4298      	cmp	r0, r3
     8c4:	d008      	beq.n	8d8 <TEE_GetNextPersistentObject+0x3c>
/home/yin/imx-optee/imx-optee-os/lib/libutee/tee_api_objects.c:636
     8c6:	4b08      	ldr	r3, [pc, #32]	; (8e8 <TEE_GetNextPersistentObject+0x4c>)
     8c8:	4298      	cmp	r0, r3
     8ca:	d005      	beq.n	8d8 <TEE_GetNextPersistentObject+0x3c>
/home/yin/imx-optee/imx-optee-os/lib/libutee/tee_api_objects.c:637
     8cc:	3302      	adds	r3, #2
     8ce:	4298      	cmp	r0, r3
     8d0:	d002      	beq.n	8d8 <TEE_GetNextPersistentObject+0x3c>
/home/yin/imx-optee/imx-optee-os/lib/libutee/tee_api_objects.c:639
     8d2:	4620      	mov	r0, r4
     8d4:	f004 fbd8 	bl	5088 <TEE_Panic>
/home/yin/imx-optee/imx-optee-os/lib/libutee/tee_api_objects.c:642
     8d8:	4620      	mov	r0, r4
     8da:	b00a      	add	sp, #40	; 0x28
     8dc:	bd10      	pop	{r4, pc}
     8de:	4c03      	ldr	r4, [pc, #12]	; (8ec <TEE_GetNextPersistentObject+0x50>)
     8e0:	e7f7      	b.n	8d2 <TEE_GetNextPersistentObject+0x36>
     8e2:	bf00      	nop
     8e4:	ffff0008 	.word	0xffff0008
     8e8:	f0100001 	.word	0xf0100001
     8ec:	ffff0006 	.word	0xffff0006

000008f0 <TEE_ReadObjectData>:
TEE_ReadObjectData():
/home/yin/imx-optee/imx-optee-os/lib/libutee/tee_api_objects.c:648
     8f0:	b513      	push	{r0, r1, r4, lr}
     8f2:	461c      	mov	r4, r3
/home/yin/imx-optee/imx-optee-os/lib/libutee/tee_api_objects.c:652
     8f4:	b1b0      	cbz	r0, 924 <TEE_ReadObjectData+0x34>
/home/yin/imx-optee/imx-optee-os/lib/libutee/tee_api_objects.c:657
     8f6:	681b      	ldr	r3, [r3, #0]
     8f8:	9300      	str	r3, [sp, #0]
     8fa:	2300      	movs	r3, #0
     8fc:	9301      	str	r3, [sp, #4]
/home/yin/imx-optee/imx-optee-os/lib/libutee/tee_api_objects.c:658
     8fe:	466b      	mov	r3, sp
     900:	f001 ee98 	blx	2634 <utee_storage_obj_read>
/home/yin/imx-optee/imx-optee-os/lib/libutee/tee_api_objects.c:660
     904:	9b00      	ldr	r3, [sp, #0]
     906:	6023      	str	r3, [r4, #0]
/home/yin/imx-optee/imx-optee-os/lib/libutee/tee_api_objects.c:663
     908:	4604      	mov	r4, r0
     90a:	b140      	cbz	r0, 91e <TEE_ReadObjectData+0x2e>
/home/yin/imx-optee/imx-optee-os/lib/libutee/tee_api_objects.c:663 (discriminator 1)
     90c:	4b06      	ldr	r3, [pc, #24]	; (928 <TEE_ReadObjectData+0x38>)
     90e:	4298      	cmp	r0, r3
     910:	d005      	beq.n	91e <TEE_ReadObjectData+0x2e>
/home/yin/imx-optee/imx-optee-os/lib/libutee/tee_api_objects.c:664
     912:	3302      	adds	r3, #2
     914:	4298      	cmp	r0, r3
     916:	d002      	beq.n	91e <TEE_ReadObjectData+0x2e>
/home/yin/imx-optee/imx-optee-os/lib/libutee/tee_api_objects.c:666
     918:	4620      	mov	r0, r4
     91a:	f004 fbb5 	bl	5088 <TEE_Panic>
/home/yin/imx-optee/imx-optee-os/lib/libutee/tee_api_objects.c:669
     91e:	4620      	mov	r0, r4
     920:	b002      	add	sp, #8
     922:	bd10      	pop	{r4, pc}
/home/yin/imx-optee/imx-optee-os/lib/libutee/tee_api_objects.c:653
     924:	4c01      	ldr	r4, [pc, #4]	; (92c <TEE_ReadObjectData+0x3c>)
     926:	e7f7      	b.n	918 <TEE_ReadObjectData+0x28>
     928:	f0100001 	.word	0xf0100001
     92c:	ffff0006 	.word	0xffff0006

00000930 <TEE_WriteObjectData>:
TEE_WriteObjectData():
/home/yin/imx-optee/imx-optee-os/lib/libutee/tee_api_objects.c:673
     930:	b510      	push	{r4, lr}
/home/yin/imx-optee/imx-optee-os/lib/libutee/tee_api_objects.c:676
     932:	b1a0      	cbz	r0, 95e <TEE_WriteObjectData+0x2e>
/home/yin/imx-optee/imx-optee-os/lib/libutee/tee_api_objects.c:686
     934:	f001 ee88 	blx	2648 <utee_storage_obj_write>
/home/yin/imx-optee/imx-optee-os/lib/libutee/tee_api_objects.c:689
     938:	4604      	mov	r4, r0
     93a:	b170      	cbz	r0, 95a <TEE_WriteObjectData+0x2a>
/home/yin/imx-optee/imx-optee-os/lib/libutee/tee_api_objects.c:689 (discriminator 1)
     93c:	4b09      	ldr	r3, [pc, #36]	; (964 <TEE_WriteObjectData+0x34>)
     93e:	4298      	cmp	r0, r3
     940:	d00b      	beq.n	95a <TEE_WriteObjectData+0x2a>
/home/yin/imx-optee/imx-optee-os/lib/libutee/tee_api_objects.c:690
     942:	3b32      	subs	r3, #50	; 0x32
     944:	4298      	cmp	r0, r3
     946:	d008      	beq.n	95a <TEE_WriteObjectData+0x2a>
/home/yin/imx-optee/imx-optee-os/lib/libutee/tee_api_objects.c:691
     948:	4b07      	ldr	r3, [pc, #28]	; (968 <TEE_WriteObjectData+0x38>)
     94a:	4298      	cmp	r0, r3
     94c:	d005      	beq.n	95a <TEE_WriteObjectData+0x2a>
/home/yin/imx-optee/imx-optee-os/lib/libutee/tee_api_objects.c:692
     94e:	3302      	adds	r3, #2
     950:	4298      	cmp	r0, r3
     952:	d002      	beq.n	95a <TEE_WriteObjectData+0x2a>
/home/yin/imx-optee/imx-optee-os/lib/libutee/tee_api_objects.c:694
     954:	4620      	mov	r0, r4
     956:	f004 fb97 	bl	5088 <TEE_Panic>
/home/yin/imx-optee/imx-optee-os/lib/libutee/tee_api_objects.c:697
     95a:	4620      	mov	r0, r4
     95c:	bd10      	pop	{r4, pc}
/home/yin/imx-optee/imx-optee-os/lib/libutee/tee_api_objects.c:677
     95e:	4c03      	ldr	r4, [pc, #12]	; (96c <TEE_WriteObjectData+0x3c>)
     960:	e7f8      	b.n	954 <TEE_WriteObjectData+0x24>
     962:	bf00      	nop
     964:	ffff3041 	.word	0xffff3041
     968:	f0100001 	.word	0xf0100001
     96c:	ffff0006 	.word	0xffff0006

00000970 <TEE_TruncateObjectData>:
TEE_TruncateObjectData():
/home/yin/imx-optee/imx-optee-os/lib/libutee/tee_api_objects.c:700
     970:	b510      	push	{r4, lr}
/home/yin/imx-optee/imx-optee-os/lib/libutee/tee_api_objects.c:703
     972:	b188      	cbz	r0, 998 <TEE_TruncateObjectData+0x28>
/home/yin/imx-optee/imx-optee-os/lib/libutee/tee_api_objects.c:708
     974:	f001 ee72 	blx	265c <utee_storage_obj_trunc>
/home/yin/imx-optee/imx-optee-os/lib/libutee/tee_api_objects.c:711
     978:	4604      	mov	r4, r0
     97a:	b158      	cbz	r0, 994 <TEE_TruncateObjectData+0x24>
/home/yin/imx-optee/imx-optee-os/lib/libutee/tee_api_objects.c:711 (discriminator 1)
     97c:	4b07      	ldr	r3, [pc, #28]	; (99c <TEE_TruncateObjectData+0x2c>)
     97e:	4298      	cmp	r0, r3
     980:	d008      	beq.n	994 <TEE_TruncateObjectData+0x24>
/home/yin/imx-optee/imx-optee-os/lib/libutee/tee_api_objects.c:712
     982:	4b07      	ldr	r3, [pc, #28]	; (9a0 <TEE_TruncateObjectData+0x30>)
     984:	4298      	cmp	r0, r3
     986:	d005      	beq.n	994 <TEE_TruncateObjectData+0x24>
/home/yin/imx-optee/imx-optee-os/lib/libutee/tee_api_objects.c:713
     988:	3302      	adds	r3, #2
     98a:	4298      	cmp	r0, r3
     98c:	d002      	beq.n	994 <TEE_TruncateObjectData+0x24>
/home/yin/imx-optee/imx-optee-os/lib/libutee/tee_api_objects.c:715
     98e:	4620      	mov	r0, r4
     990:	f004 fb7a 	bl	5088 <TEE_Panic>
/home/yin/imx-optee/imx-optee-os/lib/libutee/tee_api_objects.c:718
     994:	4620      	mov	r0, r4
     996:	bd10      	pop	{r4, pc}
/home/yin/imx-optee/imx-optee-os/lib/libutee/tee_api_objects.c:704
     998:	4c02      	ldr	r4, [pc, #8]	; (9a4 <TEE_TruncateObjectData+0x34>)
     99a:	e7f8      	b.n	98e <TEE_TruncateObjectData+0x1e>
     99c:	ffff3041 	.word	0xffff3041
     9a0:	f0100001 	.word	0xf0100001
     9a4:	ffff0006 	.word	0xffff0006

000009a8 <TEE_SeekObjectData>:
TEE_SeekObjectData():
/home/yin/imx-optee/imx-optee-os/lib/libutee/tee_api_objects.c:722
     9a8:	b5f0      	push	{r4, r5, r6, r7, lr}
     9aa:	460d      	mov	r5, r1
     9ac:	b089      	sub	sp, #36	; 0x24
     9ae:	4616      	mov	r6, r2
/home/yin/imx-optee/imx-optee-os/lib/libutee/tee_api_objects.c:726
     9b0:	4607      	mov	r7, r0
     9b2:	b368      	cbz	r0, a10 <TEE_SeekObjectData+0x68>
/home/yin/imx-optee/imx-optee-os/lib/libutee/tee_api_objects.c:731
     9b4:	a901      	add	r1, sp, #4
     9b6:	f001 ed2a 	blx	240c <utee_cryp_obj_get_info>
/home/yin/imx-optee/imx-optee-os/lib/libutee/tee_api_objects.c:732
     9ba:	4604      	mov	r4, r0
     9bc:	b9d8      	cbnz	r0, 9f6 <TEE_SeekObjectData+0x4e>
/home/yin/imx-optee/imx-optee-os/lib/libutee/tee_api_objects.c:735
     9be:	2e01      	cmp	r6, #1
     9c0:	d004      	beq.n	9cc <TEE_SeekObjectData+0x24>
     9c2:	d310      	bcc.n	9e6 <TEE_SeekObjectData+0x3e>
     9c4:	2e02      	cmp	r6, #2
     9c6:	d00a      	beq.n	9de <TEE_SeekObjectData+0x36>
/home/yin/imx-optee/imx-optee-os/lib/libutee/tee_api_objects.c:761
     9c8:	4c12      	ldr	r4, [pc, #72]	; (a14 <TEE_SeekObjectData+0x6c>)
     9ca:	e017      	b.n	9fc <TEE_SeekObjectData+0x54>
/home/yin/imx-optee/imx-optee-os/lib/libutee/tee_api_objects.c:743
     9cc:	2d00      	cmp	r5, #0
     9ce:	dd0a      	ble.n	9e6 <TEE_SeekObjectData+0x3e>
/home/yin/imx-optee/imx-optee-os/lib/libutee/tee_api_objects.c:743 (discriminator 1)
     9d0:	9b06      	ldr	r3, [sp, #24]
     9d2:	42dd      	cmn	r5, r3
     9d4:	d307      	bcc.n	9e6 <TEE_SeekObjectData+0x3e>
/home/yin/imx-optee/imx-optee-os/lib/libutee/tee_api_objects.c:727
     9d6:	4c10      	ldr	r4, [pc, #64]	; (a18 <TEE_SeekObjectData+0x70>)
/home/yin/imx-optee/imx-optee-os/lib/libutee/tee_api_objects.c:775
     9d8:	4620      	mov	r0, r4
     9da:	b009      	add	sp, #36	; 0x24
     9dc:	bdf0      	pop	{r4, r5, r6, r7, pc}
/home/yin/imx-optee/imx-optee-os/lib/libutee/tee_api_objects.c:753
     9de:	2d00      	cmp	r5, #0
     9e0:	dd01      	ble.n	9e6 <TEE_SeekObjectData+0x3e>
/home/yin/imx-optee/imx-optee-os/lib/libutee/tee_api_objects.c:753 (discriminator 1)
     9e2:	9b05      	ldr	r3, [sp, #20]
     9e4:	e7f5      	b.n	9d2 <TEE_SeekObjectData+0x2a>
/home/yin/imx-optee/imx-optee-os/lib/libutee/tee_api_objects.c:765
     9e6:	4632      	mov	r2, r6
     9e8:	4629      	mov	r1, r5
     9ea:	4638      	mov	r0, r7
     9ec:	f001 ee40 	blx	2670 <utee_storage_obj_seek>
/home/yin/imx-optee/imx-optee-os/lib/libutee/tee_api_objects.c:768
     9f0:	4604      	mov	r4, r0
     9f2:	2800      	cmp	r0, #0
     9f4:	d0f0      	beq.n	9d8 <TEE_SeekObjectData+0x30>
/home/yin/imx-optee/imx-optee-os/lib/libutee/tee_api_objects.c:768 (discriminator 1)
     9f6:	4b08      	ldr	r3, [pc, #32]	; (a18 <TEE_SeekObjectData+0x70>)
     9f8:	429c      	cmp	r4, r3
     9fa:	d0ec      	beq.n	9d6 <TEE_SeekObjectData+0x2e>
/home/yin/imx-optee/imx-optee-os/lib/libutee/tee_api_objects.c:769
     9fc:	4b07      	ldr	r3, [pc, #28]	; (a1c <TEE_SeekObjectData+0x74>)
     9fe:	429c      	cmp	r4, r3
     a00:	d0ea      	beq.n	9d8 <TEE_SeekObjectData+0x30>
/home/yin/imx-optee/imx-optee-os/lib/libutee/tee_api_objects.c:770
     a02:	3302      	adds	r3, #2
     a04:	429c      	cmp	r4, r3
     a06:	d0e7      	beq.n	9d8 <TEE_SeekObjectData+0x30>
/home/yin/imx-optee/imx-optee-os/lib/libutee/tee_api_objects.c:772
     a08:	4620      	mov	r0, r4
     a0a:	f004 fb3d 	bl	5088 <TEE_Panic>
/home/yin/imx-optee/imx-optee-os/lib/libutee/tee_api_objects.c:774
     a0e:	e7e3      	b.n	9d8 <TEE_SeekObjectData+0x30>
/home/yin/imx-optee/imx-optee-os/lib/libutee/tee_api_objects.c:727
     a10:	4c03      	ldr	r4, [pc, #12]	; (a20 <TEE_SeekObjectData+0x78>)
     a12:	e7f9      	b.n	a08 <TEE_SeekObjectData+0x60>
     a14:	ffff0008 	.word	0xffff0008
     a18:	ffff300f 	.word	0xffff300f
     a1c:	f0100001 	.word	0xf0100001
     a20:	ffff0006 	.word	0xffff0006

00000a24 <tee_buffer_update>:
tee_buffer_update():
/home/yin/imx-optee/imx-optee-os/lib/libutee/tee_api_operations.c:845
     a24:	e92d 4ff0 	stmdb	sp!, {r4, r5, r6, r7, r8, r9, sl, fp, lr}
     a28:	b087      	sub	sp, #28
     a2a:	461f      	mov	r7, r3
/home/yin/imx-optee/imx-optee-os/lib/libutee/tee_api_operations.c:850
     a2c:	9b11      	ldr	r3, [sp, #68]	; 0x44
/home/yin/imx-optee/imx-optee-os/lib/libutee/tee_api_operations.c:845
     a2e:	4604      	mov	r4, r0
     a30:	468b      	mov	fp, r1
     a32:	f8dd 8040 	ldr.w	r8, [sp, #64]	; 0x40
/home/yin/imx-optee/imx-optee-os/lib/libutee/tee_api_operations.c:857
     a36:	4692      	mov	sl, r2
/home/yin/imx-optee/imx-optee-os/lib/libutee/tee_api_operations.c:850
     a38:	e9d3 0100 	ldrd	r0, r1, [r3]
     a3c:	e9cd 0102 	strd	r0, r1, [sp, #8]
/home/yin/imx-optee/imx-optee-os/lib/libutee/tee_api_operations.c:857
     a40:	b962      	cbnz	r2, a5c <tee_buffer_update+0x38>
/home/yin/imx-optee/imx-optee-os/lib/libutee/tee_api_operations.c:858
     a42:	b93f      	cbnz	r7, a54 <tee_buffer_update+0x30>
/home/yin/imx-optee/imx-optee-os/lib/libutee/tee_api_operations.c:851
     a44:	2500      	movs	r5, #0
/home/yin/imx-optee/imx-optee-os/lib/libutee/tee_api_operations.c:933
     a46:	9b11      	ldr	r3, [sp, #68]	; 0x44
     a48:	2000      	movs	r0, #0
     a4a:	601d      	str	r5, [r3, #0]
     a4c:	6058      	str	r0, [r3, #4]
/home/yin/imx-optee/imx-optee-os/lib/libutee/tee_api_operations.c:935
     a4e:	b007      	add	sp, #28
     a50:	e8bd 8ff0 	ldmia.w	sp!, {r4, r5, r6, r7, r8, r9, sl, fp, pc}
/home/yin/imx-optee/imx-optee-os/lib/libutee/tee_api_operations.c:859
     a54:	4610      	mov	r0, r2
     a56:	f004 fb17 	bl	5088 <TEE_Panic>
     a5a:	e7f3      	b.n	a44 <tee_buffer_update+0x20>
/home/yin/imx-optee/imx-optee-os/lib/libutee/tee_api_operations.c:863
     a5c:	f894 3030 	ldrb.w	r3, [r4, #48]	; 0x30
     a60:	6b65      	ldr	r5, [r4, #52]	; 0x34
     a62:	2b00      	cmp	r3, #0
     a64:	d058      	beq.n	b18 <tee_buffer_update+0xf4>
/home/yin/imx-optee/imx-optee-os/lib/libutee/tee_api_operations.c:864
     a66:	006e      	lsls	r6, r5, #1
/home/yin/imx-optee/imx-optee-os/lib/libutee/tee_api_operations.c:865
     a68:	f04f 0901 	mov.w	r9, #1
/home/yin/imx-optee/imx-optee-os/lib/libutee/tee_api_operations.c:871
     a6c:	6ba0      	ldr	r0, [r4, #56]	; 0x38
     a6e:	b1b0      	cbz	r0, a9e <tee_buffer_update+0x7a>
/home/yin/imx-optee/imx-optee-os/lib/libutee/tee_api_operations.c:873
     a70:	42a8      	cmp	r0, r5
/home/yin/imx-optee/imx-optee-os/lib/libutee/tee_api_operations.c:877
     a72:	6ae3      	ldr	r3, [r4, #44]	; 0x2c
/home/yin/imx-optee/imx-optee-os/lib/libutee/tee_api_operations.c:876
     a74:	bf2c      	ite	cs
     a76:	1a35      	subcs	r5, r6, r0
/home/yin/imx-optee/imx-optee-os/lib/libutee/tee_api_operations.c:874
     a78:	1a2d      	subcc	r5, r5, r0
/home/yin/imx-optee/imx-optee-os/lib/libutee/tee_api_operations.c:876
     a7a:	42bd      	cmp	r5, r7
/home/yin/imx-optee/imx-optee-os/lib/libutee/tee_api_operations.c:877
     a7c:	4651      	mov	r1, sl
/home/yin/imx-optee/imx-optee-os/lib/libutee/tee_api_operations.c:876
     a7e:	bf28      	it	cs
     a80:	463d      	movcs	r5, r7
/home/yin/imx-optee/imx-optee-os/lib/libutee/tee_api_operations.c:877
     a82:	4418      	add	r0, r3
     a84:	462a      	mov	r2, r5
     a86:	f004 fb26 	bl	50d6 <memcpy>
/home/yin/imx-optee/imx-optee-os/lib/libutee/tee_api_operations.c:878
     a8a:	6ba0      	ldr	r0, [r4, #56]	; 0x38
/home/yin/imx-optee/imx-optee-os/lib/libutee/tee_api_operations.c:881
     a8c:	6b61      	ldr	r1, [r4, #52]	; 0x34
/home/yin/imx-optee/imx-optee-os/lib/libutee/tee_api_operations.c:878
     a8e:	4428      	add	r0, r5
     a90:	63a0      	str	r0, [r4, #56]	; 0x38
/home/yin/imx-optee/imx-optee-os/lib/libutee/tee_api_operations.c:881
     a92:	f004 fb9a 	bl	51ca <__aeabi_uidivmod>
     a96:	2900      	cmp	r1, #0
     a98:	d1d4      	bne.n	a44 <tee_buffer_update+0x20>
/home/yin/imx-optee/imx-optee-os/lib/libutee/tee_api_operations.c:879
     a9a:	44aa      	add	sl, r5
/home/yin/imx-optee/imx-optee-os/lib/libutee/tee_api_operations.c:880
     a9c:	1b7f      	subs	r7, r7, r5
/home/yin/imx-optee/imx-optee-os/lib/libutee/tee_api_operations.c:886
     a9e:	6ba5      	ldr	r5, [r4, #56]	; 0x38
/home/yin/imx-optee/imx-optee-os/lib/libutee/tee_api_operations.c:850
     aa0:	9902      	ldr	r1, [sp, #8]
/home/yin/imx-optee/imx-optee-os/lib/libutee/tee_api_operations.c:886
     aa2:	2d00      	cmp	r5, #0
     aa4:	d03c      	beq.n	b20 <tee_buffer_update+0xfc>
/home/yin/imx-optee/imx-optee-os/lib/libutee/tee_api_operations.c:887 (discriminator 1)
     aa6:	1978      	adds	r0, r7, r5
     aa8:	eb06 0309 	add.w	r3, r6, r9
/home/yin/imx-optee/imx-optee-os/lib/libutee/tee_api_operations.c:886 (discriminator 1)
     aac:	4298      	cmp	r0, r3
     aae:	d336      	bcc.n	b1e <tee_buffer_update+0xfa>
/home/yin/imx-optee/imx-optee-os/lib/libutee/tee_api_operations.c:888
     ab0:	6b62      	ldr	r2, [r4, #52]	; 0x34
     ab2:	1e53      	subs	r3, r2, #1
     ab4:	4252      	negs	r2, r2
     ab6:	1b9b      	subs	r3, r3, r6
     ab8:	4403      	add	r3, r0
/home/yin/imx-optee/imx-optee-os/lib/libutee/tee_api_operations.c:891
     aba:	e9dd 0102 	ldrd	r0, r1, [sp, #8]
/home/yin/imx-optee/imx-optee-os/lib/libutee/tee_api_operations.c:888
     abe:	4013      	ands	r3, r2
/home/yin/imx-optee/imx-optee-os/lib/libutee/tee_api_operations.c:891
     ac0:	2100      	movs	r1, #0
/home/yin/imx-optee/imx-optee-os/lib/libutee/tee_api_operations.c:890
     ac2:	429d      	cmp	r5, r3
     ac4:	bf28      	it	cs
     ac6:	461d      	movcs	r5, r3
/home/yin/imx-optee/imx-optee-os/lib/libutee/tee_api_operations.c:891
     ac8:	ab06      	add	r3, sp, #24
     aca:	e963 0102 	strd	r0, r1, [r3, #-8]!
/home/yin/imx-optee/imx-optee-os/lib/libutee/tee_api_operations.c:892
     ace:	462a      	mov	r2, r5
     ad0:	9300      	str	r3, [sp, #0]
     ad2:	4643      	mov	r3, r8
     ad4:	6ae1      	ldr	r1, [r4, #44]	; 0x2c
     ad6:	6be0      	ldr	r0, [r4, #60]	; 0x3c
     ad8:	47d8      	blx	fp
/home/yin/imx-optee/imx-optee-os/lib/libutee/tee_api_operations.c:893
     ada:	b108      	cbz	r0, ae0 <tee_buffer_update+0xbc>
/home/yin/imx-optee/imx-optee-os/lib/libutee/tee_api_operations.c:894
     adc:	f004 fad4 	bl	5088 <TEE_Panic>
/home/yin/imx-optee/imx-optee-os/lib/libutee/tee_api_operations.c:895
     ae0:	9b04      	ldr	r3, [sp, #16]
/home/yin/imx-optee/imx-optee-os/lib/libutee/tee_api_operations.c:896
     ae2:	9a02      	ldr	r2, [sp, #8]
/home/yin/imx-optee/imx-optee-os/lib/libutee/tee_api_operations.c:895
     ae4:	4498      	add	r8, r3
/home/yin/imx-optee/imx-optee-os/lib/libutee/tee_api_operations.c:896
     ae6:	1ad1      	subs	r1, r2, r3
/home/yin/imx-optee/imx-optee-os/lib/libutee/tee_api_operations.c:898
     ae8:	6ba2      	ldr	r2, [r4, #56]	; 0x38
     aea:	1b52      	subs	r2, r2, r5
     aec:	63a2      	str	r2, [r4, #56]	; 0x38
/home/yin/imx-optee/imx-optee-os/lib/libutee/tee_api_operations.c:899
     aee:	2a00      	cmp	r2, #0
     af0:	d041      	beq.n	b76 <tee_buffer_update+0x152>
/home/yin/imx-optee/imx-optee-os/lib/libutee/tee_api_operations.c:903
     af2:	6ae0      	ldr	r0, [r4, #44]	; 0x2c
     af4:	1b72      	subs	r2, r6, r5
     af6:	9302      	str	r3, [sp, #8]
     af8:	1941      	adds	r1, r0, r5
     afa:	f004 faec 	bl	50d6 <memcpy>
/home/yin/imx-optee/imx-optee-os/lib/libutee/tee_api_operations.c:904
     afe:	6ae5      	ldr	r5, [r4, #44]	; 0x2c
     b00:	463a      	mov	r2, r7
     b02:	6ba0      	ldr	r0, [r4, #56]	; 0x38
     b04:	4651      	mov	r1, sl
     b06:	4428      	add	r0, r5
     b08:	f004 fae5 	bl	50d6 <memcpy>
/home/yin/imx-optee/imx-optee-os/lib/libutee/tee_api_operations.c:905
     b0c:	6ba2      	ldr	r2, [r4, #56]	; 0x38
/home/yin/imx-optee/imx-optee-os/lib/libutee/tee_api_operations.c:897
     b0e:	9b02      	ldr	r3, [sp, #8]
/home/yin/imx-optee/imx-optee-os/lib/libutee/tee_api_operations.c:905
     b10:	4417      	add	r7, r2
     b12:	63a7      	str	r7, [r4, #56]	; 0x38
/home/yin/imx-optee/imx-optee-os/lib/libutee/tee_api_operations.c:897
     b14:	461d      	mov	r5, r3
/home/yin/imx-optee/imx-optee-os/lib/libutee/tee_api_operations.c:906
     b16:	e796      	b.n	a46 <tee_buffer_update+0x22>
/home/yin/imx-optee/imx-optee-os/lib/libutee/tee_api_operations.c:867
     b18:	462e      	mov	r6, r5
/home/yin/imx-optee/imx-optee-os/lib/libutee/tee_api_operations.c:868
     b1a:	4699      	mov	r9, r3
     b1c:	e7a6      	b.n	a6c <tee_buffer_update+0x48>
/home/yin/imx-optee/imx-optee-os/lib/libutee/tee_api_operations.c:851
     b1e:	2500      	movs	r5, #0
/home/yin/imx-optee/imx-optee-os/lib/libutee/tee_api_operations.c:910
     b20:	44b1      	add	r9, r6
     b22:	454f      	cmp	r7, r9
     b24:	d31c      	bcc.n	b60 <tee_buffer_update+0x13c>
/home/yin/imx-optee/imx-optee-os/lib/libutee/tee_api_operations.c:912
     b26:	4b15      	ldr	r3, [pc, #84]	; (b7c <tee_buffer_update+0x158>)
     b28:	6822      	ldr	r2, [r4, #0]
/home/yin/imx-optee/imx-optee-os/lib/libutee/tee_api_operations.c:917
     b2a:	9104      	str	r1, [sp, #16]
/home/yin/imx-optee/imx-optee-os/lib/libutee/tee_api_operations.c:918
     b2c:	4651      	mov	r1, sl
     b2e:	6be0      	ldr	r0, [r4, #60]	; 0x3c
/home/yin/imx-optee/imx-optee-os/lib/libutee/tee_api_operations.c:912
     b30:	429a      	cmp	r2, r3
     b32:	6b62      	ldr	r2, [r4, #52]	; 0x34
/home/yin/imx-optee/imx-optee-os/lib/libutee/tee_api_operations.c:913
     b34:	bf0a      	itet	eq
     b36:	f102 33ff 	addeq.w	r3, r2, #4294967295	; 0xffffffff
/home/yin/imx-optee/imx-optee-os/lib/libutee/tee_api_operations.c:915
     b3a:	1b96      	subne	r6, r2, r6
/home/yin/imx-optee/imx-optee-os/lib/libutee/tee_api_operations.c:913
     b3c:	1b9e      	subeq	r6, r3, r6
/home/yin/imx-optee/imx-optee-os/lib/libutee/tee_api_operations.c:915
     b3e:	4252      	negs	r2, r2
/home/yin/imx-optee/imx-optee-os/lib/libutee/tee_api_operations.c:917
     b40:	2300      	movs	r3, #0
/home/yin/imx-optee/imx-optee-os/lib/libutee/tee_api_operations.c:915
     b42:	443e      	add	r6, r7
     b44:	4016      	ands	r6, r2
/home/yin/imx-optee/imx-optee-os/lib/libutee/tee_api_operations.c:917
     b46:	9305      	str	r3, [sp, #20]
/home/yin/imx-optee/imx-optee-os/lib/libutee/tee_api_operations.c:918
     b48:	ab04      	add	r3, sp, #16
     b4a:	4632      	mov	r2, r6
     b4c:	9300      	str	r3, [sp, #0]
     b4e:	4643      	mov	r3, r8
     b50:	47d8      	blx	fp
/home/yin/imx-optee/imx-optee-os/lib/libutee/tee_api_operations.c:919
     b52:	b108      	cbz	r0, b58 <tee_buffer_update+0x134>
/home/yin/imx-optee/imx-optee-os/lib/libutee/tee_api_operations.c:920
     b54:	f004 fa98 	bl	5088 <TEE_Panic>
/home/yin/imx-optee/imx-optee-os/lib/libutee/tee_api_operations.c:925
     b58:	9b04      	ldr	r3, [sp, #16]
/home/yin/imx-optee/imx-optee-os/lib/libutee/tee_api_operations.c:921
     b5a:	44b2      	add	sl, r6
/home/yin/imx-optee/imx-optee-os/lib/libutee/tee_api_operations.c:922
     b5c:	1bbf      	subs	r7, r7, r6
/home/yin/imx-optee/imx-optee-os/lib/libutee/tee_api_operations.c:925
     b5e:	441d      	add	r5, r3
/home/yin/imx-optee/imx-optee-os/lib/libutee/tee_api_operations.c:929
     b60:	6ba3      	ldr	r3, [r4, #56]	; 0x38
     b62:	463a      	mov	r2, r7
     b64:	6ae0      	ldr	r0, [r4, #44]	; 0x2c
     b66:	4651      	mov	r1, sl
     b68:	4418      	add	r0, r3
     b6a:	f004 fab4 	bl	50d6 <memcpy>
/home/yin/imx-optee/imx-optee-os/lib/libutee/tee_api_operations.c:930
     b6e:	6ba3      	ldr	r3, [r4, #56]	; 0x38
     b70:	441f      	add	r7, r3
     b72:	63a7      	str	r7, [r4, #56]	; 0x38
     b74:	e767      	b.n	a46 <tee_buffer_update+0x22>
/home/yin/imx-optee/imx-optee-os/lib/libutee/tee_api_operations.c:897
     b76:	461d      	mov	r5, r3
     b78:	e7d2      	b.n	b20 <tee_buffer_update+0xfc>
     b7a:	bf00      	nop
     b7c:	10000310 	.word	0x10000310

00000b80 <TEE_FreeOperation>:
TEE_FreeOperation():
/home/yin/imx-optee/imx-optee-os/lib/libutee/tee_api_operations.c:344
     b80:	b510      	push	{r4, lr}
/home/yin/imx-optee/imx-optee-os/lib/libutee/tee_api_operations.c:347
     b82:	4604      	mov	r4, r0
     b84:	b908      	cbnz	r0, b8a <TEE_FreeOperation+0xa>
/home/yin/imx-optee/imx-optee-os/lib/libutee/tee_api_operations.c:348
     b86:	f004 fa7f 	bl	5088 <TEE_Panic>
/home/yin/imx-optee/imx-optee-os/lib/libutee/tee_api_operations.c:355
     b8a:	6be0      	ldr	r0, [r4, #60]	; 0x3c
     b8c:	f001 ebf2 	blx	2374 <utee_cryp_state_free>
/home/yin/imx-optee/imx-optee-os/lib/libutee/tee_api_operations.c:356
     b90:	b108      	cbz	r0, b96 <TEE_FreeOperation+0x16>
/home/yin/imx-optee/imx-optee-os/lib/libutee/tee_api_operations.c:357
     b92:	f004 fa79 	bl	5088 <TEE_Panic>
/home/yin/imx-optee/imx-optee-os/lib/libutee/tee_api_operations.c:359
     b96:	6ae0      	ldr	r0, [r4, #44]	; 0x2c
     b98:	f002 f9da 	bl	2f50 <TEE_Free>
/home/yin/imx-optee/imx-optee-os/lib/libutee/tee_api_operations.c:360
     b9c:	4620      	mov	r0, r4
/home/yin/imx-optee/imx-optee-os/lib/libutee/tee_api_operations.c:361
     b9e:	e8bd 4010 	ldmia.w	sp!, {r4, lr}
/home/yin/imx-optee/imx-optee-os/lib/libutee/tee_api_operations.c:360
     ba2:	f002 b9d5 	b.w	2f50 <TEE_Free>

00000ba6 <TEE_AllocateOperation>:
TEE_AllocateOperation():
/home/yin/imx-optee/imx-optee-os/lib/libutee/tee_api_operations.c:37
     ba6:	e92d 4ff0 	stmdb	sp!, {r4, r5, r6, r7, r8, r9, sl, fp, lr}
     baa:	b087      	sub	sp, #28
     bac:	460c      	mov	r4, r1
     bae:	4617      	mov	r7, r2
     bb0:	4699      	mov	r9, r3
/home/yin/imx-optee/imx-optee-os/lib/libutee/tee_api_operations.c:46
     bb2:	9003      	str	r0, [sp, #12]
     bb4:	b908      	cbnz	r0, bba <TEE_AllocateOperation+0x14>
/home/yin/imx-optee/imx-optee-os/lib/libutee/tee_api_operations.c:47
     bb6:	f004 fa67 	bl	5088 <TEE_Panic>
/home/yin/imx-optee/imx-optee-os/lib/libutee/tee_api_operations.c:49
     bba:	4bc0      	ldr	r3, [pc, #768]	; (ebc <TEE_AllocateOperation+0x316>)
     bbc:	429c      	cmp	r4, r3
     bbe:	f000 81b9 	beq.w	f34 <TEE_AllocateOperation+0x38e>
/home/yin/imx-optee/imx-optee-os/lib/libutee/tee_api_operations.c:53
     bc2:	4bbf      	ldr	r3, [pc, #764]	; (ec0 <TEE_AllocateOperation+0x31a>)
     bc4:	429c      	cmp	r4, r3
     bc6:	d06e      	beq.n	ca6 <TEE_AllocateOperation+0x100>
     bc8:	d83f      	bhi.n	c4a <TEE_AllocateOperation+0xa4>
     bca:	4abe      	ldr	r2, [pc, #760]	; (ec4 <TEE_AllocateOperation+0x31e>)
     bcc:	4294      	cmp	r4, r2
     bce:	d055      	beq.n	c7c <TEE_AllocateOperation+0xd6>
     bd0:	d82d      	bhi.n	c2e <TEE_AllocateOperation+0x88>
     bd2:	f5a2 5287 	sub.w	r2, r2, #4320	; 0x10e0
     bd6:	3a10      	subs	r2, #16
     bd8:	4294      	cmp	r4, r2
     bda:	d040      	beq.n	c5e <TEE_AllocateOperation+0xb8>
     bdc:	f502 5280 	add.w	r2, r2, #4096	; 0x1000
     be0:	4294      	cmp	r4, r2
     be2:	d065      	beq.n	cb0 <TEE_AllocateOperation+0x10a>
/home/yin/imx-optee/imx-optee-os/lib/libutee/tee_api_operations.c:108
     be4:	4ab7      	ldr	r2, [pc, #732]	; (ec4 <TEE_AllocateOperation+0x31e>)
     be6:	4294      	cmp	r4, r2
     be8:	d050      	beq.n	c8c <TEE_AllocateOperation+0xe6>
     bea:	f200 80d6 	bhi.w	d9a <TEE_AllocateOperation+0x1f4>
     bee:	4bb6      	ldr	r3, [pc, #728]	; (ec8 <TEE_AllocateOperation+0x322>)
     bf0:	429c      	cmp	r4, r3
     bf2:	d07d      	beq.n	cf0 <TEE_AllocateOperation+0x14a>
     bf4:	f200 808e 	bhi.w	d14 <TEE_AllocateOperation+0x16e>
     bf8:	4bb4      	ldr	r3, [pc, #720]	; (ecc <TEE_AllocateOperation+0x326>)
     bfa:	429c      	cmp	r4, r3
     bfc:	f000 81ab 	beq.w	f56 <TEE_AllocateOperation+0x3b0>
     c00:	d86b      	bhi.n	cda <TEE_AllocateOperation+0x134>
     c02:	f46f 70ff 	mvn.w	r0, #510	; 0x1fe
     c06:	4403      	add	r3, r0
     c08:	429c      	cmp	r4, r3
     c0a:	d85b      	bhi.n	cc4 <TEE_AllocateOperation+0x11e>
     c0c:	3b01      	subs	r3, #1
     c0e:	429c      	cmp	r4, r3
     c10:	d209      	bcs.n	c26 <TEE_AllocateOperation+0x80>
     c12:	f5a3 7380 	sub.w	r3, r3, #256	; 0x100
     c16:	429c      	cmp	r4, r3
     c18:	d324      	bcc.n	c64 <TEE_AllocateOperation+0xbe>
     c1a:	3301      	adds	r3, #1
     c1c:	429c      	cmp	r4, r3
     c1e:	d902      	bls.n	c26 <TEE_AllocateOperation+0x80>
     c20:	3302      	adds	r3, #2
     c22:	429c      	cmp	r4, r3
     c24:	d11e      	bne.n	c64 <TEE_AllocateOperation+0xbe>
     c26:	f04f 0800 	mov.w	r8, #0
/home/yin/imx-optee/imx-optee-os/lib/libutee/tee_api_operations.c:44
     c2a:	4646      	mov	r6, r8
     c2c:	e185      	b.n	f3a <TEE_AllocateOperation+0x394>
/home/yin/imx-optee/imx-optee-os/lib/libutee/tee_api_operations.c:53
     c2e:	4aa8      	ldr	r2, [pc, #672]	; (ed0 <TEE_AllocateOperation+0x32a>)
     c30:	4294      	cmp	r4, r2
     c32:	d034      	beq.n	c9e <TEE_AllocateOperation+0xf8>
     c34:	f502 6271 	add.w	r2, r2, #3856	; 0xf10
     c38:	4294      	cmp	r4, r2
     c3a:	d03c      	beq.n	cb6 <TEE_AllocateOperation+0x110>
     c3c:	f5a2 5280 	sub.w	r2, r2, #4096	; 0x1000
     c40:	4294      	cmp	r4, r2
     c42:	d1cf      	bne.n	be4 <TEE_AllocateOperation+0x3e>
/home/yin/imx-optee/imx-optee-os/lib/libutee/tee_api_operations.c:87
     c44:	f5b9 7f80 	cmp.w	r9, #256	; 0x100
     c48:	e00b      	b.n	c62 <TEE_AllocateOperation+0xbc>
/home/yin/imx-optee/imx-optee-os/lib/libutee/tee_api_operations.c:53
     c4a:	4aa2      	ldr	r2, [pc, #648]	; (ed4 <TEE_AllocateOperation+0x32e>)
     c4c:	4294      	cmp	r4, r2
     c4e:	d02f      	beq.n	cb0 <TEE_AllocateOperation+0x10a>
     c50:	d80a      	bhi.n	c68 <TEE_AllocateOperation+0xc2>
     c52:	4aa1      	ldr	r2, [pc, #644]	; (ed8 <TEE_AllocateOperation+0x332>)
     c54:	4294      	cmp	r4, r2
     c56:	d031      	beq.n	cbc <TEE_AllocateOperation+0x116>
     c58:	4aa0      	ldr	r2, [pc, #640]	; (edc <TEE_AllocateOperation+0x336>)
     c5a:	4294      	cmp	r4, r2
     c5c:	d1c2      	bne.n	be4 <TEE_AllocateOperation+0x3e>
/home/yin/imx-optee/imx-optee-os/lib/libutee/tee_api_operations.c:75
     c5e:	f1b9 0fc0 	cmp.w	r9, #192	; 0xc0
/home/yin/imx-optee/imx-optee-os/lib/libutee/tee_api_operations.c:99
     c62:	d0bf      	beq.n	be4 <TEE_AllocateOperation+0x3e>
/home/yin/imx-optee/imx-optee-os/lib/libutee/tee_api_operations.c:56
     c64:	4e9e      	ldr	r6, [pc, #632]	; (ee0 <TEE_AllocateOperation+0x33a>)
     c66:	e1c9      	b.n	ffc <TEE_AllocateOperation+0x456>
/home/yin/imx-optee/imx-optee-os/lib/libutee/tee_api_operations.c:53
     c68:	4a9e      	ldr	r2, [pc, #632]	; (ee4 <TEE_AllocateOperation+0x33e>)
     c6a:	4294      	cmp	r4, r2
     c6c:	d023      	beq.n	cb6 <TEE_AllocateOperation+0x110>
     c6e:	f502 5280 	add.w	r2, r2, #4096	; 0x1000
     c72:	4294      	cmp	r4, r2
     c74:	d022      	beq.n	cbc <TEE_AllocateOperation+0x116>
     c76:	f5a2 5200 	sub.w	r2, r2, #8192	; 0x2000
     c7a:	e7e1      	b.n	c40 <TEE_AllocateOperation+0x9a>
/home/yin/imx-optee/imx-optee-os/lib/libutee/tee_api_operations.c:55
     c7c:	f5a9 7300 	sub.w	r3, r9, #512	; 0x200
     c80:	f5b3 7f00 	cmp.w	r3, #512	; 0x200
     c84:	d8ee      	bhi.n	c64 <TEE_AllocateOperation+0xbe>
/home/yin/imx-optee/imx-optee-os/lib/libutee/tee_api_operations.c:59
     c86:	f019 0f3f 	tst.w	r9, #63	; 0x3f
     c8a:	d1eb      	bne.n	c64 <TEE_AllocateOperation+0xbe>
/home/yin/imx-optee/imx-optee-os/lib/libutee/tee_api_operations.c:154
     c8c:	2f02      	cmp	r7, #2
     c8e:	f000 81bc 	beq.w	100a <TEE_AllocateOperation+0x464>
/home/yin/imx-optee/imx-optee-os/lib/libutee/tee_api_operations.c:157
     c92:	2f03      	cmp	r7, #3
     c94:	d1e6      	bne.n	c64 <TEE_AllocateOperation+0xbe>
/home/yin/imx-optee/imx-optee-os/lib/libutee/tee_api_operations.c:44
     c96:	2600      	movs	r6, #0
/home/yin/imx-optee/imx-optee-os/lib/libutee/tee_api_operations.c:158
     c98:	2220      	movs	r2, #32
/home/yin/imx-optee/imx-optee-os/lib/libutee/tee_api_operations.c:43
     c9a:	46b2      	mov	sl, r6
     c9c:	e02d      	b.n	cfa <TEE_AllocateOperation+0x154>
/home/yin/imx-optee/imx-optee-os/lib/libutee/tee_api_operations.c:64
     c9e:	f5b9 6f00 	cmp.w	r9, #2048	; 0x800
/home/yin/imx-optee/imx-optee-os/lib/libutee/tee_api_operations.c:108
     ca2:	d1df      	bne.n	c64 <TEE_AllocateOperation+0xbe>
     ca4:	e7f2      	b.n	c8c <TEE_AllocateOperation+0xe6>
/home/yin/imx-optee/imx-optee-os/lib/libutee/tee_api_operations.c:69
     ca6:	f429 6380 	bic.w	r3, r9, #1024	; 0x400
     caa:	f5b3 6f00 	cmp.w	r3, #2048	; 0x800
     cae:	e7f8      	b.n	ca2 <TEE_AllocateOperation+0xfc>
/home/yin/imx-optee/imx-optee-os/lib/libutee/tee_api_operations.c:81
     cb0:	f1b9 0fe0 	cmp.w	r9, #224	; 0xe0
     cb4:	e7d5      	b.n	c62 <TEE_AllocateOperation+0xbc>
/home/yin/imx-optee/imx-optee-os/lib/libutee/tee_api_operations.c:93
     cb6:	f5b9 7fc0 	cmp.w	r9, #384	; 0x180
     cba:	e7d2      	b.n	c62 <TEE_AllocateOperation+0xbc>
/home/yin/imx-optee/imx-optee-os/lib/libutee/tee_api_operations.c:99
     cbc:	f240 2209 	movw	r2, #521	; 0x209
     cc0:	4591      	cmp	r9, r2
     cc2:	e7ce      	b.n	c62 <TEE_AllocateOperation+0xbc>
/home/yin/imx-optee/imx-optee-os/lib/libutee/tee_api_operations.c:108
     cc4:	4b88      	ldr	r3, [pc, #544]	; (ee8 <TEE_AllocateOperation+0x342>)
     cc6:	429c      	cmp	r4, r3
     cc8:	d0ad      	beq.n	c26 <TEE_AllocateOperation+0x80>
     cca:	33fd      	adds	r3, #253	; 0xfd
     ccc:	429c      	cmp	r4, r3
     cce:	d1c9      	bne.n	c64 <TEE_AllocateOperation+0xbe>
     cd0:	f04f 0800 	mov.w	r8, #0
/home/yin/imx-optee/imx-optee-os/lib/libutee/tee_api_operations.c:41
     cd4:	2301      	movs	r3, #1
/home/yin/imx-optee/imx-optee-os/lib/libutee/tee_api_operations.c:44
     cd6:	4646      	mov	r6, r8
     cd8:	e134      	b.n	f44 <TEE_AllocateOperation+0x39e>
/home/yin/imx-optee/imx-optee-os/lib/libutee/tee_api_operations.c:108
     cda:	4b84      	ldr	r3, [pc, #528]	; (eec <TEE_AllocateOperation+0x346>)
     cdc:	429c      	cmp	r4, r3
     cde:	d80f      	bhi.n	d00 <TEE_AllocateOperation+0x15a>
     ce0:	3b01      	subs	r3, #1
     ce2:	429c      	cmp	r4, r3
     ce4:	d204      	bcs.n	cf0 <TEE_AllocateOperation+0x14a>
     ce6:	f104 4350 	add.w	r3, r4, #3489660928	; 0xd0000000
     cea:	3b01      	subs	r3, #1
     cec:	2b05      	cmp	r3, #5
     cee:	d8b9      	bhi.n	c64 <TEE_AllocateOperation+0xbe>
/home/yin/imx-optee/imx-optee-os/lib/libutee/tee_api_operations.c:241
     cf0:	2f04      	cmp	r7, #4
     cf2:	d1b7      	bne.n	c64 <TEE_AllocateOperation+0xbe>
/home/yin/imx-optee/imx-optee-os/lib/libutee/tee_api_operations.c:44
     cf4:	2600      	movs	r6, #0
/home/yin/imx-optee/imx-optee-os/lib/libutee/tee_api_operations.c:243
     cf6:	2208      	movs	r2, #8
/home/yin/imx-optee/imx-optee-os/lib/libutee/tee_api_operations.c:43
     cf8:	46b2      	mov	sl, r6
/home/yin/imx-optee/imx-optee-os/lib/libutee/tee_api_operations.c:41
     cfa:	2301      	movs	r3, #1
     cfc:	46b0      	mov	r8, r6
     cfe:	e140      	b.n	f82 <TEE_AllocateOperation+0x3dc>
/home/yin/imx-optee/imx-optee-os/lib/libutee/tee_api_operations.c:108
     d00:	4b7b      	ldr	r3, [pc, #492]	; (ef0 <TEE_AllocateOperation+0x34a>)
     d02:	429c      	cmp	r4, r3
     d04:	d0f4      	beq.n	cf0 <TEE_AllocateOperation+0x14a>
     d06:	d3ad      	bcc.n	c64 <TEE_AllocateOperation+0xbe>
     d08:	f104 4350 	add.w	r3, r4, #3489660928	; 0xd0000000
     d0c:	f5a3 63a2 	sub.w	r3, r3, #1296	; 0x510
     d10:	2b01      	cmp	r3, #1
     d12:	e7ec      	b.n	cee <TEE_AllocateOperation+0x148>
     d14:	4b77      	ldr	r3, [pc, #476]	; (ef4 <TEE_AllocateOperation+0x34e>)
     d16:	429c      	cmp	r4, r3
     d18:	d01b      	beq.n	d52 <TEE_AllocateOperation+0x1ac>
     d1a:	d823      	bhi.n	d64 <TEE_AllocateOperation+0x1be>
     d1c:	4b76      	ldr	r3, [pc, #472]	; (ef8 <TEE_AllocateOperation+0x352>)
     d1e:	429c      	cmp	r4, r3
     d20:	d80f      	bhi.n	d42 <TEE_AllocateOperation+0x19c>
     d22:	f1b4 4fa0 	cmp.w	r4, #1342177280	; 0x50000000
     d26:	f200 8123 	bhi.w	f70 <TEE_AllocateOperation+0x3ca>
     d2a:	4b74      	ldr	r3, [pc, #464]	; (efc <TEE_AllocateOperation+0x356>)
     d2c:	429c      	cmp	r4, r3
     d2e:	f43f af7a 	beq.w	c26 <TEE_AllocateOperation+0x80>
     d32:	f503 7380 	add.w	r3, r3, #256	; 0x100
     d36:	429c      	cmp	r4, r3
     d38:	d0ca      	beq.n	cd0 <TEE_AllocateOperation+0x12a>
     d3a:	4b71      	ldr	r3, [pc, #452]	; (f00 <TEE_AllocateOperation+0x35a>)
     d3c:	429c      	cmp	r4, r3
     d3e:	d191      	bne.n	c64 <TEE_AllocateOperation+0xbe>
     d40:	e7d6      	b.n	cf0 <TEE_AllocateOperation+0x14a>
     d42:	4b70      	ldr	r3, [pc, #448]	; (f04 <TEE_AllocateOperation+0x35e>)
     d44:	429c      	cmp	r4, r3
     d46:	f000 8109 	beq.w	f5c <TEE_AllocateOperation+0x3b6>
     d4a:	f503 7380 	add.w	r3, r3, #256	; 0x100
     d4e:	429c      	cmp	r4, r3
     d50:	d188      	bne.n	c64 <TEE_AllocateOperation+0xbe>
/home/yin/imx-optee/imx-optee-os/lib/libutee/tee_api_operations.c:170
     d52:	2f00      	cmp	r7, #0
     d54:	f000 815e 	beq.w	1014 <TEE_AllocateOperation+0x46e>
/home/yin/imx-optee/imx-optee-os/lib/libutee/tee_api_operations.c:172
     d58:	2f01      	cmp	r7, #1
     d5a:	d183      	bne.n	c64 <TEE_AllocateOperation+0xbe>
/home/yin/imx-optee/imx-optee-os/lib/libutee/tee_api_operations.c:44
     d5c:	2600      	movs	r6, #0
/home/yin/imx-optee/imx-optee-os/lib/libutee/tee_api_operations.c:173
     d5e:	46ba      	mov	sl, r7
/home/yin/imx-optee/imx-optee-os/lib/libutee/tee_api_operations.c:174
     d60:	2204      	movs	r2, #4
     d62:	e7ca      	b.n	cfa <TEE_AllocateOperation+0x154>
/home/yin/imx-optee/imx-optee-os/lib/libutee/tee_api_operations.c:108
     d64:	4b68      	ldr	r3, [pc, #416]	; (f08 <TEE_AllocateOperation+0x362>)
     d66:	429c      	cmp	r4, r3
     d68:	d0f3      	beq.n	d52 <TEE_AllocateOperation+0x1ac>
     d6a:	d80a      	bhi.n	d82 <TEE_AllocateOperation+0x1dc>
     d6c:	f5a3 1300 	sub.w	r3, r3, #2097152	; 0x200000
     d70:	429c      	cmp	r4, r3
     d72:	d0ee      	beq.n	d52 <TEE_AllocateOperation+0x1ac>
     d74:	f503 1380 	add.w	r3, r3, #1048576	; 0x100000
     d78:	429c      	cmp	r4, r3
     d7a:	d0ea      	beq.n	d52 <TEE_AllocateOperation+0x1ac>
     d7c:	f5a3 1300 	sub.w	r3, r3, #2097152	; 0x200000
     d80:	e7e5      	b.n	d4e <TEE_AllocateOperation+0x1a8>
     d82:	4b62      	ldr	r3, [pc, #392]	; (f0c <TEE_AllocateOperation+0x366>)
     d84:	429c      	cmp	r4, r3
     d86:	d081      	beq.n	c8c <TEE_AllocateOperation+0xe6>
     d88:	f603 0311 	addw	r3, r3, #2065	; 0x811
     d8c:	429c      	cmp	r4, r3
     d8e:	f43f af7d 	beq.w	c8c <TEE_AllocateOperation+0xe6>
     d92:	f5a3 5380 	sub.w	r3, r3, #4096	; 0x1000
     d96:	429c      	cmp	r4, r3
     d98:	e783      	b.n	ca2 <TEE_AllocateOperation+0xfc>
     d9a:	4a5d      	ldr	r2, [pc, #372]	; (f10 <TEE_AllocateOperation+0x36a>)
     d9c:	4294      	cmp	r4, r2
     d9e:	d05e      	beq.n	e5e <TEE_AllocateOperation+0x2b8>
     da0:	d849      	bhi.n	e36 <TEE_AllocateOperation+0x290>
     da2:	4a4d      	ldr	r2, [pc, #308]	; (ed8 <TEE_AllocateOperation+0x332>)
     da4:	4294      	cmp	r4, r2
     da6:	f43f af71 	beq.w	c8c <TEE_AllocateOperation+0xe6>
     daa:	d81c      	bhi.n	de6 <TEE_AllocateOperation+0x240>
     dac:	f5a2 52c0 	sub.w	r2, r2, #6144	; 0x1800
     db0:	3a11      	subs	r2, #17
     db2:	4294      	cmp	r4, r2
     db4:	f43f af6a 	beq.w	c8c <TEE_AllocateOperation+0xe6>
     db8:	d80b      	bhi.n	dd2 <TEE_AllocateOperation+0x22c>
     dba:	4b56      	ldr	r3, [pc, #344]	; (f14 <TEE_AllocateOperation+0x36e>)
     dbc:	429c      	cmp	r4, r3
     dbe:	f43f af65 	beq.w	c8c <TEE_AllocateOperation+0xe6>
     dc2:	33f0      	adds	r3, #240	; 0xf0
     dc4:	429c      	cmp	r4, r3
     dc6:	f43f af61 	beq.w	c8c <TEE_AllocateOperation+0xe6>
     dca:	f46f 6110 	mvn.w	r1, #2304	; 0x900
     dce:	440b      	add	r3, r1
     dd0:	e7e1      	b.n	d96 <TEE_AllocateOperation+0x1f0>
     dd2:	429c      	cmp	r4, r3
     dd4:	f43f af5a 	beq.w	c8c <TEE_AllocateOperation+0xe6>
     dd8:	4b4f      	ldr	r3, [pc, #316]	; (f18 <TEE_AllocateOperation+0x372>)
     dda:	429c      	cmp	r4, r3
     ddc:	f43f af56 	beq.w	c8c <TEE_AllocateOperation+0xe6>
     de0:	f2a3 73ef 	subw	r3, r3, #2031	; 0x7ef
     de4:	e7d7      	b.n	d96 <TEE_AllocateOperation+0x1f0>
     de6:	4b4d      	ldr	r3, [pc, #308]	; (f1c <TEE_AllocateOperation+0x376>)
     de8:	429c      	cmp	r4, r3
     dea:	f43f af4f 	beq.w	c8c <TEE_AllocateOperation+0xe6>
     dee:	d812      	bhi.n	e16 <TEE_AllocateOperation+0x270>
     df0:	f5a3 1343 	sub.w	r3, r3, #3194880	; 0x30c000
     df4:	f5a3 5388 	sub.w	r3, r3, #4352	; 0x1100
     df8:	429c      	cmp	r4, r3
     dfa:	f43f af47 	beq.w	c8c <TEE_AllocateOperation+0xe6>
     dfe:	f503 1303 	add.w	r3, r3, #2146304	; 0x20c000
     e02:	f503 7380 	add.w	r3, r3, #256	; 0x100
     e06:	429c      	cmp	r4, r3
     e08:	f43f af40 	beq.w	c8c <TEE_AllocateOperation+0xe6>
     e0c:	f5a3 1303 	sub.w	r3, r3, #2146304	; 0x20c000
     e10:	f5a3 5388 	sub.w	r3, r3, #4352	; 0x1100
     e14:	e7bf      	b.n	d96 <TEE_AllocateOperation+0x1f0>
     e16:	4b42      	ldr	r3, [pc, #264]	; (f20 <TEE_AllocateOperation+0x37a>)
     e18:	429c      	cmp	r4, r3
     e1a:	f43f af37 	beq.w	c8c <TEE_AllocateOperation+0xe6>
     e1e:	f503 1380 	add.w	r3, r3, #1048576	; 0x100000
     e22:	f503 5380 	add.w	r3, r3, #4096	; 0x1000
     e26:	429c      	cmp	r4, r3
     e28:	f43f af30 	beq.w	c8c <TEE_AllocateOperation+0xe6>
     e2c:	f5a3 1300 	sub.w	r3, r3, #2097152	; 0x200000
     e30:	f5a3 5300 	sub.w	r3, r3, #8192	; 0x2000
     e34:	e7af      	b.n	d96 <TEE_AllocateOperation+0x1f0>
     e36:	4b3b      	ldr	r3, [pc, #236]	; (f24 <TEE_AllocateOperation+0x37e>)
     e38:	429c      	cmp	r4, r3
     e3a:	d823      	bhi.n	e84 <TEE_AllocateOperation+0x2de>
     e3c:	3b01      	subs	r3, #1
     e3e:	429c      	cmp	r4, r3
     e40:	d20d      	bcs.n	e5e <TEE_AllocateOperation+0x2b8>
     e42:	f5a3 5383 	sub.w	r3, r3, #4192	; 0x1060
     e46:	3b1e      	subs	r3, #30
     e48:	429c      	cmp	r4, r3
     e4a:	d008      	beq.n	e5e <TEE_AllocateOperation+0x2b8>
     e4c:	d810      	bhi.n	e70 <TEE_AllocateOperation+0x2ca>
     e4e:	f5a3 5380 	sub.w	r3, r3, #4096	; 0x1000
     e52:	429c      	cmp	r4, r3
     e54:	d003      	beq.n	e5e <TEE_AllocateOperation+0x2b8>
     e56:	337e      	adds	r3, #126	; 0x7e
     e58:	429c      	cmp	r4, r3
     e5a:	f47f af03 	bne.w	c64 <TEE_AllocateOperation+0xbe>
/home/yin/imx-optee/imx-optee-os/lib/libutee/tee_api_operations.c:209
     e5e:	2f06      	cmp	r7, #6
     e60:	f47f af00 	bne.w	c64 <TEE_AllocateOperation+0xbe>
/home/yin/imx-optee/imx-optee-os/lib/libutee/tee_api_operations.c:44
     e64:	2600      	movs	r6, #0
/home/yin/imx-optee/imx-optee-os/lib/libutee/tee_api_operations.c:211
     e66:	f04f 0a01 	mov.w	sl, #1
/home/yin/imx-optee/imx-optee-os/lib/libutee/tee_api_operations.c:212
     e6a:	2240      	movs	r2, #64	; 0x40
/home/yin/imx-optee/imx-optee-os/lib/libutee/tee_api_operations.c:41
     e6c:	4653      	mov	r3, sl
     e6e:	e745      	b.n	cfc <TEE_AllocateOperation+0x156>
/home/yin/imx-optee/imx-optee-os/lib/libutee/tee_api_operations.c:108
     e70:	4b2d      	ldr	r3, [pc, #180]	; (f28 <TEE_AllocateOperation+0x382>)
     e72:	429c      	cmp	r4, r3
     e74:	f4ff aef6 	bcc.w	c64 <TEE_AllocateOperation+0xbe>
     e78:	3302      	adds	r3, #2
     e7a:	429c      	cmp	r4, r3
     e7c:	d9ef      	bls.n	e5e <TEE_AllocateOperation+0x2b8>
     e7e:	f503 6378 	add.w	r3, r3, #3968	; 0xf80
     e82:	e7e9      	b.n	e58 <TEE_AllocateOperation+0x2b2>
     e84:	4b29      	ldr	r3, [pc, #164]	; (f2c <TEE_AllocateOperation+0x386>)
     e86:	429c      	cmp	r4, r3
     e88:	d0e9      	beq.n	e5e <TEE_AllocateOperation+0x2b8>
     e8a:	d80c      	bhi.n	ea6 <TEE_AllocateOperation+0x300>
     e8c:	f5a3 5380 	sub.w	r3, r3, #4096	; 0x1000
     e90:	429c      	cmp	r4, r3
     e92:	d0e4      	beq.n	e5e <TEE_AllocateOperation+0x2b8>
     e94:	f4ff aee6 	bcc.w	c64 <TEE_AllocateOperation+0xbe>
     e98:	f5a3 4301 	sub.w	r3, r3, #33024	; 0x8100
     e9c:	3b02      	subs	r3, #2
     e9e:	4423      	add	r3, r4
     ea0:	2b01      	cmp	r3, #1
     ea2:	d9dc      	bls.n	e5e <TEE_AllocateOperation+0x2b8>
     ea4:	e6de      	b.n	c64 <TEE_AllocateOperation+0xbe>
     ea6:	4b22      	ldr	r3, [pc, #136]	; (f30 <TEE_AllocateOperation+0x38a>)
     ea8:	429c      	cmp	r4, r3
     eaa:	f4ff aedb 	bcc.w	c64 <TEE_AllocateOperation+0xbe>
     eae:	3301      	adds	r3, #1
     eb0:	429c      	cmp	r4, r3
     eb2:	d9d4      	bls.n	e5e <TEE_AllocateOperation+0x2b8>
     eb4:	f5a3 4331 	sub.w	r3, r3, #45312	; 0xb100
     eb8:	3b81      	subs	r3, #129	; 0x81
     eba:	e7f0      	b.n	e9e <TEE_AllocateOperation+0x2f8>
     ebc:	10000410 	.word	0x10000410
     ec0:	70004131 	.word	0x70004131
     ec4:	70002131 	.word	0x70002131
     ec8:	30000513 	.word	0x30000513
     ecc:	10000310 	.word	0x10000310
     ed0:	70003131 	.word	0x70003131
     ed4:	80002042 	.word	0x80002042
     ed8:	70005041 	.word	0x70005041
     edc:	80001042 	.word	0x80001042
     ee0:	ffff000a 	.word	0xffff000a
     ee4:	80004042 	.word	0x80004042
     ee8:	10000113 	.word	0x10000113
     eec:	30000111 	.word	0x30000111
     ef0:	30000113 	.word	0x30000113
     ef4:	60210230 	.word	0x60210230
     ef8:	50000006 	.word	0x50000006
     efc:	40000710 	.word	0x40000710
     f00:	30000610 	.word	0x30000610
     f04:	60000030 	.word	0x60000030
     f08:	60610230 	.word	0x60610230
     f0c:	70001830 	.word	0x70001830
     f10:	80000032 	.word	0x80000032
     f14:	70003041 	.word	0x70003041
     f18:	70004830 	.word	0x70004830
     f1c:	70313930 	.word	0x70313930
     f20:	70515930 	.word	0x70515930
     f24:	800030c1 	.word	0x800030c1
     f28:	800020c0 	.word	0x800020c0
     f2c:	80005042 	.word	0x80005042
     f30:	800050c0 	.word	0x800050c0
/home/yin/imx-optee/imx-optee-os/lib/libutee/tee_api_operations.c:50
     f34:	f44f 2800 	mov.w	r8, #524288	; 0x80000
/home/yin/imx-optee/imx-optee-os/lib/libutee/tee_api_operations.c:111
     f38:	2601      	movs	r6, #1
/home/yin/imx-optee/imx-optee-os/lib/libutee/tee_api_operations.c:120
     f3a:	b2e3      	uxtb	r3, r4
/home/yin/imx-optee/imx-optee-os/lib/libutee/tee_api_operations.c:123
     f3c:	2b10      	cmp	r3, #16
     f3e:	bf0c      	ite	eq
     f40:	2310      	moveq	r3, #16
     f42:	2308      	movne	r3, #8
/home/yin/imx-optee/imx-optee-os/lib/libutee/tee_api_operations.c:127
     f44:	2f00      	cmp	r7, #0
     f46:	d05d      	beq.n	1004 <TEE_AllocateOperation+0x45e>
/home/yin/imx-optee/imx-optee-os/lib/libutee/tee_api_operations.c:129
     f48:	2f01      	cmp	r7, #1
     f4a:	f47f ae8b 	bne.w	c64 <TEE_AllocateOperation+0xbe>
/home/yin/imx-optee/imx-optee-os/lib/libutee/tee_api_operations.c:43
     f4e:	f04f 0a00 	mov.w	sl, #0
/home/yin/imx-optee/imx-optee-os/lib/libutee/tee_api_operations.c:130
     f52:	2204      	movs	r2, #4
     f54:	e015      	b.n	f82 <TEE_AllocateOperation+0x3dc>
/home/yin/imx-optee/imx-optee-os/lib/libutee/tee_api_operations.c:108
     f56:	f04f 0800 	mov.w	r8, #0
     f5a:	e7ed      	b.n	f38 <TEE_AllocateOperation+0x392>
/home/yin/imx-optee/imx-optee-os/lib/libutee/tee_api_operations.c:181
     f5c:	2f00      	cmp	r7, #0
     f5e:	d05f      	beq.n	1020 <TEE_AllocateOperation+0x47a>
/home/yin/imx-optee/imx-optee-os/lib/libutee/tee_api_operations.c:183
     f60:	2f01      	cmp	r7, #1
     f62:	f47f ae7f 	bne.w	c64 <TEE_AllocateOperation+0xbe>
/home/yin/imx-optee/imx-optee-os/lib/libutee/tee_api_operations.c:44
     f66:	2600      	movs	r6, #0
/home/yin/imx-optee/imx-optee-os/lib/libutee/tee_api_operations.c:184
     f68:	f04f 0a01 	mov.w	sl, #1
/home/yin/imx-optee/imx-optee-os/lib/libutee/tee_api_operations.c:185
     f6c:	2214      	movs	r2, #20
     f6e:	e77d      	b.n	e6c <TEE_AllocateOperation+0x2c6>
/home/yin/imx-optee/imx-optee-os/lib/libutee/tee_api_operations.c:221
     f70:	2f05      	cmp	r7, #5
     f72:	f47f ae77 	bne.w	c64 <TEE_AllocateOperation+0xbe>
/home/yin/imx-optee/imx-optee-os/lib/libutee/tee_api_operations.c:44
     f76:	2600      	movs	r6, #0
/home/yin/imx-optee/imx-optee-os/lib/libutee/tee_api_operations.c:41
     f78:	2301      	movs	r3, #1
/home/yin/imx-optee/imx-optee-os/lib/libutee/tee_api_operations.c:43
     f7a:	46b2      	mov	sl, r6
/home/yin/imx-optee/imx-optee-os/lib/libutee/tee_api_operations.c:225
     f7c:	4632      	mov	r2, r6
/home/yin/imx-optee/imx-optee-os/lib/libutee/tee_api_operations.c:224
     f7e:	f44f 2880 	mov.w	r8, #262144	; 0x40000
/home/yin/imx-optee/imx-optee-os/lib/libutee/tee_api_operations.c:250
     f82:	2100      	movs	r1, #0
     f84:	2044      	movs	r0, #68	; 0x44
     f86:	9205      	str	r2, [sp, #20]
     f88:	9304      	str	r3, [sp, #16]
     f8a:	f001 ffba 	bl	2f02 <TEE_Malloc>
/home/yin/imx-optee/imx-optee-os/lib/libutee/tee_api_operations.c:251
     f8e:	4605      	mov	r5, r0
     f90:	2800      	cmp	r0, #0
     f92:	f000 8099 	beq.w	10c8 <TEE_AllocateOperation+0x522>
/home/yin/imx-optee/imx-optee-os/lib/libutee/tee_api_operations.c:261
     f96:	9b04      	ldr	r3, [sp, #16]
/home/yin/imx-optee/imx-optee-os/lib/libutee/tee_api_operations.c:255
     f98:	ea4f 7b14 	mov.w	fp, r4, lsr #28
/home/yin/imx-optee/imx-optee-os/lib/libutee/tee_api_operations.c:258
     f9c:	9a05      	ldr	r2, [sp, #20]
/home/yin/imx-optee/imx-optee-os/lib/libutee/tee_api_operations.c:254
     f9e:	6004      	str	r4, [r0, #0]
/home/yin/imx-optee/imx-optee-os/lib/libutee/tee_api_operations.c:261
     fa0:	2b01      	cmp	r3, #1
/home/yin/imx-optee/imx-optee-os/lib/libutee/tee_api_operations.c:255
     fa2:	f8c0 b004 	str.w	fp, [r0, #4]
/home/yin/imx-optee/imx-optee-os/lib/libutee/tee_api_operations.c:256
     fa6:	6087      	str	r7, [r0, #8]
/home/yin/imx-optee/imx-optee-os/lib/libutee/tee_api_operations.c:257
     fa8:	f8c0 9010 	str.w	r9, [r0, #16]
/home/yin/imx-optee/imx-optee-os/lib/libutee/tee_api_operations.c:258
     fac:	6182      	str	r2, [r0, #24]
/home/yin/imx-optee/imx-optee-os/lib/libutee/tee_api_operations.c:259
     fae:	f8c0 801c 	str.w	r8, [r0, #28]
/home/yin/imx-optee/imx-optee-os/lib/libutee/tee_api_operations.c:261
     fb2:	d13a      	bne.n	102a <TEE_AllocateOperation+0x484>
/home/yin/imx-optee/imx-optee-os/lib/libutee/tee_api_operations.c:277
     fb4:	f1bb 0f05 	cmp.w	fp, #5
/home/yin/imx-optee/imx-optee-os/lib/libutee/tee_api_operations.c:274
     fb8:	636b      	str	r3, [r5, #52]	; 0x34
/home/yin/imx-optee/imx-optee-os/lib/libutee/tee_api_operations.c:275
     fba:	f885 6030 	strb.w	r6, [r5, #48]	; 0x30
/home/yin/imx-optee/imx-optee-os/lib/libutee/tee_api_operations.c:277
     fbe:	d143      	bne.n	1048 <TEE_AllocateOperation+0x4a2>
/home/yin/imx-optee/imx-optee-os/lib/libutee/tee_api_operations.c:301
     fc0:	f105 033c 	add.w	r3, r5, #60	; 0x3c
     fc4:	4639      	mov	r1, r7
     fc6:	9300      	str	r3, [sp, #0]
     fc8:	4620      	mov	r0, r4
     fca:	6a2a      	ldr	r2, [r5, #32]
     fcc:	6a6b      	ldr	r3, [r5, #36]	; 0x24
     fce:	f001 e9bc 	blx	2348 <utee_cryp_state_alloc>
/home/yin/imx-optee/imx-optee-os/lib/libutee/tee_api_operations.c:303
     fd2:	4602      	mov	r2, r0
     fd4:	2800      	cmp	r0, #0
     fd6:	d179      	bne.n	10cc <TEE_AllocateOperation+0x526>
/home/yin/imx-optee/imx-optee-os/lib/libutee/tee_api_operations.c:311
     fd8:	f1bb 0f05 	cmp.w	fp, #5
     fdc:	d10a      	bne.n	ff4 <TEE_AllocateOperation+0x44e>
/home/yin/imx-optee/imx-optee-os/lib/libutee/tee_api_operations.c:312
     fde:	4601      	mov	r1, r0
     fe0:	6be8      	ldr	r0, [r5, #60]	; 0x3c
     fe2:	f001 e9d2 	blx	2388 <utee_hash_init>
/home/yin/imx-optee/imx-optee-os/lib/libutee/tee_api_operations.c:313
     fe6:	4606      	mov	r6, r0
     fe8:	2800      	cmp	r0, #0
     fea:	d151      	bne.n	1090 <TEE_AllocateOperation+0x4ea>
/home/yin/imx-optee/imx-optee-os/lib/libutee/tee_api_operations.c:316
     fec:	69eb      	ldr	r3, [r5, #28]
     fee:	f443 3300 	orr.w	r3, r3, #131072	; 0x20000
     ff2:	61eb      	str	r3, [r5, #28]
/home/yin/imx-optee/imx-optee-os/lib/libutee/tee_api_operations.c:321
     ff4:	9b03      	ldr	r3, [sp, #12]
/home/yin/imx-optee/imx-optee-os/lib/libutee/tee_api_operations.c:319
     ff6:	2600      	movs	r6, #0
     ff8:	62ae      	str	r6, [r5, #40]	; 0x28
/home/yin/imx-optee/imx-optee-os/lib/libutee/tee_api_operations.c:321
     ffa:	601d      	str	r5, [r3, #0]
/home/yin/imx-optee/imx-optee-os/lib/libutee/tee_api_operations.c:341
     ffc:	4630      	mov	r0, r6
     ffe:	b007      	add	sp, #28
    1000:	e8bd 8ff0 	ldmia.w	sp!, {r4, r5, r6, r7, r8, r9, sl, fp, pc}
/home/yin/imx-optee/imx-optee-os/lib/libutee/tee_api_operations.c:43
    1004:	46ba      	mov	sl, r7
/home/yin/imx-optee/imx-optee-os/lib/libutee/tee_api_operations.c:128
    1006:	2202      	movs	r2, #2
    1008:	e7bb      	b.n	f82 <TEE_AllocateOperation+0x3dc>
/home/yin/imx-optee/imx-optee-os/lib/libutee/tee_api_operations.c:44
    100a:	2600      	movs	r6, #0
/home/yin/imx-optee/imx-optee-os/lib/libutee/tee_api_operations.c:155
    100c:	f04f 0a01 	mov.w	sl, #1
/home/yin/imx-optee/imx-optee-os/lib/libutee/tee_api_operations.c:156
    1010:	2210      	movs	r2, #16
    1012:	e72b      	b.n	e6c <TEE_AllocateOperation+0x2c6>
    1014:	46b8      	mov	r8, r7
/home/yin/imx-optee/imx-optee-os/lib/libutee/tee_api_operations.c:44
    1016:	463e      	mov	r6, r7
/home/yin/imx-optee/imx-optee-os/lib/libutee/tee_api_operations.c:43
    1018:	46ba      	mov	sl, r7
/home/yin/imx-optee/imx-optee-os/lib/libutee/tee_api_operations.c:171
    101a:	2202      	movs	r2, #2
/home/yin/imx-optee/imx-optee-os/lib/libutee/tee_api_operations.c:41
    101c:	2301      	movs	r3, #1
    101e:	e7b0      	b.n	f82 <TEE_AllocateOperation+0x3dc>
    1020:	46b8      	mov	r8, r7
/home/yin/imx-optee/imx-optee-os/lib/libutee/tee_api_operations.c:44
    1022:	463e      	mov	r6, r7
/home/yin/imx-optee/imx-optee-os/lib/libutee/tee_api_operations.c:43
    1024:	46ba      	mov	sl, r7
/home/yin/imx-optee/imx-optee-os/lib/libutee/tee_api_operations.c:182
    1026:	2222      	movs	r2, #34	; 0x22
    1028:	e7f8      	b.n	101c <TEE_AllocateOperation+0x476>
/home/yin/imx-optee/imx-optee-os/lib/libutee/tee_api_operations.c:264
    102a:	b15e      	cbz	r6, 1044 <TEE_AllocateOperation+0x49e>
/home/yin/imx-optee/imx-optee-os/lib/libutee/tee_api_operations.c:265
    102c:	0058      	lsls	r0, r3, #1
/home/yin/imx-optee/imx-optee-os/lib/libutee/tee_api_operations.c:267
    102e:	f04f 4100 	mov.w	r1, #2147483648	; 0x80000000
    1032:	9304      	str	r3, [sp, #16]
    1034:	f001 ff65 	bl	2f02 <TEE_Malloc>
/home/yin/imx-optee/imx-optee-os/lib/libutee/tee_api_operations.c:269
    1038:	9b04      	ldr	r3, [sp, #16]
/home/yin/imx-optee/imx-optee-os/lib/libutee/tee_api_operations.c:267
    103a:	62e8      	str	r0, [r5, #44]	; 0x2c
/home/yin/imx-optee/imx-optee-os/lib/libutee/tee_api_operations.c:269
    103c:	2800      	cmp	r0, #0
    103e:	d1b9      	bne.n	fb4 <TEE_AllocateOperation+0x40e>
/home/yin/imx-optee/imx-optee-os/lib/libutee/tee_api_operations.c:270
    1040:	4e23      	ldr	r6, [pc, #140]	; (10d0 <TEE_AllocateOperation+0x52a>)
    1042:	e02e      	b.n	10a2 <TEE_AllocateOperation+0x4fc>
    1044:	4618      	mov	r0, r3
    1046:	e7f2      	b.n	102e <TEE_AllocateOperation+0x488>
/home/yin/imx-optee/imx-optee-os/lib/libutee/tee_api_operations.c:279
    1048:	f1ba 0f00 	cmp.w	sl, #0
    104c:	fa5f f884 	uxtb.w	r8, r4
    1050:	bf14      	ite	ne
    1052:	f04f 4321 	movne.w	r3, #2701131776	; 0xa1000000
    1056:	f04f 4320 	moveq.w	r3, #2684354560	; 0xa0000000
    105a:	ea43 0808 	orr.w	r8, r3, r8
/home/yin/imx-optee/imx-optee-os/lib/libutee/tee_api_operations.c:286
    105e:	69eb      	ldr	r3, [r5, #28]
/home/yin/imx-optee/imx-optee-os/lib/libutee/tee_api_operations.c:289
    1060:	4640      	mov	r0, r8
/home/yin/imx-optee/imx-optee-os/lib/libutee/tee_api_operations.c:286
    1062:	031a      	lsls	r2, r3, #12
/home/yin/imx-optee/imx-optee-os/lib/libutee/tee_api_operations.c:289
    1064:	f105 0220 	add.w	r2, r5, #32
/home/yin/imx-optee/imx-optee-os/lib/libutee/tee_api_operations.c:287
    1068:	bf48      	it	mi
    106a:	ea4f 0959 	movmi.w	r9, r9, lsr #1
/home/yin/imx-optee/imx-optee-os/lib/libutee/tee_api_operations.c:289
    106e:	4649      	mov	r1, r9
    1070:	f7ff f9fe 	bl	470 <TEE_AllocateTransientObject>
/home/yin/imx-optee/imx-optee-os/lib/libutee/tee_api_operations.c:290
    1074:	4606      	mov	r6, r0
    1076:	b958      	cbnz	r0, 1090 <TEE_AllocateOperation+0x4ea>
/home/yin/imx-optee/imx-optee-os/lib/libutee/tee_api_operations.c:293
    1078:	69eb      	ldr	r3, [r5, #28]
    107a:	031b      	lsls	r3, r3, #12
    107c:	d5a0      	bpl.n	fc0 <TEE_AllocateOperation+0x41a>
/home/yin/imx-optee/imx-optee-os/lib/libutee/tee_api_operations.c:294
    107e:	f105 0224 	add.w	r2, r5, #36	; 0x24
    1082:	4649      	mov	r1, r9
    1084:	4640      	mov	r0, r8
    1086:	f7ff f9f3 	bl	470 <TEE_AllocateTransientObject>
/home/yin/imx-optee/imx-optee-os/lib/libutee/tee_api_operations.c:296
    108a:	4606      	mov	r6, r0
    108c:	2800      	cmp	r0, #0
    108e:	d097      	beq.n	fc0 <TEE_AllocateOperation+0x41a>
/home/yin/imx-optee/imx-optee-os/lib/libutee/tee_api_operations.c:325
    1090:	4b0f      	ldr	r3, [pc, #60]	; (10d0 <TEE_AllocateOperation+0x52a>)
    1092:	429e      	cmp	r6, r3
    1094:	d005      	beq.n	10a2 <TEE_AllocateOperation+0x4fc>
/home/yin/imx-optee/imx-optee-os/lib/libutee/tee_api_operations.c:325 (discriminator 1)
    1096:	4b0f      	ldr	r3, [pc, #60]	; (10d4 <TEE_AllocateOperation+0x52e>)
    1098:	429e      	cmp	r6, r3
    109a:	d002      	beq.n	10a2 <TEE_AllocateOperation+0x4fc>
/home/yin/imx-optee/imx-optee-os/lib/libutee/tee_api_operations.c:327
    109c:	4630      	mov	r0, r6
    109e:	f003 fff3 	bl	5088 <TEE_Panic>
/home/yin/imx-optee/imx-optee-os/lib/libutee/tee_api_operations.c:329
    10a2:	6beb      	ldr	r3, [r5, #60]	; 0x3c
    10a4:	b11b      	cbz	r3, 10ae <TEE_AllocateOperation+0x508>
/home/yin/imx-optee/imx-optee-os/lib/libutee/tee_api_operations.c:330
    10a6:	4628      	mov	r0, r5
    10a8:	f7ff fd6a 	bl	b80 <TEE_FreeOperation>
    10ac:	e7a6      	b.n	ffc <TEE_AllocateOperation+0x456>
/home/yin/imx-optee/imx-optee-os/lib/libutee/tee_api_operations.c:332
    10ae:	6ae8      	ldr	r0, [r5, #44]	; 0x2c
    10b0:	f001 ff4e 	bl	2f50 <TEE_Free>
/home/yin/imx-optee/imx-optee-os/lib/libutee/tee_api_operations.c:333
    10b4:	6a28      	ldr	r0, [r5, #32]
    10b6:	f7ff f9f3 	bl	4a0 <TEE_FreeTransientObject>
/home/yin/imx-optee/imx-optee-os/lib/libutee/tee_api_operations.c:334
    10ba:	6a68      	ldr	r0, [r5, #36]	; 0x24
    10bc:	f7ff f9f0 	bl	4a0 <TEE_FreeTransientObject>
/home/yin/imx-optee/imx-optee-os/lib/libutee/tee_api_operations.c:335
    10c0:	4628      	mov	r0, r5
    10c2:	f001 ff45 	bl	2f50 <TEE_Free>
    10c6:	e799      	b.n	ffc <TEE_AllocateOperation+0x456>
/home/yin/imx-optee/imx-optee-os/lib/libutee/tee_api_operations.c:252
    10c8:	4e01      	ldr	r6, [pc, #4]	; (10d0 <TEE_AllocateOperation+0x52a>)
    10ca:	e797      	b.n	ffc <TEE_AllocateOperation+0x456>
    10cc:	4606      	mov	r6, r0
    10ce:	e7df      	b.n	1090 <TEE_AllocateOperation+0x4ea>
    10d0:	ffff000c 	.word	0xffff000c
    10d4:	ffff000a 	.word	0xffff000a

000010d8 <TEE_GetOperationInfo>:
TEE_GetOperationInfo():
/home/yin/imx-optee/imx-optee-os/lib/libutee/tee_api_operations.c:365
    10d8:	b538      	push	{r3, r4, r5, lr}
    10da:	460c      	mov	r4, r1
/home/yin/imx-optee/imx-optee-os/lib/libutee/tee_api_operations.c:366
    10dc:	4605      	mov	r5, r0
    10de:	b908      	cbnz	r0, 10e4 <TEE_GetOperationInfo+0xc>
/home/yin/imx-optee/imx-optee-os/lib/libutee/tee_api_operations.c:367
    10e0:	f003 ffd2 	bl	5088 <TEE_Panic>
/home/yin/imx-optee/imx-optee-os/lib/libutee/tee_api_operations.c:369
    10e4:	b914      	cbnz	r4, 10ec <TEE_GetOperationInfo+0x14>
/home/yin/imx-optee/imx-optee-os/lib/libutee/tee_api_operations.c:370
    10e6:	4620      	mov	r0, r4
    10e8:	f003 ffce 	bl	5088 <TEE_Panic>
/home/yin/imx-optee/imx-optee-os/lib/libutee/tee_api_operations.c:372
    10ec:	cd0f      	ldmia	r5!, {r0, r1, r2, r3}
    10ee:	c40f      	stmia	r4!, {r0, r1, r2, r3}
    10f0:	e895 000f 	ldmia.w	r5, {r0, r1, r2, r3}
    10f4:	e884 000f 	stmia.w	r4, {r0, r1, r2, r3}
    10f8:	bd38      	pop	{r3, r4, r5, pc}

000010fa <TEE_GetOperationInfoMultiple>:
TEE_GetOperationInfoMultiple():
/home/yin/imx-optee/imx-optee-os/lib/libutee/tee_api_operations.c:378
    10fa:	b5f0      	push	{r4, r5, r6, r7, lr}
    10fc:	460c      	mov	r4, r1
    10fe:	b08f      	sub	sp, #60	; 0x3c
/home/yin/imx-optee/imx-optee-os/lib/libutee/tee_api_operations.c:385
    1100:	4605      	mov	r5, r0
    1102:	2800      	cmp	r0, #0
    1104:	d04b      	beq.n	119e <TEE_GetOperationInfoMultiple+0xa4>
/home/yin/imx-optee/imx-optee-os/lib/libutee/tee_api_operations.c:390
    1106:	2900      	cmp	r1, #0
    1108:	d049      	beq.n	119e <TEE_GetOperationInfoMultiple+0xa4>
/home/yin/imx-optee/imx-optee-os/lib/libutee/tee_api_operations.c:395
    110a:	2a00      	cmp	r2, #0
    110c:	d047      	beq.n	119e <TEE_GetOperationInfoMultiple+0xa4>
/home/yin/imx-optee/imx-optee-os/lib/libutee/tee_api_operations.c:400
    110e:	6817      	ldr	r7, [r2, #0]
    1110:	3f20      	subs	r7, #32
    1112:	08ff      	lsrs	r7, r7, #3
/home/yin/imx-optee/imx-optee-os/lib/libutee/tee_api_operations.c:403
    1114:	2f02      	cmp	r7, #2
    1116:	d842      	bhi.n	119e <TEE_GetOperationInfoMultiple+0xa4>
/home/yin/imx-optee/imx-optee-os/lib/libutee/tee_api_operations.c:409
    1118:	69c3      	ldr	r3, [r0, #28]
    111a:	031b      	lsls	r3, r3, #12
    111c:	d421      	bmi.n	1162 <TEE_GetOperationInfoMultiple+0x68>
/home/yin/imx-optee/imx-optee-os/lib/libutee/tee_api_operations.c:417 (discriminator 1)
    111e:	b347      	cbz	r7, 1172 <TEE_GetOperationInfoMultiple+0x78>
/home/yin/imx-optee/imx-optee-os/lib/libutee/tee_api_operations.c:417
    1120:	2f02      	cmp	r7, #2
/home/yin/imx-optee/imx-optee-os/lib/libutee/tee_api_operations.c:418
    1122:	f04f 0300 	mov.w	r3, #0
    1126:	6223      	str	r3, [r4, #32]
/home/yin/imx-optee/imx-optee-os/lib/libutee/tee_api_operations.c:419
    1128:	6263      	str	r3, [r4, #36]	; 0x24
/home/yin/imx-optee/imx-optee-os/lib/libutee/tee_api_operations.c:417
    112a:	d120      	bne.n	116e <TEE_GetOperationInfoMultiple+0x74>
/home/yin/imx-optee/imx-optee-os/lib/libutee/tee_api_operations.c:418
    112c:	62a3      	str	r3, [r4, #40]	; 0x28
/home/yin/imx-optee/imx-optee-os/lib/libutee/tee_api_operations.c:423
    112e:	a907      	add	r1, sp, #28
/home/yin/imx-optee/imx-optee-os/lib/libutee/tee_api_operations.c:419
    1130:	62e3      	str	r3, [r4, #44]	; 0x2c
/home/yin/imx-optee/imx-optee-os/lib/libutee/tee_api_operations.c:423
    1132:	6a68      	ldr	r0, [r5, #36]	; 0x24
    1134:	f7ff f8e2 	bl	2fc <TEE_GetObjectInfo1>
/home/yin/imx-optee/imx-optee-os/lib/libutee/tee_api_operations.c:425
    1138:	4606      	mov	r6, r0
    113a:	b970      	cbnz	r0, 115a <TEE_GetOperationInfoMultiple+0x60>
/home/yin/imx-optee/imx-optee-os/lib/libutee/tee_api_operations.c:428
    113c:	9b08      	ldr	r3, [sp, #32]
    113e:	62a3      	str	r3, [r4, #40]	; 0x28
/home/yin/imx-optee/imx-optee-os/lib/libutee/tee_api_operations.c:430
    1140:	69ab      	ldr	r3, [r5, #24]
    1142:	62e3      	str	r3, [r4, #44]	; 0x2c
/home/yin/imx-optee/imx-optee-os/lib/libutee/tee_api_operations.c:435
    1144:	4669      	mov	r1, sp
    1146:	6a28      	ldr	r0, [r5, #32]
    1148:	f7ff f8d8 	bl	2fc <TEE_GetObjectInfo1>
/home/yin/imx-optee/imx-optee-os/lib/libutee/tee_api_operations.c:437
    114c:	4606      	mov	r6, r0
    114e:	b308      	cbz	r0, 1194 <TEE_GetOperationInfoMultiple+0x9a>
/home/yin/imx-optee/imx-optee-os/lib/libutee/tee_api_operations.c:438
    1150:	2f02      	cmp	r7, #2
    1152:	d102      	bne.n	115a <TEE_GetOperationInfoMultiple+0x60>
/home/yin/imx-optee/imx-optee-os/lib/libutee/tee_api_operations.c:440
    1154:	2300      	movs	r3, #0
    1156:	62a3      	str	r3, [r4, #40]	; 0x28
/home/yin/imx-optee/imx-optee-os/lib/libutee/tee_api_operations.c:442
    1158:	62e3      	str	r3, [r4, #44]	; 0x2c
/home/yin/imx-optee/imx-optee-os/lib/libutee/tee_api_operations.c:464
    115a:	4b13      	ldr	r3, [pc, #76]	; (11a8 <TEE_GetOperationInfoMultiple+0xae>)
    115c:	429e      	cmp	r6, r3
    115e:	d002      	beq.n	1166 <TEE_GetOperationInfoMultiple+0x6c>
    1160:	e01e      	b.n	11a0 <TEE_GetOperationInfoMultiple+0xa6>
/home/yin/imx-optee/imx-optee-os/lib/libutee/tee_api_operations.c:410
    1162:	2f02      	cmp	r7, #2
    1164:	d0dc      	beq.n	1120 <TEE_GetOperationInfoMultiple+0x26>
/home/yin/imx-optee/imx-optee-os/lib/libutee/tee_api_operations.c:461
    1166:	4e10      	ldr	r6, [pc, #64]	; (11a8 <TEE_GetOperationInfoMultiple+0xae>)
/home/yin/imx-optee/imx-optee-os/lib/libutee/tee_api_operations.c:469
    1168:	4630      	mov	r0, r6
    116a:	b00f      	add	sp, #60	; 0x3c
    116c:	bdf0      	pop	{r4, r5, r6, r7, pc}
/home/yin/imx-optee/imx-optee-os/lib/libutee/tee_api_operations.c:434
    116e:	2f00      	cmp	r7, #0
    1170:	d1e8      	bne.n	1144 <TEE_GetOperationInfoMultiple+0x4a>
/home/yin/imx-optee/imx-optee-os/lib/libutee/tee_api_operations.c:454
    1172:	682b      	ldr	r3, [r5, #0]
/home/yin/imx-optee/imx-optee-os/lib/libutee/tee_api_operations.c:461
    1174:	2600      	movs	r6, #0
/home/yin/imx-optee/imx-optee-os/lib/libutee/tee_api_operations.c:454
    1176:	6023      	str	r3, [r4, #0]
/home/yin/imx-optee/imx-optee-os/lib/libutee/tee_api_operations.c:455
    1178:	686b      	ldr	r3, [r5, #4]
    117a:	6063      	str	r3, [r4, #4]
/home/yin/imx-optee/imx-optee-os/lib/libutee/tee_api_operations.c:456
    117c:	68ab      	ldr	r3, [r5, #8]
    117e:	60a3      	str	r3, [r4, #8]
/home/yin/imx-optee/imx-optee-os/lib/libutee/tee_api_operations.c:457
    1180:	68eb      	ldr	r3, [r5, #12]
    1182:	60e3      	str	r3, [r4, #12]
/home/yin/imx-optee/imx-optee-os/lib/libutee/tee_api_operations.c:458
    1184:	692b      	ldr	r3, [r5, #16]
    1186:	6123      	str	r3, [r4, #16]
/home/yin/imx-optee/imx-optee-os/lib/libutee/tee_api_operations.c:459
    1188:	69eb      	ldr	r3, [r5, #28]
    118a:	6163      	str	r3, [r4, #20]
/home/yin/imx-optee/imx-optee-os/lib/libutee/tee_api_operations.c:460
    118c:	6aab      	ldr	r3, [r5, #40]	; 0x28
/home/yin/imx-optee/imx-optee-os/lib/libutee/tee_api_operations.c:461
    118e:	61e7      	str	r7, [r4, #28]
/home/yin/imx-optee/imx-optee-os/lib/libutee/tee_api_operations.c:460
    1190:	61a3      	str	r3, [r4, #24]
    1192:	e7e9      	b.n	1168 <TEE_GetOperationInfoMultiple+0x6e>
/home/yin/imx-optee/imx-optee-os/lib/libutee/tee_api_operations.c:447
    1194:	9b01      	ldr	r3, [sp, #4]
    1196:	6223      	str	r3, [r4, #32]
/home/yin/imx-optee/imx-optee-os/lib/libutee/tee_api_operations.c:449
    1198:	69ab      	ldr	r3, [r5, #24]
    119a:	6263      	str	r3, [r4, #36]	; 0x24
    119c:	e7e9      	b.n	1172 <TEE_GetOperationInfoMultiple+0x78>
    119e:	4e03      	ldr	r6, [pc, #12]	; (11ac <TEE_GetOperationInfoMultiple+0xb2>)
/home/yin/imx-optee/imx-optee-os/lib/libutee/tee_api_operations.c:466
    11a0:	4630      	mov	r0, r6
    11a2:	f003 ff71 	bl	5088 <TEE_Panic>
/home/yin/imx-optee/imx-optee-os/lib/libutee/tee_api_operations.c:468
    11a6:	e7df      	b.n	1168 <TEE_GetOperationInfoMultiple+0x6e>
    11a8:	ffff0010 	.word	0xffff0010
    11ac:	ffff0006 	.word	0xffff0006

000011b0 <TEE_ResetOperation>:
TEE_ResetOperation():
/home/yin/imx-optee/imx-optee-os/lib/libutee/tee_api_operations.c:472
    11b0:	b510      	push	{r4, lr}
/home/yin/imx-optee/imx-optee-os/lib/libutee/tee_api_operations.c:475
    11b2:	4604      	mov	r4, r0
    11b4:	b908      	cbnz	r0, 11ba <TEE_ResetOperation+0xa>
/home/yin/imx-optee/imx-optee-os/lib/libutee/tee_api_operations.c:476
    11b6:	f003 ff67 	bl	5088 <TEE_Panic>
/home/yin/imx-optee/imx-optee-os/lib/libutee/tee_api_operations.c:478
    11ba:	69e0      	ldr	r0, [r4, #28]
    11bc:	f410 2080 	ands.w	r0, r0, #262144	; 0x40000
    11c0:	d101      	bne.n	11c6 <TEE_ResetOperation+0x16>
/home/yin/imx-optee/imx-optee-os/lib/libutee/tee_api_operations.c:479
    11c2:	f003 ff61 	bl	5088 <TEE_Panic>
/home/yin/imx-optee/imx-optee-os/lib/libutee/tee_api_operations.c:483
    11c6:	6863      	ldr	r3, [r4, #4]
/home/yin/imx-optee/imx-optee-os/lib/libutee/tee_api_operations.c:481
    11c8:	2200      	movs	r2, #0
    11ca:	62a2      	str	r2, [r4, #40]	; 0x28
/home/yin/imx-optee/imx-optee-os/lib/libutee/tee_api_operations.c:483
    11cc:	2b05      	cmp	r3, #5
    11ce:	d10b      	bne.n	11e8 <TEE_ResetOperation+0x38>
/home/yin/imx-optee/imx-optee-os/lib/libutee/tee_api_operations.c:484
    11d0:	4611      	mov	r1, r2
    11d2:	6be0      	ldr	r0, [r4, #60]	; 0x3c
    11d4:	f001 e8d8 	blx	2388 <utee_hash_init>
/home/yin/imx-optee/imx-optee-os/lib/libutee/tee_api_operations.c:485
    11d8:	b108      	cbz	r0, 11de <TEE_ResetOperation+0x2e>
/home/yin/imx-optee/imx-optee-os/lib/libutee/tee_api_operations.c:486
    11da:	f003 ff55 	bl	5088 <TEE_Panic>
/home/yin/imx-optee/imx-optee-os/lib/libutee/tee_api_operations.c:487
    11de:	69e3      	ldr	r3, [r4, #28]
    11e0:	f443 3300 	orr.w	r3, r3, #131072	; 0x20000
/home/yin/imx-optee/imx-optee-os/lib/libutee/tee_api_operations.c:489
    11e4:	61e3      	str	r3, [r4, #28]
    11e6:	bd10      	pop	{r4, pc}
    11e8:	69e3      	ldr	r3, [r4, #28]
    11ea:	f423 3300 	bic.w	r3, r3, #131072	; 0x20000
    11ee:	e7f9      	b.n	11e4 <TEE_ResetOperation+0x34>

000011f0 <TEE_SetOperationKey>:
TEE_SetOperationKey():
/home/yin/imx-optee/imx-optee-os/lib/libutee/tee_api_operations.c:495
    11f0:	b5f0      	push	{r4, r5, r6, r7, lr}
    11f2:	460e      	mov	r6, r1
    11f4:	b089      	sub	sp, #36	; 0x24
/home/yin/imx-optee/imx-optee-os/lib/libutee/tee_api_operations.c:500
    11f6:	4604      	mov	r4, r0
    11f8:	b128      	cbz	r0, 1206 <TEE_SetOperationKey+0x16>
/home/yin/imx-optee/imx-optee-os/lib/libutee/tee_api_operations.c:505
    11fa:	6a83      	ldr	r3, [r0, #40]	; 0x28
    11fc:	b91b      	cbnz	r3, 1206 <TEE_SetOperationKey+0x16>
/home/yin/imx-optee/imx-optee-os/lib/libutee/tee_api_operations.c:510
    11fe:	b921      	cbnz	r1, 120a <TEE_SetOperationKey+0x1a>
/home/yin/imx-optee/imx-optee-os/lib/libutee/tee_api_operations.c:512
    1200:	6a00      	ldr	r0, [r0, #32]
    1202:	f7ff f965 	bl	4d0 <TEE_ResetTransientObject>
/home/yin/imx-optee/imx-optee-os/lib/libutee/tee_api_operations.c:495
    1206:	4d1a      	ldr	r5, [pc, #104]	; (1270 <TEE_SetOperationKey+0x80>)
    1208:	e02e      	b.n	1268 <TEE_SetOperationKey+0x78>
/home/yin/imx-optee/imx-optee-os/lib/libutee/tee_api_operations.c:518
    120a:	6843      	ldr	r3, [r0, #4]
    120c:	2b05      	cmp	r3, #5
    120e:	d0fa      	beq.n	1206 <TEE_SetOperationKey+0x16>
/home/yin/imx-optee/imx-optee-os/lib/libutee/tee_api_operations.c:524
    1210:	69c3      	ldr	r3, [r0, #28]
    1212:	031b      	lsls	r3, r3, #12
    1214:	d4f7      	bmi.n	1206 <TEE_SetOperationKey+0x16>
/home/yin/imx-optee/imx-optee-os/lib/libutee/tee_api_operations.c:530
    1216:	a901      	add	r1, sp, #4
    1218:	4630      	mov	r0, r6
    121a:	f7ff f86f 	bl	2fc <TEE_GetObjectInfo1>
/home/yin/imx-optee/imx-optee-os/lib/libutee/tee_api_operations.c:532
    121e:	4605      	mov	r5, r0
    1220:	b9e0      	cbnz	r0, 125c <TEE_SetOperationKey+0x6c>
/home/yin/imx-optee/imx-optee-os/lib/libutee/tee_api_operations.c:536
    1222:	69a3      	ldr	r3, [r4, #24]
    1224:	9a04      	ldr	r2, [sp, #16]
    1226:	4393      	bics	r3, r2
    1228:	d1ed      	bne.n	1206 <TEE_SetOperationKey+0x16>
/home/yin/imx-optee/imx-optee-os/lib/libutee/tee_api_operations.c:542
    122a:	9f02      	ldr	r7, [sp, #8]
    122c:	6923      	ldr	r3, [r4, #16]
    122e:	42bb      	cmp	r3, r7
    1230:	d3e9      	bcc.n	1206 <TEE_SetOperationKey+0x16>
/home/yin/imx-optee/imx-optee-os/lib/libutee/tee_api_operations.c:549
    1232:	6a20      	ldr	r0, [r4, #32]
    1234:	f7ff f94c 	bl	4d0 <TEE_ResetTransientObject>
/home/yin/imx-optee/imx-optee-os/lib/libutee/tee_api_operations.c:550
    1238:	69e3      	ldr	r3, [r4, #28]
/home/yin/imx-optee/imx-optee-os/lib/libutee/tee_api_operations.c:552
    123a:	4631      	mov	r1, r6
    123c:	6a20      	ldr	r0, [r4, #32]
/home/yin/imx-optee/imx-optee-os/lib/libutee/tee_api_operations.c:550
    123e:	f423 2380 	bic.w	r3, r3, #262144	; 0x40000
    1242:	61e3      	str	r3, [r4, #28]
/home/yin/imx-optee/imx-optee-os/lib/libutee/tee_api_operations.c:552
    1244:	f7ff f9b6 	bl	5b4 <TEE_CopyObjectAttributes1>
/home/yin/imx-optee/imx-optee-os/lib/libutee/tee_api_operations.c:553
    1248:	4605      	mov	r5, r0
    124a:	b938      	cbnz	r0, 125c <TEE_SetOperationKey+0x6c>
/home/yin/imx-optee/imx-optee-os/lib/libutee/tee_api_operations.c:556
    124c:	69e3      	ldr	r3, [r4, #28]
/home/yin/imx-optee/imx-optee-os/lib/libutee/tee_api_operations.c:558
    124e:	6167      	str	r7, [r4, #20]
/home/yin/imx-optee/imx-optee-os/lib/libutee/tee_api_operations.c:556
    1250:	f443 2380 	orr.w	r3, r3, #262144	; 0x40000
    1254:	61e3      	str	r3, [r4, #28]
/home/yin/imx-optee/imx-optee-os/lib/libutee/tee_api_operations.c:567
    1256:	4628      	mov	r0, r5
    1258:	b009      	add	sp, #36	; 0x24
    125a:	bdf0      	pop	{r4, r5, r6, r7, pc}
/home/yin/imx-optee/imx-optee-os/lib/libutee/tee_api_operations.c:561
    125c:	4b05      	ldr	r3, [pc, #20]	; (1274 <TEE_SetOperationKey+0x84>)
    125e:	429d      	cmp	r5, r3
    1260:	d0f9      	beq.n	1256 <TEE_SetOperationKey+0x66>
/home/yin/imx-optee/imx-optee-os/lib/libutee/tee_api_operations.c:562
    1262:	4b05      	ldr	r3, [pc, #20]	; (1278 <TEE_SetOperationKey+0x88>)
    1264:	429d      	cmp	r5, r3
    1266:	d0f6      	beq.n	1256 <TEE_SetOperationKey+0x66>
/home/yin/imx-optee/imx-optee-os/lib/libutee/tee_api_operations.c:564
    1268:	4628      	mov	r0, r5
    126a:	f003 ff0d 	bl	5088 <TEE_Panic>
/home/yin/imx-optee/imx-optee-os/lib/libutee/tee_api_operations.c:566
    126e:	e7f2      	b.n	1256 <TEE_SetOperationKey+0x66>
    1270:	ffff0006 	.word	0xffff0006
    1274:	f0100001 	.word	0xf0100001
    1278:	f0100003 	.word	0xf0100003

0000127c <TEE_SetOperationKey2>:
TEE_SetOperationKey2():
/home/yin/imx-optee/imx-optee-os/lib/libutee/tee_api_operations.c:571
    127c:	e92d 41f0 	stmdb	sp!, {r4, r5, r6, r7, r8, lr}
    1280:	4688      	mov	r8, r1
    1282:	b08e      	sub	sp, #56	; 0x38
    1284:	4616      	mov	r6, r2
/home/yin/imx-optee/imx-optee-os/lib/libutee/tee_api_operations.c:577
    1286:	4604      	mov	r4, r0
    1288:	b130      	cbz	r0, 1298 <TEE_SetOperationKey2+0x1c>
/home/yin/imx-optee/imx-optee-os/lib/libutee/tee_api_operations.c:582
    128a:	6a83      	ldr	r3, [r0, #40]	; 0x28
    128c:	b923      	cbnz	r3, 1298 <TEE_SetOperationKey2+0x1c>
/home/yin/imx-optee/imx-optee-os/lib/libutee/tee_api_operations.c:591
    128e:	b129      	cbz	r1, 129c <TEE_SetOperationKey2+0x20>
/home/yin/imx-optee/imx-optee-os/lib/libutee/tee_api_operations.c:591 (discriminator 1)
    1290:	b952      	cbnz	r2, 12a8 <TEE_SetOperationKey2+0x2c>
/home/yin/imx-optee/imx-optee-os/lib/libutee/tee_api_operations.c:597
    1292:	6a60      	ldr	r0, [r4, #36]	; 0x24
    1294:	f7ff f91c 	bl	4d0 <TEE_ResetTransientObject>
/home/yin/imx-optee/imx-optee-os/lib/libutee/tee_api_operations.c:571
    1298:	4d31      	ldr	r5, [pc, #196]	; (1360 <TEE_SetOperationKey2+0xe4>)
    129a:	e05c      	b.n	1356 <TEE_SetOperationKey2+0xda>
/home/yin/imx-optee/imx-optee-os/lib/libutee/tee_api_operations.c:594
    129c:	6a00      	ldr	r0, [r0, #32]
    129e:	f7ff f917 	bl	4d0 <TEE_ResetTransientObject>
/home/yin/imx-optee/imx-optee-os/lib/libutee/tee_api_operations.c:596
    12a2:	2e00      	cmp	r6, #0
    12a4:	d1f8      	bne.n	1298 <TEE_SetOperationKey2+0x1c>
    12a6:	e7f4      	b.n	1292 <TEE_SetOperationKey2+0x16>
/home/yin/imx-optee/imx-optee-os/lib/libutee/tee_api_operations.c:603
    12a8:	6843      	ldr	r3, [r0, #4]
    12aa:	2b05      	cmp	r3, #5
    12ac:	d0f4      	beq.n	1298 <TEE_SetOperationKey2+0x1c>
/home/yin/imx-optee/imx-optee-os/lib/libutee/tee_api_operations.c:609
    12ae:	69c3      	ldr	r3, [r0, #28]
    12b0:	031b      	lsls	r3, r3, #12
    12b2:	d5f1      	bpl.n	1298 <TEE_SetOperationKey2+0x1c>
/home/yin/imx-optee/imx-optee-os/lib/libutee/tee_api_operations.c:615
    12b4:	4669      	mov	r1, sp
    12b6:	4640      	mov	r0, r8
    12b8:	f7ff f820 	bl	2fc <TEE_GetObjectInfo1>
/home/yin/imx-optee/imx-optee-os/lib/libutee/tee_api_operations.c:617
    12bc:	4605      	mov	r5, r0
    12be:	2800      	cmp	r0, #0
    12c0:	d13d      	bne.n	133e <TEE_SetOperationKey2+0xc2>
/home/yin/imx-optee/imx-optee-os/lib/libutee/tee_api_operations.c:621
    12c2:	69a3      	ldr	r3, [r4, #24]
    12c4:	9a03      	ldr	r2, [sp, #12]
    12c6:	4393      	bics	r3, r2
    12c8:	d1e6      	bne.n	1298 <TEE_SetOperationKey2+0x1c>
/home/yin/imx-optee/imx-optee-os/lib/libutee/tee_api_operations.c:627
    12ca:	a907      	add	r1, sp, #28
    12cc:	4630      	mov	r0, r6
    12ce:	f7ff f815 	bl	2fc <TEE_GetObjectInfo1>
/home/yin/imx-optee/imx-optee-os/lib/libutee/tee_api_operations.c:629
    12d2:	4605      	mov	r5, r0
    12d4:	b120      	cbz	r0, 12e0 <TEE_SetOperationKey2+0x64>
/home/yin/imx-optee/imx-optee-os/lib/libutee/tee_api_operations.c:674
    12d6:	4b23      	ldr	r3, [pc, #140]	; (1364 <TEE_SetOperationKey2+0xe8>)
    12d8:	429d      	cmp	r5, r3
    12da:	d133      	bne.n	1344 <TEE_SetOperationKey2+0xc8>
/home/yin/imx-optee/imx-optee-os/lib/libutee/tee_api_operations.c:571
    12dc:	4d22      	ldr	r5, [pc, #136]	; (1368 <TEE_SetOperationKey2+0xec>)
    12de:	e02a      	b.n	1336 <TEE_SetOperationKey2+0xba>
/home/yin/imx-optee/imx-optee-os/lib/libutee/tee_api_operations.c:636
    12e0:	69a3      	ldr	r3, [r4, #24]
    12e2:	9a0a      	ldr	r2, [sp, #40]	; 0x28
    12e4:	4393      	bics	r3, r2
    12e6:	d1d7      	bne.n	1298 <TEE_SetOperationKey2+0x1c>
/home/yin/imx-optee/imx-optee-os/lib/libutee/tee_api_operations.c:646
    12e8:	6822      	ldr	r2, [r4, #0]
    12ea:	4b20      	ldr	r3, [pc, #128]	; (136c <TEE_SetOperationKey2+0xf0>)
    12ec:	9f01      	ldr	r7, [sp, #4]
    12ee:	429a      	cmp	r2, r3
    12f0:	d102      	bne.n	12f8 <TEE_SetOperationKey2+0x7c>
/home/yin/imx-optee/imx-optee-os/lib/libutee/tee_api_operations.c:646 (discriminator 1)
    12f2:	9b08      	ldr	r3, [sp, #32]
    12f4:	429f      	cmp	r7, r3
    12f6:	d1cf      	bne.n	1298 <TEE_SetOperationKey2+0x1c>
/home/yin/imx-optee/imx-optee-os/lib/libutee/tee_api_operations.c:653
    12f8:	6923      	ldr	r3, [r4, #16]
    12fa:	42bb      	cmp	r3, r7
    12fc:	d3cc      	bcc.n	1298 <TEE_SetOperationKey2+0x1c>
/home/yin/imx-optee/imx-optee-os/lib/libutee/tee_api_operations.c:664
    12fe:	6a20      	ldr	r0, [r4, #32]
    1300:	f7ff f8e6 	bl	4d0 <TEE_ResetTransientObject>
/home/yin/imx-optee/imx-optee-os/lib/libutee/tee_api_operations.c:665
    1304:	6a60      	ldr	r0, [r4, #36]	; 0x24
    1306:	f7ff f8e3 	bl	4d0 <TEE_ResetTransientObject>
/home/yin/imx-optee/imx-optee-os/lib/libutee/tee_api_operations.c:666
    130a:	69e3      	ldr	r3, [r4, #28]
/home/yin/imx-optee/imx-optee-os/lib/libutee/tee_api_operations.c:668
    130c:	4641      	mov	r1, r8
    130e:	6a20      	ldr	r0, [r4, #32]
/home/yin/imx-optee/imx-optee-os/lib/libutee/tee_api_operations.c:666
    1310:	f423 2380 	bic.w	r3, r3, #262144	; 0x40000
    1314:	61e3      	str	r3, [r4, #28]
/home/yin/imx-optee/imx-optee-os/lib/libutee/tee_api_operations.c:668
    1316:	f7ff f94d 	bl	5b4 <TEE_CopyObjectAttributes1>
/home/yin/imx-optee/imx-optee-os/lib/libutee/tee_api_operations.c:669
    131a:	4605      	mov	r5, r0
    131c:	b978      	cbnz	r0, 133e <TEE_SetOperationKey2+0xc2>
/home/yin/imx-optee/imx-optee-os/lib/libutee/tee_api_operations.c:672
    131e:	4631      	mov	r1, r6
    1320:	6a60      	ldr	r0, [r4, #36]	; 0x24
    1322:	f7ff f947 	bl	5b4 <TEE_CopyObjectAttributes1>
/home/yin/imx-optee/imx-optee-os/lib/libutee/tee_api_operations.c:673
    1326:	4605      	mov	r5, r0
    1328:	2800      	cmp	r0, #0
    132a:	d1d4      	bne.n	12d6 <TEE_SetOperationKey2+0x5a>
/home/yin/imx-optee/imx-optee-os/lib/libutee/tee_api_operations.c:679
    132c:	69e3      	ldr	r3, [r4, #28]
/home/yin/imx-optee/imx-optee-os/lib/libutee/tee_api_operations.c:681
    132e:	6167      	str	r7, [r4, #20]
/home/yin/imx-optee/imx-optee-os/lib/libutee/tee_api_operations.c:679
    1330:	f443 2380 	orr.w	r3, r3, #262144	; 0x40000
    1334:	61e3      	str	r3, [r4, #28]
/home/yin/imx-optee/imx-optee-os/lib/libutee/tee_api_operations.c:692
    1336:	4628      	mov	r0, r5
    1338:	b00e      	add	sp, #56	; 0x38
    133a:	e8bd 81f0 	ldmia.w	sp!, {r4, r5, r6, r7, r8, pc}
/home/yin/imx-optee/imx-optee-os/lib/libutee/tee_api_operations.c:684
    133e:	4b09      	ldr	r3, [pc, #36]	; (1364 <TEE_SetOperationKey2+0xe8>)
    1340:	429d      	cmp	r5, r3
    1342:	d0f8      	beq.n	1336 <TEE_SetOperationKey2+0xba>
/home/yin/imx-optee/imx-optee-os/lib/libutee/tee_api_operations.c:685
    1344:	4b08      	ldr	r3, [pc, #32]	; (1368 <TEE_SetOperationKey2+0xec>)
    1346:	429d      	cmp	r5, r3
    1348:	d0c8      	beq.n	12dc <TEE_SetOperationKey2+0x60>
/home/yin/imx-optee/imx-optee-os/lib/libutee/tee_api_operations.c:686
    134a:	3301      	adds	r3, #1
    134c:	429d      	cmp	r5, r3
    134e:	d0f2      	beq.n	1336 <TEE_SetOperationKey2+0xba>
/home/yin/imx-optee/imx-optee-os/lib/libutee/tee_api_operations.c:687
    1350:	3301      	adds	r3, #1
    1352:	429d      	cmp	r5, r3
    1354:	d0ef      	beq.n	1336 <TEE_SetOperationKey2+0xba>
/home/yin/imx-optee/imx-optee-os/lib/libutee/tee_api_operations.c:689
    1356:	4628      	mov	r0, r5
    1358:	f003 fe96 	bl	5088 <TEE_Panic>
/home/yin/imx-optee/imx-optee-os/lib/libutee/tee_api_operations.c:691
    135c:	e7eb      	b.n	1336 <TEE_SetOperationKey2+0xba>
    135e:	bf00      	nop
    1360:	ffff0006 	.word	0xffff0006
    1364:	f0100001 	.word	0xf0100001
    1368:	f0100002 	.word	0xf0100002
    136c:	10000410 	.word	0x10000410

00001370 <TEE_CopyOperation>:
TEE_CopyOperation():
/home/yin/imx-optee/imx-optee-os/lib/libutee/tee_api_operations.c:695
    1370:	b538      	push	{r3, r4, r5, lr}
    1372:	460c      	mov	r4, r1
/home/yin/imx-optee/imx-optee-os/lib/libutee/tee_api_operations.c:698
    1374:	4605      	mov	r5, r0
    1376:	b100      	cbz	r0, 137a <TEE_CopyOperation+0xa>
/home/yin/imx-optee/imx-optee-os/lib/libutee/tee_api_operations.c:698 (discriminator 1)
    1378:	b911      	cbnz	r1, 1380 <TEE_CopyOperation+0x10>
/home/yin/imx-optee/imx-optee-os/lib/libutee/tee_api_operations.c:699
    137a:	2000      	movs	r0, #0
    137c:	f003 fe84 	bl	5088 <TEE_Panic>
/home/yin/imx-optee/imx-optee-os/lib/libutee/tee_api_operations.c:700
    1380:	682a      	ldr	r2, [r5, #0]
    1382:	6823      	ldr	r3, [r4, #0]
    1384:	429a      	cmp	r2, r3
    1386:	d002      	beq.n	138e <TEE_CopyOperation+0x1e>
/home/yin/imx-optee/imx-optee-os/lib/libutee/tee_api_operations.c:701
    1388:	2000      	movs	r0, #0
    138a:	f003 fe7d 	bl	5088 <TEE_Panic>
/home/yin/imx-optee/imx-optee-os/lib/libutee/tee_api_operations.c:702
    138e:	6863      	ldr	r3, [r4, #4]
    1390:	2b05      	cmp	r3, #5
    1392:	d00b      	beq.n	13ac <TEE_CopyOperation+0x3c>
/home/yin/imx-optee/imx-optee-os/lib/libutee/tee_api_operations.c:706
    1394:	69e3      	ldr	r3, [r4, #28]
/home/yin/imx-optee/imx-optee-os/lib/libutee/tee_api_operations.c:713
    1396:	4628      	mov	r0, r5
/home/yin/imx-optee/imx-optee-os/lib/libutee/tee_api_operations.c:706
    1398:	f413 2280 	ands.w	r2, r3, #262144	; 0x40000
/home/yin/imx-optee/imx-optee-os/lib/libutee/tee_api_operations.c:707
    139c:	bf16      	itet	ne
    139e:	6a21      	ldrne	r1, [r4, #32]
/home/yin/imx-optee/imx-optee-os/lib/libutee/tee_api_operations.c:703
    13a0:	4611      	moveq	r1, r2
/home/yin/imx-optee/imx-optee-os/lib/libutee/tee_api_operations.c:708
    13a2:	6a62      	ldrne	r2, [r4, #36]	; 0x24
/home/yin/imx-optee/imx-optee-os/lib/libutee/tee_api_operations.c:711
    13a4:	031b      	lsls	r3, r3, #12
    13a6:	d42b      	bmi.n	1400 <TEE_CopyOperation+0x90>
/home/yin/imx-optee/imx-optee-os/lib/libutee/tee_api_operations.c:713
    13a8:	f7ff ff22 	bl	11f0 <TEE_SetOperationKey>
/home/yin/imx-optee/imx-optee-os/lib/libutee/tee_api_operations.c:718
    13ac:	69e3      	ldr	r3, [r4, #28]
/home/yin/imx-optee/imx-optee-os/lib/libutee/tee_api_operations.c:722
    13ae:	f895 2030 	ldrb.w	r2, [r5, #48]	; 0x30
/home/yin/imx-optee/imx-optee-os/lib/libutee/tee_api_operations.c:718
    13b2:	61eb      	str	r3, [r5, #28]
/home/yin/imx-optee/imx-optee-os/lib/libutee/tee_api_operations.c:719
    13b4:	6963      	ldr	r3, [r4, #20]
    13b6:	616b      	str	r3, [r5, #20]
/home/yin/imx-optee/imx-optee-os/lib/libutee/tee_api_operations.c:720
    13b8:	6aa3      	ldr	r3, [r4, #40]	; 0x28
    13ba:	62ab      	str	r3, [r5, #40]	; 0x28
/home/yin/imx-optee/imx-optee-os/lib/libutee/tee_api_operations.c:722
    13bc:	f894 3030 	ldrb.w	r3, [r4, #48]	; 0x30
    13c0:	429a      	cmp	r2, r3
    13c2:	d103      	bne.n	13cc <TEE_CopyOperation+0x5c>
/home/yin/imx-optee/imx-optee-os/lib/libutee/tee_api_operations.c:722 (discriminator 1)
    13c4:	6b6a      	ldr	r2, [r5, #52]	; 0x34
    13c6:	6b63      	ldr	r3, [r4, #52]	; 0x34
    13c8:	429a      	cmp	r2, r3
    13ca:	d002      	beq.n	13d2 <TEE_CopyOperation+0x62>
/home/yin/imx-optee/imx-optee-os/lib/libutee/tee_api_operations.c:724
    13cc:	2000      	movs	r0, #0
    13ce:	f003 fe5b 	bl	5088 <TEE_Panic>
/home/yin/imx-optee/imx-optee-os/lib/libutee/tee_api_operations.c:726
    13d2:	6ae8      	ldr	r0, [r5, #44]	; 0x2c
    13d4:	6ae3      	ldr	r3, [r4, #44]	; 0x2c
    13d6:	b1b0      	cbz	r0, 1406 <TEE_CopyOperation+0x96>
/home/yin/imx-optee/imx-optee-os/lib/libutee/tee_api_operations.c:727
    13d8:	b913      	cbnz	r3, 13e0 <TEE_CopyOperation+0x70>
/home/yin/imx-optee/imx-optee-os/lib/libutee/tee_api_operations.c:728
    13da:	4618      	mov	r0, r3
    13dc:	f003 fe54 	bl	5088 <TEE_Panic>
/home/yin/imx-optee/imx-optee-os/lib/libutee/tee_api_operations.c:730
    13e0:	6ba2      	ldr	r2, [r4, #56]	; 0x38
    13e2:	6ae1      	ldr	r1, [r4, #44]	; 0x2c
    13e4:	6ae8      	ldr	r0, [r5, #44]	; 0x2c
    13e6:	f003 fe76 	bl	50d6 <memcpy>
/home/yin/imx-optee/imx-optee-os/lib/libutee/tee_api_operations.c:731
    13ea:	6ba3      	ldr	r3, [r4, #56]	; 0x38
    13ec:	63ab      	str	r3, [r5, #56]	; 0x38
/home/yin/imx-optee/imx-optee-os/lib/libutee/tee_api_operations.c:736
    13ee:	6be1      	ldr	r1, [r4, #60]	; 0x3c
    13f0:	6be8      	ldr	r0, [r5, #60]	; 0x3c
    13f2:	f000 efb6 	blx	2360 <utee_cryp_state_copy>
/home/yin/imx-optee/imx-optee-os/lib/libutee/tee_api_operations.c:737
    13f6:	b158      	cbz	r0, 1410 <TEE_CopyOperation+0xa0>
/home/yin/imx-optee/imx-optee-os/lib/libutee/tee_api_operations.c:739
    13f8:	e8bd 4038 	ldmia.w	sp!, {r3, r4, r5, lr}
/home/yin/imx-optee/imx-optee-os/lib/libutee/tee_api_operations.c:738
    13fc:	f003 be44 	b.w	5088 <TEE_Panic>
/home/yin/imx-optee/imx-optee-os/lib/libutee/tee_api_operations.c:715
    1400:	f7ff ff3c 	bl	127c <TEE_SetOperationKey2>
    1404:	e7d2      	b.n	13ac <TEE_CopyOperation+0x3c>
/home/yin/imx-optee/imx-optee-os/lib/libutee/tee_api_operations.c:732
    1406:	2b00      	cmp	r3, #0
    1408:	d0f1      	beq.n	13ee <TEE_CopyOperation+0x7e>
/home/yin/imx-optee/imx-optee-os/lib/libutee/tee_api_operations.c:733
    140a:	f003 fe3d 	bl	5088 <TEE_Panic>
    140e:	e7ee      	b.n	13ee <TEE_CopyOperation+0x7e>
    1410:	bd38      	pop	{r3, r4, r5, pc}

00001412 <TEE_DigestUpdate>:
TEE_DigestUpdate():
/home/yin/imx-optee/imx-optee-os/lib/libutee/tee_api_operations.c:761
    1412:	b570      	push	{r4, r5, r6, lr}
    1414:	460d      	mov	r5, r1
    1416:	4616      	mov	r6, r2
/home/yin/imx-optee/imx-optee-os/lib/libutee/tee_api_operations.c:764
    1418:	4604      	mov	r4, r0
    141a:	b110      	cbz	r0, 1422 <TEE_DigestUpdate+0x10>
/home/yin/imx-optee/imx-optee-os/lib/libutee/tee_api_operations.c:764 (discriminator 1)
    141c:	6843      	ldr	r3, [r0, #4]
    141e:	2b05      	cmp	r3, #5
    1420:	d002      	beq.n	1428 <TEE_DigestUpdate+0x16>
/home/yin/imx-optee/imx-optee-os/lib/libutee/tee_api_operations.c:766
    1422:	2000      	movs	r0, #0
    1424:	f003 fe30 	bl	5088 <TEE_Panic>
/home/yin/imx-optee/imx-optee-os/lib/libutee/tee_api_operations.c:768
    1428:	2301      	movs	r3, #1
/home/yin/imx-optee/imx-optee-os/lib/libutee/tee_api_operations.c:770
    142a:	4632      	mov	r2, r6
/home/yin/imx-optee/imx-optee-os/lib/libutee/tee_api_operations.c:768
    142c:	62a3      	str	r3, [r4, #40]	; 0x28
/home/yin/imx-optee/imx-optee-os/lib/libutee/tee_api_operations.c:770
    142e:	4629      	mov	r1, r5
    1430:	6be0      	ldr	r0, [r4, #60]	; 0x3c
    1432:	f000 efb4 	blx	239c <utee_hash_update>
/home/yin/imx-optee/imx-optee-os/lib/libutee/tee_api_operations.c:771
    1436:	b118      	cbz	r0, 1440 <TEE_DigestUpdate+0x2e>
/home/yin/imx-optee/imx-optee-os/lib/libutee/tee_api_operations.c:773
    1438:	e8bd 4070 	ldmia.w	sp!, {r4, r5, r6, lr}
/home/yin/imx-optee/imx-optee-os/lib/libutee/tee_api_operations.c:772
    143c:	f003 be24 	b.w	5088 <TEE_Panic>
    1440:	bd70      	pop	{r4, r5, r6, pc}

00001442 <TEE_DigestDoFinal>:
TEE_DigestDoFinal():
/home/yin/imx-optee/imx-optee-os/lib/libutee/tee_api_operations.c:777
    1442:	b530      	push	{r4, r5, lr}
    1444:	b085      	sub	sp, #20
    1446:	9c08      	ldr	r4, [sp, #32]
/home/yin/imx-optee/imx-optee-os/lib/libutee/tee_api_operations.c:781
    1448:	4605      	mov	r5, r0
    144a:	b328      	cbz	r0, 1498 <TEE_DigestDoFinal+0x56>
/home/yin/imx-optee/imx-optee-os/lib/libutee/tee_api_operations.c:781 (discriminator 1)
    144c:	b901      	cbnz	r1, 1450 <TEE_DigestDoFinal+0xe>
/home/yin/imx-optee/imx-optee-os/lib/libutee/tee_api_operations.c:782
    144e:	bb1a      	cbnz	r2, 1498 <TEE_DigestDoFinal+0x56>
/home/yin/imx-optee/imx-optee-os/lib/libutee/tee_api_operations.c:782 (discriminator 1)
    1450:	b313      	cbz	r3, 1498 <TEE_DigestDoFinal+0x56>
/home/yin/imx-optee/imx-optee-os/lib/libutee/tee_api_operations.c:783
    1452:	b30c      	cbz	r4, 1498 <TEE_DigestDoFinal+0x56>
/home/yin/imx-optee/imx-optee-os/lib/libutee/tee_api_operations.c:784
    1454:	6868      	ldr	r0, [r5, #4]
    1456:	2805      	cmp	r0, #5
    1458:	d11e      	bne.n	1498 <TEE_DigestDoFinal+0x56>
/home/yin/imx-optee/imx-optee-os/lib/libutee/tee_api_operations.c:790
    145a:	6820      	ldr	r0, [r4, #0]
    145c:	9002      	str	r0, [sp, #8]
    145e:	2000      	movs	r0, #0
    1460:	9003      	str	r0, [sp, #12]
/home/yin/imx-optee/imx-optee-os/lib/libutee/tee_api_operations.c:791
    1462:	a802      	add	r0, sp, #8
    1464:	9000      	str	r0, [sp, #0]
    1466:	6be8      	ldr	r0, [r5, #60]	; 0x3c
    1468:	f000 efa2 	blx	23b0 <utee_hash_final>
/home/yin/imx-optee/imx-optee-os/lib/libutee/tee_api_operations.c:792
    146c:	9b02      	ldr	r3, [sp, #8]
    146e:	6023      	str	r3, [r4, #0]
/home/yin/imx-optee/imx-optee-os/lib/libutee/tee_api_operations.c:793
    1470:	4604      	mov	r4, r0
    1472:	b9b0      	cbnz	r0, 14a2 <TEE_DigestDoFinal+0x60>
init_hash_operation():
/home/yin/imx-optee/imx-optee-os/lib/libutee/tee_api_operations.c:752
    1474:	4602      	mov	r2, r0
    1476:	4601      	mov	r1, r0
    1478:	6be8      	ldr	r0, [r5, #60]	; 0x3c
    147a:	f000 ef86 	blx	2388 <utee_hash_init>
/home/yin/imx-optee/imx-optee-os/lib/libutee/tee_api_operations.c:753
    147e:	b108      	cbz	r0, 1484 <TEE_DigestDoFinal+0x42>
/home/yin/imx-optee/imx-optee-os/lib/libutee/tee_api_operations.c:754
    1480:	f003 fe02 	bl	5088 <TEE_Panic>
/home/yin/imx-optee/imx-optee-os/lib/libutee/tee_api_operations.c:756
    1484:	69eb      	ldr	r3, [r5, #28]
/home/yin/imx-optee/imx-optee-os/lib/libutee/tee_api_operations.c:755
    1486:	2200      	movs	r2, #0
    1488:	63aa      	str	r2, [r5, #56]	; 0x38
TEE_DigestDoFinal():
/home/yin/imx-optee/imx-optee-os/lib/libutee/tee_api_operations.c:799
    148a:	62aa      	str	r2, [r5, #40]	; 0x28
init_hash_operation():
/home/yin/imx-optee/imx-optee-os/lib/libutee/tee_api_operations.c:756
    148c:	f443 3300 	orr.w	r3, r3, #131072	; 0x20000
    1490:	61eb      	str	r3, [r5, #28]
TEE_DigestDoFinal():
/home/yin/imx-optee/imx-optee-os/lib/libutee/tee_api_operations.c:807
    1492:	4620      	mov	r0, r4
    1494:	b005      	add	sp, #20
    1496:	bd30      	pop	{r4, r5, pc}
    1498:	4c04      	ldr	r4, [pc, #16]	; (14ac <TEE_DigestDoFinal+0x6a>)
/home/yin/imx-optee/imx-optee-os/lib/libutee/tee_api_operations.c:804
    149a:	4620      	mov	r0, r4
    149c:	f003 fdf4 	bl	5088 <TEE_Panic>
/home/yin/imx-optee/imx-optee-os/lib/libutee/tee_api_operations.c:806
    14a0:	e7f7      	b.n	1492 <TEE_DigestDoFinal+0x50>
/home/yin/imx-optee/imx-optee-os/lib/libutee/tee_api_operations.c:802
    14a2:	4b03      	ldr	r3, [pc, #12]	; (14b0 <TEE_DigestDoFinal+0x6e>)
    14a4:	4298      	cmp	r0, r3
    14a6:	d0f4      	beq.n	1492 <TEE_DigestDoFinal+0x50>
    14a8:	e7f7      	b.n	149a <TEE_DigestDoFinal+0x58>
    14aa:	bf00      	nop
    14ac:	ffff0006 	.word	0xffff0006
    14b0:	ffff0010 	.word	0xffff0010

000014b4 <TEE_CipherInit>:
TEE_CipherInit():
/home/yin/imx-optee/imx-optee-os/lib/libutee/tee_api_operations.c:813
    14b4:	b570      	push	{r4, r5, r6, lr}
    14b6:	460d      	mov	r5, r1
    14b8:	4616      	mov	r6, r2
/home/yin/imx-optee/imx-optee-os/lib/libutee/tee_api_operations.c:816
    14ba:	4604      	mov	r4, r0
    14bc:	b908      	cbnz	r0, 14c2 <TEE_CipherInit+0xe>
/home/yin/imx-optee/imx-optee-os/lib/libutee/tee_api_operations.c:817
    14be:	f003 fde3 	bl	5088 <TEE_Panic>
/home/yin/imx-optee/imx-optee-os/lib/libutee/tee_api_operations.c:819
    14c2:	6863      	ldr	r3, [r4, #4]
    14c4:	2b01      	cmp	r3, #1
    14c6:	d002      	beq.n	14ce <TEE_CipherInit+0x1a>
/home/yin/imx-optee/imx-optee-os/lib/libutee/tee_api_operations.c:820
    14c8:	2000      	movs	r0, #0
    14ca:	f003 fddd 	bl	5088 <TEE_Panic>
/home/yin/imx-optee/imx-optee-os/lib/libutee/tee_api_operations.c:822
    14ce:	69e3      	ldr	r3, [r4, #28]
    14d0:	035b      	lsls	r3, r3, #13
    14d2:	d501      	bpl.n	14d8 <TEE_CipherInit+0x24>
/home/yin/imx-optee/imx-optee-os/lib/libutee/tee_api_operations.c:822 (discriminator 1)
    14d4:	6a23      	ldr	r3, [r4, #32]
    14d6:	b913      	cbnz	r3, 14de <TEE_CipherInit+0x2a>
/home/yin/imx-optee/imx-optee-os/lib/libutee/tee_api_operations.c:824
    14d8:	2000      	movs	r0, #0
    14da:	f003 fdd5 	bl	5088 <TEE_Panic>
/home/yin/imx-optee/imx-optee-os/lib/libutee/tee_api_operations.c:826
    14de:	6aa3      	ldr	r3, [r4, #40]	; 0x28
    14e0:	b113      	cbz	r3, 14e8 <TEE_CipherInit+0x34>
/home/yin/imx-optee/imx-optee-os/lib/libutee/tee_api_operations.c:827
    14e2:	4620      	mov	r0, r4
    14e4:	f7ff fe64 	bl	11b0 <TEE_ResetOperation>
/home/yin/imx-optee/imx-optee-os/lib/libutee/tee_api_operations.c:829
    14e8:	2301      	movs	r3, #1
/home/yin/imx-optee/imx-optee-os/lib/libutee/tee_api_operations.c:831
    14ea:	4632      	mov	r2, r6
/home/yin/imx-optee/imx-optee-os/lib/libutee/tee_api_operations.c:829
    14ec:	62a3      	str	r3, [r4, #40]	; 0x28
/home/yin/imx-optee/imx-optee-os/lib/libutee/tee_api_operations.c:831
    14ee:	4629      	mov	r1, r5
    14f0:	6be0      	ldr	r0, [r4, #60]	; 0x3c
    14f2:	f000 ef6a 	blx	23c8 <utee_cipher_init>
/home/yin/imx-optee/imx-optee-os/lib/libutee/tee_api_operations.c:832
    14f6:	b108      	cbz	r0, 14fc <TEE_CipherInit+0x48>
/home/yin/imx-optee/imx-optee-os/lib/libutee/tee_api_operations.c:833
    14f8:	f003 fdc6 	bl	5088 <TEE_Panic>
/home/yin/imx-optee/imx-optee-os/lib/libutee/tee_api_operations.c:835
    14fc:	2300      	movs	r3, #0
    14fe:	63a3      	str	r3, [r4, #56]	; 0x38
/home/yin/imx-optee/imx-optee-os/lib/libutee/tee_api_operations.c:836
    1500:	69e3      	ldr	r3, [r4, #28]
    1502:	f443 3300 	orr.w	r3, r3, #131072	; 0x20000
    1506:	61e3      	str	r3, [r4, #28]
    1508:	bd70      	pop	{r4, r5, r6, pc}

0000150a <TEE_CipherUpdate>:
TEE_CipherUpdate():
/home/yin/imx-optee/imx-optee-os/lib/libutee/tee_api_operations.c:939
    150a:	e92d 47f0 	stmdb	sp!, {r4, r5, r6, r7, r8, r9, sl, lr}
    150e:	b086      	sub	sp, #24
    1510:	f8df a0e8 	ldr.w	sl, [pc, #232]	; 15fc <TEE_CipherUpdate+0xf2>
    1514:	4688      	mov	r8, r1
    1516:	4614      	mov	r4, r2
    1518:	4699      	mov	r9, r3
    151a:	9e0e      	ldr	r6, [sp, #56]	; 0x38
/home/yin/imx-optee/imx-optee-os/lib/libutee/tee_api_operations.c:944
    151c:	4605      	mov	r5, r0
/home/yin/imx-optee/imx-optee-os/lib/libutee/tee_api_operations.c:939
    151e:	44fa      	add	sl, pc
/home/yin/imx-optee/imx-optee-os/lib/libutee/tee_api_operations.c:944
    1520:	2800      	cmp	r0, #0
    1522:	d064      	beq.n	15ee <TEE_CipherUpdate+0xe4>
/home/yin/imx-optee/imx-optee-os/lib/libutee/tee_api_operations.c:944 (discriminator 1)
    1524:	b909      	cbnz	r1, 152a <TEE_CipherUpdate+0x20>
/home/yin/imx-optee/imx-optee-os/lib/libutee/tee_api_operations.c:945
    1526:	2a00      	cmp	r2, #0
    1528:	d161      	bne.n	15ee <TEE_CipherUpdate+0xe4>
/home/yin/imx-optee/imx-optee-os/lib/libutee/tee_api_operations.c:945 (discriminator 1)
    152a:	2e00      	cmp	r6, #0
    152c:	d05f      	beq.n	15ee <TEE_CipherUpdate+0xe4>
/home/yin/imx-optee/imx-optee-os/lib/libutee/tee_api_operations.c:946
    152e:	f1b9 0f00 	cmp.w	r9, #0
    1532:	d102      	bne.n	153a <TEE_CipherUpdate+0x30>
/home/yin/imx-optee/imx-optee-os/lib/libutee/tee_api_operations.c:947
    1534:	6833      	ldr	r3, [r6, #0]
    1536:	2b00      	cmp	r3, #0
    1538:	d159      	bne.n	15ee <TEE_CipherUpdate+0xe4>
/home/yin/imx-optee/imx-optee-os/lib/libutee/tee_api_operations.c:952
    153a:	686b      	ldr	r3, [r5, #4]
    153c:	2b01      	cmp	r3, #1
    153e:	d156      	bne.n	15ee <TEE_CipherUpdate+0xe4>
/home/yin/imx-optee/imx-optee-os/lib/libutee/tee_api_operations.c:957
    1540:	69eb      	ldr	r3, [r5, #28]
    1542:	039b      	lsls	r3, r3, #14
    1544:	d553      	bpl.n	15ee <TEE_CipherUpdate+0xe4>
/home/yin/imx-optee/imx-optee-os/lib/libutee/tee_api_operations.c:962
    1546:	6aab      	ldr	r3, [r5, #40]	; 0x28
    1548:	2b01      	cmp	r3, #1
    154a:	d150      	bne.n	15ee <TEE_CipherUpdate+0xe4>
/home/yin/imx-optee/imx-optee-os/lib/libutee/tee_api_operations.c:967
    154c:	f1b8 0f00 	cmp.w	r8, #0
    1550:	d105      	bne.n	155e <TEE_CipherUpdate+0x54>
/home/yin/imx-optee/imx-optee-os/lib/libutee/tee_api_operations.c:967 (discriminator 1)
    1552:	b924      	cbnz	r4, 155e <TEE_CipherUpdate+0x54>
/home/yin/imx-optee/imx-optee-os/lib/libutee/tee_api_operations.c:968
    1554:	6034      	str	r4, [r6, #0]
/home/yin/imx-optee/imx-optee-os/lib/libutee/tee_api_operations.c:1018
    1556:	4620      	mov	r0, r4
    1558:	b006      	add	sp, #24
    155a:	e8bd 87f0 	ldmia.w	sp!, {r4, r5, r6, r7, r8, r9, sl, pc}
/home/yin/imx-optee/imx-optee-os/lib/libutee/tee_api_operations.c:974
    155e:	6b6f      	ldr	r7, [r5, #52]	; 0x34
    1560:	2f01      	cmp	r7, #1
    1562:	d913      	bls.n	158c <TEE_CipherUpdate+0x82>
/home/yin/imx-optee/imx-optee-os/lib/libutee/tee_api_operations.c:975
    1564:	6ba8      	ldr	r0, [r5, #56]	; 0x38
    1566:	4639      	mov	r1, r7
    1568:	4420      	add	r0, r4
    156a:	f003 fe0e 	bl	518a <__aeabi_uidiv>
    156e:	4378      	muls	r0, r7
/home/yin/imx-optee/imx-optee-os/lib/libutee/tee_api_operations.c:980
    1570:	f895 3030 	ldrb.w	r3, [r5, #48]	; 0x30
    1574:	b123      	cbz	r3, 1580 <TEE_CipherUpdate+0x76>
/home/yin/imx-optee/imx-optee-os/lib/libutee/tee_api_operations.c:981
    1576:	007b      	lsls	r3, r7, #1
    1578:	4298      	cmp	r0, r3
/home/yin/imx-optee/imx-optee-os/lib/libutee/tee_api_operations.c:982
    157a:	bf8c      	ite	hi
    157c:	1ac0      	subhi	r0, r0, r3
/home/yin/imx-optee/imx-optee-os/lib/libutee/tee_api_operations.c:984
    157e:	2000      	movls	r0, #0
/home/yin/imx-optee/imx-optee-os/lib/libutee/tee_api_operations.c:991
    1580:	6833      	ldr	r3, [r6, #0]
    1582:	4298      	cmp	r0, r3
    1584:	d904      	bls.n	1590 <TEE_CipherUpdate+0x86>
/home/yin/imx-optee/imx-optee-os/lib/libutee/tee_api_operations.c:992
    1586:	6030      	str	r0, [r6, #0]
    1588:	4c1a      	ldr	r4, [pc, #104]	; (15f4 <TEE_CipherUpdate+0xea>)
    158a:	e7e4      	b.n	1556 <TEE_CipherUpdate+0x4c>
    158c:	4620      	mov	r0, r4
    158e:	e7ef      	b.n	1570 <TEE_CipherUpdate+0x66>
/home/yin/imx-optee/imx-optee-os/lib/libutee/tee_api_operations.c:998
    1590:	2f01      	cmp	r7, #1
/home/yin/imx-optee/imx-optee-os/lib/libutee/tee_api_operations.c:997
    1592:	9304      	str	r3, [sp, #16]
    1594:	f04f 0300 	mov.w	r3, #0
    1598:	9305      	str	r3, [sp, #20]
/home/yin/imx-optee/imx-optee-os/lib/libutee/tee_api_operations.c:998
    159a:	d919      	bls.n	15d0 <TEE_CipherUpdate+0xc6>
/home/yin/imx-optee/imx-optee-os/lib/libutee/tee_api_operations.c:999
    159c:	4b18      	ldr	r3, [pc, #96]	; (1600 <TEE_CipherUpdate+0xf6>)
    159e:	4642      	mov	r2, r8
    15a0:	4628      	mov	r0, r5
    15a2:	f85a 3003 	ldr.w	r3, [sl, r3]
    15a6:	f8cd 9000 	str.w	r9, [sp]
    15aa:	9303      	str	r3, [sp, #12]
    15ac:	ab04      	add	r3, sp, #16
    15ae:	9301      	str	r3, [sp, #4]
    15b0:	4623      	mov	r3, r4
    15b2:	9903      	ldr	r1, [sp, #12]
    15b4:	f7ff fa36 	bl	a24 <tee_buffer_update>
/home/yin/imx-optee/imx-optee-os/lib/libutee/tee_api_operations.c:1003
    15b8:	4604      	mov	r4, r0
/home/yin/imx-optee/imx-optee-os/lib/libutee/tee_api_operations.c:1010
    15ba:	9b04      	ldr	r3, [sp, #16]
    15bc:	6033      	str	r3, [r6, #0]
/home/yin/imx-optee/imx-optee-os/lib/libutee/tee_api_operations.c:1013
    15be:	2c00      	cmp	r4, #0
    15c0:	d0c9      	beq.n	1556 <TEE_CipherUpdate+0x4c>
/home/yin/imx-optee/imx-optee-os/lib/libutee/tee_api_operations.c:1013 (discriminator 1)
    15c2:	4b0c      	ldr	r3, [pc, #48]	; (15f4 <TEE_CipherUpdate+0xea>)
    15c4:	429c      	cmp	r4, r3
    15c6:	d0c6      	beq.n	1556 <TEE_CipherUpdate+0x4c>
/home/yin/imx-optee/imx-optee-os/lib/libutee/tee_api_operations.c:1015
    15c8:	4620      	mov	r0, r4
    15ca:	f003 fd5d 	bl	5088 <TEE_Panic>
/home/yin/imx-optee/imx-optee-os/lib/libutee/tee_api_operations.c:1017
    15ce:	e7c2      	b.n	1556 <TEE_CipherUpdate+0x4c>
/home/yin/imx-optee/imx-optee-os/lib/libutee/tee_api_operations.c:1002
    15d0:	b144      	cbz	r4, 15e4 <TEE_CipherUpdate+0xda>
/home/yin/imx-optee/imx-optee-os/lib/libutee/tee_api_operations.c:1003
    15d2:	ab04      	add	r3, sp, #16
    15d4:	4622      	mov	r2, r4
    15d6:	9300      	str	r3, [sp, #0]
    15d8:	4641      	mov	r1, r8
    15da:	464b      	mov	r3, r9
    15dc:	6be8      	ldr	r0, [r5, #60]	; 0x3c
    15de:	f000 eefe 	blx	23dc <utee_cipher_update>
    15e2:	e7e9      	b.n	15b8 <TEE_CipherUpdate+0xae>
/home/yin/imx-optee/imx-optee-os/lib/libutee/tee_api_operations.c:1007
    15e4:	2200      	movs	r2, #0
    15e6:	2300      	movs	r3, #0
    15e8:	e9cd 2304 	strd	r2, r3, [sp, #16]
    15ec:	e7e5      	b.n	15ba <TEE_CipherUpdate+0xb0>
    15ee:	4c02      	ldr	r4, [pc, #8]	; (15f8 <TEE_CipherUpdate+0xee>)
    15f0:	e7ea      	b.n	15c8 <TEE_CipherUpdate+0xbe>
    15f2:	bf00      	nop
    15f4:	ffff0010 	.word	0xffff0010
    15f8:	ffff0006 	.word	0xffff0006
    15fc:	0000758e 	.word	0x0000758e
    1600:	00000024 	.word	0x00000024

00001604 <TEE_CipherDoFinal>:
TEE_CipherDoFinal():
/home/yin/imx-optee/imx-optee-os/lib/libutee/tee_api_operations.c:1023
    1604:	e92d 4ff0 	stmdb	sp!, {r4, r5, r6, r7, r8, r9, sl, fp, lr}
    1608:	b087      	sub	sp, #28
    160a:	f8df b104 	ldr.w	fp, [pc, #260]	; 1710 <TEE_CipherDoFinal+0x10c>
    160e:	468a      	mov	sl, r1
    1610:	4614      	mov	r4, r2
    1612:	4698      	mov	r8, r3
    1614:	9f10      	ldr	r7, [sp, #64]	; 0x40
/home/yin/imx-optee/imx-optee-os/lib/libutee/tee_api_operations.c:1030
    1616:	4605      	mov	r5, r0
/home/yin/imx-optee/imx-optee-os/lib/libutee/tee_api_operations.c:1023
    1618:	44fb      	add	fp, pc
/home/yin/imx-optee/imx-optee-os/lib/libutee/tee_api_operations.c:1030
    161a:	2800      	cmp	r0, #0
    161c:	d069      	beq.n	16f2 <TEE_CipherDoFinal+0xee>
/home/yin/imx-optee/imx-optee-os/lib/libutee/tee_api_operations.c:1030 (discriminator 1)
    161e:	b909      	cbnz	r1, 1624 <TEE_CipherDoFinal+0x20>
/home/yin/imx-optee/imx-optee-os/lib/libutee/tee_api_operations.c:1031
    1620:	2a00      	cmp	r2, #0
    1622:	d166      	bne.n	16f2 <TEE_CipherDoFinal+0xee>
/home/yin/imx-optee/imx-optee-os/lib/libutee/tee_api_operations.c:1031 (discriminator 1)
    1624:	2f00      	cmp	r7, #0
    1626:	d064      	beq.n	16f2 <TEE_CipherDoFinal+0xee>
/home/yin/imx-optee/imx-optee-os/lib/libutee/tee_api_operations.c:1032
    1628:	f1b8 0f00 	cmp.w	r8, #0
    162c:	d102      	bne.n	1634 <TEE_CipherDoFinal+0x30>
/home/yin/imx-optee/imx-optee-os/lib/libutee/tee_api_operations.c:1033
    162e:	683b      	ldr	r3, [r7, #0]
    1630:	2b00      	cmp	r3, #0
    1632:	d15e      	bne.n	16f2 <TEE_CipherDoFinal+0xee>
/home/yin/imx-optee/imx-optee-os/lib/libutee/tee_api_operations.c:1038
    1634:	686b      	ldr	r3, [r5, #4]
    1636:	2b01      	cmp	r3, #1
    1638:	d15b      	bne.n	16f2 <TEE_CipherDoFinal+0xee>
/home/yin/imx-optee/imx-optee-os/lib/libutee/tee_api_operations.c:1043
    163a:	69eb      	ldr	r3, [r5, #28]
    163c:	039b      	lsls	r3, r3, #14
    163e:	d558      	bpl.n	16f2 <TEE_CipherDoFinal+0xee>
/home/yin/imx-optee/imx-optee-os/lib/libutee/tee_api_operations.c:1048
    1640:	6aab      	ldr	r3, [r5, #40]	; 0x28
    1642:	2b01      	cmp	r3, #1
    1644:	d155      	bne.n	16f2 <TEE_CipherDoFinal+0xee>
/home/yin/imx-optee/imx-optee-os/lib/libutee/tee_api_operations.c:1057
    1646:	682b      	ldr	r3, [r5, #0]
    1648:	f423 7380 	bic.w	r3, r3, #256	; 0x100
    164c:	f103 4270 	add.w	r2, r3, #4026531840	; 0xf0000000
    1650:	3a10      	subs	r2, #16
    1652:	2a01      	cmp	r2, #1
    1654:	d902      	bls.n	165c <TEE_CipherDoFinal+0x58>
/home/yin/imx-optee/imx-optee-os/lib/libutee/tee_api_operations.c:1060 (discriminator 1)
    1656:	4a2b      	ldr	r2, [pc, #172]	; (1704 <TEE_CipherDoFinal+0x100>)
    1658:	4293      	cmp	r3, r2
    165a:	d106      	bne.n	166a <TEE_CipherDoFinal+0x66>
/home/yin/imx-optee/imx-optee-os/lib/libutee/tee_api_operations.c:1063
    165c:	6ba8      	ldr	r0, [r5, #56]	; 0x38
    165e:	6b69      	ldr	r1, [r5, #52]	; 0x34
    1660:	4420      	add	r0, r4
    1662:	f003 fdb2 	bl	51ca <__aeabi_uidivmod>
    1666:	2900      	cmp	r1, #0
    1668:	d143      	bne.n	16f2 <TEE_CipherDoFinal+0xee>
/home/yin/imx-optee/imx-optee-os/lib/libutee/tee_api_operations.c:1075
    166a:	6b6a      	ldr	r2, [r5, #52]	; 0x34
/home/yin/imx-optee/imx-optee-os/lib/libutee/tee_api_operations.c:1080
    166c:	6839      	ldr	r1, [r7, #0]
/home/yin/imx-optee/imx-optee-os/lib/libutee/tee_api_operations.c:1075
    166e:	2a01      	cmp	r2, #1
/home/yin/imx-optee/imx-optee-os/lib/libutee/tee_api_operations.c:1076
    1670:	bf8a      	itet	hi
    1672:	6bab      	ldrhi	r3, [r5, #56]	; 0x38
    1674:	4623      	movls	r3, r4
    1676:	191b      	addhi	r3, r3, r4
/home/yin/imx-optee/imx-optee-os/lib/libutee/tee_api_operations.c:1080
    1678:	428b      	cmp	r3, r1
    167a:	d905      	bls.n	1688 <TEE_CipherDoFinal+0x84>
/home/yin/imx-optee/imx-optee-os/lib/libutee/tee_api_operations.c:1081
    167c:	4c22      	ldr	r4, [pc, #136]	; (1708 <TEE_CipherDoFinal+0x104>)
    167e:	603b      	str	r3, [r7, #0]
/home/yin/imx-optee/imx-optee-os/lib/libutee/tee_api_operations.c:1119
    1680:	4620      	mov	r0, r4
    1682:	b007      	add	sp, #28
    1684:	e8bd 8ff0 	ldmia.w	sp!, {r4, r5, r6, r7, r8, r9, sl, fp, pc}
/home/yin/imx-optee/imx-optee-os/lib/libutee/tee_api_operations.c:1087
    1688:	2a01      	cmp	r2, #1
/home/yin/imx-optee/imx-optee-os/lib/libutee/tee_api_operations.c:1086
    168a:	f04f 0600 	mov.w	r6, #0
    168e:	9104      	str	r1, [sp, #16]
    1690:	f10d 0910 	add.w	r9, sp, #16
    1694:	9605      	str	r6, [sp, #20]
/home/yin/imx-optee/imx-optee-os/lib/libutee/tee_api_operations.c:1087
    1696:	d926      	bls.n	16e6 <TEE_CipherDoFinal+0xe2>
/home/yin/imx-optee/imx-optee-os/lib/libutee/tee_api_operations.c:1088
    1698:	4b1e      	ldr	r3, [pc, #120]	; (1714 <TEE_CipherDoFinal+0x110>)
    169a:	4652      	mov	r2, sl
    169c:	4628      	mov	r0, r5
    169e:	f85b 3003 	ldr.w	r3, [fp, r3]
    16a2:	e88d 0300 	stmia.w	sp, {r8, r9}
    16a6:	9303      	str	r3, [sp, #12]
    16a8:	4623      	mov	r3, r4
    16aa:	9903      	ldr	r1, [sp, #12]
    16ac:	f7ff f9ba 	bl	a24 <tee_buffer_update>
/home/yin/imx-optee/imx-optee-os/lib/libutee/tee_api_operations.c:1090
    16b0:	4604      	mov	r4, r0
    16b2:	bb18      	cbnz	r0, 16fc <TEE_CipherDoFinal+0xf8>
/home/yin/imx-optee/imx-optee-os/lib/libutee/tee_api_operations.c:1093
    16b4:	9e04      	ldr	r6, [sp, #16]
/home/yin/imx-optee/imx-optee-os/lib/libutee/tee_api_operations.c:1096
    16b6:	683b      	ldr	r3, [r7, #0]
/home/yin/imx-optee/imx-optee-os/lib/libutee/tee_api_operations.c:1097
    16b8:	f8cd 9000 	str.w	r9, [sp]
    16bc:	6baa      	ldr	r2, [r5, #56]	; 0x38
    16be:	6ae9      	ldr	r1, [r5, #44]	; 0x2c
/home/yin/imx-optee/imx-optee-os/lib/libutee/tee_api_operations.c:1096
    16c0:	1b9b      	subs	r3, r3, r6
    16c2:	9304      	str	r3, [sp, #16]
/home/yin/imx-optee/imx-optee-os/lib/libutee/tee_api_operations.c:1097
    16c4:	eb08 0306 	add.w	r3, r8, r6
/home/yin/imx-optee/imx-optee-os/lib/libutee/tee_api_operations.c:1096
    16c8:	9005      	str	r0, [sp, #20]
/home/yin/imx-optee/imx-optee-os/lib/libutee/tee_api_operations.c:1100
    16ca:	6be8      	ldr	r0, [r5, #60]	; 0x3c
    16cc:	f000 ee92 	blx	23f4 <utee_cipher_final>
    16d0:	4604      	mov	r4, r0
/home/yin/imx-optee/imx-optee-os/lib/libutee/tee_api_operations.c:1103
    16d2:	b998      	cbnz	r0, 16fc <TEE_CipherDoFinal+0xf8>
/home/yin/imx-optee/imx-optee-os/lib/libutee/tee_api_operations.c:1106
    16d4:	9b04      	ldr	r3, [sp, #16]
    16d6:	441e      	add	r6, r3
/home/yin/imx-optee/imx-optee-os/lib/libutee/tee_api_operations.c:1107
    16d8:	603e      	str	r6, [r7, #0]
/home/yin/imx-optee/imx-optee-os/lib/libutee/tee_api_operations.c:1109
    16da:	69eb      	ldr	r3, [r5, #28]
/home/yin/imx-optee/imx-optee-os/lib/libutee/tee_api_operations.c:1111
    16dc:	62a8      	str	r0, [r5, #40]	; 0x28
/home/yin/imx-optee/imx-optee-os/lib/libutee/tee_api_operations.c:1109
    16de:	f423 3300 	bic.w	r3, r3, #131072	; 0x20000
    16e2:	61eb      	str	r3, [r5, #28]
    16e4:	e7cc      	b.n	1680 <TEE_CipherDoFinal+0x7c>
/home/yin/imx-optee/imx-optee-os/lib/libutee/tee_api_operations.c:1100
    16e6:	f8cd 9000 	str.w	r9, [sp]
    16ea:	4643      	mov	r3, r8
    16ec:	4622      	mov	r2, r4
    16ee:	4651      	mov	r1, sl
    16f0:	e7eb      	b.n	16ca <TEE_CipherDoFinal+0xc6>
    16f2:	4c06      	ldr	r4, [pc, #24]	; (170c <TEE_CipherDoFinal+0x108>)
/home/yin/imx-optee/imx-optee-os/lib/libutee/tee_api_operations.c:1116
    16f4:	4620      	mov	r0, r4
    16f6:	f003 fcc7 	bl	5088 <TEE_Panic>
/home/yin/imx-optee/imx-optee-os/lib/libutee/tee_api_operations.c:1118
    16fa:	e7c1      	b.n	1680 <TEE_CipherDoFinal+0x7c>
/home/yin/imx-optee/imx-optee-os/lib/libutee/tee_api_operations.c:1114
    16fc:	4b02      	ldr	r3, [pc, #8]	; (1708 <TEE_CipherDoFinal+0x104>)
    16fe:	429c      	cmp	r4, r3
    1700:	d0be      	beq.n	1680 <TEE_CipherDoFinal+0x7c>
    1702:	e7f7      	b.n	16f4 <TEE_CipherDoFinal+0xf0>
    1704:	10000013 	.word	0x10000013
    1708:	ffff0010 	.word	0xffff0010
    170c:	ffff0006 	.word	0xffff0006
    1710:	00007494 	.word	0x00007494
    1714:	00000024 	.word	0x00000024

00001718 <TEE_MACInit>:
TEE_MACInit():
/home/yin/imx-optee/imx-optee-os/lib/libutee/tee_api_operations.c:1124
    1718:	b570      	push	{r4, r5, r6, lr}
    171a:	460d      	mov	r5, r1
    171c:	4616      	mov	r6, r2
/home/yin/imx-optee/imx-optee-os/lib/libutee/tee_api_operations.c:1125
    171e:	4604      	mov	r4, r0
    1720:	b908      	cbnz	r0, 1726 <TEE_MACInit+0xe>
/home/yin/imx-optee/imx-optee-os/lib/libutee/tee_api_operations.c:1126
    1722:	f003 fcb1 	bl	5088 <TEE_Panic>
/home/yin/imx-optee/imx-optee-os/lib/libutee/tee_api_operations.c:1128
    1726:	6863      	ldr	r3, [r4, #4]
    1728:	2b03      	cmp	r3, #3
    172a:	d002      	beq.n	1732 <TEE_MACInit+0x1a>
/home/yin/imx-optee/imx-optee-os/lib/libutee/tee_api_operations.c:1129
    172c:	2000      	movs	r0, #0
    172e:	f003 fcab 	bl	5088 <TEE_Panic>
/home/yin/imx-optee/imx-optee-os/lib/libutee/tee_api_operations.c:1131
    1732:	69e3      	ldr	r3, [r4, #28]
    1734:	035b      	lsls	r3, r3, #13
    1736:	d501      	bpl.n	173c <TEE_MACInit+0x24>
/home/yin/imx-optee/imx-optee-os/lib/libutee/tee_api_operations.c:1131 (discriminator 1)
    1738:	6a23      	ldr	r3, [r4, #32]
    173a:	b913      	cbnz	r3, 1742 <TEE_MACInit+0x2a>
/home/yin/imx-optee/imx-optee-os/lib/libutee/tee_api_operations.c:1133
    173c:	2000      	movs	r0, #0
    173e:	f003 fca3 	bl	5088 <TEE_Panic>
/home/yin/imx-optee/imx-optee-os/lib/libutee/tee_api_operations.c:1135
    1742:	6aa3      	ldr	r3, [r4, #40]	; 0x28
    1744:	b113      	cbz	r3, 174c <TEE_MACInit+0x34>
/home/yin/imx-optee/imx-optee-os/lib/libutee/tee_api_operations.c:1136
    1746:	4620      	mov	r0, r4
    1748:	f7ff fd32 	bl	11b0 <TEE_ResetOperation>
/home/yin/imx-optee/imx-optee-os/lib/libutee/tee_api_operations.c:1138
    174c:	2301      	movs	r3, #1
init_hash_operation():
/home/yin/imx-optee/imx-optee-os/lib/libutee/tee_api_operations.c:752
    174e:	4632      	mov	r2, r6
TEE_MACInit():
/home/yin/imx-optee/imx-optee-os/lib/libutee/tee_api_operations.c:1138
    1750:	62a3      	str	r3, [r4, #40]	; 0x28
init_hash_operation():
/home/yin/imx-optee/imx-optee-os/lib/libutee/tee_api_operations.c:752
    1752:	4629      	mov	r1, r5
    1754:	6be0      	ldr	r0, [r4, #60]	; 0x3c
    1756:	f000 ee18 	blx	2388 <utee_hash_init>
/home/yin/imx-optee/imx-optee-os/lib/libutee/tee_api_operations.c:753
    175a:	b108      	cbz	r0, 1760 <TEE_MACInit+0x48>
/home/yin/imx-optee/imx-optee-os/lib/libutee/tee_api_operations.c:754
    175c:	f003 fc94 	bl	5088 <TEE_Panic>
/home/yin/imx-optee/imx-optee-os/lib/libutee/tee_api_operations.c:755
    1760:	2300      	movs	r3, #0
    1762:	63a3      	str	r3, [r4, #56]	; 0x38
/home/yin/imx-optee/imx-optee-os/lib/libutee/tee_api_operations.c:756
    1764:	69e3      	ldr	r3, [r4, #28]
    1766:	f443 3300 	orr.w	r3, r3, #131072	; 0x20000
    176a:	61e3      	str	r3, [r4, #28]
    176c:	bd70      	pop	{r4, r5, r6, pc}

0000176e <TEE_MACUpdate>:
TEE_MACUpdate():
/home/yin/imx-optee/imx-optee-os/lib/libutee/tee_api_operations.c:1145
    176e:	b570      	push	{r4, r5, r6, lr}
    1770:	460d      	mov	r5, r1
    1772:	4616      	mov	r6, r2
/home/yin/imx-optee/imx-optee-os/lib/libutee/tee_api_operations.c:1148
    1774:	4604      	mov	r4, r0
    1776:	b108      	cbz	r0, 177c <TEE_MACUpdate+0xe>
/home/yin/imx-optee/imx-optee-os/lib/libutee/tee_api_operations.c:1148 (discriminator 1)
    1778:	b919      	cbnz	r1, 1782 <TEE_MACUpdate+0x14>
/home/yin/imx-optee/imx-optee-os/lib/libutee/tee_api_operations.c:1148 (discriminator 2)
    177a:	b112      	cbz	r2, 1782 <TEE_MACUpdate+0x14>
/home/yin/imx-optee/imx-optee-os/lib/libutee/tee_api_operations.c:1149
    177c:	2000      	movs	r0, #0
    177e:	f003 fc83 	bl	5088 <TEE_Panic>
/home/yin/imx-optee/imx-optee-os/lib/libutee/tee_api_operations.c:1151
    1782:	6863      	ldr	r3, [r4, #4]
    1784:	2b03      	cmp	r3, #3
    1786:	d002      	beq.n	178e <TEE_MACUpdate+0x20>
/home/yin/imx-optee/imx-optee-os/lib/libutee/tee_api_operations.c:1152
    1788:	2000      	movs	r0, #0
    178a:	f003 fc7d 	bl	5088 <TEE_Panic>
/home/yin/imx-optee/imx-optee-os/lib/libutee/tee_api_operations.c:1154
    178e:	69e0      	ldr	r0, [r4, #28]
    1790:	f410 3000 	ands.w	r0, r0, #131072	; 0x20000
    1794:	d101      	bne.n	179a <TEE_MACUpdate+0x2c>
/home/yin/imx-optee/imx-optee-os/lib/libutee/tee_api_operations.c:1155
    1796:	f003 fc77 	bl	5088 <TEE_Panic>
/home/yin/imx-optee/imx-optee-os/lib/libutee/tee_api_operations.c:1157
    179a:	6aa3      	ldr	r3, [r4, #40]	; 0x28
    179c:	2b01      	cmp	r3, #1
    179e:	d002      	beq.n	17a6 <TEE_MACUpdate+0x38>
/home/yin/imx-optee/imx-optee-os/lib/libutee/tee_api_operations.c:1158
    17a0:	2000      	movs	r0, #0
    17a2:	f003 fc71 	bl	5088 <TEE_Panic>
/home/yin/imx-optee/imx-optee-os/lib/libutee/tee_api_operations.c:1160
    17a6:	4632      	mov	r2, r6
    17a8:	4629      	mov	r1, r5
    17aa:	6be0      	ldr	r0, [r4, #60]	; 0x3c
    17ac:	f000 edf6 	blx	239c <utee_hash_update>
/home/yin/imx-optee/imx-optee-os/lib/libutee/tee_api_operations.c:1161
    17b0:	b118      	cbz	r0, 17ba <TEE_MACUpdate+0x4c>
/home/yin/imx-optee/imx-optee-os/lib/libutee/tee_api_operations.c:1163
    17b2:	e8bd 4070 	ldmia.w	sp!, {r4, r5, r6, lr}
/home/yin/imx-optee/imx-optee-os/lib/libutee/tee_api_operations.c:1162
    17b6:	f003 bc67 	b.w	5088 <TEE_Panic>
    17ba:	bd70      	pop	{r4, r5, r6, pc}

000017bc <TEE_MACComputeFinal>:
TEE_MACComputeFinal():
/home/yin/imx-optee/imx-optee-os/lib/libutee/tee_api_operations.c:1168
    17bc:	b530      	push	{r4, r5, lr}
    17be:	b085      	sub	sp, #20
    17c0:	9c08      	ldr	r4, [sp, #32]
/home/yin/imx-optee/imx-optee-os/lib/libutee/tee_api_operations.c:1172
    17c2:	4605      	mov	r5, r0
    17c4:	b308      	cbz	r0, 180a <TEE_MACComputeFinal+0x4e>
/home/yin/imx-optee/imx-optee-os/lib/libutee/tee_api_operations.c:1172 (discriminator 1)
    17c6:	b901      	cbnz	r1, 17ca <TEE_MACComputeFinal+0xe>
/home/yin/imx-optee/imx-optee-os/lib/libutee/tee_api_operations.c:1173
    17c8:	b9fa      	cbnz	r2, 180a <TEE_MACComputeFinal+0x4e>
/home/yin/imx-optee/imx-optee-os/lib/libutee/tee_api_operations.c:1173 (discriminator 1)
    17ca:	b1f3      	cbz	r3, 180a <TEE_MACComputeFinal+0x4e>
/home/yin/imx-optee/imx-optee-os/lib/libutee/tee_api_operations.c:1174
    17cc:	b1ec      	cbz	r4, 180a <TEE_MACComputeFinal+0x4e>
/home/yin/imx-optee/imx-optee-os/lib/libutee/tee_api_operations.c:1180
    17ce:	6868      	ldr	r0, [r5, #4]
    17d0:	2803      	cmp	r0, #3
    17d2:	d11a      	bne.n	180a <TEE_MACComputeFinal+0x4e>
/home/yin/imx-optee/imx-optee-os/lib/libutee/tee_api_operations.c:1185
    17d4:	69e8      	ldr	r0, [r5, #28]
    17d6:	0380      	lsls	r0, r0, #14
    17d8:	d517      	bpl.n	180a <TEE_MACComputeFinal+0x4e>
/home/yin/imx-optee/imx-optee-os/lib/libutee/tee_api_operations.c:1190
    17da:	6aa8      	ldr	r0, [r5, #40]	; 0x28
    17dc:	2801      	cmp	r0, #1
    17de:	d114      	bne.n	180a <TEE_MACComputeFinal+0x4e>
/home/yin/imx-optee/imx-optee-os/lib/libutee/tee_api_operations.c:1195
    17e0:	6820      	ldr	r0, [r4, #0]
    17e2:	9002      	str	r0, [sp, #8]
    17e4:	2000      	movs	r0, #0
    17e6:	9003      	str	r0, [sp, #12]
/home/yin/imx-optee/imx-optee-os/lib/libutee/tee_api_operations.c:1196
    17e8:	a802      	add	r0, sp, #8
    17ea:	9000      	str	r0, [sp, #0]
    17ec:	6be8      	ldr	r0, [r5, #60]	; 0x3c
    17ee:	f000 ede0 	blx	23b0 <utee_hash_final>
/home/yin/imx-optee/imx-optee-os/lib/libutee/tee_api_operations.c:1197
    17f2:	9b02      	ldr	r3, [sp, #8]
    17f4:	6023      	str	r3, [r4, #0]
/home/yin/imx-optee/imx-optee-os/lib/libutee/tee_api_operations.c:1198
    17f6:	4604      	mov	r4, r0
    17f8:	b960      	cbnz	r0, 1814 <TEE_MACComputeFinal+0x58>
/home/yin/imx-optee/imx-optee-os/lib/libutee/tee_api_operations.c:1201
    17fa:	69eb      	ldr	r3, [r5, #28]
/home/yin/imx-optee/imx-optee-os/lib/libutee/tee_api_operations.c:1203
    17fc:	62a8      	str	r0, [r5, #40]	; 0x28
/home/yin/imx-optee/imx-optee-os/lib/libutee/tee_api_operations.c:1201
    17fe:	f423 3300 	bic.w	r3, r3, #131072	; 0x20000
    1802:	61eb      	str	r3, [r5, #28]
/home/yin/imx-optee/imx-optee-os/lib/libutee/tee_api_operations.c:1211
    1804:	4620      	mov	r0, r4
    1806:	b005      	add	sp, #20
    1808:	bd30      	pop	{r4, r5, pc}
    180a:	4c04      	ldr	r4, [pc, #16]	; (181c <TEE_MACComputeFinal+0x60>)
/home/yin/imx-optee/imx-optee-os/lib/libutee/tee_api_operations.c:1208
    180c:	4620      	mov	r0, r4
    180e:	f003 fc3b 	bl	5088 <TEE_Panic>
/home/yin/imx-optee/imx-optee-os/lib/libutee/tee_api_operations.c:1210
    1812:	e7f7      	b.n	1804 <TEE_MACComputeFinal+0x48>
/home/yin/imx-optee/imx-optee-os/lib/libutee/tee_api_operations.c:1206
    1814:	4b02      	ldr	r3, [pc, #8]	; (1820 <TEE_MACComputeFinal+0x64>)
    1816:	4298      	cmp	r0, r3
    1818:	d0f4      	beq.n	1804 <TEE_MACComputeFinal+0x48>
    181a:	e7f7      	b.n	180c <TEE_MACComputeFinal+0x50>
    181c:	ffff0006 	.word	0xffff0006
    1820:	ffff0010 	.word	0xffff0010

00001824 <TEE_MACCompareFinal>:
TEE_MACCompareFinal():
/home/yin/imx-optee/imx-optee-os/lib/libutee/tee_api_operations.c:1216
    1824:	b5f0      	push	{r4, r5, r6, r7, lr}
    1826:	461f      	mov	r7, r3
    1828:	b095      	sub	sp, #84	; 0x54
/home/yin/imx-optee/imx-optee-os/lib/libutee/tee_api_operations.c:1219
    182a:	2340      	movs	r3, #64	; 0x40
/home/yin/imx-optee/imx-optee-os/lib/libutee/tee_api_operations.c:1216
    182c:	4605      	mov	r5, r0
/home/yin/imx-optee/imx-optee-os/lib/libutee/tee_api_operations.c:1219
    182e:	9303      	str	r3, [sp, #12]
/home/yin/imx-optee/imx-optee-os/lib/libutee/tee_api_operations.c:1221
    1830:	6843      	ldr	r3, [r0, #4]
    1832:	2b03      	cmp	r3, #3
    1834:	d11a      	bne.n	186c <TEE_MACCompareFinal+0x48>
/home/yin/imx-optee/imx-optee-os/lib/libutee/tee_api_operations.c:1226
    1836:	69c3      	ldr	r3, [r0, #28]
    1838:	039b      	lsls	r3, r3, #14
    183a:	d517      	bpl.n	186c <TEE_MACCompareFinal+0x48>
/home/yin/imx-optee/imx-optee-os/lib/libutee/tee_api_operations.c:1231
    183c:	6a83      	ldr	r3, [r0, #40]	; 0x28
    183e:	2b01      	cmp	r3, #1
    1840:	d114      	bne.n	186c <TEE_MACCompareFinal+0x48>
/home/yin/imx-optee/imx-optee-os/lib/libutee/tee_api_operations.c:1236
    1842:	ab03      	add	r3, sp, #12
    1844:	ae04      	add	r6, sp, #16
    1846:	9300      	str	r3, [sp, #0]
    1848:	4633      	mov	r3, r6
    184a:	f7ff ffb7 	bl	17bc <TEE_MACComputeFinal>
/home/yin/imx-optee/imx-optee-os/lib/libutee/tee_api_operations.c:1238
    184e:	4604      	mov	r4, r0
    1850:	b988      	cbnz	r0, 1876 <TEE_MACCompareFinal+0x52>
/home/yin/imx-optee/imx-optee-os/lib/libutee/tee_api_operations.c:1241
    1852:	9a03      	ldr	r2, [sp, #12]
    1854:	9b1a      	ldr	r3, [sp, #104]	; 0x68
    1856:	429a      	cmp	r2, r3
    1858:	d110      	bne.n	187c <TEE_MACCompareFinal+0x58>
/home/yin/imx-optee/imx-optee-os/lib/libutee/tee_api_operations.c:1246
    185a:	4631      	mov	r1, r6
    185c:	4638      	mov	r0, r7
    185e:	f003 fd4a 	bl	52f6 <buf_compare_ct>
    1862:	b958      	cbnz	r0, 187c <TEE_MACCompareFinal+0x58>
/home/yin/imx-optee/imx-optee-os/lib/libutee/tee_api_operations.c:1251
    1864:	62ac      	str	r4, [r5, #40]	; 0x28
/home/yin/imx-optee/imx-optee-os/lib/libutee/tee_api_operations.c:1259
    1866:	4620      	mov	r0, r4
    1868:	b015      	add	sp, #84	; 0x54
    186a:	bdf0      	pop	{r4, r5, r6, r7, pc}
    186c:	4c04      	ldr	r4, [pc, #16]	; (1880 <TEE_MACCompareFinal+0x5c>)
/home/yin/imx-optee/imx-optee-os/lib/libutee/tee_api_operations.c:1256
    186e:	4620      	mov	r0, r4
    1870:	f003 fc0a 	bl	5088 <TEE_Panic>
/home/yin/imx-optee/imx-optee-os/lib/libutee/tee_api_operations.c:1258
    1874:	e7f7      	b.n	1866 <TEE_MACCompareFinal+0x42>
/home/yin/imx-optee/imx-optee-os/lib/libutee/tee_api_operations.c:1254
    1876:	4b03      	ldr	r3, [pc, #12]	; (1884 <TEE_MACCompareFinal+0x60>)
    1878:	4298      	cmp	r0, r3
    187a:	d1f8      	bne.n	186e <TEE_MACCompareFinal+0x4a>
    187c:	4c01      	ldr	r4, [pc, #4]	; (1884 <TEE_MACCompareFinal+0x60>)
    187e:	e7f2      	b.n	1866 <TEE_MACCompareFinal+0x42>
    1880:	ffff0006 	.word	0xffff0006
    1884:	ffff3071 	.word	0xffff3071

00001888 <TEE_AEInit>:
TEE_AEInit():
/home/yin/imx-optee/imx-optee-os/lib/libutee/tee_api_operations.c:1266
    1888:	b573      	push	{r0, r1, r4, r5, r6, lr}
/home/yin/imx-optee/imx-optee-os/lib/libutee/tee_api_operations.c:1269
    188a:	4605      	mov	r5, r0
    188c:	b320      	cbz	r0, 18d8 <TEE_AEInit+0x50>
/home/yin/imx-optee/imx-optee-os/lib/libutee/tee_api_operations.c:1269 (discriminator 1)
    188e:	b319      	cbz	r1, 18d8 <TEE_AEInit+0x50>
/home/yin/imx-optee/imx-optee-os/lib/libutee/tee_api_operations.c:1274
    1890:	6840      	ldr	r0, [r0, #4]
    1892:	2804      	cmp	r0, #4
    1894:	d120      	bne.n	18d8 <TEE_AEInit+0x50>
/home/yin/imx-optee/imx-optee-os/lib/libutee/tee_api_operations.c:1279
    1896:	6aa8      	ldr	r0, [r5, #40]	; 0x28
    1898:	b9f0      	cbnz	r0, 18d8 <TEE_AEInit+0x50>
/home/yin/imx-optee/imx-optee-os/lib/libutee/tee_api_operations.c:1290
    189a:	682c      	ldr	r4, [r5, #0]
    189c:	4813      	ldr	r0, [pc, #76]	; (18ec <TEE_AEInit+0x64>)
    189e:	4284      	cmp	r4, r0
    18a0:	d109      	bne.n	18b6 <TEE_AEInit+0x2e>
/home/yin/imx-optee/imx-optee-os/lib/libutee/tee_api_operations.c:1294
    18a2:	f1a3 0060 	sub.w	r0, r3, #96	; 0x60
    18a6:	2820      	cmp	r0, #32
    18a8:	d903      	bls.n	18b2 <TEE_AEInit+0x2a>
    18aa:	4c11      	ldr	r4, [pc, #68]	; (18f0 <TEE_AEInit+0x68>)
/home/yin/imx-optee/imx-optee-os/lib/libutee/tee_api_operations.c:1314
    18ac:	4620      	mov	r0, r4
    18ae:	b002      	add	sp, #8
    18b0:	bd70      	pop	{r4, r5, r6, pc}
/home/yin/imx-optee/imx-optee-os/lib/libutee/tee_api_operations.c:1294 (discriminator 1)
    18b2:	0758      	lsls	r0, r3, #29
    18b4:	d1f9      	bne.n	18aa <TEE_AEInit+0x22>
/home/yin/imx-optee/imx-optee-os/lib/libutee/tee_api_operations.c:1300
    18b6:	08de      	lsrs	r6, r3, #3
    18b8:	9b07      	ldr	r3, [sp, #28]
    18ba:	9301      	str	r3, [sp, #4]
    18bc:	9b06      	ldr	r3, [sp, #24]
    18be:	9300      	str	r3, [sp, #0]
    18c0:	4633      	mov	r3, r6
    18c2:	6be8      	ldr	r0, [r5, #60]	; 0x3c
    18c4:	f000 ee06 	blx	24d4 <utee_authenc_init>
/home/yin/imx-optee/imx-optee-os/lib/libutee/tee_api_operations.c:1302
    18c8:	4604      	mov	r4, r0
    18ca:	b950      	cbnz	r0, 18e2 <TEE_AEInit+0x5a>
/home/yin/imx-optee/imx-optee-os/lib/libutee/tee_api_operations.c:1306
    18cc:	69eb      	ldr	r3, [r5, #28]
/home/yin/imx-optee/imx-optee-os/lib/libutee/tee_api_operations.c:1305
    18ce:	642e      	str	r6, [r5, #64]	; 0x40
/home/yin/imx-optee/imx-optee-os/lib/libutee/tee_api_operations.c:1306
    18d0:	f443 3300 	orr.w	r3, r3, #131072	; 0x20000
    18d4:	61eb      	str	r3, [r5, #28]
    18d6:	e7e9      	b.n	18ac <TEE_AEInit+0x24>
    18d8:	4c06      	ldr	r4, [pc, #24]	; (18f4 <TEE_AEInit+0x6c>)
/home/yin/imx-optee/imx-optee-os/lib/libutee/tee_api_operations.c:1311
    18da:	4620      	mov	r0, r4
    18dc:	f003 fbd4 	bl	5088 <TEE_Panic>
/home/yin/imx-optee/imx-optee-os/lib/libutee/tee_api_operations.c:1313
    18e0:	e7e4      	b.n	18ac <TEE_AEInit+0x24>
/home/yin/imx-optee/imx-optee-os/lib/libutee/tee_api_operations.c:1309
    18e2:	4b03      	ldr	r3, [pc, #12]	; (18f0 <TEE_AEInit+0x68>)
    18e4:	4298      	cmp	r0, r3
    18e6:	d0e0      	beq.n	18aa <TEE_AEInit+0x22>
    18e8:	e7f7      	b.n	18da <TEE_AEInit+0x52>
    18ea:	bf00      	nop
    18ec:	40000810 	.word	0x40000810
    18f0:	ffff000a 	.word	0xffff000a
    18f4:	ffff0006 	.word	0xffff0006

000018f8 <TEE_AEUpdateAAD>:
TEE_AEUpdateAAD():
/home/yin/imx-optee/imx-optee-os/lib/libutee/tee_api_operations.c:1318
    18f8:	b570      	push	{r4, r5, r6, lr}
    18fa:	460d      	mov	r5, r1
    18fc:	4616      	mov	r6, r2
/home/yin/imx-optee/imx-optee-os/lib/libutee/tee_api_operations.c:1321
    18fe:	4604      	mov	r4, r0
    1900:	b108      	cbz	r0, 1906 <TEE_AEUpdateAAD+0xe>
/home/yin/imx-optee/imx-optee-os/lib/libutee/tee_api_operations.c:1321 (discriminator 1)
    1902:	b919      	cbnz	r1, 190c <TEE_AEUpdateAAD+0x14>
/home/yin/imx-optee/imx-optee-os/lib/libutee/tee_api_operations.c:1322
    1904:	b112      	cbz	r2, 190c <TEE_AEUpdateAAD+0x14>
/home/yin/imx-optee/imx-optee-os/lib/libutee/tee_api_operations.c:1323
    1906:	2000      	movs	r0, #0
    1908:	f003 fbbe 	bl	5088 <TEE_Panic>
/home/yin/imx-optee/imx-optee-os/lib/libutee/tee_api_operations.c:1325
    190c:	6863      	ldr	r3, [r4, #4]
    190e:	2b04      	cmp	r3, #4
    1910:	d002      	beq.n	1918 <TEE_AEUpdateAAD+0x20>
/home/yin/imx-optee/imx-optee-os/lib/libutee/tee_api_operations.c:1326
    1912:	2000      	movs	r0, #0
    1914:	f003 fbb8 	bl	5088 <TEE_Panic>
/home/yin/imx-optee/imx-optee-os/lib/libutee/tee_api_operations.c:1328
    1918:	69e0      	ldr	r0, [r4, #28]
    191a:	f410 3000 	ands.w	r0, r0, #131072	; 0x20000
    191e:	d101      	bne.n	1924 <TEE_AEUpdateAAD+0x2c>
/home/yin/imx-optee/imx-optee-os/lib/libutee/tee_api_operations.c:1329
    1920:	f003 fbb2 	bl	5088 <TEE_Panic>
/home/yin/imx-optee/imx-optee-os/lib/libutee/tee_api_operations.c:1331
    1924:	4632      	mov	r2, r6
    1926:	4629      	mov	r1, r5
    1928:	6be0      	ldr	r0, [r4, #60]	; 0x3c
    192a:	f000 ede0 	blx	24ec <utee_authenc_update_aad>
/home/yin/imx-optee/imx-optee-os/lib/libutee/tee_api_operations.c:1333
    192e:	2301      	movs	r3, #1
    1930:	62a3      	str	r3, [r4, #40]	; 0x28
/home/yin/imx-optee/imx-optee-os/lib/libutee/tee_api_operations.c:1335
    1932:	b118      	cbz	r0, 193c <TEE_AEUpdateAAD+0x44>
/home/yin/imx-optee/imx-optee-os/lib/libutee/tee_api_operations.c:1337
    1934:	e8bd 4070 	ldmia.w	sp!, {r4, r5, r6, lr}
/home/yin/imx-optee/imx-optee-os/lib/libutee/tee_api_operations.c:1336
    1938:	f003 bba6 	b.w	5088 <TEE_Panic>
    193c:	bd70      	pop	{r4, r5, r6, pc}

0000193e <TEE_AEUpdate>:
TEE_AEUpdate():
/home/yin/imx-optee/imx-optee-os/lib/libutee/tee_api_operations.c:1341
    193e:	b5f0      	push	{r4, r5, r6, r7, lr}
    1940:	b087      	sub	sp, #28
    1942:	4f30      	ldr	r7, [pc, #192]	; (1a04 <TEE_AEUpdate+0xc6>)
/home/yin/imx-optee/imx-optee-os/lib/libutee/tee_api_operations.c:1346
    1944:	4605      	mov	r5, r0
/home/yin/imx-optee/imx-optee-os/lib/libutee/tee_api_operations.c:1341
    1946:	9e0c      	ldr	r6, [sp, #48]	; 0x30
    1948:	447f      	add	r7, pc
/home/yin/imx-optee/imx-optee-os/lib/libutee/tee_api_operations.c:1346
    194a:	2800      	cmp	r0, #0
    194c:	d04d      	beq.n	19ea <TEE_AEUpdate+0xac>
/home/yin/imx-optee/imx-optee-os/lib/libutee/tee_api_operations.c:1346 (discriminator 1)
    194e:	b909      	cbnz	r1, 1954 <TEE_AEUpdate+0x16>
/home/yin/imx-optee/imx-optee-os/lib/libutee/tee_api_operations.c:1347
    1950:	2a00      	cmp	r2, #0
    1952:	d14a      	bne.n	19ea <TEE_AEUpdate+0xac>
/home/yin/imx-optee/imx-optee-os/lib/libutee/tee_api_operations.c:1347 (discriminator 1)
    1954:	2e00      	cmp	r6, #0
    1956:	d048      	beq.n	19ea <TEE_AEUpdate+0xac>
/home/yin/imx-optee/imx-optee-os/lib/libutee/tee_api_operations.c:1348
    1958:	b913      	cbnz	r3, 1960 <TEE_AEUpdate+0x22>
/home/yin/imx-optee/imx-optee-os/lib/libutee/tee_api_operations.c:1349
    195a:	6830      	ldr	r0, [r6, #0]
    195c:	2800      	cmp	r0, #0
    195e:	d144      	bne.n	19ea <TEE_AEUpdate+0xac>
/home/yin/imx-optee/imx-optee-os/lib/libutee/tee_api_operations.c:1354
    1960:	6868      	ldr	r0, [r5, #4]
    1962:	2804      	cmp	r0, #4
    1964:	d141      	bne.n	19ea <TEE_AEUpdate+0xac>
/home/yin/imx-optee/imx-optee-os/lib/libutee/tee_api_operations.c:1359
    1966:	69e8      	ldr	r0, [r5, #28]
    1968:	0380      	lsls	r0, r0, #14
    196a:	d53e      	bpl.n	19ea <TEE_AEUpdate+0xac>
/home/yin/imx-optee/imx-optee-os/lib/libutee/tee_api_operations.c:1364
    196c:	b919      	cbnz	r1, 1976 <TEE_AEUpdate+0x38>
/home/yin/imx-optee/imx-optee-os/lib/libutee/tee_api_operations.c:1364 (discriminator 1)
    196e:	b912      	cbnz	r2, 1976 <TEE_AEUpdate+0x38>
/home/yin/imx-optee/imx-optee-os/lib/libutee/tee_api_operations.c:1365
    1970:	6032      	str	r2, [r6, #0]
/home/yin/imx-optee/imx-optee-os/lib/libutee/tee_api_operations.c:1407
    1972:	2400      	movs	r4, #0
    1974:	e010      	b.n	1998 <TEE_AEUpdate+0x5a>
/home/yin/imx-optee/imx-optee-os/lib/libutee/tee_api_operations.c:1375
    1976:	6b6c      	ldr	r4, [r5, #52]	; 0x34
    1978:	2c01      	cmp	r4, #1
/home/yin/imx-optee/imx-optee-os/lib/libutee/tee_api_operations.c:1376
    197a:	bf85      	ittet	hi
    197c:	6ba8      	ldrhi	r0, [r5, #56]	; 0x38
    197e:	f1c4 0c00 	rsbhi	ip, r4, #0
    1982:	4610      	movls	r0, r2
    1984:	1880      	addhi	r0, r0, r2
    1986:	bf88      	it	hi
    1988:	ea00 000c 	andhi.w	r0, r0, ip
/home/yin/imx-optee/imx-optee-os/lib/libutee/tee_api_operations.c:1382
    198c:	f8d6 c000 	ldr.w	ip, [r6]
    1990:	4560      	cmp	r0, ip
    1992:	d904      	bls.n	199e <TEE_AEUpdate+0x60>
/home/yin/imx-optee/imx-optee-os/lib/libutee/tee_api_operations.c:1383
    1994:	4c19      	ldr	r4, [pc, #100]	; (19fc <TEE_AEUpdate+0xbe>)
    1996:	6030      	str	r0, [r6, #0]
/home/yin/imx-optee/imx-optee-os/lib/libutee/tee_api_operations.c:1415
    1998:	4620      	mov	r0, r4
    199a:	b007      	add	sp, #28
    199c:	bdf0      	pop	{r4, r5, r6, r7, pc}
/home/yin/imx-optee/imx-optee-os/lib/libutee/tee_api_operations.c:1389
    199e:	2c01      	cmp	r4, #1
/home/yin/imx-optee/imx-optee-os/lib/libutee/tee_api_operations.c:1388
    19a0:	f04f 0000 	mov.w	r0, #0
    19a4:	f8cd c010 	str.w	ip, [sp, #16]
    19a8:	9005      	str	r0, [sp, #20]
/home/yin/imx-optee/imx-optee-os/lib/libutee/tee_api_operations.c:1389
    19aa:	d912      	bls.n	19d2 <TEE_AEUpdate+0x94>
/home/yin/imx-optee/imx-optee-os/lib/libutee/tee_api_operations.c:1390
    19ac:	4816      	ldr	r0, [pc, #88]	; (1a08 <TEE_AEUpdate+0xca>)
    19ae:	5838      	ldr	r0, [r7, r0]
    19b0:	9300      	str	r3, [sp, #0]
    19b2:	4613      	mov	r3, r2
    19b4:	460a      	mov	r2, r1
    19b6:	9003      	str	r0, [sp, #12]
    19b8:	a804      	add	r0, sp, #16
    19ba:	9001      	str	r0, [sp, #4]
    19bc:	4628      	mov	r0, r5
    19be:	9903      	ldr	r1, [sp, #12]
    19c0:	f7ff f830 	bl	a24 <tee_buffer_update>
/home/yin/imx-optee/imx-optee-os/lib/libutee/tee_api_operations.c:1394
    19c4:	4604      	mov	r4, r0
/home/yin/imx-optee/imx-optee-os/lib/libutee/tee_api_operations.c:1402
    19c6:	b9a8      	cbnz	r0, 19f4 <TEE_AEUpdate+0xb6>
/home/yin/imx-optee/imx-optee-os/lib/libutee/tee_api_operations.c:1405
    19c8:	9b04      	ldr	r3, [sp, #16]
    19ca:	6033      	str	r3, [r6, #0]
/home/yin/imx-optee/imx-optee-os/lib/libutee/tee_api_operations.c:1407
    19cc:	2301      	movs	r3, #1
    19ce:	62ab      	str	r3, [r5, #40]	; 0x28
    19d0:	e7cf      	b.n	1972 <TEE_AEUpdate+0x34>
/home/yin/imx-optee/imx-optee-os/lib/libutee/tee_api_operations.c:1393
    19d2:	b12a      	cbz	r2, 19e0 <TEE_AEUpdate+0xa2>
/home/yin/imx-optee/imx-optee-os/lib/libutee/tee_api_operations.c:1394
    19d4:	a804      	add	r0, sp, #16
    19d6:	9000      	str	r0, [sp, #0]
    19d8:	6be8      	ldr	r0, [r5, #60]	; 0x3c
    19da:	f000 ed92 	blx	2500 <utee_authenc_update_payload>
    19de:	e7f1      	b.n	19c4 <TEE_AEUpdate+0x86>
/home/yin/imx-optee/imx-optee-os/lib/libutee/tee_api_operations.c:1398
    19e0:	2200      	movs	r2, #0
    19e2:	2300      	movs	r3, #0
    19e4:	e9cd 2304 	strd	r2, r3, [sp, #16]
    19e8:	e7ee      	b.n	19c8 <TEE_AEUpdate+0x8a>
    19ea:	4c05      	ldr	r4, [pc, #20]	; (1a00 <TEE_AEUpdate+0xc2>)
/home/yin/imx-optee/imx-optee-os/lib/libutee/tee_api_operations.c:1412
    19ec:	4620      	mov	r0, r4
    19ee:	f003 fb4b 	bl	5088 <TEE_Panic>
/home/yin/imx-optee/imx-optee-os/lib/libutee/tee_api_operations.c:1414
    19f2:	e7d1      	b.n	1998 <TEE_AEUpdate+0x5a>
/home/yin/imx-optee/imx-optee-os/lib/libutee/tee_api_operations.c:1410
    19f4:	4b01      	ldr	r3, [pc, #4]	; (19fc <TEE_AEUpdate+0xbe>)
    19f6:	4298      	cmp	r0, r3
    19f8:	d0ce      	beq.n	1998 <TEE_AEUpdate+0x5a>
    19fa:	e7f7      	b.n	19ec <TEE_AEUpdate+0xae>
    19fc:	ffff0010 	.word	0xffff0010
    1a00:	ffff0006 	.word	0xffff0006
    1a04:	00007164 	.word	0x00007164
    1a08:	00000018 	.word	0x00000018

00001a0c <TEE_AEEncryptFinal>:
TEE_AEEncryptFinal():
/home/yin/imx-optee/imx-optee-os/lib/libutee/tee_api_operations.c:1421
    1a0c:	f8df c10c 	ldr.w	ip, [pc, #268]	; 1b1c <TEE_AEEncryptFinal+0x110>
    1a10:	e92d 4ff0 	stmdb	sp!, {r4, r5, r6, r7, r8, r9, sl, fp, lr}
    1a14:	b08b      	sub	sp, #44	; 0x2c
    1a16:	4698      	mov	r8, r3
    1a18:	9e14      	ldr	r6, [sp, #80]	; 0x50
    1a1a:	44fc      	add	ip, pc
/home/yin/imx-optee/imx-optee-os/lib/libutee/tee_api_operations.c:1429
    1a1c:	4604      	mov	r4, r0
/home/yin/imx-optee/imx-optee-os/lib/libutee/tee_api_operations.c:1421
    1a1e:	f8dd b054 	ldr.w	fp, [sp, #84]	; 0x54
    1a22:	9f16      	ldr	r7, [sp, #88]	; 0x58
/home/yin/imx-optee/imx-optee-os/lib/libutee/tee_api_operations.c:1429
    1a24:	2800      	cmp	r0, #0
    1a26:	d069      	beq.n	1afc <TEE_AEEncryptFinal+0xf0>
/home/yin/imx-optee/imx-optee-os/lib/libutee/tee_api_operations.c:1429 (discriminator 1)
    1a28:	b909      	cbnz	r1, 1a2e <TEE_AEEncryptFinal+0x22>
/home/yin/imx-optee/imx-optee-os/lib/libutee/tee_api_operations.c:1430
    1a2a:	2a00      	cmp	r2, #0
    1a2c:	d166      	bne.n	1afc <TEE_AEEncryptFinal+0xf0>
/home/yin/imx-optee/imx-optee-os/lib/libutee/tee_api_operations.c:1430 (discriminator 1)
    1a2e:	2e00      	cmp	r6, #0
    1a30:	d064      	beq.n	1afc <TEE_AEEncryptFinal+0xf0>
/home/yin/imx-optee/imx-optee-os/lib/libutee/tee_api_operations.c:1431
    1a32:	f1b8 0f00 	cmp.w	r8, #0
    1a36:	d102      	bne.n	1a3e <TEE_AEEncryptFinal+0x32>
/home/yin/imx-optee/imx-optee-os/lib/libutee/tee_api_operations.c:1432
    1a38:	6833      	ldr	r3, [r6, #0]
    1a3a:	2b00      	cmp	r3, #0
    1a3c:	d15e      	bne.n	1afc <TEE_AEEncryptFinal+0xf0>
/home/yin/imx-optee/imx-optee-os/lib/libutee/tee_api_operations.c:1432 (discriminator 1)
    1a3e:	f1bb 0f00 	cmp.w	fp, #0
    1a42:	d05b      	beq.n	1afc <TEE_AEEncryptFinal+0xf0>
/home/yin/imx-optee/imx-optee-os/lib/libutee/tee_api_operations.c:1433
    1a44:	2f00      	cmp	r7, #0
    1a46:	d059      	beq.n	1afc <TEE_AEEncryptFinal+0xf0>
/home/yin/imx-optee/imx-optee-os/lib/libutee/tee_api_operations.c:1438
    1a48:	6863      	ldr	r3, [r4, #4]
    1a4a:	2b04      	cmp	r3, #4
    1a4c:	d156      	bne.n	1afc <TEE_AEEncryptFinal+0xf0>
/home/yin/imx-optee/imx-optee-os/lib/libutee/tee_api_operations.c:1443
    1a4e:	69e3      	ldr	r3, [r4, #28]
    1a50:	039b      	lsls	r3, r3, #14
    1a52:	d553      	bpl.n	1afc <TEE_AEEncryptFinal+0xf0>
/home/yin/imx-optee/imx-optee-os/lib/libutee/tee_api_operations.c:1458
    1a54:	6ba3      	ldr	r3, [r4, #56]	; 0x38
/home/yin/imx-optee/imx-optee-os/lib/libutee/tee_api_operations.c:1459
    1a56:	6830      	ldr	r0, [r6, #0]
    1a58:	f8df 90b8 	ldr.w	r9, [pc, #184]	; 1b14 <TEE_AEEncryptFinal+0x108>
/home/yin/imx-optee/imx-optee-os/lib/libutee/tee_api_operations.c:1458
    1a5c:	4413      	add	r3, r2
/home/yin/imx-optee/imx-optee-os/lib/libutee/tee_api_operations.c:1459
    1a5e:	4283      	cmp	r3, r0
/home/yin/imx-optee/imx-optee-os/lib/libutee/tee_api_operations.c:1460
    1a60:	bf84      	itt	hi
    1a62:	6033      	strhi	r3, [r6, #0]
/home/yin/imx-optee/imx-optee-os/lib/libutee/tee_api_operations.c:1461
    1a64:	4648      	movhi	r0, r9
/home/yin/imx-optee/imx-optee-os/lib/libutee/tee_api_operations.c:1464
    1a66:	683b      	ldr	r3, [r7, #0]
    1a68:	6c25      	ldr	r5, [r4, #64]	; 0x40
/home/yin/imx-optee/imx-optee-os/lib/libutee/tee_api_operations.c:1456
    1a6a:	bf98      	it	ls
    1a6c:	4828      	ldrls	r0, [pc, #160]	; (1b10 <TEE_AEEncryptFinal+0x104>)
/home/yin/imx-optee/imx-optee-os/lib/libutee/tee_api_operations.c:1464
    1a6e:	42ab      	cmp	r3, r5
    1a70:	d202      	bcs.n	1a78 <TEE_AEEncryptFinal+0x6c>
/home/yin/imx-optee/imx-optee-os/lib/libutee/tee_api_operations.c:1465
    1a72:	603d      	str	r5, [r7, #0]
    1a74:	4b27      	ldr	r3, [pc, #156]	; (1b14 <TEE_AEEncryptFinal+0x108>)
    1a76:	e037      	b.n	1ae8 <TEE_AEEncryptFinal+0xdc>
/home/yin/imx-optee/imx-optee-os/lib/libutee/tee_api_operations.c:1469
    1a78:	4548      	cmp	r0, r9
    1a7a:	d0fb      	beq.n	1a74 <TEE_AEEncryptFinal+0x68>
/home/yin/imx-optee/imx-optee-os/lib/libutee/tee_api_operations.c:1472
    1a7c:	9308      	str	r3, [sp, #32]
    1a7e:	2500      	movs	r5, #0
/home/yin/imx-optee/imx-optee-os/lib/libutee/tee_api_operations.c:1473
    1a80:	6833      	ldr	r3, [r6, #0]
    1a82:	f10d 0a18 	add.w	sl, sp, #24
/home/yin/imx-optee/imx-optee-os/lib/libutee/tee_api_operations.c:1472
    1a86:	9509      	str	r5, [sp, #36]	; 0x24
/home/yin/imx-optee/imx-optee-os/lib/libutee/tee_api_operations.c:1473
    1a88:	9507      	str	r5, [sp, #28]
    1a8a:	9306      	str	r3, [sp, #24]
/home/yin/imx-optee/imx-optee-os/lib/libutee/tee_api_operations.c:1474
    1a8c:	6b63      	ldr	r3, [r4, #52]	; 0x34
    1a8e:	2b01      	cmp	r3, #1
    1a90:	d92e      	bls.n	1af0 <TEE_AEEncryptFinal+0xe4>
/home/yin/imx-optee/imx-optee-os/lib/libutee/tee_api_operations.c:1475
    1a92:	4b23      	ldr	r3, [pc, #140]	; (1b20 <TEE_AEEncryptFinal+0x114>)
    1a94:	4620      	mov	r0, r4
    1a96:	f85c 3003 	ldr.w	r3, [ip, r3]
    1a9a:	e88d 0500 	stmia.w	sp, {r8, sl}
    1a9e:	9305      	str	r3, [sp, #20]
    1aa0:	4613      	mov	r3, r2
    1aa2:	460a      	mov	r2, r1
    1aa4:	9905      	ldr	r1, [sp, #20]
    1aa6:	f7fe ffbd 	bl	a24 <tee_buffer_update>
/home/yin/imx-optee/imx-optee-os/lib/libutee/tee_api_operations.c:1477
    1aaa:	4603      	mov	r3, r0
    1aac:	2800      	cmp	r0, #0
    1aae:	d12c      	bne.n	1b0a <TEE_AEEncryptFinal+0xfe>
/home/yin/imx-optee/imx-optee-os/lib/libutee/tee_api_operations.c:1480
    1ab0:	9d06      	ldr	r5, [sp, #24]
/home/yin/imx-optee/imx-optee-os/lib/libutee/tee_api_operations.c:1484
    1ab2:	ab08      	add	r3, sp, #32
/home/yin/imx-optee/imx-optee-os/lib/libutee/tee_api_operations.c:1483
    1ab4:	6832      	ldr	r2, [r6, #0]
/home/yin/imx-optee/imx-optee-os/lib/libutee/tee_api_operations.c:1484
    1ab6:	9302      	str	r3, [sp, #8]
    1ab8:	e88d 0c00 	stmia.w	sp, {sl, fp}
    1abc:	eb08 0305 	add.w	r3, r8, r5
/home/yin/imx-optee/imx-optee-os/lib/libutee/tee_api_operations.c:1483
    1ac0:	1b52      	subs	r2, r2, r5
/home/yin/imx-optee/imx-optee-os/lib/libutee/tee_api_operations.c:1484
    1ac2:	6ae1      	ldr	r1, [r4, #44]	; 0x2c
/home/yin/imx-optee/imx-optee-os/lib/libutee/tee_api_operations.c:1483
    1ac4:	9206      	str	r2, [sp, #24]
/home/yin/imx-optee/imx-optee-os/lib/libutee/tee_api_operations.c:1484
    1ac6:	6ba2      	ldr	r2, [r4, #56]	; 0x38
/home/yin/imx-optee/imx-optee-os/lib/libutee/tee_api_operations.c:1483
    1ac8:	9007      	str	r0, [sp, #28]
/home/yin/imx-optee/imx-optee-os/lib/libutee/tee_api_operations.c:1489
    1aca:	6be0      	ldr	r0, [r4, #60]	; 0x3c
    1acc:	f000 ed24 	blx	2518 <utee_authenc_enc_final>
/home/yin/imx-optee/imx-optee-os/lib/libutee/tee_api_operations.c:1493
    1ad0:	9a08      	ldr	r2, [sp, #32]
/home/yin/imx-optee/imx-optee-os/lib/libutee/tee_api_operations.c:1489
    1ad2:	4603      	mov	r3, r0
/home/yin/imx-optee/imx-optee-os/lib/libutee/tee_api_operations.c:1493
    1ad4:	603a      	str	r2, [r7, #0]
/home/yin/imx-optee/imx-optee-os/lib/libutee/tee_api_operations.c:1494
    1ad6:	b9c0      	cbnz	r0, 1b0a <TEE_AEEncryptFinal+0xfe>
/home/yin/imx-optee/imx-optee-os/lib/libutee/tee_api_operations.c:1497
    1ad8:	9a06      	ldr	r2, [sp, #24]
    1ada:	4415      	add	r5, r2
/home/yin/imx-optee/imx-optee-os/lib/libutee/tee_api_operations.c:1498
    1adc:	6035      	str	r5, [r6, #0]
/home/yin/imx-optee/imx-optee-os/lib/libutee/tee_api_operations.c:1500
    1ade:	69e2      	ldr	r2, [r4, #28]
/home/yin/imx-optee/imx-optee-os/lib/libutee/tee_api_operations.c:1502
    1ae0:	62a0      	str	r0, [r4, #40]	; 0x28
/home/yin/imx-optee/imx-optee-os/lib/libutee/tee_api_operations.c:1500
    1ae2:	f422 3200 	bic.w	r2, r2, #131072	; 0x20000
    1ae6:	61e2      	str	r2, [r4, #28]
/home/yin/imx-optee/imx-optee-os/lib/libutee/tee_api_operations.c:1510
    1ae8:	4618      	mov	r0, r3
    1aea:	b00b      	add	sp, #44	; 0x2c
    1aec:	e8bd 8ff0 	ldmia.w	sp!, {r4, r5, r6, r7, r8, r9, sl, fp, pc}
/home/yin/imx-optee/imx-optee-os/lib/libutee/tee_api_operations.c:1489
    1af0:	ab08      	add	r3, sp, #32
    1af2:	e88d 0c00 	stmia.w	sp, {sl, fp}
    1af6:	9302      	str	r3, [sp, #8]
    1af8:	4643      	mov	r3, r8
    1afa:	e7e6      	b.n	1aca <TEE_AEEncryptFinal+0xbe>
    1afc:	4b06      	ldr	r3, [pc, #24]	; (1b18 <TEE_AEEncryptFinal+0x10c>)
/home/yin/imx-optee/imx-optee-os/lib/libutee/tee_api_operations.c:1507
    1afe:	4618      	mov	r0, r3
    1b00:	9305      	str	r3, [sp, #20]
    1b02:	f003 fac1 	bl	5088 <TEE_Panic>
/home/yin/imx-optee/imx-optee-os/lib/libutee/tee_api_operations.c:1509
    1b06:	9b05      	ldr	r3, [sp, #20]
    1b08:	e7ee      	b.n	1ae8 <TEE_AEEncryptFinal+0xdc>
/home/yin/imx-optee/imx-optee-os/lib/libutee/tee_api_operations.c:1505
    1b0a:	454b      	cmp	r3, r9
    1b0c:	d0b2      	beq.n	1a74 <TEE_AEEncryptFinal+0x68>
    1b0e:	e7f6      	b.n	1afe <TEE_AEEncryptFinal+0xf2>
    1b10:	ffff0000 	.word	0xffff0000
    1b14:	ffff0010 	.word	0xffff0010
    1b18:	ffff0006 	.word	0xffff0006
    1b1c:	00007092 	.word	0x00007092
    1b20:	00000018 	.word	0x00000018

00001b24 <TEE_AEDecryptFinal>:
TEE_AEDecryptFinal():
/home/yin/imx-optee/imx-optee-os/lib/libutee/tee_api_operations.c:1516
    1b24:	e92d 4ff0 	stmdb	sp!, {r4, r5, r6, r7, r8, r9, sl, fp, lr}
    1b28:	b089      	sub	sp, #36	; 0x24
    1b2a:	4c3e      	ldr	r4, [pc, #248]	; (1c24 <TEE_AEDecryptFinal+0x100>)
    1b2c:	4699      	mov	r9, r3
/home/yin/imx-optee/imx-optee-os/lib/libutee/tee_api_operations.c:1523
    1b2e:	4605      	mov	r5, r0
/home/yin/imx-optee/imx-optee-os/lib/libutee/tee_api_operations.c:1516
    1b30:	9f12      	ldr	r7, [sp, #72]	; 0x48
    1b32:	447c      	add	r4, pc
    1b34:	f8dd b04c 	ldr.w	fp, [sp, #76]	; 0x4c
    1b38:	f8dd 8050 	ldr.w	r8, [sp, #80]	; 0x50
/home/yin/imx-optee/imx-optee-os/lib/libutee/tee_api_operations.c:1523
    1b3c:	2800      	cmp	r0, #0
    1b3e:	d068      	beq.n	1c12 <TEE_AEDecryptFinal+0xee>
/home/yin/imx-optee/imx-optee-os/lib/libutee/tee_api_operations.c:1523 (discriminator 1)
    1b40:	b909      	cbnz	r1, 1b46 <TEE_AEDecryptFinal+0x22>
/home/yin/imx-optee/imx-optee-os/lib/libutee/tee_api_operations.c:1524
    1b42:	2a00      	cmp	r2, #0
    1b44:	d165      	bne.n	1c12 <TEE_AEDecryptFinal+0xee>
/home/yin/imx-optee/imx-optee-os/lib/libutee/tee_api_operations.c:1524 (discriminator 1)
    1b46:	2f00      	cmp	r7, #0
    1b48:	d063      	beq.n	1c12 <TEE_AEDecryptFinal+0xee>
/home/yin/imx-optee/imx-optee-os/lib/libutee/tee_api_operations.c:1525
    1b4a:	f1b9 0f00 	cmp.w	r9, #0
    1b4e:	d102      	bne.n	1b56 <TEE_AEDecryptFinal+0x32>
/home/yin/imx-optee/imx-optee-os/lib/libutee/tee_api_operations.c:1526
    1b50:	683b      	ldr	r3, [r7, #0]
    1b52:	2b00      	cmp	r3, #0
    1b54:	d15d      	bne.n	1c12 <TEE_AEDecryptFinal+0xee>
/home/yin/imx-optee/imx-optee-os/lib/libutee/tee_api_operations.c:1526 (discriminator 1)
    1b56:	f1bb 0f00 	cmp.w	fp, #0
    1b5a:	d102      	bne.n	1b62 <TEE_AEDecryptFinal+0x3e>
/home/yin/imx-optee/imx-optee-os/lib/libutee/tee_api_operations.c:1527
    1b5c:	f1b8 0f00 	cmp.w	r8, #0
    1b60:	d157      	bne.n	1c12 <TEE_AEDecryptFinal+0xee>
/home/yin/imx-optee/imx-optee-os/lib/libutee/tee_api_operations.c:1532
    1b62:	686b      	ldr	r3, [r5, #4]
    1b64:	2b04      	cmp	r3, #4
    1b66:	d154      	bne.n	1c12 <TEE_AEDecryptFinal+0xee>
/home/yin/imx-optee/imx-optee-os/lib/libutee/tee_api_operations.c:1537
    1b68:	69eb      	ldr	r3, [r5, #28]
    1b6a:	039b      	lsls	r3, r3, #14
    1b6c:	d551      	bpl.n	1c12 <TEE_AEDecryptFinal+0xee>
/home/yin/imx-optee/imx-optee-os/lib/libutee/tee_api_operations.c:1547
    1b6e:	6bab      	ldr	r3, [r5, #56]	; 0x38
/home/yin/imx-optee/imx-optee-os/lib/libutee/tee_api_operations.c:1548
    1b70:	6838      	ldr	r0, [r7, #0]
/home/yin/imx-optee/imx-optee-os/lib/libutee/tee_api_operations.c:1547
    1b72:	4413      	add	r3, r2
/home/yin/imx-optee/imx-optee-os/lib/libutee/tee_api_operations.c:1548
    1b74:	4283      	cmp	r3, r0
    1b76:	d905      	bls.n	1b84 <TEE_AEDecryptFinal+0x60>
/home/yin/imx-optee/imx-optee-os/lib/libutee/tee_api_operations.c:1549
    1b78:	4c27      	ldr	r4, [pc, #156]	; (1c18 <TEE_AEDecryptFinal+0xf4>)
    1b7a:	603b      	str	r3, [r7, #0]
/home/yin/imx-optee/imx-optee-os/lib/libutee/tee_api_operations.c:1595
    1b7c:	4620      	mov	r0, r4
    1b7e:	b009      	add	sp, #36	; 0x24
    1b80:	e8bd 8ff0 	ldmia.w	sp!, {r4, r5, r6, r7, r8, r9, sl, fp, pc}
/home/yin/imx-optee/imx-optee-os/lib/libutee/tee_api_operations.c:1555
    1b84:	6b6b      	ldr	r3, [r5, #52]	; 0x34
/home/yin/imx-optee/imx-optee-os/lib/libutee/tee_api_operations.c:1554
    1b86:	2600      	movs	r6, #0
    1b88:	9006      	str	r0, [sp, #24]
    1b8a:	f10d 0a18 	add.w	sl, sp, #24
    1b8e:	9607      	str	r6, [sp, #28]
/home/yin/imx-optee/imx-optee-os/lib/libutee/tee_api_operations.c:1555
    1b90:	2b01      	cmp	r3, #1
    1b92:	d938      	bls.n	1c06 <TEE_AEDecryptFinal+0xe2>
/home/yin/imx-optee/imx-optee-os/lib/libutee/tee_api_operations.c:1556
    1b94:	4b24      	ldr	r3, [pc, #144]	; (1c28 <TEE_AEDecryptFinal+0x104>)
    1b96:	4628      	mov	r0, r5
    1b98:	58e3      	ldr	r3, [r4, r3]
    1b9a:	e88d 0600 	stmia.w	sp, {r9, sl}
    1b9e:	9305      	str	r3, [sp, #20]
    1ba0:	4613      	mov	r3, r2
    1ba2:	460a      	mov	r2, r1
    1ba4:	9905      	ldr	r1, [sp, #20]
    1ba6:	f7fe ff3d 	bl	a24 <tee_buffer_update>
/home/yin/imx-optee/imx-optee-os/lib/libutee/tee_api_operations.c:1558
    1baa:	4604      	mov	r4, r0
    1bac:	bb08      	cbnz	r0, 1bf2 <TEE_AEDecryptFinal+0xce>
/home/yin/imx-optee/imx-optee-os/lib/libutee/tee_api_operations.c:1561
    1bae:	9e06      	ldr	r6, [sp, #24]
/home/yin/imx-optee/imx-optee-os/lib/libutee/tee_api_operations.c:1564
    1bb0:	683b      	ldr	r3, [r7, #0]
/home/yin/imx-optee/imx-optee-os/lib/libutee/tee_api_operations.c:1565
    1bb2:	f8cd 8008 	str.w	r8, [sp, #8]
    1bb6:	e88d 0c00 	stmia.w	sp, {sl, fp}
    1bba:	6baa      	ldr	r2, [r5, #56]	; 0x38
/home/yin/imx-optee/imx-optee-os/lib/libutee/tee_api_operations.c:1564
    1bbc:	1b9b      	subs	r3, r3, r6
/home/yin/imx-optee/imx-optee-os/lib/libutee/tee_api_operations.c:1565
    1bbe:	6ae9      	ldr	r1, [r5, #44]	; 0x2c
/home/yin/imx-optee/imx-optee-os/lib/libutee/tee_api_operations.c:1564
    1bc0:	9306      	str	r3, [sp, #24]
/home/yin/imx-optee/imx-optee-os/lib/libutee/tee_api_operations.c:1565
    1bc2:	eb09 0306 	add.w	r3, r9, r6
/home/yin/imx-optee/imx-optee-os/lib/libutee/tee_api_operations.c:1564
    1bc6:	9007      	str	r0, [sp, #28]
/home/yin/imx-optee/imx-optee-os/lib/libutee/tee_api_operations.c:1570
    1bc8:	6be8      	ldr	r0, [r5, #60]	; 0x3c
    1bca:	f000 ecb2 	blx	2530 <utee_authenc_dec_final>
    1bce:	4604      	mov	r4, r0
/home/yin/imx-optee/imx-optee-os/lib/libutee/tee_api_operations.c:1574
    1bd0:	b978      	cbnz	r0, 1bf2 <TEE_AEDecryptFinal+0xce>
/home/yin/imx-optee/imx-optee-os/lib/libutee/tee_api_operations.c:1578
    1bd2:	6c2a      	ldr	r2, [r5, #64]	; 0x40
/home/yin/imx-optee/imx-optee-os/lib/libutee/tee_api_operations.c:1579
    1bd4:	4b11      	ldr	r3, [pc, #68]	; (1c1c <TEE_AEDecryptFinal+0xf8>)
    1bd6:	4590      	cmp	r8, r2
    1bd8:	bf18      	it	ne
    1bda:	461c      	movne	r4, r3
/home/yin/imx-optee/imx-optee-os/lib/libutee/tee_api_operations.c:1581
    1bdc:	9b06      	ldr	r3, [sp, #24]
    1bde:	441e      	add	r6, r3
/home/yin/imx-optee/imx-optee-os/lib/libutee/tee_api_operations.c:1582
    1be0:	603e      	str	r6, [r7, #0]
/home/yin/imx-optee/imx-optee-os/lib/libutee/tee_api_operations.c:1584
    1be2:	69eb      	ldr	r3, [r5, #28]
    1be4:	f423 3300 	bic.w	r3, r3, #131072	; 0x20000
    1be8:	61eb      	str	r3, [r5, #28]
/home/yin/imx-optee/imx-optee-os/lib/libutee/tee_api_operations.c:1586
    1bea:	2300      	movs	r3, #0
    1bec:	62ab      	str	r3, [r5, #40]	; 0x28
/home/yin/imx-optee/imx-optee-os/lib/libutee/tee_api_operations.c:1589
    1bee:	2c00      	cmp	r4, #0
    1bf0:	d0c4      	beq.n	1b7c <TEE_AEDecryptFinal+0x58>
/home/yin/imx-optee/imx-optee-os/lib/libutee/tee_api_operations.c:1589 (discriminator 1)
    1bf2:	4b09      	ldr	r3, [pc, #36]	; (1c18 <TEE_AEDecryptFinal+0xf4>)
    1bf4:	429c      	cmp	r4, r3
    1bf6:	d0c1      	beq.n	1b7c <TEE_AEDecryptFinal+0x58>
/home/yin/imx-optee/imx-optee-os/lib/libutee/tee_api_operations.c:1590
    1bf8:	4b08      	ldr	r3, [pc, #32]	; (1c1c <TEE_AEDecryptFinal+0xf8>)
    1bfa:	429c      	cmp	r4, r3
    1bfc:	d0be      	beq.n	1b7c <TEE_AEDecryptFinal+0x58>
/home/yin/imx-optee/imx-optee-os/lib/libutee/tee_api_operations.c:1592
    1bfe:	4620      	mov	r0, r4
    1c00:	f003 fa42 	bl	5088 <TEE_Panic>
/home/yin/imx-optee/imx-optee-os/lib/libutee/tee_api_operations.c:1594
    1c04:	e7ba      	b.n	1b7c <TEE_AEDecryptFinal+0x58>
/home/yin/imx-optee/imx-optee-os/lib/libutee/tee_api_operations.c:1570
    1c06:	f8cd 8008 	str.w	r8, [sp, #8]
    1c0a:	464b      	mov	r3, r9
    1c0c:	e88d 0c00 	stmia.w	sp, {sl, fp}
    1c10:	e7da      	b.n	1bc8 <TEE_AEDecryptFinal+0xa4>
    1c12:	4c03      	ldr	r4, [pc, #12]	; (1c20 <TEE_AEDecryptFinal+0xfc>)
    1c14:	e7f3      	b.n	1bfe <TEE_AEDecryptFinal+0xda>
    1c16:	bf00      	nop
    1c18:	ffff0010 	.word	0xffff0010
    1c1c:	ffff3071 	.word	0xffff3071
    1c20:	ffff0006 	.word	0xffff0006
    1c24:	00006f7a 	.word	0x00006f7a
    1c28:	00000018 	.word	0x00000018

00001c2c <TEE_AsymmetricEncrypt>:
TEE_AsymmetricEncrypt():
/home/yin/imx-optee/imx-optee-os/lib/libutee/tee_api_operations.c:1604
    1c2c:	e92d 4ff0 	stmdb	sp!, {r4, r5, r6, r7, r8, r9, sl, fp, lr}
    1c30:	469a      	mov	sl, r3
/home/yin/imx-optee/imx-optee-os/lib/libutee/tee_api_operations.c:1606
    1c32:	2318      	movs	r3, #24
/home/yin/imx-optee/imx-optee-os/lib/libutee/tee_api_operations.c:1604
    1c34:	b087      	sub	sp, #28
/home/yin/imx-optee/imx-optee-os/lib/libutee/tee_api_operations.c:1606
    1c36:	4353      	muls	r3, r2
/home/yin/imx-optee/imx-optee-os/lib/libutee/tee_api_operations.c:1604
    1c38:	af04      	add	r7, sp, #16
    1c3a:	4688      	mov	r8, r1
    1c3c:	4616      	mov	r6, r2
    1c3e:	f8d7 b034 	ldr.w	fp, [r7, #52]	; 0x34
    1c42:	6bbd      	ldr	r5, [r7, #56]	; 0x38
/home/yin/imx-optee/imx-optee-os/lib/libutee/tee_api_operations.c:1609
    1c44:	4604      	mov	r4, r0
/home/yin/imx-optee/imx-optee-os/lib/libutee/tee_api_operations.c:1606
    1c46:	3308      	adds	r3, #8
    1c48:	ebad 0d03 	sub.w	sp, sp, r3
    1c4c:	f10d 0910 	add.w	r9, sp, #16
/home/yin/imx-optee/imx-optee-os/lib/libutee/tee_api_operations.c:1609
    1c50:	b150      	cbz	r0, 1c68 <TEE_AsymmetricEncrypt+0x3c>
/home/yin/imx-optee/imx-optee-os/lib/libutee/tee_api_operations.c:1609 (discriminator 1)
    1c52:	f1ba 0f00 	cmp.w	sl, #0
    1c56:	d101      	bne.n	1c5c <TEE_AsymmetricEncrypt+0x30>
/home/yin/imx-optee/imx-optee-os/lib/libutee/tee_api_operations.c:1609 (discriminator 2)
    1c58:	6b3b      	ldr	r3, [r7, #48]	; 0x30
    1c5a:	b92b      	cbnz	r3, 1c68 <TEE_AsymmetricEncrypt+0x3c>
/home/yin/imx-optee/imx-optee-os/lib/libutee/tee_api_operations.c:1609 (discriminator 4)
    1c5c:	b125      	cbz	r5, 1c68 <TEE_AsymmetricEncrypt+0x3c>
