Archive member included to satisfy reference by file (symbol)

/home/yin/imx-optee/imx-optee-os/out/arm-plat-imx/export-ta_arm32/lib/libutee.a(tee_api_objects.o)
                              ./hotp_ta.o (TEE_AllocateTransientObject)
/home/yin/imx-optee/imx-optee-os/out/arm-plat-imx/export-ta_arm32/lib/libutee.a(tee_api_operations.o)
                              ./hotp_ta.o (TEE_FreeOperation)
/home/yin/imx-optee/imx-optee-os/out/arm-plat-imx/export-ta_arm32/lib/libutee.a(tee_api_panic.o)
                              /home/yin/imx-optee/imx-optee-os/out/arm-plat-imx/export-ta_arm32/lib/libutee.a(tee_api_objects.o) (TEE_Panic)
/home/yin/imx-optee/imx-optee-os/out/arm-plat-imx/export-ta_arm32/lib/libutee.a(user_ta_entry.o)
                              ./user_ta_header.o (__utee_entry)
/home/yin/imx-optee/imx-optee-os/out/arm-plat-imx/export-ta_arm32/lib/libutee.a(utee_syscalls_a32.o)
                              /home/yin/imx-optee/imx-optee-os/out/arm-plat-imx/export-ta_arm32/lib/libutee.a(tee_api_panic.o) (utee_panic)
/home/yin/imx-optee/imx-optee-os/out/arm-plat-imx/export-ta_arm32/lib/libutee.a(gprof_a32.o)
                              /home/yin/imx-optee/imx-optee-os/out/arm-plat-imx/export-ta_arm32/lib/libutee.a(user_ta_entry.o) (__utee_mcount)
/home/yin/imx-optee/imx-optee-os/out/arm-plat-imx/export-ta_arm32/lib/libutee.a(tee_api_arith.o)
                              /home/yin/imx-optee/imx-optee-os/out/arm-plat-imx/export-ta_arm32/lib/libutee.a(user_ta_entry.o) (_TEE_MathAPI_Init)
/home/yin/imx-optee/imx-optee-os/out/arm-plat-imx/export-ta_arm32/lib/libutee.a(tee_api.o)
                              /home/yin/imx-optee/imx-optee-os/out/arm-plat-imx/export-ta_arm32/lib/libutee.a(user_ta_entry.o) (__utee_from_param)
/home/yin/imx-optee/imx-optee-os/out/arm-plat-imx/export-ta_arm32/lib/libutee.a(trace_ext.o)
                              /home/yin/imx-optee/imx-optee-os/out/arm-plat-imx/export-ta_arm32/lib/libutee.a(tee_api_arith.o) (printf)
/home/yin/imx-optee/imx-optee-os/out/arm-plat-imx/export-ta_arm32/lib/libutils.a(bget_malloc.o)
                              /home/yin/imx-optee/imx-optee-os/out/arm-plat-imx/export-ta_arm32/lib/libutee.a(tee_api.o) (malloc)
/home/yin/imx-optee/imx-optee-os/out/arm-plat-imx/export-ta_arm32/lib/libutils.a(snprintf.o)
                              /home/yin/imx-optee/imx-optee-os/out/arm-plat-imx/export-ta_arm32/lib/libutee.a(trace_ext.o) (vsnprintf)
/home/yin/imx-optee/imx-optee-os/out/arm-plat-imx/export-ta_arm32/lib/libutils.a(memcmp.o)
                              /home/yin/imx-optee/imx-optee-os/out/arm-plat-imx/export-ta_arm32/lib/libutee.a(tee_api.o) (memcmp)
/home/yin/imx-optee/imx-optee-os/out/arm-plat-imx/export-ta_arm32/lib/libutils.a(memcpy.o)
                              ./hotp_ta.o (memcpy)
/home/yin/imx-optee/imx-optee-os/out/arm-plat-imx/export-ta_arm32/lib/libutils.a(memmove.o)
                              /home/yin/imx-optee/imx-optee-os/out/arm-plat-imx/export-ta_arm32/lib/libutee.a(tee_api.o) (memmove)
/home/yin/imx-optee/imx-optee-os/out/arm-plat-imx/export-ta_arm32/lib/libutils.a(memset.o)
                              ./hotp_ta.o (memset)
/home/yin/imx-optee/imx-optee-os/out/arm-plat-imx/export-ta_arm32/lib/libutils.a(strlen.o)
                              /home/yin/imx-optee/imx-optee-os/out/arm-plat-imx/export-ta_arm32/lib/libutee.a(trace_ext.o) (strlen)
/home/yin/imx-optee/imx-optee-os/out/arm-plat-imx/export-ta_arm32/lib/libutils.a(arm32_aeabi_divmod.o)
                              /home/yin/imx-optee/imx-optee-os/out/arm-plat-imx/export-ta_arm32/lib/libutee.a(tee_api_operations.o) (__aeabi_uidiv)
/home/yin/imx-optee/imx-optee-os/out/arm-plat-imx/export-ta_arm32/lib/libutils.a(snprintk.o)
                              /home/yin/imx-optee/imx-optee-os/out/arm-plat-imx/export-ta_arm32/lib/libutils.a(snprintf.o) (__vsnprintf)
/home/yin/imx-optee/imx-optee-os/out/arm-plat-imx/export-ta_arm32/lib/libutils.a(buf_compare_ct.o)
                              /home/yin/imx-optee/imx-optee-os/out/arm-plat-imx/export-ta_arm32/lib/libutee.a(tee_api_operations.o) (buf_compare_ct)
/home/yin/imx-optee/imx-optee-os/out/arm-plat-imx/export-ta_arm32/lib/libutils.a(trace.o)
                              /home/yin/imx-optee/imx-optee-os/out/arm-plat-imx/export-ta_arm32/lib/libutee.a(user_ta_entry.o) (trace_set_level)
/home/yin/imx-optee/imx-optee-os/out/arm-plat-imx/export-ta_arm32/lib/libutils.a(mempool.o)
                              /home/yin/imx-optee/imx-optee-os/out/arm-plat-imx/export-ta_arm32/lib/libutee.a(tee_api_arith.o) (mempool_alloc_pool)
/home/yin/imx-optee/imx-optee-os/out/arm-plat-imx/export-ta_arm32/lib/libutils.a(aeabi_unwind.o)
                              ./hotp_ta.o (__aeabi_unwind_cpp_pr0)
/home/yin/imx-optee/imx-optee-os/out/arm-plat-imx/export-ta_arm32/lib/libutils.a(memchr.o)
                              /home/yin/imx-optee/imx-optee-os/out/arm-plat-imx/export-ta_arm32/lib/libutils.a(snprintk.o) (memchr)
/home/yin/imx-optee/imx-optee-os/out/arm-plat-imx/export-ta_arm32/lib/libutils.a(arm32_aeabi_divmod_a32.o)
                              /home/yin/imx-optee/imx-optee-os/out/arm-plat-imx/export-ta_arm32/lib/libutils.a(arm32_aeabi_divmod.o) (ret_idivmod_values)
/home/yin/imx-optee/imx-optee-os/out/arm-plat-imx/export-ta_arm32/lib/libutils.a(arm32_aeabi_ldivmod_a32.o)
                              /home/yin/imx-optee/imx-optee-os/out/arm-plat-imx/export-ta_arm32/lib/libutils.a(snprintk.o) (__aeabi_uldivmod)
/home/yin/imx-optee/imx-optee-os/out/arm-plat-imx/export-ta_arm32/lib/libutils.a(arm32_aeabi_ldivmod.o)
                              /home/yin/imx-optee/imx-optee-os/out/arm-plat-imx/export-ta_arm32/lib/libutils.a(arm32_aeabi_ldivmod_a32.o) (__ul_divmod)
/home/yin/imx-optee/imx-optee-os/out/arm-plat-imx/export-ta_arm32/lib/libmpa.a(mpa_misc.o)
                              /home/yin/imx-optee/imx-optee-os/out/arm-plat-imx/export-ta_arm32/lib/libutee.a(tee_api_arith.o) (mpa_copy)
/home/yin/imx-optee/imx-optee-os/out/arm-plat-imx/export-ta_arm32/lib/libmpa.a(mpa_montgomery.o)
                              /home/yin/imx-optee/imx-optee-os/out/arm-plat-imx/export-ta_arm32/lib/libutee.a(tee_api_arith.o) (mpa_compute_fmm_context)
/home/yin/imx-optee/imx-optee-os/out/arm-plat-imx/export-ta_arm32/lib/libmpa.a(mpa_primetest.o)
                              /home/yin/imx-optee/imx-optee-os/out/arm-plat-imx/export-ta_arm32/lib/libutee.a(tee_api_arith.o) (mpa_is_prob_prime)
/home/yin/imx-optee/imx-optee-os/out/arm-plat-imx/export-ta_arm32/lib/libmpa.a(mpa_conv.o)
                              /home/yin/imx-optee/imx-optee-os/out/arm-plat-imx/export-ta_arm32/lib/libutee.a(tee_api_arith.o) (mpa_set_S32)
/home/yin/imx-optee/imx-optee-os/out/arm-plat-imx/export-ta_arm32/lib/libmpa.a(mpa_div.o)
                              /home/yin/imx-optee/imx-optee-os/out/arm-plat-imx/export-ta_arm32/lib/libutee.a(tee_api_arith.o) (mpa_div)
/home/yin/imx-optee/imx-optee-os/out/arm-plat-imx/export-ta_arm32/lib/libmpa.a(mpa_gcd.o)
                              /home/yin/imx-optee/imx-optee-os/out/arm-plat-imx/export-ta_arm32/lib/libutee.a(tee_api_arith.o) (mpa_gcd)
/home/yin/imx-optee/imx-optee-os/out/arm-plat-imx/export-ta_arm32/lib/libmpa.a(mpa_mem_static.o)
                              /home/yin/imx-optee/imx-optee-os/out/arm-plat-imx/export-ta_arm32/lib/libutee.a(tee_api_arith.o) (mpa_alloc_static_temp_var)
/home/yin/imx-optee/imx-optee-os/out/arm-plat-imx/export-ta_arm32/lib/libmpa.a(mpa_mul.o)
                              /home/yin/imx-optee/imx-optee-os/out/arm-plat-imx/export-ta_arm32/lib/libmpa.a(mpa_div.o) (__mpa_mul_add_word)
/home/yin/imx-optee/imx-optee-os/out/arm-plat-imx/export-ta_arm32/lib/libmpa.a(mpa_random.o)
                              /home/yin/imx-optee/imx-optee-os/out/arm-plat-imx/export-ta_arm32/lib/libmpa.a(mpa_primetest.o) (mpa_get_random)
/home/yin/imx-optee/imx-optee-os/out/arm-plat-imx/export-ta_arm32/lib/libmpa.a(mpa_shift.o)
                              /home/yin/imx-optee/imx-optee-os/out/arm-plat-imx/export-ta_arm32/lib/libmpa.a(mpa_div.o) (__mpa_shift_words_left)
/home/yin/imx-optee/imx-optee-os/out/arm-plat-imx/export-ta_arm32/lib/libmpa.a(mpa_addsub.o)
                              /home/yin/imx-optee/imx-optee-os/out/arm-plat-imx/export-ta_arm32/lib/libmpa.a(mpa_div.o) (__mpa_full_adder)
/home/yin/imx-optee/imx-optee-os/out/arm-plat-imx/export-ta_arm32/lib/libmpa.a(mpa_cmp.o)
                              /home/yin/imx-optee/imx-optee-os/out/arm-plat-imx/export-ta_arm32/lib/libmpa.a(mpa_montgomery.o) (__mpa_abs_cmp)
/home/yin/imx-optee/imx-optee-os/out/arm-plat-imx/export-ta_arm32/lib/libmpa.a(mpa_expmod.o)
                              /home/yin/imx-optee/imx-optee-os/out/arm-plat-imx/export-ta_arm32/lib/libmpa.a(mpa_primetest.o) (mpa_exp_mod)
/home/yin/imx-optee/imx-optee-os/out/arm-plat-imx/export-ta_arm32/lib/libmpa.a(mpa_init.o)
                              /home/yin/imx-optee/imx-optee-os/out/arm-plat-imx/export-ta_arm32/lib/libutee.a(tee_api_arith.o) (mpa_init_static)
/home/yin/imx-optee/imx-optee-os/out/arm-plat-imx/export-ta_arm32/lib/libmpa.a(mpa_io.o)
                              /home/yin/imx-optee/imx-optee-os/out/arm-plat-imx/export-ta_arm32/lib/libutee.a(tee_api_arith.o) (mpa_set_oct_str)
/home/yin/imx-optee/imx-optee-os/out/arm-plat-imx/export-ta_arm32/lib/libmpa.a(mpa_modulus.o)
                              /home/yin/imx-optee/imx-optee-os/out/arm-plat-imx/export-ta_arm32/lib/libutee.a(tee_api_arith.o) (mpa_mod)
/home/yin/imx-optee/imx-optee-os/out/arm-plat-imx/export-ta_arm32/lib/libutee.a(assert.o)
                              /home/yin/imx-optee/imx-optee-os/out/arm-plat-imx/export-ta_arm32/lib/libutils.a(bget_malloc.o) (_assert_log)

Discarded input sections

 .group         0x0000000000000000        0x8 ./hotp_ta.o
 .group         0x0000000000000000        0x8 ./hotp_ta.o
 .group         0x0000000000000000        0x8 ./hotp_ta.o
 .group         0x0000000000000000        0x8 ./hotp_ta.o
 .group         0x0000000000000000        0x8 ./hotp_ta.o
 .group         0x0000000000000000        0x8 ./hotp_ta.o
 .group         0x0000000000000000        0x8 ./hotp_ta.o
 .group         0x0000000000000000        0x8 ./hotp_ta.o
 .group         0x0000000000000000        0x8 ./hotp_ta.o
 .group         0x0000000000000000        0x8 ./hotp_ta.o
 .group         0x0000000000000000        0x8 ./hotp_ta.o
 .group         0x0000000000000000        0x8 ./hotp_ta.o
 .group         0x0000000000000000        0x8 ./hotp_ta.o
 .group         0x0000000000000000        0x8 ./hotp_ta.o
 .group         0x0000000000000000        0x8 ./hotp_ta.o
 .group         0x0000000000000000        0x8 ./user_ta_header.o
 .group         0x0000000000000000        0x8 ./user_ta_header.o
 .group         0x0000000000000000        0x8 ./user_ta_header.o
 .group         0x0000000000000000        0x8 ./user_ta_header.o
 .group         0x0000000000000000        0x8 ./user_ta_header.o
 .group         0x0000000000000000        0x8 ./user_ta_header.o
 .group         0x0000000000000000        0x8 ./user_ta_header.o
 .group         0x0000000000000000        0x8 ./user_ta_header.o
 .group         0x0000000000000000        0x8 ./user_ta_header.o
 .group         0x0000000000000000        0x8 ./user_ta_header.o
 .group         0x0000000000000000        0x8 ./user_ta_header.o
 .group         0x0000000000000000        0x8 ./user_ta_header.o
 .group         0x0000000000000000        0x8 ./user_ta_header.o
 .group         0x0000000000000000        0x8 ./user_ta_header.o
 .group         0x0000000000000000        0x8 ./user_ta_header.o
 .group         0x0000000000000000        0x8 ./user_ta_header.o
 .debug_macro   0x0000000000000000      0x95e ./user_ta_header.o
 .debug_macro   0x0000000000000000       0xcd ./user_ta_header.o
 .debug_macro   0x0000000000000000      0x8e8 ./user_ta_header.o
 .debug_macro   0x0000000000000000       0x7c ./user_ta_header.o
 .debug_macro   0x0000000000000000      0x184 ./user_ta_header.o
 .debug_macro   0x0000000000000000       0x22 ./user_ta_header.o
 .debug_macro   0x0000000000000000      0x16d ./user_ta_header.o
 .debug_macro   0x0000000000000000       0x35 ./user_ta_header.o
 .debug_macro   0x0000000000000000       0x34 ./user_ta_header.o
 .debug_macro   0x0000000000000000       0x94 ./user_ta_header.o
 .debug_macro   0x0000000000000000       0x58 ./user_ta_header.o
 .debug_macro   0x0000000000000000       0xc4 ./user_ta_header.o
 .debug_macro   0x0000000000000000       0x1c ./user_ta_header.o
 .group         0x0000000000000000        0x8 /home/yin/imx-optee/imx-optee-os/out/arm-plat-imx/export-ta_arm32/lib/libutee.a(tee_api_objects.o)
 .group         0x0000000000000000        0x8 /home/yin/imx-optee/imx-optee-os/out/arm-plat-imx/export-ta_arm32/lib/libutee.a(tee_api_objects.o)
 .group         0x0000000000000000        0x8 /home/yin/imx-optee/imx-optee-os/out/arm-plat-imx/export-ta_arm32/lib/libutee.a(tee_api_objects.o)
 .group         0x0000000000000000        0x8 /home/yin/imx-optee/imx-optee-os/out/arm-plat-imx/export-ta_arm32/lib/libutee.a(tee_api_objects.o)
 .group         0x0000000000000000        0x8 /home/yin/imx-optee/imx-optee-os/out/arm-plat-imx/export-ta_arm32/lib/libutee.a(tee_api_objects.o)
 .group         0x0000000000000000        0x8 /home/yin/imx-optee/imx-optee-os/out/arm-plat-imx/export-ta_arm32/lib/libutee.a(tee_api_objects.o)
 .group         0x0000000000000000        0x8 /home/yin/imx-optee/imx-optee-os/out/arm-plat-imx/export-ta_arm32/lib/libutee.a(tee_api_objects.o)
 .group         0x0000000000000000        0x8 /home/yin/imx-optee/imx-optee-os/out/arm-plat-imx/export-ta_arm32/lib/libutee.a(tee_api_objects.o)
 .group         0x0000000000000000        0x8 /home/yin/imx-optee/imx-optee-os/out/arm-plat-imx/export-ta_arm32/lib/libutee.a(tee_api_objects.o)
 .group         0x0000000000000000        0x8 /home/yin/imx-optee/imx-optee-os/out/arm-plat-imx/export-ta_arm32/lib/libutee.a(tee_api_objects.o)
 .group         0x0000000000000000        0x8 /home/yin/imx-optee/imx-optee-os/out/arm-plat-imx/export-ta_arm32/lib/libutee.a(tee_api_objects.o)
 .group         0x0000000000000000        0x8 /home/yin/imx-optee/imx-optee-os/out/arm-plat-imx/export-ta_arm32/lib/libutee.a(tee_api_objects.o)
 .group         0x0000000000000000        0x8 /home/yin/imx-optee/imx-optee-os/out/arm-plat-imx/export-ta_arm32/lib/libutee.a(tee_api_objects.o)
 .group         0x0000000000000000        0x8 /home/yin/imx-optee/imx-optee-os/out/arm-plat-imx/export-ta_arm32/lib/libutee.a(tee_api_objects.o)
 .debug_macro   0x0000000000000000       0xcd /home/yin/imx-optee/imx-optee-os/out/arm-plat-imx/export-ta_arm32/lib/libutee.a(tee_api_objects.o)
 .debug_macro   0x0000000000000000      0x16d /home/yin/imx-optee/imx-optee-os/out/arm-plat-imx/export-ta_arm32/lib/libutee.a(tee_api_objects.o)
 .debug_macro   0x0000000000000000       0x7c /home/yin/imx-optee/imx-optee-os/out/arm-plat-imx/export-ta_arm32/lib/libutee.a(tee_api_objects.o)
 .debug_macro   0x0000000000000000      0x184 /home/yin/imx-optee/imx-optee-os/out/arm-plat-imx/export-ta_arm32/lib/libutee.a(tee_api_objects.o)
 .debug_macro   0x0000000000000000       0x22 /home/yin/imx-optee/imx-optee-os/out/arm-plat-imx/export-ta_arm32/lib/libutee.a(tee_api_objects.o)
 .debug_macro   0x0000000000000000       0x16 /home/yin/imx-optee/imx-optee-os/out/arm-plat-imx/export-ta_arm32/lib/libutee.a(tee_api_objects.o)
 .debug_macro   0x0000000000000000      0x8e8 /home/yin/imx-optee/imx-optee-os/out/arm-plat-imx/export-ta_arm32/lib/libutee.a(tee_api_objects.o)
 .debug_macro   0x0000000000000000       0x35 /home/yin/imx-optee/imx-optee-os/out/arm-plat-imx/export-ta_arm32/lib/libutee.a(tee_api_objects.o)
 .debug_macro   0x0000000000000000       0x34 /home/yin/imx-optee/imx-optee-os/out/arm-plat-imx/export-ta_arm32/lib/libutee.a(tee_api_objects.o)
 .group         0x0000000000000000        0x8 /home/yin/imx-optee/imx-optee-os/out/arm-plat-imx/export-ta_arm32/lib/libutee.a(tee_api_operations.o)
 .group         0x0000000000000000        0x8 /home/yin/imx-optee/imx-optee-os/out/arm-plat-imx/export-ta_arm32/lib/libutee.a(tee_api_operations.o)
 .group         0x0000000000000000        0x8 /home/yin/imx-optee/imx-optee-os/out/arm-plat-imx/export-ta_arm32/lib/libutee.a(tee_api_operations.o)
 .group         0x0000000000000000        0x8 /home/yin/imx-optee/imx-optee-os/out/arm-plat-imx/export-ta_arm32/lib/libutee.a(tee_api_operations.o)
 .group         0x0000000000000000        0x8 /home/yin/imx-optee/imx-optee-os/out/arm-plat-imx/export-ta_arm32/lib/libutee.a(tee_api_operations.o)
 .group         0x0000000000000000        0x8 /home/yin/imx-optee/imx-optee-os/out/arm-plat-imx/export-ta_arm32/lib/libutee.a(tee_api_operations.o)
 .group         0x0000000000000000        0x8 /home/yin/imx-optee/imx-optee-os/out/arm-plat-imx/export-ta_arm32/lib/libutee.a(tee_api_operations.o)
 .group         0x0000000000000000        0x8 /home/yin/imx-optee/imx-optee-os/out/arm-plat-imx/export-ta_arm32/lib/libutee.a(tee_api_operations.o)
 .group         0x0000000000000000        0x8 /home/yin/imx-optee/imx-optee-os/out/arm-plat-imx/export-ta_arm32/lib/libutee.a(tee_api_operations.o)
 .group         0x0000000000000000        0x8 /home/yin/imx-optee/imx-optee-os/out/arm-plat-imx/export-ta_arm32/lib/libutee.a(tee_api_operations.o)
 .group         0x0000000000000000        0x8 /home/yin/imx-optee/imx-optee-os/out/arm-plat-imx/export-ta_arm32/lib/libutee.a(tee_api_operations.o)
 .group         0x0000000000000000        0x8 /home/yin/imx-optee/imx-optee-os/out/arm-plat-imx/export-ta_arm32/lib/libutee.a(tee_api_operations.o)
 .group         0x0000000000000000        0x8 /home/yin/imx-optee/imx-optee-os/out/arm-plat-imx/export-ta_arm32/lib/libutee.a(tee_api_operations.o)
 .group         0x0000000000000000        0x8 /home/yin/imx-optee/imx-optee-os/out/arm-plat-imx/export-ta_arm32/lib/libutee.a(tee_api_operations.o)
 .group         0x0000000000000000        0x8 /home/yin/imx-optee/imx-optee-os/out/arm-plat-imx/export-ta_arm32/lib/libutee.a(tee_api_operations.o)
 .group         0x0000000000000000        0x8 /home/yin/imx-optee/imx-optee-os/out/arm-plat-imx/export-ta_arm32/lib/libutee.a(tee_api_operations.o)
 .group         0x0000000000000000        0x8 /home/yin/imx-optee/imx-optee-os/out/arm-plat-imx/export-ta_arm32/lib/libutee.a(tee_api_operations.o)
 .group         0x0000000000000000        0x8 /home/yin/imx-optee/imx-optee-os/out/arm-plat-imx/export-ta_arm32/lib/libutee.a(tee_api_operations.o)
 .debug_macro   0x0000000000000000      0x92e /home/yin/imx-optee/imx-optee-os/out/arm-plat-imx/export-ta_arm32/lib/libutee.a(tee_api_operations.o)
 .debug_macro   0x0000000000000000      0x36c /home/yin/imx-optee/imx-optee-os/out/arm-plat-imx/export-ta_arm32/lib/libutee.a(tee_api_operations.o)
 .debug_macro   0x0000000000000000       0xcd /home/yin/imx-optee/imx-optee-os/out/arm-plat-imx/export-ta_arm32/lib/libutee.a(tee_api_operations.o)
 .debug_macro   0x0000000000000000      0x16d /home/yin/imx-optee/imx-optee-os/out/arm-plat-imx/export-ta_arm32/lib/libutee.a(tee_api_operations.o)
 .debug_macro   0x0000000000000000       0x7c /home/yin/imx-optee/imx-optee-os/out/arm-plat-imx/export-ta_arm32/lib/libutee.a(tee_api_operations.o)
 .debug_macro   0x0000000000000000      0x184 /home/yin/imx-optee/imx-optee-os/out/arm-plat-imx/export-ta_arm32/lib/libutee.a(tee_api_operations.o)
 .debug_macro   0x0000000000000000       0xc4 /home/yin/imx-optee/imx-optee-os/out/arm-plat-imx/export-ta_arm32/lib/libutee.a(tee_api_operations.o)
 .debug_macro   0x0000000000000000       0x22 /home/yin/imx-optee/imx-optee-os/out/arm-plat-imx/export-ta_arm32/lib/libutee.a(tee_api_operations.o)
 .debug_macro   0x0000000000000000       0x22 /home/yin/imx-optee/imx-optee-os/out/arm-plat-imx/export-ta_arm32/lib/libutee.a(tee_api_operations.o)
 .debug_macro   0x0000000000000000       0x16 /home/yin/imx-optee/imx-optee-os/out/arm-plat-imx/export-ta_arm32/lib/libutee.a(tee_api_operations.o)
 .debug_macro   0x0000000000000000      0x8e8 /home/yin/imx-optee/imx-optee-os/out/arm-plat-imx/export-ta_arm32/lib/libutee.a(tee_api_operations.o)
 .debug_macro   0x0000000000000000       0x35 /home/yin/imx-optee/imx-optee-os/out/arm-plat-imx/export-ta_arm32/lib/libutee.a(tee_api_operations.o)
 .debug_macro   0x0000000000000000       0x34 /home/yin/imx-optee/imx-optee-os/out/arm-plat-imx/export-ta_arm32/lib/libutee.a(tee_api_operations.o)
 .debug_macro   0x0000000000000000       0x94 /home/yin/imx-optee/imx-optee-os/out/arm-plat-imx/export-ta_arm32/lib/libutee.a(tee_api_operations.o)
 .debug_macro   0x0000000000000000       0xc4 /home/yin/imx-optee/imx-optee-os/out/arm-plat-imx/export-ta_arm32/lib/libutee.a(tee_api_operations.o)
 .debug_macro   0x0000000000000000       0x58 /home/yin/imx-optee/imx-optee-os/out/arm-plat-imx/export-ta_arm32/lib/libutee.a(tee_api_operations.o)
 .debug_macro   0x0000000000000000       0xc4 /home/yin/imx-optee/imx-optee-os/out/arm-plat-imx/export-ta_arm32/lib/libutee.a(tee_api_operations.o)
 .group         0x0000000000000000        0x8 /home/yin/imx-optee/imx-optee-os/out/arm-plat-imx/export-ta_arm32/lib/libutee.a(tee_api_panic.o)
 .group         0x0000000000000000        0x8 /home/yin/imx-optee/imx-optee-os/out/arm-plat-imx/export-ta_arm32/lib/libutee.a(tee_api_panic.o)
 .group         0x0000000000000000        0x8 /home/yin/imx-optee/imx-optee-os/out/arm-plat-imx/export-ta_arm32/lib/libutee.a(tee_api_panic.o)
 .group         0x0000000000000000        0x8 /home/yin/imx-optee/imx-optee-os/out/arm-plat-imx/export-ta_arm32/lib/libutee.a(tee_api_panic.o)
 .group         0x0000000000000000        0x8 /home/yin/imx-optee/imx-optee-os/out/arm-plat-imx/export-ta_arm32/lib/libutee.a(tee_api_panic.o)
 .group         0x0000000000000000        0x8 /home/yin/imx-optee/imx-optee-os/out/arm-plat-imx/export-ta_arm32/lib/libutee.a(tee_api_panic.o)
 .group         0x0000000000000000        0x8 /home/yin/imx-optee/imx-optee-os/out/arm-plat-imx/export-ta_arm32/lib/libutee.a(tee_api_panic.o)
 .group         0x0000000000000000        0x8 /home/yin/imx-optee/imx-optee-os/out/arm-plat-imx/export-ta_arm32/lib/libutee.a(tee_api_panic.o)
 .group         0x0000000000000000        0x8 /home/yin/imx-optee/imx-optee-os/out/arm-plat-imx/export-ta_arm32/lib/libutee.a(tee_api_panic.o)
 .group         0x0000000000000000        0x8 /home/yin/imx-optee/imx-optee-os/out/arm-plat-imx/export-ta_arm32/lib/libutee.a(tee_api_panic.o)
 .group         0x0000000000000000        0x8 /home/yin/imx-optee/imx-optee-os/out/arm-plat-imx/export-ta_arm32/lib/libutee.a(tee_api_panic.o)
 .group         0x0000000000000000        0x8 /home/yin/imx-optee/imx-optee-os/out/arm-plat-imx/export-ta_arm32/lib/libutee.a(tee_api_panic.o)
 .debug_macro   0x0000000000000000      0x92e /home/yin/imx-optee/imx-optee-os/out/arm-plat-imx/export-ta_arm32/lib/libutee.a(tee_api_panic.o)
 .debug_macro   0x0000000000000000      0x36c /home/yin/imx-optee/imx-optee-os/out/arm-plat-imx/export-ta_arm32/lib/libutee.a(tee_api_panic.o)
 .debug_macro   0x0000000000000000      0x16d /home/yin/imx-optee/imx-optee-os/out/arm-plat-imx/export-ta_arm32/lib/libutee.a(tee_api_panic.o)
 .debug_macro   0x0000000000000000       0xcd /home/yin/imx-optee/imx-optee-os/out/arm-plat-imx/export-ta_arm32/lib/libutee.a(tee_api_panic.o)
 .debug_macro   0x0000000000000000      0x8e8 /home/yin/imx-optee/imx-optee-os/out/arm-plat-imx/export-ta_arm32/lib/libutee.a(tee_api_panic.o)
 .debug_macro   0x0000000000000000       0x7c /home/yin/imx-optee/imx-optee-os/out/arm-plat-imx/export-ta_arm32/lib/libutee.a(tee_api_panic.o)
 .debug_macro   0x0000000000000000      0x184 /home/yin/imx-optee/imx-optee-os/out/arm-plat-imx/export-ta_arm32/lib/libutee.a(tee_api_panic.o)
 .debug_macro   0x0000000000000000       0x22 /home/yin/imx-optee/imx-optee-os/out/arm-plat-imx/export-ta_arm32/lib/libutee.a(tee_api_panic.o)
 .debug_macro   0x0000000000000000       0x35 /home/yin/imx-optee/imx-optee-os/out/arm-plat-imx/export-ta_arm32/lib/libutee.a(tee_api_panic.o)
 .debug_macro   0x0000000000000000       0x34 /home/yin/imx-optee/imx-optee-os/out/arm-plat-imx/export-ta_arm32/lib/libutee.a(tee_api_panic.o)
 .debug_macro   0x0000000000000000       0x94 /home/yin/imx-optee/imx-optee-os/out/arm-plat-imx/export-ta_arm32/lib/libutee.a(tee_api_panic.o)
 .debug_macro   0x0000000000000000       0xc4 /home/yin/imx-optee/imx-optee-os/out/arm-plat-imx/export-ta_arm32/lib/libutee.a(tee_api_panic.o)
 .group         0x0000000000000000        0x8 /home/yin/imx-optee/imx-optee-os/out/arm-plat-imx/export-ta_arm32/lib/libutee.a(user_ta_entry.o)
 .group         0x0000000000000000        0x8 /home/yin/imx-optee/imx-optee-os/out/arm-plat-imx/export-ta_arm32/lib/libutee.a(user_ta_entry.o)
 .group         0x0000000000000000        0x8 /home/yin/imx-optee/imx-optee-os/out/arm-plat-imx/export-ta_arm32/lib/libutee.a(user_ta_entry.o)
 .group         0x0000000000000000        0x8 /home/yin/imx-optee/imx-optee-os/out/arm-plat-imx/export-ta_arm32/lib/libutee.a(user_ta_entry.o)
 .group         0x0000000000000000        0x8 /home/yin/imx-optee/imx-optee-os/out/arm-plat-imx/export-ta_arm32/lib/libutee.a(user_ta_entry.o)
 .group         0x0000000000000000        0x8 /home/yin/imx-optee/imx-optee-os/out/arm-plat-imx/export-ta_arm32/lib/libutee.a(user_ta_entry.o)
 .group         0x0000000000000000        0x8 /home/yin/imx-optee/imx-optee-os/out/arm-plat-imx/export-ta_arm32/lib/libutee.a(user_ta_entry.o)
 .group         0x0000000000000000        0x8 /home/yin/imx-optee/imx-optee-os/out/arm-plat-imx/export-ta_arm32/lib/libutee.a(user_ta_entry.o)
 .group         0x0000000000000000        0x8 /home/yin/imx-optee/imx-optee-os/out/arm-plat-imx/export-ta_arm32/lib/libutee.a(user_ta_entry.o)
 .group         0x0000000000000000        0x8 /home/yin/imx-optee/imx-optee-os/out/arm-plat-imx/export-ta_arm32/lib/libutee.a(user_ta_entry.o)
 .group         0x0000000000000000        0x8 /home/yin/imx-optee/imx-optee-os/out/arm-plat-imx/export-ta_arm32/lib/libutee.a(user_ta_entry.o)
 .group         0x0000000000000000        0x8 /home/yin/imx-optee/imx-optee-os/out/arm-plat-imx/export-ta_arm32/lib/libutee.a(user_ta_entry.o)
 .group         0x0000000000000000        0x8 /home/yin/imx-optee/imx-optee-os/out/arm-plat-imx/export-ta_arm32/lib/libutee.a(user_ta_entry.o)
 .group         0x0000000000000000        0x8 /home/yin/imx-optee/imx-optee-os/out/arm-plat-imx/export-ta_arm32/lib/libutee.a(user_ta_entry.o)
 .group         0x0000000000000000        0x8 /home/yin/imx-optee/imx-optee-os/out/arm-plat-imx/export-ta_arm32/lib/libutee.a(user_ta_entry.o)
 .group         0x0000000000000000        0x8 /home/yin/imx-optee/imx-optee-os/out/arm-plat-imx/export-ta_arm32/lib/libutee.a(user_ta_entry.o)
 .group         0x0000000000000000        0x8 /home/yin/imx-optee/imx-optee-os/out/arm-plat-imx/export-ta_arm32/lib/libutee.a(user_ta_entry.o)
 .group         0x0000000000000000        0x8 /home/yin/imx-optee/imx-optee-os/out/arm-plat-imx/export-ta_arm32/lib/libutee.a(user_ta_entry.o)
 .group         0x0000000000000000        0x8 /home/yin/imx-optee/imx-optee-os/out/arm-plat-imx/export-ta_arm32/lib/libutee.a(user_ta_entry.o)
 .group         0x0000000000000000        0x8 /home/yin/imx-optee/imx-optee-os/out/arm-plat-imx/export-ta_arm32/lib/libutee.a(user_ta_entry.o)
 .group         0x0000000000000000        0x8 /home/yin/imx-optee/imx-optee-os/out/arm-plat-imx/export-ta_arm32/lib/libutee.a(user_ta_entry.o)
 .debug_macro   0x0000000000000000      0x92e /home/yin/imx-optee/imx-optee-os/out/arm-plat-imx/export-ta_arm32/lib/libutee.a(user_ta_entry.o)
 .debug_macro   0x0000000000000000      0x36c /home/yin/imx-optee/imx-optee-os/out/arm-plat-imx/export-ta_arm32/lib/libutee.a(user_ta_entry.o)
 .debug_macro   0x0000000000000000       0xcd /home/yin/imx-optee/imx-optee-os/out/arm-plat-imx/export-ta_arm32/lib/libutee.a(user_ta_entry.o)
 .debug_macro   0x0000000000000000       0x22 /home/yin/imx-optee/imx-optee-os/out/arm-plat-imx/export-ta_arm32/lib/libutee.a(user_ta_entry.o)
 .debug_macro   0x0000000000000000      0x16d /home/yin/imx-optee/imx-optee-os/out/arm-plat-imx/export-ta_arm32/lib/libutee.a(user_ta_entry.o)
 .debug_macro   0x0000000000000000       0x16 /home/yin/imx-optee/imx-optee-os/out/arm-plat-imx/export-ta_arm32/lib/libutee.a(user_ta_entry.o)
 .debug_macro   0x0000000000000000      0x8e8 /home/yin/imx-optee/imx-optee-os/out/arm-plat-imx/export-ta_arm32/lib/libutee.a(user_ta_entry.o)
 .debug_macro   0x0000000000000000       0x7c /home/yin/imx-optee/imx-optee-os/out/arm-plat-imx/export-ta_arm32/lib/libutee.a(user_ta_entry.o)
 .debug_macro   0x0000000000000000      0x184 /home/yin/imx-optee/imx-optee-os/out/arm-plat-imx/export-ta_arm32/lib/libutee.a(user_ta_entry.o)
 .debug_macro   0x0000000000000000       0x35 /home/yin/imx-optee/imx-optee-os/out/arm-plat-imx/export-ta_arm32/lib/libutee.a(user_ta_entry.o)
 .debug_macro   0x0000000000000000       0x34 /home/yin/imx-optee/imx-optee-os/out/arm-plat-imx/export-ta_arm32/lib/libutee.a(user_ta_entry.o)
 .debug_macro   0x0000000000000000       0x94 /home/yin/imx-optee/imx-optee-os/out/arm-plat-imx/export-ta_arm32/lib/libutee.a(user_ta_entry.o)
 .debug_macro   0x0000000000000000       0x10 /home/yin/imx-optee/imx-optee-os/out/arm-plat-imx/export-ta_arm32/lib/libutee.a(user_ta_entry.o)
 .debug_macro   0x0000000000000000       0x58 /home/yin/imx-optee/imx-optee-os/out/arm-plat-imx/export-ta_arm32/lib/libutee.a(user_ta_entry.o)
 .debug_macro   0x0000000000000000       0xc4 /home/yin/imx-optee/imx-optee-os/out/arm-plat-imx/export-ta_arm32/lib/libutee.a(user_ta_entry.o)
 .debug_macro   0x0000000000000000       0xc4 /home/yin/imx-optee/imx-optee-os/out/arm-plat-imx/export-ta_arm32/lib/libutee.a(user_ta_entry.o)
 .debug_macro   0x0000000000000000       0x7c /home/yin/imx-optee/imx-optee-os/out/arm-plat-imx/export-ta_arm32/lib/libutee.a(user_ta_entry.o)
 .debug_macro   0x0000000000000000       0xc4 /home/yin/imx-optee/imx-optee-os/out/arm-plat-imx/export-ta_arm32/lib/libutee.a(user_ta_entry.o)
 .debug_macro   0x0000000000000000       0x22 /home/yin/imx-optee/imx-optee-os/out/arm-plat-imx/export-ta_arm32/lib/libutee.a(user_ta_entry.o)
 .group         0x0000000000000000        0x8 /home/yin/imx-optee/imx-optee-os/out/arm-plat-imx/export-ta_arm32/lib/libutee.a(tee_api_arith.o)
 .group         0x0000000000000000        0x8 /home/yin/imx-optee/imx-optee-os/out/arm-plat-imx/export-ta_arm32/lib/libutee.a(tee_api_arith.o)
 .group         0x0000000000000000        0x8 /home/yin/imx-optee/imx-optee-os/out/arm-plat-imx/export-ta_arm32/lib/libutee.a(tee_api_arith.o)
 .group         0x0000000000000000        0x8 /home/yin/imx-optee/imx-optee-os/out/arm-plat-imx/export-ta_arm32/lib/libutee.a(tee_api_arith.o)
 .group         0x0000000000000000        0x8 /home/yin/imx-optee/imx-optee-os/out/arm-plat-imx/export-ta_arm32/lib/libutee.a(tee_api_arith.o)
 .group         0x0000000000000000        0x8 /home/yin/imx-optee/imx-optee-os/out/arm-plat-imx/export-ta_arm32/lib/libutee.a(tee_api_arith.o)
 .group         0x0000000000000000        0x8 /home/yin/imx-optee/imx-optee-os/out/arm-plat-imx/export-ta_arm32/lib/libutee.a(tee_api_arith.o)
 .group         0x0000000000000000        0x8 /home/yin/imx-optee/imx-optee-os/out/arm-plat-imx/export-ta_arm32/lib/libutee.a(tee_api_arith.o)
 .group         0x0000000000000000        0x8 /home/yin/imx-optee/imx-optee-os/out/arm-plat-imx/export-ta_arm32/lib/libutee.a(tee_api_arith.o)
 .group         0x0000000000000000        0x8 /home/yin/imx-optee/imx-optee-os/out/arm-plat-imx/export-ta_arm32/lib/libutee.a(tee_api_arith.o)
 .group         0x0000000000000000        0x8 /home/yin/imx-optee/imx-optee-os/out/arm-plat-imx/export-ta_arm32/lib/libutee.a(tee_api_arith.o)
 .group         0x0000000000000000        0x8 /home/yin/imx-optee/imx-optee-os/out/arm-plat-imx/export-ta_arm32/lib/libutee.a(tee_api_arith.o)
 .group         0x0000000000000000        0x8 /home/yin/imx-optee/imx-optee-os/out/arm-plat-imx/export-ta_arm32/lib/libutee.a(tee_api_arith.o)
 .group         0x0000000000000000        0x8 /home/yin/imx-optee/imx-optee-os/out/arm-plat-imx/export-ta_arm32/lib/libutee.a(tee_api_arith.o)
 .group         0x0000000000000000        0x8 /home/yin/imx-optee/imx-optee-os/out/arm-plat-imx/export-ta_arm32/lib/libutee.a(tee_api_arith.o)
 .group         0x0000000000000000        0x8 /home/yin/imx-optee/imx-optee-os/out/arm-plat-imx/export-ta_arm32/lib/libutee.a(tee_api_arith.o)
 .group         0x0000000000000000        0x8 /home/yin/imx-optee/imx-optee-os/out/arm-plat-imx/export-ta_arm32/lib/libutee.a(tee_api_arith.o)
 .group         0x0000000000000000        0x8 /home/yin/imx-optee/imx-optee-os/out/arm-plat-imx/export-ta_arm32/lib/libutee.a(tee_api_arith.o)
 .group         0x0000000000000000        0x8 /home/yin/imx-optee/imx-optee-os/out/arm-plat-imx/export-ta_arm32/lib/libutee.a(tee_api_arith.o)
 .group         0x0000000000000000        0x8 /home/yin/imx-optee/imx-optee-os/out/arm-plat-imx/export-ta_arm32/lib/libutee.a(tee_api_arith.o)
 .debug_macro   0x0000000000000000      0x92e /home/yin/imx-optee/imx-optee-os/out/arm-plat-imx/export-ta_arm32/lib/libutee.a(tee_api_arith.o)
 .debug_macro   0x0000000000000000      0x36c /home/yin/imx-optee/imx-optee-os/out/arm-plat-imx/export-ta_arm32/lib/libutee.a(tee_api_arith.o)
 .debug_macro   0x0000000000000000      0x16d /home/yin/imx-optee/imx-optee-os/out/arm-plat-imx/export-ta_arm32/lib/libutee.a(tee_api_arith.o)
 .debug_macro   0x0000000000000000       0x58 /home/yin/imx-optee/imx-optee-os/out/arm-plat-imx/export-ta_arm32/lib/libutee.a(tee_api_arith.o)
 .debug_macro   0x0000000000000000       0xcd /home/yin/imx-optee/imx-optee-os/out/arm-plat-imx/export-ta_arm32/lib/libutee.a(tee_api_arith.o)
 .debug_macro   0x0000000000000000      0x8e8 /home/yin/imx-optee/imx-optee-os/out/arm-plat-imx/export-ta_arm32/lib/libutee.a(tee_api_arith.o)
 .debug_macro   0x0000000000000000       0x7c /home/yin/imx-optee/imx-optee-os/out/arm-plat-imx/export-ta_arm32/lib/libutee.a(tee_api_arith.o)
 .debug_macro   0x0000000000000000      0x184 /home/yin/imx-optee/imx-optee-os/out/arm-plat-imx/export-ta_arm32/lib/libutee.a(tee_api_arith.o)
 .debug_macro   0x0000000000000000       0x22 /home/yin/imx-optee/imx-optee-os/out/arm-plat-imx/export-ta_arm32/lib/libutee.a(tee_api_arith.o)
 .debug_macro   0x0000000000000000       0x35 /home/yin/imx-optee/imx-optee-os/out/arm-plat-imx/export-ta_arm32/lib/libutee.a(tee_api_arith.o)
 .debug_macro   0x0000000000000000       0x34 /home/yin/imx-optee/imx-optee-os/out/arm-plat-imx/export-ta_arm32/lib/libutee.a(tee_api_arith.o)
 .debug_macro   0x0000000000000000       0x94 /home/yin/imx-optee/imx-optee-os/out/arm-plat-imx/export-ta_arm32/lib/libutee.a(tee_api_arith.o)
 .debug_macro   0x0000000000000000       0x34 /home/yin/imx-optee/imx-optee-os/out/arm-plat-imx/export-ta_arm32/lib/libutee.a(tee_api_arith.o)
 .debug_macro   0x0000000000000000       0xc4 /home/yin/imx-optee/imx-optee-os/out/arm-plat-imx/export-ta_arm32/lib/libutee.a(tee_api_arith.o)
 .debug_macro   0x0000000000000000       0x22 /home/yin/imx-optee/imx-optee-os/out/arm-plat-imx/export-ta_arm32/lib/libutee.a(tee_api_arith.o)
 .debug_macro   0x0000000000000000       0x16 /home/yin/imx-optee/imx-optee-os/out/arm-plat-imx/export-ta_arm32/lib/libutee.a(tee_api_arith.o)
 .group         0x0000000000000000        0x8 /home/yin/imx-optee/imx-optee-os/out/arm-plat-imx/export-ta_arm32/lib/libutee.a(tee_api.o)
 .group         0x0000000000000000        0x8 /home/yin/imx-optee/imx-optee-os/out/arm-plat-imx/export-ta_arm32/lib/libutee.a(tee_api.o)
 .group         0x0000000000000000        0x8 /home/yin/imx-optee/imx-optee-os/out/arm-plat-imx/export-ta_arm32/lib/libutee.a(tee_api.o)
 .group         0x0000000000000000        0x8 /home/yin/imx-optee/imx-optee-os/out/arm-plat-imx/export-ta_arm32/lib/libutee.a(tee_api.o)
 .group         0x0000000000000000        0x8 /home/yin/imx-optee/imx-optee-os/out/arm-plat-imx/export-ta_arm32/lib/libutee.a(tee_api.o)
 .group         0x0000000000000000        0x8 /home/yin/imx-optee/imx-optee-os/out/arm-plat-imx/export-ta_arm32/lib/libutee.a(tee_api.o)
 .group         0x0000000000000000        0x8 /home/yin/imx-optee/imx-optee-os/out/arm-plat-imx/export-ta_arm32/lib/libutee.a(tee_api.o)
 .group         0x0000000000000000        0x8 /home/yin/imx-optee/imx-optee-os/out/arm-plat-imx/export-ta_arm32/lib/libutee.a(tee_api.o)
 .group         0x0000000000000000        0x8 /home/yin/imx-optee/imx-optee-os/out/arm-plat-imx/export-ta_arm32/lib/libutee.a(tee_api.o)
 .group         0x0000000000000000        0x8 /home/yin/imx-optee/imx-optee-os/out/arm-plat-imx/export-ta_arm32/lib/libutee.a(tee_api.o)
 .group         0x0000000000000000        0x8 /home/yin/imx-optee/imx-optee-os/out/arm-plat-imx/export-ta_arm32/lib/libutee.a(tee_api.o)
 .group         0x0000000000000000        0x8 /home/yin/imx-optee/imx-optee-os/out/arm-plat-imx/export-ta_arm32/lib/libutee.a(tee_api.o)
 .group         0x0000000000000000        0x8 /home/yin/imx-optee/imx-optee-os/out/arm-plat-imx/export-ta_arm32/lib/libutee.a(tee_api.o)
 .group         0x0000000000000000        0x8 /home/yin/imx-optee/imx-optee-os/out/arm-plat-imx/export-ta_arm32/lib/libutee.a(tee_api.o)
 .group         0x0000000000000000        0x8 /home/yin/imx-optee/imx-optee-os/out/arm-plat-imx/export-ta_arm32/lib/libutee.a(tee_api.o)
 .group         0x0000000000000000        0x8 /home/yin/imx-optee/imx-optee-os/out/arm-plat-imx/export-ta_arm32/lib/libutee.a(tee_api.o)
 .group         0x0000000000000000        0x8 /home/yin/imx-optee/imx-optee-os/out/arm-plat-imx/export-ta_arm32/lib/libutee.a(tee_api.o)
 .group         0x0000000000000000        0x8 /home/yin/imx-optee/imx-optee-os/out/arm-plat-imx/export-ta_arm32/lib/libutee.a(tee_api.o)
 .debug_macro   0x0000000000000000      0x92e /home/yin/imx-optee/imx-optee-os/out/arm-plat-imx/export-ta_arm32/lib/libutee.a(tee_api.o)
 .debug_macro   0x0000000000000000      0x36c /home/yin/imx-optee/imx-optee-os/out/arm-plat-imx/export-ta_arm32/lib/libutee.a(tee_api.o)
 .debug_macro   0x0000000000000000       0xcd /home/yin/imx-optee/imx-optee-os/out/arm-plat-imx/export-ta_arm32/lib/libutee.a(tee_api.o)
 .debug_macro   0x0000000000000000      0x16d /home/yin/imx-optee/imx-optee-os/out/arm-plat-imx/export-ta_arm32/lib/libutee.a(tee_api.o)
 .debug_macro   0x0000000000000000       0x7c /home/yin/imx-optee/imx-optee-os/out/arm-plat-imx/export-ta_arm32/lib/libutee.a(tee_api.o)
 .debug_macro   0x0000000000000000      0x184 /home/yin/imx-optee/imx-optee-os/out/arm-plat-imx/export-ta_arm32/lib/libutee.a(tee_api.o)
 .debug_macro   0x0000000000000000       0xc4 /home/yin/imx-optee/imx-optee-os/out/arm-plat-imx/export-ta_arm32/lib/libutee.a(tee_api.o)
 .debug_macro   0x0000000000000000       0x22 /home/yin/imx-optee/imx-optee-os/out/arm-plat-imx/export-ta_arm32/lib/libutee.a(tee_api.o)
 .debug_macro   0x0000000000000000       0x22 /home/yin/imx-optee/imx-optee-os/out/arm-plat-imx/export-ta_arm32/lib/libutee.a(tee_api.o)
 .debug_macro   0x0000000000000000       0x16 /home/yin/imx-optee/imx-optee-os/out/arm-plat-imx/export-ta_arm32/lib/libutee.a(tee_api.o)
 .debug_macro   0x0000000000000000      0x8e8 /home/yin/imx-optee/imx-optee-os/out/arm-plat-imx/export-ta_arm32/lib/libutee.a(tee_api.o)
 .debug_macro   0x0000000000000000       0x35 /home/yin/imx-optee/imx-optee-os/out/arm-plat-imx/export-ta_arm32/lib/libutee.a(tee_api.o)
 .debug_macro   0x0000000000000000       0x34 /home/yin/imx-optee/imx-optee-os/out/arm-plat-imx/export-ta_arm32/lib/libutee.a(tee_api.o)
 .debug_macro   0x0000000000000000       0x94 /home/yin/imx-optee/imx-optee-os/out/arm-plat-imx/export-ta_arm32/lib/libutee.a(tee_api.o)
 .debug_macro   0x0000000000000000       0x58 /home/yin/imx-optee/imx-optee-os/out/arm-plat-imx/export-ta_arm32/lib/libutee.a(tee_api.o)
 .debug_macro   0x0000000000000000       0xc4 /home/yin/imx-optee/imx-optee-os/out/arm-plat-imx/export-ta_arm32/lib/libutee.a(tee_api.o)
 .debug_macro   0x0000000000000000       0xc4 /home/yin/imx-optee/imx-optee-os/out/arm-plat-imx/export-ta_arm32/lib/libutee.a(tee_api.o)
 .debug_macro   0x0000000000000000       0x7c /home/yin/imx-optee/imx-optee-os/out/arm-plat-imx/export-ta_arm32/lib/libutee.a(tee_api.o)
 .group         0x0000000000000000        0x8 /home/yin/imx-optee/imx-optee-os/out/arm-plat-imx/export-ta_arm32/lib/libutee.a(trace_ext.o)
 .group         0x0000000000000000        0x8 /home/yin/imx-optee/imx-optee-os/out/arm-plat-imx/export-ta_arm32/lib/libutee.a(trace_ext.o)
 .group         0x0000000000000000        0x8 /home/yin/imx-optee/imx-optee-os/out/arm-plat-imx/export-ta_arm32/lib/libutee.a(trace_ext.o)
 .group         0x0000000000000000        0x8 /home/yin/imx-optee/imx-optee-os/out/arm-plat-imx/export-ta_arm32/lib/libutee.a(trace_ext.o)
 .group         0x0000000000000000        0x8 /home/yin/imx-optee/imx-optee-os/out/arm-plat-imx/export-ta_arm32/lib/libutee.a(trace_ext.o)
 .group         0x0000000000000000        0x8 /home/yin/imx-optee/imx-optee-os/out/arm-plat-imx/export-ta_arm32/lib/libutee.a(trace_ext.o)
 .group         0x0000000000000000        0x8 /home/yin/imx-optee/imx-optee-os/out/arm-plat-imx/export-ta_arm32/lib/libutee.a(trace_ext.o)
 .group         0x0000000000000000        0x8 /home/yin/imx-optee/imx-optee-os/out/arm-plat-imx/export-ta_arm32/lib/libutee.a(trace_ext.o)
 .group         0x0000000000000000        0x8 /home/yin/imx-optee/imx-optee-os/out/arm-plat-imx/export-ta_arm32/lib/libutee.a(trace_ext.o)
 .group         0x0000000000000000        0x8 /home/yin/imx-optee/imx-optee-os/out/arm-plat-imx/export-ta_arm32/lib/libutee.a(trace_ext.o)
 .group         0x0000000000000000        0x8 /home/yin/imx-optee/imx-optee-os/out/arm-plat-imx/export-ta_arm32/lib/libutee.a(trace_ext.o)
 .group         0x0000000000000000        0x8 /home/yin/imx-optee/imx-optee-os/out/arm-plat-imx/export-ta_arm32/lib/libutee.a(trace_ext.o)
 .group         0x0000000000000000        0x8 /home/yin/imx-optee/imx-optee-os/out/arm-plat-imx/export-ta_arm32/lib/libutee.a(trace_ext.o)
 .group         0x0000000000000000        0x8 /home/yin/imx-optee/imx-optee-os/out/arm-plat-imx/export-ta_arm32/lib/libutee.a(trace_ext.o)
 .group         0x0000000000000000        0x8 /home/yin/imx-optee/imx-optee-os/out/arm-plat-imx/export-ta_arm32/lib/libutee.a(trace_ext.o)
 .debug_macro   0x0000000000000000      0x92e /home/yin/imx-optee/imx-optee-os/out/arm-plat-imx/export-ta_arm32/lib/libutee.a(trace_ext.o)
 .debug_macro   0x0000000000000000      0x36c /home/yin/imx-optee/imx-optee-os/out/arm-plat-imx/export-ta_arm32/lib/libutee.a(trace_ext.o)
 .debug_macro   0x0000000000000000      0x16d /home/yin/imx-optee/imx-optee-os/out/arm-plat-imx/export-ta_arm32/lib/libutee.a(trace_ext.o)
 .debug_macro   0x0000000000000000       0x58 /home/yin/imx-optee/imx-optee-os/out/arm-plat-imx/export-ta_arm32/lib/libutee.a(trace_ext.o)
 .debug_macro   0x0000000000000000       0x16 /home/yin/imx-optee/imx-optee-os/out/arm-plat-imx/export-ta_arm32/lib/libutee.a(trace_ext.o)
 .debug_macro   0x0000000000000000       0x22 /home/yin/imx-optee/imx-optee-os/out/arm-plat-imx/export-ta_arm32/lib/libutee.a(trace_ext.o)
 .debug_macro   0x0000000000000000       0xcd /home/yin/imx-optee/imx-optee-os/out/arm-plat-imx/export-ta_arm32/lib/libutee.a(trace_ext.o)
 .debug_macro   0x0000000000000000       0x34 /home/yin/imx-optee/imx-optee-os/out/arm-plat-imx/export-ta_arm32/lib/libutee.a(trace_ext.o)
 .debug_macro   0x0000000000000000       0x94 /home/yin/imx-optee/imx-optee-os/out/arm-plat-imx/export-ta_arm32/lib/libutee.a(trace_ext.o)
 .debug_macro   0x0000000000000000       0x7c /home/yin/imx-optee/imx-optee-os/out/arm-plat-imx/export-ta_arm32/lib/libutee.a(trace_ext.o)
 .debug_macro   0x0000000000000000      0x184 /home/yin/imx-optee/imx-optee-os/out/arm-plat-imx/export-ta_arm32/lib/libutee.a(trace_ext.o)
 .debug_macro   0x0000000000000000       0xc4 /home/yin/imx-optee/imx-optee-os/out/arm-plat-imx/export-ta_arm32/lib/libutee.a(trace_ext.o)
 .debug_macro   0x0000000000000000       0xc4 /home/yin/imx-optee/imx-optee-os/out/arm-plat-imx/export-ta_arm32/lib/libutee.a(trace_ext.o)
 .debug_macro   0x0000000000000000      0x8e8 /home/yin/imx-optee/imx-optee-os/out/arm-plat-imx/export-ta_arm32/lib/libutee.a(trace_ext.o)
 .debug_macro   0x0000000000000000       0x35 /home/yin/imx-optee/imx-optee-os/out/arm-plat-imx/export-ta_arm32/lib/libutee.a(trace_ext.o)
 .group         0x0000000000000000        0x8 /home/yin/imx-optee/imx-optee-os/out/arm-plat-imx/export-ta_arm32/lib/libutils.a(bget_malloc.o)
 .group         0x0000000000000000        0x8 /home/yin/imx-optee/imx-optee-os/out/arm-plat-imx/export-ta_arm32/lib/libutils.a(bget_malloc.o)
 .group         0x0000000000000000        0x8 /home/yin/imx-optee/imx-optee-os/out/arm-plat-imx/export-ta_arm32/lib/libutils.a(bget_malloc.o)
 .group         0x0000000000000000        0x8 /home/yin/imx-optee/imx-optee-os/out/arm-plat-imx/export-ta_arm32/lib/libutils.a(bget_malloc.o)
 .group         0x0000000000000000        0x8 /home/yin/imx-optee/imx-optee-os/out/arm-plat-imx/export-ta_arm32/lib/libutils.a(bget_malloc.o)
 .group         0x0000000000000000        0x8 /home/yin/imx-optee/imx-optee-os/out/arm-plat-imx/export-ta_arm32/lib/libutils.a(bget_malloc.o)
 .group         0x0000000000000000        0x8 /home/yin/imx-optee/imx-optee-os/out/arm-plat-imx/export-ta_arm32/lib/libutils.a(bget_malloc.o)
 .group         0x0000000000000000        0x8 /home/yin/imx-optee/imx-optee-os/out/arm-plat-imx/export-ta_arm32/lib/libutils.a(bget_malloc.o)
 .group         0x0000000000000000        0x8 /home/yin/imx-optee/imx-optee-os/out/arm-plat-imx/export-ta_arm32/lib/libutils.a(bget_malloc.o)
 .group         0x0000000000000000        0x8 /home/yin/imx-optee/imx-optee-os/out/arm-plat-imx/export-ta_arm32/lib/libutils.a(bget_malloc.o)
 .group         0x0000000000000000        0x8 /home/yin/imx-optee/imx-optee-os/out/arm-plat-imx/export-ta_arm32/lib/libutils.a(bget_malloc.o)
 .group         0x0000000000000000        0x8 /home/yin/imx-optee/imx-optee-os/out/arm-plat-imx/export-ta_arm32/lib/libutils.a(bget_malloc.o)
 .group         0x0000000000000000        0x8 /home/yin/imx-optee/imx-optee-os/out/arm-plat-imx/export-ta_arm32/lib/libutils.a(bget_malloc.o)
 .group         0x0000000000000000        0x8 /home/yin/imx-optee/imx-optee-os/out/arm-plat-imx/export-ta_arm32/lib/libutils.a(bget_malloc.o)
 .group         0x0000000000000000        0x8 /home/yin/imx-optee/imx-optee-os/out/arm-plat-imx/export-ta_arm32/lib/libutils.a(bget_malloc.o)
 .group         0x0000000000000000        0x8 /home/yin/imx-optee/imx-optee-os/out/arm-plat-imx/export-ta_arm32/lib/libutils.a(bget_malloc.o)
 .debug_macro   0x0000000000000000      0x92e /home/yin/imx-optee/imx-optee-os/out/arm-plat-imx/export-ta_arm32/lib/libutils.a(bget_malloc.o)
 .debug_macro   0x0000000000000000      0x36c /home/yin/imx-optee/imx-optee-os/out/arm-plat-imx/export-ta_arm32/lib/libutils.a(bget_malloc.o)
 .debug_macro   0x0000000000000000       0xcd /home/yin/imx-optee/imx-optee-os/out/arm-plat-imx/export-ta_arm32/lib/libutils.a(bget_malloc.o)
 .debug_macro   0x0000000000000000      0x16d /home/yin/imx-optee/imx-optee-os/out/arm-plat-imx/export-ta_arm32/lib/libutils.a(bget_malloc.o)
 .debug_macro   0x0000000000000000       0x7c /home/yin/imx-optee/imx-optee-os/out/arm-plat-imx/export-ta_arm32/lib/libutils.a(bget_malloc.o)
 .debug_macro   0x0000000000000000      0x184 /home/yin/imx-optee/imx-optee-os/out/arm-plat-imx/export-ta_arm32/lib/libutils.a(bget_malloc.o)
 .debug_macro   0x0000000000000000       0xc4 /home/yin/imx-optee/imx-optee-os/out/arm-plat-imx/export-ta_arm32/lib/libutils.a(bget_malloc.o)
 .debug_macro   0x0000000000000000       0x22 /home/yin/imx-optee/imx-optee-os/out/arm-plat-imx/export-ta_arm32/lib/libutils.a(bget_malloc.o)
 .debug_macro   0x0000000000000000       0x22 /home/yin/imx-optee/imx-optee-os/out/arm-plat-imx/export-ta_arm32/lib/libutils.a(bget_malloc.o)
 .debug_macro   0x0000000000000000       0x16 /home/yin/imx-optee/imx-optee-os/out/arm-plat-imx/export-ta_arm32/lib/libutils.a(bget_malloc.o)
 .debug_macro   0x0000000000000000       0x34 /home/yin/imx-optee/imx-optee-os/out/arm-plat-imx/export-ta_arm32/lib/libutils.a(bget_malloc.o)
 .debug_macro   0x0000000000000000       0x94 /home/yin/imx-optee/imx-optee-os/out/arm-plat-imx/export-ta_arm32/lib/libutils.a(bget_malloc.o)
 .debug_macro   0x0000000000000000       0xc4 /home/yin/imx-optee/imx-optee-os/out/arm-plat-imx/export-ta_arm32/lib/libutils.a(bget_malloc.o)
 .debug_macro   0x0000000000000000       0x58 /home/yin/imx-optee/imx-optee-os/out/arm-plat-imx/export-ta_arm32/lib/libutils.a(bget_malloc.o)
 .group         0x0000000000000000        0x8 /home/yin/imx-optee/imx-optee-os/out/arm-plat-imx/export-ta_arm32/lib/libutils.a(snprintf.o)
 .group         0x0000000000000000        0x8 /home/yin/imx-optee/imx-optee-os/out/arm-plat-imx/export-ta_arm32/lib/libutils.a(snprintf.o)
 .group         0x0000000000000000        0x8 /home/yin/imx-optee/imx-optee-os/out/arm-plat-imx/export-ta_arm32/lib/libutils.a(snprintf.o)
 .group         0x0000000000000000        0x8 /home/yin/imx-optee/imx-optee-os/out/arm-plat-imx/export-ta_arm32/lib/libutils.a(snprintf.o)
 .group         0x0000000000000000        0x8 /home/yin/imx-optee/imx-optee-os/out/arm-plat-imx/export-ta_arm32/lib/libutils.a(snprintf.o)
 .debug_macro   0x0000000000000000      0x92e /home/yin/imx-optee/imx-optee-os/out/arm-plat-imx/export-ta_arm32/lib/libutils.a(snprintf.o)
 .debug_macro   0x0000000000000000      0x36c /home/yin/imx-optee/imx-optee-os/out/arm-plat-imx/export-ta_arm32/lib/libutils.a(snprintf.o)
 .debug_macro   0x0000000000000000      0x16d /home/yin/imx-optee/imx-optee-os/out/arm-plat-imx/export-ta_arm32/lib/libutils.a(snprintf.o)
 .debug_macro   0x0000000000000000       0x58 /home/yin/imx-optee/imx-optee-os/out/arm-plat-imx/export-ta_arm32/lib/libutils.a(snprintf.o)
 .debug_macro   0x0000000000000000       0x22 /home/yin/imx-optee/imx-optee-os/out/arm-plat-imx/export-ta_arm32/lib/libutils.a(snprintf.o)
 .group         0x0000000000000000        0x8 /home/yin/imx-optee/imx-optee-os/out/arm-plat-imx/export-ta_arm32/lib/libutils.a(memcmp.o)
 .group         0x0000000000000000        0x8 /home/yin/imx-optee/imx-optee-os/out/arm-plat-imx/export-ta_arm32/lib/libutils.a(memcmp.o)
 .group         0x0000000000000000        0x8 /home/yin/imx-optee/imx-optee-os/out/arm-plat-imx/export-ta_arm32/lib/libutils.a(memcmp.o)
 .group         0x0000000000000000        0x8 /home/yin/imx-optee/imx-optee-os/out/arm-plat-imx/export-ta_arm32/lib/libutils.a(memcmp.o)
 .group         0x0000000000000000        0x8 /home/yin/imx-optee/imx-optee-os/out/arm-plat-imx/export-ta_arm32/lib/libutils.a(memcmp.o)
 .debug_macro   0x0000000000000000      0x36c /home/yin/imx-optee/imx-optee-os/out/arm-plat-imx/export-ta_arm32/lib/libutils.a(memcmp.o)
 .debug_macro   0x0000000000000000      0x16d /home/yin/imx-optee/imx-optee-os/out/arm-plat-imx/export-ta_arm32/lib/libutils.a(memcmp.o)
 .debug_macro   0x0000000000000000       0x16 /home/yin/imx-optee/imx-optee-os/out/arm-plat-imx/export-ta_arm32/lib/libutils.a(memcmp.o)
 .group         0x0000000000000000        0x8 /home/yin/imx-optee/imx-optee-os/out/arm-plat-imx/export-ta_arm32/lib/libutils.a(memcpy.o)
 .group         0x0000000000000000        0x8 /home/yin/imx-optee/imx-optee-os/out/arm-plat-imx/export-ta_arm32/lib/libutils.a(memcpy.o)
 .group         0x0000000000000000        0x8 /home/yin/imx-optee/imx-optee-os/out/arm-plat-imx/export-ta_arm32/lib/libutils.a(memcpy.o)
 .group         0x0000000000000000        0x8 /home/yin/imx-optee/imx-optee-os/out/arm-plat-imx/export-ta_arm32/lib/libutils.a(memcpy.o)
 .group         0x0000000000000000        0x8 /home/yin/imx-optee/imx-optee-os/out/arm-plat-imx/export-ta_arm32/lib/libutils.a(memcpy.o)
 .debug_macro   0x0000000000000000      0x92e /home/yin/imx-optee/imx-optee-os/out/arm-plat-imx/export-ta_arm32/lib/libutils.a(memcpy.o)
 .debug_macro   0x0000000000000000      0x36c /home/yin/imx-optee/imx-optee-os/out/arm-plat-imx/export-ta_arm32/lib/libutils.a(memcpy.o)
 .debug_macro   0x0000000000000000       0x7c /home/yin/imx-optee/imx-optee-os/out/arm-plat-imx/export-ta_arm32/lib/libutils.a(memcpy.o)
 .debug_macro   0x0000000000000000      0x16d /home/yin/imx-optee/imx-optee-os/out/arm-plat-imx/export-ta_arm32/lib/libutils.a(memcpy.o)
 .debug_macro   0x0000000000000000       0x16 /home/yin/imx-optee/imx-optee-os/out/arm-plat-imx/export-ta_arm32/lib/libutils.a(memcpy.o)
 .group         0x0000000000000000        0x8 /home/yin/imx-optee/imx-optee-os/out/arm-plat-imx/export-ta_arm32/lib/libutils.a(memmove.o)
 .group         0x0000000000000000        0x8 /home/yin/imx-optee/imx-optee-os/out/arm-plat-imx/export-ta_arm32/lib/libutils.a(memmove.o)
 .group         0x0000000000000000        0x8 /home/yin/imx-optee/imx-optee-os/out/arm-plat-imx/export-ta_arm32/lib/libutils.a(memmove.o)
 .group         0x0000000000000000        0x8 /home/yin/imx-optee/imx-optee-os/out/arm-plat-imx/export-ta_arm32/lib/libutils.a(memmove.o)
 .group         0x0000000000000000        0x8 /home/yin/imx-optee/imx-optee-os/out/arm-plat-imx/export-ta_arm32/lib/libutils.a(memmove.o)
 .group         0x0000000000000000        0x8 /home/yin/imx-optee/imx-optee-os/out/arm-plat-imx/export-ta_arm32/lib/libutils.a(memmove.o)
 .debug_macro   0x0000000000000000      0x92e /home/yin/imx-optee/imx-optee-os/out/arm-plat-imx/export-ta_arm32/lib/libutils.a(memmove.o)
 .debug_macro   0x0000000000000000      0x36c /home/yin/imx-optee/imx-optee-os/out/arm-plat-imx/export-ta_arm32/lib/libutils.a(memmove.o)
 .debug_macro   0x0000000000000000      0x16d /home/yin/imx-optee/imx-optee-os/out/arm-plat-imx/export-ta_arm32/lib/libutils.a(memmove.o)
 .debug_macro   0x0000000000000000       0x16 /home/yin/imx-optee/imx-optee-os/out/arm-plat-imx/export-ta_arm32/lib/libutils.a(memmove.o)
 .debug_macro   0x0000000000000000       0x7c /home/yin/imx-optee/imx-optee-os/out/arm-plat-imx/export-ta_arm32/lib/libutils.a(memmove.o)
 .debug_macro   0x0000000000000000       0x7c /home/yin/imx-optee/imx-optee-os/out/arm-plat-imx/export-ta_arm32/lib/libutils.a(memmove.o)
 .group         0x0000000000000000        0x8 /home/yin/imx-optee/imx-optee-os/out/arm-plat-imx/export-ta_arm32/lib/libutils.a(memset.o)
 .group         0x0000000000000000        0x8 /home/yin/imx-optee/imx-optee-os/out/arm-plat-imx/export-ta_arm32/lib/libutils.a(memset.o)
 .group         0x0000000000000000        0x8 /home/yin/imx-optee/imx-optee-os/out/arm-plat-imx/export-ta_arm32/lib/libutils.a(memset.o)
 .group         0x0000000000000000        0x8 /home/yin/imx-optee/imx-optee-os/out/arm-plat-imx/export-ta_arm32/lib/libutils.a(memset.o)
 .group         0x0000000000000000        0x8 /home/yin/imx-optee/imx-optee-os/out/arm-plat-imx/export-ta_arm32/lib/libutils.a(memset.o)
 .debug_macro   0x0000000000000000      0x92e /home/yin/imx-optee/imx-optee-os/out/arm-plat-imx/export-ta_arm32/lib/libutils.a(memset.o)
 .debug_macro   0x0000000000000000      0x36c /home/yin/imx-optee/imx-optee-os/out/arm-plat-imx/export-ta_arm32/lib/libutils.a(memset.o)
 .debug_macro   0x0000000000000000       0x7c /home/yin/imx-optee/imx-optee-os/out/arm-plat-imx/export-ta_arm32/lib/libutils.a(memset.o)
 .debug_macro   0x0000000000000000      0x16d /home/yin/imx-optee/imx-optee-os/out/arm-plat-imx/export-ta_arm32/lib/libutils.a(memset.o)
 .debug_macro   0x0000000000000000       0x16 /home/yin/imx-optee/imx-optee-os/out/arm-plat-imx/export-ta_arm32/lib/libutils.a(memset.o)
 .group         0x0000000000000000        0x8 /home/yin/imx-optee/imx-optee-os/out/arm-plat-imx/export-ta_arm32/lib/libutils.a(strlen.o)
 .group         0x0000000000000000        0x8 /home/yin/imx-optee/imx-optee-os/out/arm-plat-imx/export-ta_arm32/lib/libutils.a(strlen.o)
 .group         0x0000000000000000        0x8 /home/yin/imx-optee/imx-optee-os/out/arm-plat-imx/export-ta_arm32/lib/libutils.a(strlen.o)
 .group         0x0000000000000000        0x8 /home/yin/imx-optee/imx-optee-os/out/arm-plat-imx/export-ta_arm32/lib/libutils.a(strlen.o)
 .group         0x0000000000000000        0x8 /home/yin/imx-optee/imx-optee-os/out/arm-plat-imx/export-ta_arm32/lib/libutils.a(strlen.o)
 .group         0x0000000000000000        0x8 /home/yin/imx-optee/imx-optee-os/out/arm-plat-imx/export-ta_arm32/lib/libutils.a(strlen.o)
 .debug_macro   0x0000000000000000      0x92e /home/yin/imx-optee/imx-optee-os/out/arm-plat-imx/export-ta_arm32/lib/libutils.a(strlen.o)
 .debug_macro   0x0000000000000000      0x36c /home/yin/imx-optee/imx-optee-os/out/arm-plat-imx/export-ta_arm32/lib/libutils.a(strlen.o)
 .debug_macro   0x0000000000000000       0x7c /home/yin/imx-optee/imx-optee-os/out/arm-plat-imx/export-ta_arm32/lib/libutils.a(strlen.o)
 .debug_macro   0x0000000000000000      0x16d /home/yin/imx-optee/imx-optee-os/out/arm-plat-imx/export-ta_arm32/lib/libutils.a(strlen.o)
 .debug_macro   0x0000000000000000       0x16 /home/yin/imx-optee/imx-optee-os/out/arm-plat-imx/export-ta_arm32/lib/libutils.a(strlen.o)
 .debug_macro   0x0000000000000000       0x7c /home/yin/imx-optee/imx-optee-os/out/arm-plat-imx/export-ta_arm32/lib/libutils.a(strlen.o)
 .group         0x0000000000000000        0x8 /home/yin/imx-optee/imx-optee-os/out/arm-plat-imx/export-ta_arm32/lib/libutils.a(arm32_aeabi_divmod.o)
 .group         0x0000000000000000        0x8 /home/yin/imx-optee/imx-optee-os/out/arm-plat-imx/export-ta_arm32/lib/libutils.a(arm32_aeabi_divmod.o)
 .debug_macro   0x0000000000000000      0x92e /home/yin/imx-optee/imx-optee-os/out/arm-plat-imx/export-ta_arm32/lib/libutils.a(arm32_aeabi_divmod.o)
 .debug_macro   0x0000000000000000      0x36c /home/yin/imx-optee/imx-optee-os/out/arm-plat-imx/export-ta_arm32/lib/libutils.a(arm32_aeabi_divmod.o)
 .group         0x0000000000000000        0x8 /home/yin/imx-optee/imx-optee-os/out/arm-plat-imx/export-ta_arm32/lib/libutils.a(snprintk.o)
 .group         0x0000000000000000        0x8 /home/yin/imx-optee/imx-optee-os/out/arm-plat-imx/export-ta_arm32/lib/libutils.a(snprintk.o)
 .group         0x0000000000000000        0x8 /home/yin/imx-optee/imx-optee-os/out/arm-plat-imx/export-ta_arm32/lib/libutils.a(snprintk.o)
 .group         0x0000000000000000        0x8 /home/yin/imx-optee/imx-optee-os/out/arm-plat-imx/export-ta_arm32/lib/libutils.a(snprintk.o)
 .group         0x0000000000000000        0x8 /home/yin/imx-optee/imx-optee-os/out/arm-plat-imx/export-ta_arm32/lib/libutils.a(snprintk.o)
 .group         0x0000000000000000        0x8 /home/yin/imx-optee/imx-optee-os/out/arm-plat-imx/export-ta_arm32/lib/libutils.a(snprintk.o)
 .group         0x0000000000000000        0x8 /home/yin/imx-optee/imx-optee-os/out/arm-plat-imx/export-ta_arm32/lib/libutils.a(snprintk.o)
 .group         0x0000000000000000        0x8 /home/yin/imx-optee/imx-optee-os/out/arm-plat-imx/export-ta_arm32/lib/libutils.a(snprintk.o)
 .debug_macro   0x0000000000000000      0x92e /home/yin/imx-optee/imx-optee-os/out/arm-plat-imx/export-ta_arm32/lib/libutils.a(snprintk.o)
 .debug_macro   0x0000000000000000      0x36c /home/yin/imx-optee/imx-optee-os/out/arm-plat-imx/export-ta_arm32/lib/libutils.a(snprintk.o)
 .debug_macro   0x0000000000000000       0x7c /home/yin/imx-optee/imx-optee-os/out/arm-plat-imx/export-ta_arm32/lib/libutils.a(snprintk.o)
 .debug_macro   0x0000000000000000      0x184 /home/yin/imx-optee/imx-optee-os/out/arm-plat-imx/export-ta_arm32/lib/libutils.a(snprintk.o)
 .debug_macro   0x0000000000000000      0x16d /home/yin/imx-optee/imx-optee-os/out/arm-plat-imx/export-ta_arm32/lib/libutils.a(snprintk.o)
 .debug_macro   0x0000000000000000       0x16 /home/yin/imx-optee/imx-optee-os/out/arm-plat-imx/export-ta_arm32/lib/libutils.a(snprintk.o)
 .debug_macro   0x0000000000000000       0x58 /home/yin/imx-optee/imx-optee-os/out/arm-plat-imx/export-ta_arm32/lib/libutils.a(snprintk.o)
 .debug_macro   0x0000000000000000       0x22 /home/yin/imx-optee/imx-optee-os/out/arm-plat-imx/export-ta_arm32/lib/libutils.a(snprintk.o)
 .group         0x0000000000000000        0x8 /home/yin/imx-optee/imx-optee-os/out/arm-plat-imx/export-ta_arm32/lib/libutils.a(buf_compare_ct.o)
 .group         0x0000000000000000        0x8 /home/yin/imx-optee/imx-optee-os/out/arm-plat-imx/export-ta_arm32/lib/libutils.a(buf_compare_ct.o)
 .group         0x0000000000000000        0x8 /home/yin/imx-optee/imx-optee-os/out/arm-plat-imx/export-ta_arm32/lib/libutils.a(buf_compare_ct.o)
 .group         0x0000000000000000        0x8 /home/yin/imx-optee/imx-optee-os/out/arm-plat-imx/export-ta_arm32/lib/libutils.a(buf_compare_ct.o)
 .debug_macro   0x0000000000000000      0x92e /home/yin/imx-optee/imx-optee-os/out/arm-plat-imx/export-ta_arm32/lib/libutils.a(buf_compare_ct.o)
 .debug_macro   0x0000000000000000      0x36c /home/yin/imx-optee/imx-optee-os/out/arm-plat-imx/export-ta_arm32/lib/libutils.a(buf_compare_ct.o)
 .debug_macro   0x0000000000000000      0x16d /home/yin/imx-optee/imx-optee-os/out/arm-plat-imx/export-ta_arm32/lib/libutils.a(buf_compare_ct.o)
 .debug_macro   0x0000000000000000       0x16 /home/yin/imx-optee/imx-optee-os/out/arm-plat-imx/export-ta_arm32/lib/libutils.a(buf_compare_ct.o)
 .group         0x0000000000000000        0x8 /home/yin/imx-optee/imx-optee-os/out/arm-plat-imx/export-ta_arm32/lib/libutils.a(trace.o)
 .group         0x0000000000000000        0x8 /home/yin/imx-optee/imx-optee-os/out/arm-plat-imx/export-ta_arm32/lib/libutils.a(trace.o)
 .group         0x0000000000000000        0x8 /home/yin/imx-optee/imx-optee-os/out/arm-plat-imx/export-ta_arm32/lib/libutils.a(trace.o)
 .group         0x0000000000000000        0x8 /home/yin/imx-optee/imx-optee-os/out/arm-plat-imx/export-ta_arm32/lib/libutils.a(trace.o)
 .group         0x0000000000000000        0x8 /home/yin/imx-optee/imx-optee-os/out/arm-plat-imx/export-ta_arm32/lib/libutils.a(trace.o)
 .group         0x0000000000000000        0x8 /home/yin/imx-optee/imx-optee-os/out/arm-plat-imx/export-ta_arm32/lib/libutils.a(trace.o)
 .group         0x0000000000000000        0x8 /home/yin/imx-optee/imx-optee-os/out/arm-plat-imx/export-ta_arm32/lib/libutils.a(trace.o)
 .group         0x0000000000000000        0x8 /home/yin/imx-optee/imx-optee-os/out/arm-plat-imx/export-ta_arm32/lib/libutils.a(trace.o)
 .group         0x0000000000000000        0x8 /home/yin/imx-optee/imx-optee-os/out/arm-plat-imx/export-ta_arm32/lib/libutils.a(trace.o)
 .group         0x0000000000000000        0x8 /home/yin/imx-optee/imx-optee-os/out/arm-plat-imx/export-ta_arm32/lib/libutils.a(trace.o)
 .group         0x0000000000000000        0x8 /home/yin/imx-optee/imx-optee-os/out/arm-plat-imx/export-ta_arm32/lib/libutils.a(trace.o)
 .group         0x0000000000000000        0x8 /home/yin/imx-optee/imx-optee-os/out/arm-plat-imx/export-ta_arm32/lib/libutils.a(trace.o)
 .group         0x0000000000000000        0x8 /home/yin/imx-optee/imx-optee-os/out/arm-plat-imx/export-ta_arm32/lib/libutils.a(trace.o)
 .group         0x0000000000000000        0x8 /home/yin/imx-optee/imx-optee-os/out/arm-plat-imx/export-ta_arm32/lib/libutils.a(trace.o)
 .debug_macro   0x0000000000000000      0x92e /home/yin/imx-optee/imx-optee-os/out/arm-plat-imx/export-ta_arm32/lib/libutils.a(trace.o)
 .debug_macro   0x0000000000000000      0x36c /home/yin/imx-optee/imx-optee-os/out/arm-plat-imx/export-ta_arm32/lib/libutils.a(trace.o)
 .debug_macro   0x0000000000000000      0x16d /home/yin/imx-optee/imx-optee-os/out/arm-plat-imx/export-ta_arm32/lib/libutils.a(trace.o)
 .debug_macro   0x0000000000000000       0x58 /home/yin/imx-optee/imx-optee-os/out/arm-plat-imx/export-ta_arm32/lib/libutils.a(trace.o)
 .debug_macro   0x0000000000000000       0x22 /home/yin/imx-optee/imx-optee-os/out/arm-plat-imx/export-ta_arm32/lib/libutils.a(trace.o)
 .debug_macro   0x0000000000000000       0x16 /home/yin/imx-optee/imx-optee-os/out/arm-plat-imx/export-ta_arm32/lib/libutils.a(trace.o)
 .debug_macro   0x0000000000000000       0xcd /home/yin/imx-optee/imx-optee-os/out/arm-plat-imx/export-ta_arm32/lib/libutils.a(trace.o)
 .debug_macro   0x0000000000000000       0x34 /home/yin/imx-optee/imx-optee-os/out/arm-plat-imx/export-ta_arm32/lib/libutils.a(trace.o)
 .debug_macro   0x0000000000000000       0x94 /home/yin/imx-optee/imx-optee-os/out/arm-plat-imx/export-ta_arm32/lib/libutils.a(trace.o)
 .debug_macro   0x0000000000000000       0x7c /home/yin/imx-optee/imx-optee-os/out/arm-plat-imx/export-ta_arm32/lib/libutils.a(trace.o)
 .debug_macro   0x0000000000000000      0x184 /home/yin/imx-optee/imx-optee-os/out/arm-plat-imx/export-ta_arm32/lib/libutils.a(trace.o)
 .debug_macro   0x0000000000000000       0xc4 /home/yin/imx-optee/imx-optee-os/out/arm-plat-imx/export-ta_arm32/lib/libutils.a(trace.o)
 .debug_macro   0x0000000000000000       0xc4 /home/yin/imx-optee/imx-optee-os/out/arm-plat-imx/export-ta_arm32/lib/libutils.a(trace.o)
 .debug_macro   0x0000000000000000       0x22 /home/yin/imx-optee/imx-optee-os/out/arm-plat-imx/export-ta_arm32/lib/libutils.a(trace.o)
 .group         0x0000000000000000        0x8 /home/yin/imx-optee/imx-optee-os/out/arm-plat-imx/export-ta_arm32/lib/libutils.a(mempool.o)
 .group         0x0000000000000000        0x8 /home/yin/imx-optee/imx-optee-os/out/arm-plat-imx/export-ta_arm32/lib/libutils.a(mempool.o)
 .group         0x0000000000000000        0x8 /home/yin/imx-optee/imx-optee-os/out/arm-plat-imx/export-ta_arm32/lib/libutils.a(mempool.o)
 .group         0x0000000000000000        0x8 /home/yin/imx-optee/imx-optee-os/out/arm-plat-imx/export-ta_arm32/lib/libutils.a(mempool.o)
 .group         0x0000000000000000        0x8 /home/yin/imx-optee/imx-optee-os/out/arm-plat-imx/export-ta_arm32/lib/libutils.a(mempool.o)
 .group         0x0000000000000000        0x8 /home/yin/imx-optee/imx-optee-os/out/arm-plat-imx/export-ta_arm32/lib/libutils.a(mempool.o)
 .group         0x0000000000000000        0x8 /home/yin/imx-optee/imx-optee-os/out/arm-plat-imx/export-ta_arm32/lib/libutils.a(mempool.o)
 .group         0x0000000000000000        0x8 /home/yin/imx-optee/imx-optee-os/out/arm-plat-imx/export-ta_arm32/lib/libutils.a(mempool.o)
 .group         0x0000000000000000        0x8 /home/yin/imx-optee/imx-optee-os/out/arm-plat-imx/export-ta_arm32/lib/libutils.a(mempool.o)
 .group         0x0000000000000000        0x8 /home/yin/imx-optee/imx-optee-os/out/arm-plat-imx/export-ta_arm32/lib/libutils.a(mempool.o)
 .group         0x0000000000000000        0x8 /home/yin/imx-optee/imx-optee-os/out/arm-plat-imx/export-ta_arm32/lib/libutils.a(mempool.o)
 .group         0x0000000000000000        0x8 /home/yin/imx-optee/imx-optee-os/out/arm-plat-imx/export-ta_arm32/lib/libutils.a(mempool.o)
 .group         0x0000000000000000        0x8 /home/yin/imx-optee/imx-optee-os/out/arm-plat-imx/export-ta_arm32/lib/libutils.a(mempool.o)
 .debug_macro   0x0000000000000000      0x92e /home/yin/imx-optee/imx-optee-os/out/arm-plat-imx/export-ta_arm32/lib/libutils.a(mempool.o)
 .debug_macro   0x0000000000000000      0x36c /home/yin/imx-optee/imx-optee-os/out/arm-plat-imx/export-ta_arm32/lib/libutils.a(mempool.o)
 .debug_macro   0x0000000000000000       0xcd /home/yin/imx-optee/imx-optee-os/out/arm-plat-imx/export-ta_arm32/lib/libutils.a(mempool.o)
 .debug_macro   0x0000000000000000       0x22 /home/yin/imx-optee/imx-optee-os/out/arm-plat-imx/export-ta_arm32/lib/libutils.a(mempool.o)
 .debug_macro   0x0000000000000000      0x16d /home/yin/imx-optee/imx-optee-os/out/arm-plat-imx/export-ta_arm32/lib/libutils.a(mempool.o)
 .debug_macro   0x0000000000000000       0x34 /home/yin/imx-optee/imx-optee-os/out/arm-plat-imx/export-ta_arm32/lib/libutils.a(mempool.o)
 .debug_macro   0x0000000000000000       0x94 /home/yin/imx-optee/imx-optee-os/out/arm-plat-imx/export-ta_arm32/lib/libutils.a(mempool.o)
 .debug_macro   0x0000000000000000       0x7c /home/yin/imx-optee/imx-optee-os/out/arm-plat-imx/export-ta_arm32/lib/libutils.a(mempool.o)
 .debug_macro   0x0000000000000000      0x184 /home/yin/imx-optee/imx-optee-os/out/arm-plat-imx/export-ta_arm32/lib/libutils.a(mempool.o)
 .debug_macro   0x0000000000000000       0xc4 /home/yin/imx-optee/imx-optee-os/out/arm-plat-imx/export-ta_arm32/lib/libutils.a(mempool.o)
 .debug_macro   0x0000000000000000       0x22 /home/yin/imx-optee/imx-optee-os/out/arm-plat-imx/export-ta_arm32/lib/libutils.a(mempool.o)
 .debug_macro   0x0000000000000000       0xc4 /home/yin/imx-optee/imx-optee-os/out/arm-plat-imx/export-ta_arm32/lib/libutils.a(mempool.o)
 .group         0x0000000000000000        0x8 /home/yin/imx-optee/imx-optee-os/out/arm-plat-imx/export-ta_arm32/lib/libutils.a(aeabi_unwind.o)
 .group         0x0000000000000000        0x8 /home/yin/imx-optee/imx-optee-os/out/arm-plat-imx/export-ta_arm32/lib/libutils.a(aeabi_unwind.o)
 .debug_macro   0x0000000000000000      0x92e /home/yin/imx-optee/imx-optee-os/out/arm-plat-imx/export-ta_arm32/lib/libutils.a(aeabi_unwind.o)
 .debug_macro   0x0000000000000000      0x36c /home/yin/imx-optee/imx-optee-os/out/arm-plat-imx/export-ta_arm32/lib/libutils.a(aeabi_unwind.o)
 .group         0x0000000000000000        0x8 /home/yin/imx-optee/imx-optee-os/out/arm-plat-imx/export-ta_arm32/lib/libutils.a(memchr.o)
 .group         0x0000000000000000        0x8 /home/yin/imx-optee/imx-optee-os/out/arm-plat-imx/export-ta_arm32/lib/libutils.a(memchr.o)
 .group         0x0000000000000000        0x8 /home/yin/imx-optee/imx-optee-os/out/arm-plat-imx/export-ta_arm32/lib/libutils.a(memchr.o)
 .group         0x0000000000000000        0x8 /home/yin/imx-optee/imx-optee-os/out/arm-plat-imx/export-ta_arm32/lib/libutils.a(memchr.o)
 .group         0x0000000000000000        0x8 /home/yin/imx-optee/imx-optee-os/out/arm-plat-imx/export-ta_arm32/lib/libutils.a(memchr.o)
 .group         0x0000000000000000        0x8 /home/yin/imx-optee/imx-optee-os/out/arm-plat-imx/export-ta_arm32/lib/libutils.a(memchr.o)
 .debug_macro   0x0000000000000000      0x92e /home/yin/imx-optee/imx-optee-os/out/arm-plat-imx/export-ta_arm32/lib/libutils.a(memchr.o)
 .debug_macro   0x0000000000000000      0x36c /home/yin/imx-optee/imx-optee-os/out/arm-plat-imx/export-ta_arm32/lib/libutils.a(memchr.o)
 .debug_macro   0x0000000000000000       0x7c /home/yin/imx-optee/imx-optee-os/out/arm-plat-imx/export-ta_arm32/lib/libutils.a(memchr.o)
 .debug_macro   0x0000000000000000      0x16d /home/yin/imx-optee/imx-optee-os/out/arm-plat-imx/export-ta_arm32/lib/libutils.a(memchr.o)
 .debug_macro   0x0000000000000000       0x16 /home/yin/imx-optee/imx-optee-os/out/arm-plat-imx/export-ta_arm32/lib/libutils.a(memchr.o)
 .debug_macro   0x0000000000000000       0x7c /home/yin/imx-optee/imx-optee-os/out/arm-plat-imx/export-ta_arm32/lib/libutils.a(memchr.o)
 .group         0x0000000000000000        0x8 /home/yin/imx-optee/imx-optee-os/out/arm-plat-imx/export-ta_arm32/lib/libutils.a(arm32_aeabi_ldivmod.o)
 .group         0x0000000000000000        0x8 /home/yin/imx-optee/imx-optee-os/out/arm-plat-imx/export-ta_arm32/lib/libutils.a(arm32_aeabi_ldivmod.o)
 .debug_macro   0x0000000000000000      0x92e /home/yin/imx-optee/imx-optee-os/out/arm-plat-imx/export-ta_arm32/lib/libutils.a(arm32_aeabi_ldivmod.o)
 .debug_macro   0x0000000000000000      0x36c /home/yin/imx-optee/imx-optee-os/out/arm-plat-imx/export-ta_arm32/lib/libutils.a(arm32_aeabi_ldivmod.o)
 .group         0x0000000000000000        0x8 /home/yin/imx-optee/imx-optee-os/out/arm-plat-imx/export-ta_arm32/lib/libmpa.a(mpa_misc.o)
 .group         0x0000000000000000        0x8 /home/yin/imx-optee/imx-optee-os/out/arm-plat-imx/export-ta_arm32/lib/libmpa.a(mpa_misc.o)
 .group         0x0000000000000000        0x8 /home/yin/imx-optee/imx-optee-os/out/arm-plat-imx/export-ta_arm32/lib/libmpa.a(mpa_misc.o)
 .group         0x0000000000000000        0x8 /home/yin/imx-optee/imx-optee-os/out/arm-plat-imx/export-ta_arm32/lib/libmpa.a(mpa_misc.o)
 .group         0x0000000000000000        0x8 /home/yin/imx-optee/imx-optee-os/out/arm-plat-imx/export-ta_arm32/lib/libmpa.a(mpa_misc.o)
 .group         0x0000000000000000        0x8 /home/yin/imx-optee/imx-optee-os/out/arm-plat-imx/export-ta_arm32/lib/libmpa.a(mpa_misc.o)
 .group         0x0000000000000000        0x8 /home/yin/imx-optee/imx-optee-os/out/arm-plat-imx/export-ta_arm32/lib/libmpa.a(mpa_misc.o)
 .group         0x0000000000000000        0x8 /home/yin/imx-optee/imx-optee-os/out/arm-plat-imx/export-ta_arm32/lib/libmpa.a(mpa_misc.o)
 .group         0x0000000000000000        0x8 /home/yin/imx-optee/imx-optee-os/out/arm-plat-imx/export-ta_arm32/lib/libmpa.a(mpa_misc.o)
 .group         0x0000000000000000        0x8 /home/yin/imx-optee/imx-optee-os/out/arm-plat-imx/export-ta_arm32/lib/libmpa.a(mpa_misc.o)
 .group         0x0000000000000000        0x8 /home/yin/imx-optee/imx-optee-os/out/arm-plat-imx/export-ta_arm32/lib/libmpa.a(mpa_misc.o)
 .group         0x0000000000000000        0x8 /home/yin/imx-optee/imx-optee-os/out/arm-plat-imx/export-ta_arm32/lib/libmpa.a(mpa_misc.o)
 .group         0x0000000000000000        0x8 /home/yin/imx-optee/imx-optee-os/out/arm-plat-imx/export-ta_arm32/lib/libmpa.a(mpa_misc.o)
 .group         0x0000000000000000        0x8 /home/yin/imx-optee/imx-optee-os/out/arm-plat-imx/export-ta_arm32/lib/libmpa.a(mpa_misc.o)
 .group         0x0000000000000000        0x8 /home/yin/imx-optee/imx-optee-os/out/arm-plat-imx/export-ta_arm32/lib/libmpa.a(mpa_misc.o)
 .debug_macro   0x0000000000000000      0x92e /home/yin/imx-optee/imx-optee-os/out/arm-plat-imx/export-ta_arm32/lib/libmpa.a(mpa_misc.o)
 .debug_macro   0x0000000000000000      0x36c /home/yin/imx-optee/imx-optee-os/out/arm-plat-imx/export-ta_arm32/lib/libmpa.a(mpa_misc.o)
 .debug_macro   0x0000000000000000       0x10 /home/yin/imx-optee/imx-optee-os/out/arm-plat-imx/export-ta_arm32/lib/libmpa.a(mpa_misc.o)
 .debug_macro   0x0000000000000000       0x7c /home/yin/imx-optee/imx-optee-os/out/arm-plat-imx/export-ta_arm32/lib/libmpa.a(mpa_misc.o)
 .debug_macro   0x0000000000000000      0x184 /home/yin/imx-optee/imx-optee-os/out/arm-plat-imx/export-ta_arm32/lib/libmpa.a(mpa_misc.o)
 .debug_macro   0x0000000000000000       0x22 /home/yin/imx-optee/imx-optee-os/out/arm-plat-imx/export-ta_arm32/lib/libmpa.a(mpa_misc.o)
 .debug_macro   0x0000000000000000       0x4c /home/yin/imx-optee/imx-optee-os/out/arm-plat-imx/export-ta_arm32/lib/libmpa.a(mpa_misc.o)
 .debug_macro   0x0000000000000000       0xcd /home/yin/imx-optee/imx-optee-os/out/arm-plat-imx/export-ta_arm32/lib/libmpa.a(mpa_misc.o)
 .debug_macro   0x0000000000000000      0x16d /home/yin/imx-optee/imx-optee-os/out/arm-plat-imx/export-ta_arm32/lib/libmpa.a(mpa_misc.o)
 .debug_macro   0x0000000000000000       0xc4 /home/yin/imx-optee/imx-optee-os/out/arm-plat-imx/export-ta_arm32/lib/libmpa.a(mpa_misc.o)
 .debug_macro   0x0000000000000000       0x22 /home/yin/imx-optee/imx-optee-os/out/arm-plat-imx/export-ta_arm32/lib/libmpa.a(mpa_misc.o)
 .debug_macro   0x0000000000000000       0x16 /home/yin/imx-optee/imx-optee-os/out/arm-plat-imx/export-ta_arm32/lib/libmpa.a(mpa_misc.o)
 .debug_macro   0x0000000000000000       0x16 /home/yin/imx-optee/imx-optee-os/out/arm-plat-imx/export-ta_arm32/lib/libmpa.a(mpa_misc.o)
 .debug_macro   0x0000000000000000       0x6b /home/yin/imx-optee/imx-optee-os/out/arm-plat-imx/export-ta_arm32/lib/libmpa.a(mpa_misc.o)
 .group         0x0000000000000000        0x8 /home/yin/imx-optee/imx-optee-os/out/arm-plat-imx/export-ta_arm32/lib/libmpa.a(mpa_montgomery.o)
 .group         0x0000000000000000        0x8 /home/yin/imx-optee/imx-optee-os/out/arm-plat-imx/export-ta_arm32/lib/libmpa.a(mpa_montgomery.o)
 .group         0x0000000000000000        0x8 /home/yin/imx-optee/imx-optee-os/out/arm-plat-imx/export-ta_arm32/lib/libmpa.a(mpa_montgomery.o)
 .group         0x0000000000000000        0x8 /home/yin/imx-optee/imx-optee-os/out/arm-plat-imx/export-ta_arm32/lib/libmpa.a(mpa_montgomery.o)
 .group         0x0000000000000000        0x8 /home/yin/imx-optee/imx-optee-os/out/arm-plat-imx/export-ta_arm32/lib/libmpa.a(mpa_montgomery.o)
 .group         0x0000000000000000        0x8 /home/yin/imx-optee/imx-optee-os/out/arm-plat-imx/export-ta_arm32/lib/libmpa.a(mpa_montgomery.o)
 .group         0x0000000000000000        0x8 /home/yin/imx-optee/imx-optee-os/out/arm-plat-imx/export-ta_arm32/lib/libmpa.a(mpa_montgomery.o)
 .group         0x0000000000000000        0x8 /home/yin/imx-optee/imx-optee-os/out/arm-plat-imx/export-ta_arm32/lib/libmpa.a(mpa_montgomery.o)
 .group         0x0000000000000000        0x8 /home/yin/imx-optee/imx-optee-os/out/arm-plat-imx/export-ta_arm32/lib/libmpa.a(mpa_montgomery.o)
 .group         0x0000000000000000        0x8 /home/yin/imx-optee/imx-optee-os/out/arm-plat-imx/export-ta_arm32/lib/libmpa.a(mpa_montgomery.o)
 .group         0x0000000000000000        0x8 /home/yin/imx-optee/imx-optee-os/out/arm-plat-imx/export-ta_arm32/lib/libmpa.a(mpa_montgomery.o)
 .group         0x0000000000000000        0x8 /home/yin/imx-optee/imx-optee-os/out/arm-plat-imx/export-ta_arm32/lib/libmpa.a(mpa_montgomery.o)
 .group         0x0000000000000000        0x8 /home/yin/imx-optee/imx-optee-os/out/arm-plat-imx/export-ta_arm32/lib/libmpa.a(mpa_montgomery.o)
 .group         0x0000000000000000        0x8 /home/yin/imx-optee/imx-optee-os/out/arm-plat-imx/export-ta_arm32/lib/libmpa.a(mpa_montgomery.o)
 .group         0x0000000000000000        0x8 /home/yin/imx-optee/imx-optee-os/out/arm-plat-imx/export-ta_arm32/lib/libmpa.a(mpa_montgomery.o)
 .debug_macro   0x0000000000000000      0x92e /home/yin/imx-optee/imx-optee-os/out/arm-plat-imx/export-ta_arm32/lib/libmpa.a(mpa_montgomery.o)
 .debug_macro   0x0000000000000000      0x36c /home/yin/imx-optee/imx-optee-os/out/arm-plat-imx/export-ta_arm32/lib/libmpa.a(mpa_montgomery.o)
 .debug_macro   0x0000000000000000       0x10 /home/yin/imx-optee/imx-optee-os/out/arm-plat-imx/export-ta_arm32/lib/libmpa.a(mpa_montgomery.o)
 .debug_macro   0x0000000000000000       0x7c /home/yin/imx-optee/imx-optee-os/out/arm-plat-imx/export-ta_arm32/lib/libmpa.a(mpa_montgomery.o)
 .debug_macro   0x0000000000000000      0x184 /home/yin/imx-optee/imx-optee-os/out/arm-plat-imx/export-ta_arm32/lib/libmpa.a(mpa_montgomery.o)
 .debug_macro   0x0000000000000000       0x22 /home/yin/imx-optee/imx-optee-os/out/arm-plat-imx/export-ta_arm32/lib/libmpa.a(mpa_montgomery.o)
 .debug_macro   0x0000000000000000       0x4c /home/yin/imx-optee/imx-optee-os/out/arm-plat-imx/export-ta_arm32/lib/libmpa.a(mpa_montgomery.o)
 .debug_macro   0x0000000000000000       0xcd /home/yin/imx-optee/imx-optee-os/out/arm-plat-imx/export-ta_arm32/lib/libmpa.a(mpa_montgomery.o)
 .debug_macro   0x0000000000000000      0x16d /home/yin/imx-optee/imx-optee-os/out/arm-plat-imx/export-ta_arm32/lib/libmpa.a(mpa_montgomery.o)
 .debug_macro   0x0000000000000000       0xc4 /home/yin/imx-optee/imx-optee-os/out/arm-plat-imx/export-ta_arm32/lib/libmpa.a(mpa_montgomery.o)
 .debug_macro   0x0000000000000000       0x22 /home/yin/imx-optee/imx-optee-os/out/arm-plat-imx/export-ta_arm32/lib/libmpa.a(mpa_montgomery.o)
 .debug_macro   0x0000000000000000       0x16 /home/yin/imx-optee/imx-optee-os/out/arm-plat-imx/export-ta_arm32/lib/libmpa.a(mpa_montgomery.o)
 .debug_macro   0x0000000000000000       0x16 /home/yin/imx-optee/imx-optee-os/out/arm-plat-imx/export-ta_arm32/lib/libmpa.a(mpa_montgomery.o)
 .debug_macro   0x0000000000000000       0x6b /home/yin/imx-optee/imx-optee-os/out/arm-plat-imx/export-ta_arm32/lib/libmpa.a(mpa_montgomery.o)
 .debug_macro   0x0000000000000000       0xa6 /home/yin/imx-optee/imx-optee-os/out/arm-plat-imx/export-ta_arm32/lib/libmpa.a(mpa_montgomery.o)
 .group         0x0000000000000000        0x8 /home/yin/imx-optee/imx-optee-os/out/arm-plat-imx/export-ta_arm32/lib/libmpa.a(mpa_primetest.o)
 .group         0x0000000000000000        0x8 /home/yin/imx-optee/imx-optee-os/out/arm-plat-imx/export-ta_arm32/lib/libmpa.a(mpa_primetest.o)
 .group         0x0000000000000000        0x8 /home/yin/imx-optee/imx-optee-os/out/arm-plat-imx/export-ta_arm32/lib/libmpa.a(mpa_primetest.o)
 .group         0x0000000000000000        0x8 /home/yin/imx-optee/imx-optee-os/out/arm-plat-imx/export-ta_arm32/lib/libmpa.a(mpa_primetest.o)
 .group         0x0000000000000000        0x8 /home/yin/imx-optee/imx-optee-os/out/arm-plat-imx/export-ta_arm32/lib/libmpa.a(mpa_primetest.o)
 .group         0x0000000000000000        0x8 /home/yin/imx-optee/imx-optee-os/out/arm-plat-imx/export-ta_arm32/lib/libmpa.a(mpa_primetest.o)
 .group         0x0000000000000000        0x8 /home/yin/imx-optee/imx-optee-os/out/arm-plat-imx/export-ta_arm32/lib/libmpa.a(mpa_primetest.o)
 .group         0x0000000000000000        0x8 /home/yin/imx-optee/imx-optee-os/out/arm-plat-imx/export-ta_arm32/lib/libmpa.a(mpa_primetest.o)
 .group         0x0000000000000000        0x8 /home/yin/imx-optee/imx-optee-os/out/arm-plat-imx/export-ta_arm32/lib/libmpa.a(mpa_primetest.o)
 .group         0x0000000000000000        0x8 /home/yin/imx-optee/imx-optee-os/out/arm-plat-imx/export-ta_arm32/lib/libmpa.a(mpa_primetest.o)
 .group         0x0000000000000000        0x8 /home/yin/imx-optee/imx-optee-os/out/arm-plat-imx/export-ta_arm32/lib/libmpa.a(mpa_primetest.o)
 .group         0x0000000000000000        0x8 /home/yin/imx-optee/imx-optee-os/out/arm-plat-imx/export-ta_arm32/lib/libmpa.a(mpa_primetest.o)
 .group         0x0000000000000000        0x8 /home/yin/imx-optee/imx-optee-os/out/arm-plat-imx/export-ta_arm32/lib/libmpa.a(mpa_primetest.o)
 .group         0x0000000000000000        0x8 /home/yin/imx-optee/imx-optee-os/out/arm-plat-imx/export-ta_arm32/lib/libmpa.a(mpa_primetest.o)
 .group         0x0000000000000000        0x8 /home/yin/imx-optee/imx-optee-os/out/arm-plat-imx/export-ta_arm32/lib/libmpa.a(mpa_primetest.o)
 .debug_macro   0x0000000000000000      0x92e /home/yin/imx-optee/imx-optee-os/out/arm-plat-imx/export-ta_arm32/lib/libmpa.a(mpa_primetest.o)
 .debug_macro   0x0000000000000000      0x36c /home/yin/imx-optee/imx-optee-os/out/arm-plat-imx/export-ta_arm32/lib/libmpa.a(mpa_primetest.o)
 .debug_macro   0x0000000000000000       0x10 /home/yin/imx-optee/imx-optee-os/out/arm-plat-imx/export-ta_arm32/lib/libmpa.a(mpa_primetest.o)
 .debug_macro   0x0000000000000000       0x7c /home/yin/imx-optee/imx-optee-os/out/arm-plat-imx/export-ta_arm32/lib/libmpa.a(mpa_primetest.o)
 .debug_macro   0x0000000000000000      0x184 /home/yin/imx-optee/imx-optee-os/out/arm-plat-imx/export-ta_arm32/lib/libmpa.a(mpa_primetest.o)
 .debug_macro   0x0000000000000000       0x22 /home/yin/imx-optee/imx-optee-os/out/arm-plat-imx/export-ta_arm32/lib/libmpa.a(mpa_primetest.o)
 .debug_macro   0x0000000000000000       0x4c /home/yin/imx-optee/imx-optee-os/out/arm-plat-imx/export-ta_arm32/lib/libmpa.a(mpa_primetest.o)
 .debug_macro   0x0000000000000000       0xcd /home/yin/imx-optee/imx-optee-os/out/arm-plat-imx/export-ta_arm32/lib/libmpa.a(mpa_primetest.o)
 .debug_macro   0x0000000000000000      0x16d /home/yin/imx-optee/imx-optee-os/out/arm-plat-imx/export-ta_arm32/lib/libmpa.a(mpa_primetest.o)
 .debug_macro   0x0000000000000000       0xc4 /home/yin/imx-optee/imx-optee-os/out/arm-plat-imx/export-ta_arm32/lib/libmpa.a(mpa_primetest.o)
 .debug_macro   0x0000000000000000       0x22 /home/yin/imx-optee/imx-optee-os/out/arm-plat-imx/export-ta_arm32/lib/libmpa.a(mpa_primetest.o)
 .debug_macro   0x0000000000000000       0x16 /home/yin/imx-optee/imx-optee-os/out/arm-plat-imx/export-ta_arm32/lib/libmpa.a(mpa_primetest.o)
 .debug_macro   0x0000000000000000       0x16 /home/yin/imx-optee/imx-optee-os/out/arm-plat-imx/export-ta_arm32/lib/libmpa.a(mpa_primetest.o)
 .debug_macro   0x0000000000000000       0x6b /home/yin/imx-optee/imx-optee-os/out/arm-plat-imx/export-ta_arm32/lib/libmpa.a(mpa_primetest.o)
 .debug_macro   0x0000000000000000       0xa6 /home/yin/imx-optee/imx-optee-os/out/arm-plat-imx/export-ta_arm32/lib/libmpa.a(mpa_primetest.o)
 .group         0x0000000000000000        0x8 /home/yin/imx-optee/imx-optee-os/out/arm-plat-imx/export-ta_arm32/lib/libmpa.a(mpa_conv.o)
 .group         0x0000000000000000        0x8 /home/yin/imx-optee/imx-optee-os/out/arm-plat-imx/export-ta_arm32/lib/libmpa.a(mpa_conv.o)
 .group         0x0000000000000000        0x8 /home/yin/imx-optee/imx-optee-os/out/arm-plat-imx/export-ta_arm32/lib/libmpa.a(mpa_conv.o)
 .group         0x0000000000000000        0x8 /home/yin/imx-optee/imx-optee-os/out/arm-plat-imx/export-ta_arm32/lib/libmpa.a(mpa_conv.o)
 .group         0x0000000000000000        0x8 /home/yin/imx-optee/imx-optee-os/out/arm-plat-imx/export-ta_arm32/lib/libmpa.a(mpa_conv.o)
 .group         0x0000000000000000        0x8 /home/yin/imx-optee/imx-optee-os/out/arm-plat-imx/export-ta_arm32/lib/libmpa.a(mpa_conv.o)
 .group         0x0000000000000000        0x8 /home/yin/imx-optee/imx-optee-os/out/arm-plat-imx/export-ta_arm32/lib/libmpa.a(mpa_conv.o)
 .group         0x0000000000000000        0x8 /home/yin/imx-optee/imx-optee-os/out/arm-plat-imx/export-ta_arm32/lib/libmpa.a(mpa_conv.o)
 .group         0x0000000000000000        0x8 /home/yin/imx-optee/imx-optee-os/out/arm-plat-imx/export-ta_arm32/lib/libmpa.a(mpa_conv.o)
 .group         0x0000000000000000        0x8 /home/yin/imx-optee/imx-optee-os/out/arm-plat-imx/export-ta_arm32/lib/libmpa.a(mpa_conv.o)
 .group         0x0000000000000000        0x8 /home/yin/imx-optee/imx-optee-os/out/arm-plat-imx/export-ta_arm32/lib/libmpa.a(mpa_conv.o)
 .group         0x0000000000000000        0x8 /home/yin/imx-optee/imx-optee-os/out/arm-plat-imx/export-ta_arm32/lib/libmpa.a(mpa_conv.o)
 .group         0x0000000000000000        0x8 /home/yin/imx-optee/imx-optee-os/out/arm-plat-imx/export-ta_arm32/lib/libmpa.a(mpa_conv.o)
 .group         0x0000000000000000        0x8 /home/yin/imx-optee/imx-optee-os/out/arm-plat-imx/export-ta_arm32/lib/libmpa.a(mpa_conv.o)
 .group         0x0000000000000000        0x8 /home/yin/imx-optee/imx-optee-os/out/arm-plat-imx/export-ta_arm32/lib/libmpa.a(mpa_conv.o)
 .debug_macro   0x0000000000000000      0x92e /home/yin/imx-optee/imx-optee-os/out/arm-plat-imx/export-ta_arm32/lib/libmpa.a(mpa_conv.o)
 .debug_macro   0x0000000000000000      0x36c /home/yin/imx-optee/imx-optee-os/out/arm-plat-imx/export-ta_arm32/lib/libmpa.a(mpa_conv.o)
 .debug_macro   0x0000000000000000       0x10 /home/yin/imx-optee/imx-optee-os/out/arm-plat-imx/export-ta_arm32/lib/libmpa.a(mpa_conv.o)
 .debug_macro   0x0000000000000000       0x7c /home/yin/imx-optee/imx-optee-os/out/arm-plat-imx/export-ta_arm32/lib/libmpa.a(mpa_conv.o)
 .debug_macro   0x0000000000000000      0x184 /home/yin/imx-optee/imx-optee-os/out/arm-plat-imx/export-ta_arm32/lib/libmpa.a(mpa_conv.o)
 .debug_macro   0x0000000000000000       0x22 /home/yin/imx-optee/imx-optee-os/out/arm-plat-imx/export-ta_arm32/lib/libmpa.a(mpa_conv.o)
 .debug_macro   0x0000000000000000       0x4c /home/yin/imx-optee/imx-optee-os/out/arm-plat-imx/export-ta_arm32/lib/libmpa.a(mpa_conv.o)
 .debug_macro   0x0000000000000000       0xcd /home/yin/imx-optee/imx-optee-os/out/arm-plat-imx/export-ta_arm32/lib/libmpa.a(mpa_conv.o)
 .debug_macro   0x0000000000000000      0x16d /home/yin/imx-optee/imx-optee-os/out/arm-plat-imx/export-ta_arm32/lib/libmpa.a(mpa_conv.o)
 .debug_macro   0x0000000000000000       0xc4 /home/yin/imx-optee/imx-optee-os/out/arm-plat-imx/export-ta_arm32/lib/libmpa.a(mpa_conv.o)
 .debug_macro   0x0000000000000000       0x22 /home/yin/imx-optee/imx-optee-os/out/arm-plat-imx/export-ta_arm32/lib/libmpa.a(mpa_conv.o)
 .debug_macro   0x0000000000000000       0x16 /home/yin/imx-optee/imx-optee-os/out/arm-plat-imx/export-ta_arm32/lib/libmpa.a(mpa_conv.o)
 .debug_macro   0x0000000000000000       0x16 /home/yin/imx-optee/imx-optee-os/out/arm-plat-imx/export-ta_arm32/lib/libmpa.a(mpa_conv.o)
 .debug_macro   0x0000000000000000       0x6b /home/yin/imx-optee/imx-optee-os/out/arm-plat-imx/export-ta_arm32/lib/libmpa.a(mpa_conv.o)
 .debug_macro   0x0000000000000000       0xa6 /home/yin/imx-optee/imx-optee-os/out/arm-plat-imx/export-ta_arm32/lib/libmpa.a(mpa_conv.o)
 .group         0x0000000000000000        0x8 /home/yin/imx-optee/imx-optee-os/out/arm-plat-imx/export-ta_arm32/lib/libmpa.a(mpa_div.o)
 .group         0x0000000000000000        0x8 /home/yin/imx-optee/imx-optee-os/out/arm-plat-imx/export-ta_arm32/lib/libmpa.a(mpa_div.o)
 .group         0x0000000000000000        0x8 /home/yin/imx-optee/imx-optee-os/out/arm-plat-imx/export-ta_arm32/lib/libmpa.a(mpa_div.o)
 .group         0x0000000000000000        0x8 /home/yin/imx-optee/imx-optee-os/out/arm-plat-imx/export-ta_arm32/lib/libmpa.a(mpa_div.o)
 .group         0x0000000000000000        0x8 /home/yin/imx-optee/imx-optee-os/out/arm-plat-imx/export-ta_arm32/lib/libmpa.a(mpa_div.o)
 .group         0x0000000000000000        0x8 /home/yin/imx-optee/imx-optee-os/out/arm-plat-imx/export-ta_arm32/lib/libmpa.a(mpa_div.o)
 .group         0x0000000000000000        0x8 /home/yin/imx-optee/imx-optee-os/out/arm-plat-imx/export-ta_arm32/lib/libmpa.a(mpa_div.o)
 .group         0x0000000000000000        0x8 /home/yin/imx-optee/imx-optee-os/out/arm-plat-imx/export-ta_arm32/lib/libmpa.a(mpa_div.o)
 .group         0x0000000000000000        0x8 /home/yin/imx-optee/imx-optee-os/out/arm-plat-imx/export-ta_arm32/lib/libmpa.a(mpa_div.o)
 .group         0x0000000000000000        0x8 /home/yin/imx-optee/imx-optee-os/out/arm-plat-imx/export-ta_arm32/lib/libmpa.a(mpa_div.o)
 .group         0x0000000000000000        0x8 /home/yin/imx-optee/imx-optee-os/out/arm-plat-imx/export-ta_arm32/lib/libmpa.a(mpa_div.o)
 .group         0x0000000000000000        0x8 /home/yin/imx-optee/imx-optee-os/out/arm-plat-imx/export-ta_arm32/lib/libmpa.a(mpa_div.o)
 .group         0x0000000000000000        0x8 /home/yin/imx-optee/imx-optee-os/out/arm-plat-imx/export-ta_arm32/lib/libmpa.a(mpa_div.o)
 .group         0x0000000000000000        0x8 /home/yin/imx-optee/imx-optee-os/out/arm-plat-imx/export-ta_arm32/lib/libmpa.a(mpa_div.o)
 .group         0x0000000000000000        0x8 /home/yin/imx-optee/imx-optee-os/out/arm-plat-imx/export-ta_arm32/lib/libmpa.a(mpa_div.o)
 .debug_macro   0x0000000000000000      0x92e /home/yin/imx-optee/imx-optee-os/out/arm-plat-imx/export-ta_arm32/lib/libmpa.a(mpa_div.o)
 .debug_macro   0x0000000000000000      0x36c /home/yin/imx-optee/imx-optee-os/out/arm-plat-imx/export-ta_arm32/lib/libmpa.a(mpa_div.o)
 .debug_macro   0x0000000000000000       0x10 /home/yin/imx-optee/imx-optee-os/out/arm-plat-imx/export-ta_arm32/lib/libmpa.a(mpa_div.o)
 .debug_macro   0x0000000000000000       0x7c /home/yin/imx-optee/imx-optee-os/out/arm-plat-imx/export-ta_arm32/lib/libmpa.a(mpa_div.o)
 .debug_macro   0x0000000000000000      0x184 /home/yin/imx-optee/imx-optee-os/out/arm-plat-imx/export-ta_arm32/lib/libmpa.a(mpa_div.o)
 .debug_macro   0x0000000000000000       0x22 /home/yin/imx-optee/imx-optee-os/out/arm-plat-imx/export-ta_arm32/lib/libmpa.a(mpa_div.o)
 .debug_macro   0x0000000000000000       0x4c /home/yin/imx-optee/imx-optee-os/out/arm-plat-imx/export-ta_arm32/lib/libmpa.a(mpa_div.o)
 .debug_macro   0x0000000000000000       0xcd /home/yin/imx-optee/imx-optee-os/out/arm-plat-imx/export-ta_arm32/lib/libmpa.a(mpa_div.o)
 .debug_macro   0x0000000000000000      0x16d /home/yin/imx-optee/imx-optee-os/out/arm-plat-imx/export-ta_arm32/lib/libmpa.a(mpa_div.o)
 .debug_macro   0x0000000000000000       0xc4 /home/yin/imx-optee/imx-optee-os/out/arm-plat-imx/export-ta_arm32/lib/libmpa.a(mpa_div.o)
 .debug_macro   0x0000000000000000       0x22 /home/yin/imx-optee/imx-optee-os/out/arm-plat-imx/export-ta_arm32/lib/libmpa.a(mpa_div.o)
 .debug_macro   0x0000000000000000       0x16 /home/yin/imx-optee/imx-optee-os/out/arm-plat-imx/export-ta_arm32/lib/libmpa.a(mpa_div.o)
 .debug_macro   0x0000000000000000       0x16 /home/yin/imx-optee/imx-optee-os/out/arm-plat-imx/export-ta_arm32/lib/libmpa.a(mpa_div.o)
 .debug_macro   0x0000000000000000       0x6b /home/yin/imx-optee/imx-optee-os/out/arm-plat-imx/export-ta_arm32/lib/libmpa.a(mpa_div.o)
 .debug_macro   0x0000000000000000       0xa6 /home/yin/imx-optee/imx-optee-os/out/arm-plat-imx/export-ta_arm32/lib/libmpa.a(mpa_div.o)
 .group         0x0000000000000000        0x8 /home/yin/imx-optee/imx-optee-os/out/arm-plat-imx/export-ta_arm32/lib/libmpa.a(mpa_gcd.o)
 .group         0x0000000000000000        0x8 /home/yin/imx-optee/imx-optee-os/out/arm-plat-imx/export-ta_arm32/lib/libmpa.a(mpa_gcd.o)
 .group         0x0000000000000000        0x8 /home/yin/imx-optee/imx-optee-os/out/arm-plat-imx/export-ta_arm32/lib/libmpa.a(mpa_gcd.o)
 .group         0x0000000000000000        0x8 /home/yin/imx-optee/imx-optee-os/out/arm-plat-imx/export-ta_arm32/lib/libmpa.a(mpa_gcd.o)
 .group         0x0000000000000000        0x8 /home/yin/imx-optee/imx-optee-os/out/arm-plat-imx/export-ta_arm32/lib/libmpa.a(mpa_gcd.o)
 .group         0x0000000000000000        0x8 /home/yin/imx-optee/imx-optee-os/out/arm-plat-imx/export-ta_arm32/lib/libmpa.a(mpa_gcd.o)
 .group         0x0000000000000000        0x8 /home/yin/imx-optee/imx-optee-os/out/arm-plat-imx/export-ta_arm32/lib/libmpa.a(mpa_gcd.o)
 .group         0x0000000000000000        0x8 /home/yin/imx-optee/imx-optee-os/out/arm-plat-imx/export-ta_arm32/lib/libmpa.a(mpa_gcd.o)
 .group         0x0000000000000000        0x8 /home/yin/imx-optee/imx-optee-os/out/arm-plat-imx/export-ta_arm32/lib/libmpa.a(mpa_gcd.o)
 .group         0x0000000000000000        0x8 /home/yin/imx-optee/imx-optee-os/out/arm-plat-imx/export-ta_arm32/lib/libmpa.a(mpa_gcd.o)
 .group         0x0000000000000000        0x8 /home/yin/imx-optee/imx-optee-os/out/arm-plat-imx/export-ta_arm32/lib/libmpa.a(mpa_gcd.o)
 .group         0x0000000000000000        0x8 /home/yin/imx-optee/imx-optee-os/out/arm-plat-imx/export-ta_arm32/lib/libmpa.a(mpa_gcd.o)
 .group         0x0000000000000000        0x8 /home/yin/imx-optee/imx-optee-os/out/arm-plat-imx/export-ta_arm32/lib/libmpa.a(mpa_gcd.o)
 .group         0x0000000000000000        0x8 /home/yin/imx-optee/imx-optee-os/out/arm-plat-imx/export-ta_arm32/lib/libmpa.a(mpa_gcd.o)
 .group         0x0000000000000000        0x8 /home/yin/imx-optee/imx-optee-os/out/arm-plat-imx/export-ta_arm32/lib/libmpa.a(mpa_gcd.o)
 .debug_macro   0x0000000000000000      0x92e /home/yin/imx-optee/imx-optee-os/out/arm-plat-imx/export-ta_arm32/lib/libmpa.a(mpa_gcd.o)
 .debug_macro   0x0000000000000000      0x36c /home/yin/imx-optee/imx-optee-os/out/arm-plat-imx/export-ta_arm32/lib/libmpa.a(mpa_gcd.o)
 .debug_macro   0x0000000000000000       0x10 /home/yin/imx-optee/imx-optee-os/out/arm-plat-imx/export-ta_arm32/lib/libmpa.a(mpa_gcd.o)
 .debug_macro   0x0000000000000000       0x7c /home/yin/imx-optee/imx-optee-os/out/arm-plat-imx/export-ta_arm32/lib/libmpa.a(mpa_gcd.o)
 .debug_macro   0x0000000000000000      0x184 /home/yin/imx-optee/imx-optee-os/out/arm-plat-imx/export-ta_arm32/lib/libmpa.a(mpa_gcd.o)
 .debug_macro   0x0000000000000000       0x22 /home/yin/imx-optee/imx-optee-os/out/arm-plat-imx/export-ta_arm32/lib/libmpa.a(mpa_gcd.o)
 .debug_macro   0x0000000000000000       0x4c /home/yin/imx-optee/imx-optee-os/out/arm-plat-imx/export-ta_arm32/lib/libmpa.a(mpa_gcd.o)
 .debug_macro   0x0000000000000000       0xcd /home/yin/imx-optee/imx-optee-os/out/arm-plat-imx/export-ta_arm32/lib/libmpa.a(mpa_gcd.o)
 .debug_macro   0x0000000000000000      0x16d /home/yin/imx-optee/imx-optee-os/out/arm-plat-imx/export-ta_arm32/lib/libmpa.a(mpa_gcd.o)
 .debug_macro   0x0000000000000000       0xc4 /home/yin/imx-optee/imx-optee-os/out/arm-plat-imx/export-ta_arm32/lib/libmpa.a(mpa_gcd.o)
 .debug_macro   0x0000000000000000       0x22 /home/yin/imx-optee/imx-optee-os/out/arm-plat-imx/export-ta_arm32/lib/libmpa.a(mpa_gcd.o)
 .debug_macro   0x0000000000000000       0x16 /home/yin/imx-optee/imx-optee-os/out/arm-plat-imx/export-ta_arm32/lib/libmpa.a(mpa_gcd.o)
 .debug_macro   0x0000000000000000       0x16 /home/yin/imx-optee/imx-optee-os/out/arm-plat-imx/export-ta_arm32/lib/libmpa.a(mpa_gcd.o)
 .debug_macro   0x0000000000000000       0x6b /home/yin/imx-optee/imx-optee-os/out/arm-plat-imx/export-ta_arm32/lib/libmpa.a(mpa_gcd.o)
 .debug_macro   0x0000000000000000       0xa6 /home/yin/imx-optee/imx-optee-os/out/arm-plat-imx/export-ta_arm32/lib/libmpa.a(mpa_gcd.o)
 .group         0x0000000000000000        0x8 /home/yin/imx-optee/imx-optee-os/out/arm-plat-imx/export-ta_arm32/lib/libmpa.a(mpa_mem_static.o)
 .group         0x0000000000000000        0x8 /home/yin/imx-optee/imx-optee-os/out/arm-plat-imx/export-ta_arm32/lib/libmpa.a(mpa_mem_static.o)
 .group         0x0000000000000000        0x8 /home/yin/imx-optee/imx-optee-os/out/arm-plat-imx/export-ta_arm32/lib/libmpa.a(mpa_mem_static.o)
 .group         0x0000000000000000        0x8 /home/yin/imx-optee/imx-optee-os/out/arm-plat-imx/export-ta_arm32/lib/libmpa.a(mpa_mem_static.o)
 .group         0x0000000000000000        0x8 /home/yin/imx-optee/imx-optee-os/out/arm-plat-imx/export-ta_arm32/lib/libmpa.a(mpa_mem_static.o)
 .group         0x0000000000000000        0x8 /home/yin/imx-optee/imx-optee-os/out/arm-plat-imx/export-ta_arm32/lib/libmpa.a(mpa_mem_static.o)
 .group         0x0000000000000000        0x8 /home/yin/imx-optee/imx-optee-os/out/arm-plat-imx/export-ta_arm32/lib/libmpa.a(mpa_mem_static.o)
 .group         0x0000000000000000        0x8 /home/yin/imx-optee/imx-optee-os/out/arm-plat-imx/export-ta_arm32/lib/libmpa.a(mpa_mem_static.o)
 .group         0x0000000000000000        0x8 /home/yin/imx-optee/imx-optee-os/out/arm-plat-imx/export-ta_arm32/lib/libmpa.a(mpa_mem_static.o)
 .group         0x0000000000000000        0x8 /home/yin/imx-optee/imx-optee-os/out/arm-plat-imx/export-ta_arm32/lib/libmpa.a(mpa_mem_static.o)
 .group         0x0000000000000000        0x8 /home/yin/imx-optee/imx-optee-os/out/arm-plat-imx/export-ta_arm32/lib/libmpa.a(mpa_mem_static.o)
 .group         0x0000000000000000        0x8 /home/yin/imx-optee/imx-optee-os/out/arm-plat-imx/export-ta_arm32/lib/libmpa.a(mpa_mem_static.o)
 .group         0x0000000000000000        0x8 /home/yin/imx-optee/imx-optee-os/out/arm-plat-imx/export-ta_arm32/lib/libmpa.a(mpa_mem_static.o)
 .group         0x0000000000000000        0x8 /home/yin/imx-optee/imx-optee-os/out/arm-plat-imx/export-ta_arm32/lib/libmpa.a(mpa_mem_static.o)
 .group         0x0000000000000000        0x8 /home/yin/imx-optee/imx-optee-os/out/arm-plat-imx/export-ta_arm32/lib/libmpa.a(mpa_mem_static.o)
 .group         0x0000000000000000        0x8 /home/yin/imx-optee/imx-optee-os/out/arm-plat-imx/export-ta_arm32/lib/libmpa.a(mpa_mem_static.o)
 .group         0x0000000000000000        0x8 /home/yin/imx-optee/imx-optee-os/out/arm-plat-imx/export-ta_arm32/lib/libmpa.a(mpa_mem_static.o)
 .group         0x0000000000000000        0x8 /home/yin/imx-optee/imx-optee-os/out/arm-plat-imx/export-ta_arm32/lib/libmpa.a(mpa_mem_static.o)
 .debug_macro   0x0000000000000000      0x92e /home/yin/imx-optee/imx-optee-os/out/arm-plat-imx/export-ta_arm32/lib/libmpa.a(mpa_mem_static.o)
 .debug_macro   0x0000000000000000      0x36c /home/yin/imx-optee/imx-optee-os/out/arm-plat-imx/export-ta_arm32/lib/libmpa.a(mpa_mem_static.o)
 .debug_macro   0x0000000000000000       0x10 /home/yin/imx-optee/imx-optee-os/out/arm-plat-imx/export-ta_arm32/lib/libmpa.a(mpa_mem_static.o)
 .debug_macro   0x0000000000000000       0x7c /home/yin/imx-optee/imx-optee-os/out/arm-plat-imx/export-ta_arm32/lib/libmpa.a(mpa_mem_static.o)
 .debug_macro   0x0000000000000000      0x184 /home/yin/imx-optee/imx-optee-os/out/arm-plat-imx/export-ta_arm32/lib/libmpa.a(mpa_mem_static.o)
 .debug_macro   0x0000000000000000       0x22 /home/yin/imx-optee/imx-optee-os/out/arm-plat-imx/export-ta_arm32/lib/libmpa.a(mpa_mem_static.o)
 .debug_macro   0x0000000000000000       0x4c /home/yin/imx-optee/imx-optee-os/out/arm-plat-imx/export-ta_arm32/lib/libmpa.a(mpa_mem_static.o)
 .debug_macro   0x0000000000000000       0xcd /home/yin/imx-optee/imx-optee-os/out/arm-plat-imx/export-ta_arm32/lib/libmpa.a(mpa_mem_static.o)
 .debug_macro   0x0000000000000000      0x16d /home/yin/imx-optee/imx-optee-os/out/arm-plat-imx/export-ta_arm32/lib/libmpa.a(mpa_mem_static.o)
 .debug_macro   0x0000000000000000       0xc4 /home/yin/imx-optee/imx-optee-os/out/arm-plat-imx/export-ta_arm32/lib/libmpa.a(mpa_mem_static.o)
 .debug_macro   0x0000000000000000       0x22 /home/yin/imx-optee/imx-optee-os/out/arm-plat-imx/export-ta_arm32/lib/libmpa.a(mpa_mem_static.o)
 .debug_macro   0x0000000000000000       0x16 /home/yin/imx-optee/imx-optee-os/out/arm-plat-imx/export-ta_arm32/lib/libmpa.a(mpa_mem_static.o)
 .debug_macro   0x0000000000000000       0x16 /home/yin/imx-optee/imx-optee-os/out/arm-plat-imx/export-ta_arm32/lib/libmpa.a(mpa_mem_static.o)
 .debug_macro   0x0000000000000000       0x6b /home/yin/imx-optee/imx-optee-os/out/arm-plat-imx/export-ta_arm32/lib/libmpa.a(mpa_mem_static.o)
 .debug_macro   0x0000000000000000       0xa6 /home/yin/imx-optee/imx-optee-os/out/arm-plat-imx/export-ta_arm32/lib/libmpa.a(mpa_mem_static.o)
 .debug_macro   0x0000000000000000       0xc4 /home/yin/imx-optee/imx-optee-os/out/arm-plat-imx/export-ta_arm32/lib/libmpa.a(mpa_mem_static.o)
 .debug_macro   0x0000000000000000       0x34 /home/yin/imx-optee/imx-optee-os/out/arm-plat-imx/export-ta_arm32/lib/libmpa.a(mpa_mem_static.o)
 .debug_macro   0x0000000000000000       0x94 /home/yin/imx-optee/imx-optee-os/out/arm-plat-imx/export-ta_arm32/lib/libmpa.a(mpa_mem_static.o)
 .group         0x0000000000000000        0x8 /home/yin/imx-optee/imx-optee-os/out/arm-plat-imx/export-ta_arm32/lib/libmpa.a(mpa_mul.o)
 .group         0x0000000000000000        0x8 /home/yin/imx-optee/imx-optee-os/out/arm-plat-imx/export-ta_arm32/lib/libmpa.a(mpa_mul.o)
 .group         0x0000000000000000        0x8 /home/yin/imx-optee/imx-optee-os/out/arm-plat-imx/export-ta_arm32/lib/libmpa.a(mpa_mul.o)
 .group         0x0000000000000000        0x8 /home/yin/imx-optee/imx-optee-os/out/arm-plat-imx/export-ta_arm32/lib/libmpa.a(mpa_mul.o)
 .group         0x0000000000000000        0x8 /home/yin/imx-optee/imx-optee-os/out/arm-plat-imx/export-ta_arm32/lib/libmpa.a(mpa_mul.o)
 .group         0x0000000000000000        0x8 /home/yin/imx-optee/imx-optee-os/out/arm-plat-imx/export-ta_arm32/lib/libmpa.a(mpa_mul.o)
 .group         0x0000000000000000        0x8 /home/yin/imx-optee/imx-optee-os/out/arm-plat-imx/export-ta_arm32/lib/libmpa.a(mpa_mul.o)
 .group         0x0000000000000000        0x8 /home/yin/imx-optee/imx-optee-os/out/arm-plat-imx/export-ta_arm32/lib/libmpa.a(mpa_mul.o)
 .group         0x0000000000000000        0x8 /home/yin/imx-optee/imx-optee-os/out/arm-plat-imx/export-ta_arm32/lib/libmpa.a(mpa_mul.o)
 .group         0x0000000000000000        0x8 /home/yin/imx-optee/imx-optee-os/out/arm-plat-imx/export-ta_arm32/lib/libmpa.a(mpa_mul.o)
 .group         0x0000000000000000        0x8 /home/yin/imx-optee/imx-optee-os/out/arm-plat-imx/export-ta_arm32/lib/libmpa.a(mpa_mul.o)
 .group         0x0000000000000000        0x8 /home/yin/imx-optee/imx-optee-os/out/arm-plat-imx/export-ta_arm32/lib/libmpa.a(mpa_mul.o)
 .group         0x0000000000000000        0x8 /home/yin/imx-optee/imx-optee-os/out/arm-plat-imx/export-ta_arm32/lib/libmpa.a(mpa_mul.o)
 .group         0x0000000000000000        0x8 /home/yin/imx-optee/imx-optee-os/out/arm-plat-imx/export-ta_arm32/lib/libmpa.a(mpa_mul.o)
 .group         0x0000000000000000        0x8 /home/yin/imx-optee/imx-optee-os/out/arm-plat-imx/export-ta_arm32/lib/libmpa.a(mpa_mul.o)
 .debug_macro   0x0000000000000000      0x92e /home/yin/imx-optee/imx-optee-os/out/arm-plat-imx/export-ta_arm32/lib/libmpa.a(mpa_mul.o)
 .debug_macro   0x0000000000000000      0x36c /home/yin/imx-optee/imx-optee-os/out/arm-plat-imx/export-ta_arm32/lib/libmpa.a(mpa_mul.o)
 .debug_macro   0x0000000000000000       0x10 /home/yin/imx-optee/imx-optee-os/out/arm-plat-imx/export-ta_arm32/lib/libmpa.a(mpa_mul.o)
 .debug_macro   0x0000000000000000       0x7c /home/yin/imx-optee/imx-optee-os/out/arm-plat-imx/export-ta_arm32/lib/libmpa.a(mpa_mul.o)
 .debug_macro   0x0000000000000000      0x184 /home/yin/imx-optee/imx-optee-os/out/arm-plat-imx/export-ta_arm32/lib/libmpa.a(mpa_mul.o)
 .debug_macro   0x0000000000000000       0x22 /home/yin/imx-optee/imx-optee-os/out/arm-plat-imx/export-ta_arm32/lib/libmpa.a(mpa_mul.o)
 .debug_macro   0x0000000000000000       0x4c /home/yin/imx-optee/imx-optee-os/out/arm-plat-imx/export-ta_arm32/lib/libmpa.a(mpa_mul.o)
 .debug_macro   0x0000000000000000       0xcd /home/yin/imx-optee/imx-optee-os/out/arm-plat-imx/export-ta_arm32/lib/libmpa.a(mpa_mul.o)
 .debug_macro   0x0000000000000000      0x16d /home/yin/imx-optee/imx-optee-os/out/arm-plat-imx/export-ta_arm32/lib/libmpa.a(mpa_mul.o)
 .debug_macro   0x0000000000000000       0xc4 /home/yin/imx-optee/imx-optee-os/out/arm-plat-imx/export-ta_arm32/lib/libmpa.a(mpa_mul.o)
 .debug_macro   0x0000000000000000       0x22 /home/yin/imx-optee/imx-optee-os/out/arm-plat-imx/export-ta_arm32/lib/libmpa.a(mpa_mul.o)
 .debug_macro   0x0000000000000000       0x16 /home/yin/imx-optee/imx-optee-os/out/arm-plat-imx/export-ta_arm32/lib/libmpa.a(mpa_mul.o)
 .debug_macro   0x0000000000000000       0x16 /home/yin/imx-optee/imx-optee-os/out/arm-plat-imx/export-ta_arm32/lib/libmpa.a(mpa_mul.o)
 .debug_macro   0x0000000000000000       0x6b /home/yin/imx-optee/imx-optee-os/out/arm-plat-imx/export-ta_arm32/lib/libmpa.a(mpa_mul.o)
 .debug_macro   0x0000000000000000       0xa6 /home/yin/imx-optee/imx-optee-os/out/arm-plat-imx/export-ta_arm32/lib/libmpa.a(mpa_mul.o)
 .group         0x0000000000000000        0x8 /home/yin/imx-optee/imx-optee-os/out/arm-plat-imx/export-ta_arm32/lib/libmpa.a(mpa_random.o)
 .group         0x0000000000000000        0x8 /home/yin/imx-optee/imx-optee-os/out/arm-plat-imx/export-ta_arm32/lib/libmpa.a(mpa_random.o)
 .group         0x0000000000000000        0x8 /home/yin/imx-optee/imx-optee-os/out/arm-plat-imx/export-ta_arm32/lib/libmpa.a(mpa_random.o)
 .group         0x0000000000000000        0x8 /home/yin/imx-optee/imx-optee-os/out/arm-plat-imx/export-ta_arm32/lib/libmpa.a(mpa_random.o)
 .group         0x0000000000000000        0x8 /home/yin/imx-optee/imx-optee-os/out/arm-plat-imx/export-ta_arm32/lib/libmpa.a(mpa_random.o)
 .group         0x0000000000000000        0x8 /home/yin/imx-optee/imx-optee-os/out/arm-plat-imx/export-ta_arm32/lib/libmpa.a(mpa_random.o)
 .group         0x0000000000000000        0x8 /home/yin/imx-optee/imx-optee-os/out/arm-plat-imx/export-ta_arm32/lib/libmpa.a(mpa_random.o)
 .group         0x0000000000000000        0x8 /home/yin/imx-optee/imx-optee-os/out/arm-plat-imx/export-ta_arm32/lib/libmpa.a(mpa_random.o)
 .group         0x0000000000000000        0x8 /home/yin/imx-optee/imx-optee-os/out/arm-plat-imx/export-ta_arm32/lib/libmpa.a(mpa_random.o)
 .group         0x0000000000000000        0x8 /home/yin/imx-optee/imx-optee-os/out/arm-plat-imx/export-ta_arm32/lib/libmpa.a(mpa_random.o)
 .group         0x0000000000000000        0x8 /home/yin/imx-optee/imx-optee-os/out/arm-plat-imx/export-ta_arm32/lib/libmpa.a(mpa_random.o)
 .group         0x0000000000000000        0x8 /home/yin/imx-optee/imx-optee-os/out/arm-plat-imx/export-ta_arm32/lib/libmpa.a(mpa_random.o)
 .group         0x0000000000000000        0x8 /home/yin/imx-optee/imx-optee-os/out/arm-plat-imx/export-ta_arm32/lib/libmpa.a(mpa_random.o)
 .group         0x0000000000000000        0x8 /home/yin/imx-optee/imx-optee-os/out/arm-plat-imx/export-ta_arm32/lib/libmpa.a(mpa_random.o)
 .group         0x0000000000000000        0x8 /home/yin/imx-optee/imx-optee-os/out/arm-plat-imx/export-ta_arm32/lib/libmpa.a(mpa_random.o)
 .group         0x0000000000000000        0x8 /home/yin/imx-optee/imx-optee-os/out/arm-plat-imx/export-ta_arm32/lib/libmpa.a(mpa_random.o)
 .group         0x0000000000000000        0x8 /home/yin/imx-optee/imx-optee-os/out/arm-plat-imx/export-ta_arm32/lib/libmpa.a(mpa_random.o)
 .group         0x0000000000000000        0x8 /home/yin/imx-optee/imx-optee-os/out/arm-plat-imx/export-ta_arm32/lib/libmpa.a(mpa_random.o)
 .group         0x0000000000000000        0x8 /home/yin/imx-optee/imx-optee-os/out/arm-plat-imx/export-ta_arm32/lib/libmpa.a(mpa_random.o)
 .debug_macro   0x0000000000000000      0x92e /home/yin/imx-optee/imx-optee-os/out/arm-plat-imx/export-ta_arm32/lib/libmpa.a(mpa_random.o)
 .debug_macro   0x0000000000000000      0x36c /home/yin/imx-optee/imx-optee-os/out/arm-plat-imx/export-ta_arm32/lib/libmpa.a(mpa_random.o)
 .debug_macro   0x0000000000000000       0x10 /home/yin/imx-optee/imx-optee-os/out/arm-plat-imx/export-ta_arm32/lib/libmpa.a(mpa_random.o)
 .debug_macro   0x0000000000000000       0x7c /home/yin/imx-optee/imx-optee-os/out/arm-plat-imx/export-ta_arm32/lib/libmpa.a(mpa_random.o)
 .debug_macro   0x0000000000000000      0x184 /home/yin/imx-optee/imx-optee-os/out/arm-plat-imx/export-ta_arm32/lib/libmpa.a(mpa_random.o)
 .debug_macro   0x0000000000000000       0x22 /home/yin/imx-optee/imx-optee-os/out/arm-plat-imx/export-ta_arm32/lib/libmpa.a(mpa_random.o)
 .debug_macro   0x0000000000000000       0x4c /home/yin/imx-optee/imx-optee-os/out/arm-plat-imx/export-ta_arm32/lib/libmpa.a(mpa_random.o)
 .debug_macro   0x0000000000000000       0xcd /home/yin/imx-optee/imx-optee-os/out/arm-plat-imx/export-ta_arm32/lib/libmpa.a(mpa_random.o)
 .debug_macro   0x0000000000000000      0x16d /home/yin/imx-optee/imx-optee-os/out/arm-plat-imx/export-ta_arm32/lib/libmpa.a(mpa_random.o)
 .debug_macro   0x0000000000000000       0xc4 /home/yin/imx-optee/imx-optee-os/out/arm-plat-imx/export-ta_arm32/lib/libmpa.a(mpa_random.o)
 .debug_macro   0x0000000000000000       0x22 /home/yin/imx-optee/imx-optee-os/out/arm-plat-imx/export-ta_arm32/lib/libmpa.a(mpa_random.o)
 .debug_macro   0x0000000000000000       0x16 /home/yin/imx-optee/imx-optee-os/out/arm-plat-imx/export-ta_arm32/lib/libmpa.a(mpa_random.o)
 .debug_macro   0x0000000000000000       0x16 /home/yin/imx-optee/imx-optee-os/out/arm-plat-imx/export-ta_arm32/lib/libmpa.a(mpa_random.o)
 .debug_macro   0x0000000000000000       0x6b /home/yin/imx-optee/imx-optee-os/out/arm-plat-imx/export-ta_arm32/lib/libmpa.a(mpa_random.o)
 .debug_macro   0x0000000000000000       0xa6 /home/yin/imx-optee/imx-optee-os/out/arm-plat-imx/export-ta_arm32/lib/libmpa.a(mpa_random.o)
 .debug_macro   0x0000000000000000      0x8e8 /home/yin/imx-optee/imx-optee-os/out/arm-plat-imx/export-ta_arm32/lib/libmpa.a(mpa_random.o)
 .debug_macro   0x0000000000000000       0x35 /home/yin/imx-optee/imx-optee-os/out/arm-plat-imx/export-ta_arm32/lib/libmpa.a(mpa_random.o)
 .debug_macro   0x0000000000000000       0x34 /home/yin/imx-optee/imx-optee-os/out/arm-plat-imx/export-ta_arm32/lib/libmpa.a(mpa_random.o)
 .debug_macro   0x0000000000000000       0x94 /home/yin/imx-optee/imx-optee-os/out/arm-plat-imx/export-ta_arm32/lib/libmpa.a(mpa_random.o)
 .group         0x0000000000000000        0x8 /home/yin/imx-optee/imx-optee-os/out/arm-plat-imx/export-ta_arm32/lib/libmpa.a(mpa_shift.o)
 .group         0x0000000000000000        0x8 /home/yin/imx-optee/imx-optee-os/out/arm-plat-imx/export-ta_arm32/lib/libmpa.a(mpa_shift.o)
 .group         0x0000000000000000        0x8 /home/yin/imx-optee/imx-optee-os/out/arm-plat-imx/export-ta_arm32/lib/libmpa.a(mpa_shift.o)
 .group         0x0000000000000000        0x8 /home/yin/imx-optee/imx-optee-os/out/arm-plat-imx/export-ta_arm32/lib/libmpa.a(mpa_shift.o)
 .group         0x0000000000000000        0x8 /home/yin/imx-optee/imx-optee-os/out/arm-plat-imx/export-ta_arm32/lib/libmpa.a(mpa_shift.o)
 .group         0x0000000000000000        0x8 /home/yin/imx-optee/imx-optee-os/out/arm-plat-imx/export-ta_arm32/lib/libmpa.a(mpa_shift.o)
 .group         0x0000000000000000        0x8 /home/yin/imx-optee/imx-optee-os/out/arm-plat-imx/export-ta_arm32/lib/libmpa.a(mpa_shift.o)
 .group         0x0000000000000000        0x8 /home/yin/imx-optee/imx-optee-os/out/arm-plat-imx/export-ta_arm32/lib/libmpa.a(mpa_shift.o)
 .group         0x0000000000000000        0x8 /home/yin/imx-optee/imx-optee-os/out/arm-plat-imx/export-ta_arm32/lib/libmpa.a(mpa_shift.o)
 .group         0x0000000000000000        0x8 /home/yin/imx-optee/imx-optee-os/out/arm-plat-imx/export-ta_arm32/lib/libmpa.a(mpa_shift.o)
 .group         0x0000000000000000        0x8 /home/yin/imx-optee/imx-optee-os/out/arm-plat-imx/export-ta_arm32/lib/libmpa.a(mpa_shift.o)
 .group         0x0000000000000000        0x8 /home/yin/imx-optee/imx-optee-os/out/arm-plat-imx/export-ta_arm32/lib/libmpa.a(mpa_shift.o)
 .group         0x0000000000000000        0x8 /home/yin/imx-optee/imx-optee-os/out/arm-plat-imx/export-ta_arm32/lib/libmpa.a(mpa_shift.o)
 .group         0x0000000000000000        0x8 /home/yin/imx-optee/imx-optee-os/out/arm-plat-imx/export-ta_arm32/lib/libmpa.a(mpa_shift.o)
 .group         0x0000000000000000        0x8 /home/yin/imx-optee/imx-optee-os/out/arm-plat-imx/export-ta_arm32/lib/libmpa.a(mpa_shift.o)
 .debug_macro   0x0000000000000000      0x92e /home/yin/imx-optee/imx-optee-os/out/arm-plat-imx/export-ta_arm32/lib/libmpa.a(mpa_shift.o)
 .debug_macro   0x0000000000000000      0x36c /home/yin/imx-optee/imx-optee-os/out/arm-plat-imx/export-ta_arm32/lib/libmpa.a(mpa_shift.o)
 .debug_macro   0x0000000000000000       0x10 /home/yin/imx-optee/imx-optee-os/out/arm-plat-imx/export-ta_arm32/lib/libmpa.a(mpa_shift.o)
 .debug_macro   0x0000000000000000       0x7c /home/yin/imx-optee/imx-optee-os/out/arm-plat-imx/export-ta_arm32/lib/libmpa.a(mpa_shift.o)
 .debug_macro   0x0000000000000000      0x184 /home/yin/imx-optee/imx-optee-os/out/arm-plat-imx/export-ta_arm32/lib/libmpa.a(mpa_shift.o)
 .debug_macro   0x0000000000000000       0x22 /home/yin/imx-optee/imx-optee-os/out/arm-plat-imx/export-ta_arm32/lib/libmpa.a(mpa_shift.o)
 .debug_macro   0x0000000000000000       0x4c /home/yin/imx-optee/imx-optee-os/out/arm-plat-imx/export-ta_arm32/lib/libmpa.a(mpa_shift.o)
 .debug_macro   0x0000000000000000       0xcd /home/yin/imx-optee/imx-optee-os/out/arm-plat-imx/export-ta_arm32/lib/libmpa.a(mpa_shift.o)
 .debug_macro   0x0000000000000000      0x16d /home/yin/imx-optee/imx-optee-os/out/arm-plat-imx/export-ta_arm32/lib/libmpa.a(mpa_shift.o)
 .debug_macro   0x0000000000000000       0xc4 /home/yin/imx-optee/imx-optee-os/out/arm-plat-imx/export-ta_arm32/lib/libmpa.a(mpa_shift.o)
 .debug_macro   0x0000000000000000       0x22 /home/yin/imx-optee/imx-optee-os/out/arm-plat-imx/export-ta_arm32/lib/libmpa.a(mpa_shift.o)
 .debug_macro   0x0000000000000000       0x16 /home/yin/imx-optee/imx-optee-os/out/arm-plat-imx/export-ta_arm32/lib/libmpa.a(mpa_shift.o)
 .debug_macro   0x0000000000000000       0x16 /home/yin/imx-optee/imx-optee-os/out/arm-plat-imx/export-ta_arm32/lib/libmpa.a(mpa_shift.o)
 .debug_macro   0x0000000000000000       0x6b /home/yin/imx-optee/imx-optee-os/out/arm-plat-imx/export-ta_arm32/lib/libmpa.a(mpa_shift.o)
 .debug_macro   0x0000000000000000       0xa6 /home/yin/imx-optee/imx-optee-os/out/arm-plat-imx/export-ta_arm32/lib/libmpa.a(mpa_shift.o)
 .group         0x0000000000000000        0x8 /home/yin/imx-optee/imx-optee-os/out/arm-plat-imx/export-ta_arm32/lib/libmpa.a(mpa_addsub.o)
 .group         0x0000000000000000        0x8 /home/yin/imx-optee/imx-optee-os/out/arm-plat-imx/export-ta_arm32/lib/libmpa.a(mpa_addsub.o)
 .group         0x0000000000000000        0x8 /home/yin/imx-optee/imx-optee-os/out/arm-plat-imx/export-ta_arm32/lib/libmpa.a(mpa_addsub.o)
 .group         0x0000000000000000        0x8 /home/yin/imx-optee/imx-optee-os/out/arm-plat-imx/export-ta_arm32/lib/libmpa.a(mpa_addsub.o)
 .group         0x0000000000000000        0x8 /home/yin/imx-optee/imx-optee-os/out/arm-plat-imx/export-ta_arm32/lib/libmpa.a(mpa_addsub.o)
 .group         0x0000000000000000        0x8 /home/yin/imx-optee/imx-optee-os/out/arm-plat-imx/export-ta_arm32/lib/libmpa.a(mpa_addsub.o)
 .group         0x0000000000000000        0x8 /home/yin/imx-optee/imx-optee-os/out/arm-plat-imx/export-ta_arm32/lib/libmpa.a(mpa_addsub.o)
 .group         0x0000000000000000        0x8 /home/yin/imx-optee/imx-optee-os/out/arm-plat-imx/export-ta_arm32/lib/libmpa.a(mpa_addsub.o)
 .group         0x0000000000000000        0x8 /home/yin/imx-optee/imx-optee-os/out/arm-plat-imx/export-ta_arm32/lib/libmpa.a(mpa_addsub.o)
 .group         0x0000000000000000        0x8 /home/yin/imx-optee/imx-optee-os/out/arm-plat-imx/export-ta_arm32/lib/libmpa.a(mpa_addsub.o)
 .group         0x0000000000000000        0x8 /home/yin/imx-optee/imx-optee-os/out/arm-plat-imx/export-ta_arm32/lib/libmpa.a(mpa_addsub.o)
 .group         0x0000000000000000        0x8 /home/yin/imx-optee/imx-optee-os/out/arm-plat-imx/export-ta_arm32/lib/libmpa.a(mpa_addsub.o)
 .group         0x0000000000000000        0x8 /home/yin/imx-optee/imx-optee-os/out/arm-plat-imx/export-ta_arm32/lib/libmpa.a(mpa_addsub.o)
 .group         0x0000000000000000        0x8 /home/yin/imx-optee/imx-optee-os/out/arm-plat-imx/export-ta_arm32/lib/libmpa.a(mpa_addsub.o)
 .group         0x0000000000000000        0x8 /home/yin/imx-optee/imx-optee-os/out/arm-plat-imx/export-ta_arm32/lib/libmpa.a(mpa_addsub.o)
 .debug_macro   0x0000000000000000      0x92e /home/yin/imx-optee/imx-optee-os/out/arm-plat-imx/export-ta_arm32/lib/libmpa.a(mpa_addsub.o)
 .debug_macro   0x0000000000000000      0x36c /home/yin/imx-optee/imx-optee-os/out/arm-plat-imx/export-ta_arm32/lib/libmpa.a(mpa_addsub.o)
 .debug_macro   0x0000000000000000       0x10 /home/yin/imx-optee/imx-optee-os/out/arm-plat-imx/export-ta_arm32/lib/libmpa.a(mpa_addsub.o)
 .debug_macro   0x0000000000000000       0x7c /home/yin/imx-optee/imx-optee-os/out/arm-plat-imx/export-ta_arm32/lib/libmpa.a(mpa_addsub.o)
 .debug_macro   0x0000000000000000      0x184 /home/yin/imx-optee/imx-optee-os/out/arm-plat-imx/export-ta_arm32/lib/libmpa.a(mpa_addsub.o)
 .debug_macro   0x0000000000000000       0x22 /home/yin/imx-optee/imx-optee-os/out/arm-plat-imx/export-ta_arm32/lib/libmpa.a(mpa_addsub.o)
 .debug_macro   0x0000000000000000       0x4c /home/yin/imx-optee/imx-optee-os/out/arm-plat-imx/export-ta_arm32/lib/libmpa.a(mpa_addsub.o)
 .debug_macro   0x0000000000000000       0xcd /home/yin/imx-optee/imx-optee-os/out/arm-plat-imx/export-ta_arm32/lib/libmpa.a(mpa_addsub.o)
 .debug_macro   0x0000000000000000      0x16d /home/yin/imx-optee/imx-optee-os/out/arm-plat-imx/export-ta_arm32/lib/libmpa.a(mpa_addsub.o)
 .debug_macro   0x0000000000000000       0xc4 /home/yin/imx-optee/imx-optee-os/out/arm-plat-imx/export-ta_arm32/lib/libmpa.a(mpa_addsub.o)
 .debug_macro   0x0000000000000000       0x22 /home/yin/imx-optee/imx-optee-os/out/arm-plat-imx/export-ta_arm32/lib/libmpa.a(mpa_addsub.o)
 .debug_macro   0x0000000000000000       0x16 /home/yin/imx-optee/imx-optee-os/out/arm-plat-imx/export-ta_arm32/lib/libmpa.a(mpa_addsub.o)
 .debug_macro   0x0000000000000000       0x16 /home/yin/imx-optee/imx-optee-os/out/arm-plat-imx/export-ta_arm32/lib/libmpa.a(mpa_addsub.o)
 .debug_macro   0x0000000000000000       0x6b /home/yin/imx-optee/imx-optee-os/out/arm-plat-imx/export-ta_arm32/lib/libmpa.a(mpa_addsub.o)
 .debug_macro   0x0000000000000000       0xa6 /home/yin/imx-optee/imx-optee-os/out/arm-plat-imx/export-ta_arm32/lib/libmpa.a(mpa_addsub.o)
 .group         0x0000000000000000        0x8 /home/yin/imx-optee/imx-optee-os/out/arm-plat-imx/export-ta_arm32/lib/libmpa.a(mpa_cmp.o)
 .group         0x0000000000000000        0x8 /home/yin/imx-optee/imx-optee-os/out/arm-plat-imx/export-ta_arm32/lib/libmpa.a(mpa_cmp.o)
 .group         0x0000000000000000        0x8 /home/yin/imx-optee/imx-optee-os/out/arm-plat-imx/export-ta_arm32/lib/libmpa.a(mpa_cmp.o)
 .group         0x0000000000000000        0x8 /home/yin/imx-optee/imx-optee-os/out/arm-plat-imx/export-ta_arm32/lib/libmpa.a(mpa_cmp.o)
 .group         0x0000000000000000        0x8 /home/yin/imx-optee/imx-optee-os/out/arm-plat-imx/export-ta_arm32/lib/libmpa.a(mpa_cmp.o)
 .group         0x0000000000000000        0x8 /home/yin/imx-optee/imx-optee-os/out/arm-plat-imx/export-ta_arm32/lib/libmpa.a(mpa_cmp.o)
 .group         0x0000000000000000        0x8 /home/yin/imx-optee/imx-optee-os/out/arm-plat-imx/export-ta_arm32/lib/libmpa.a(mpa_cmp.o)
 .group         0x0000000000000000        0x8 /home/yin/imx-optee/imx-optee-os/out/arm-plat-imx/export-ta_arm32/lib/libmpa.a(mpa_cmp.o)
 .group         0x0000000000000000        0x8 /home/yin/imx-optee/imx-optee-os/out/arm-plat-imx/export-ta_arm32/lib/libmpa.a(mpa_cmp.o)
 .group         0x0000000000000000        0x8 /home/yin/imx-optee/imx-optee-os/out/arm-plat-imx/export-ta_arm32/lib/libmpa.a(mpa_cmp.o)
 .group         0x0000000000000000        0x8 /home/yin/imx-optee/imx-optee-os/out/arm-plat-imx/export-ta_arm32/lib/libmpa.a(mpa_cmp.o)
 .group         0x0000000000000000        0x8 /home/yin/imx-optee/imx-optee-os/out/arm-plat-imx/export-ta_arm32/lib/libmpa.a(mpa_cmp.o)
 .group         0x0000000000000000        0x8 /home/yin/imx-optee/imx-optee-os/out/arm-plat-imx/export-ta_arm32/lib/libmpa.a(mpa_cmp.o)
 .group         0x0000000000000000        0x8 /home/yin/imx-optee/imx-optee-os/out/arm-plat-imx/export-ta_arm32/lib/libmpa.a(mpa_cmp.o)
 .group         0x0000000000000000        0x8 /home/yin/imx-optee/imx-optee-os/out/arm-plat-imx/export-ta_arm32/lib/libmpa.a(mpa_cmp.o)
 .debug_macro   0x0000000000000000      0x92e /home/yin/imx-optee/imx-optee-os/out/arm-plat-imx/export-ta_arm32/lib/libmpa.a(mpa_cmp.o)
 .debug_macro   0x0000000000000000      0x36c /home/yin/imx-optee/imx-optee-os/out/arm-plat-imx/export-ta_arm32/lib/libmpa.a(mpa_cmp.o)
 .debug_macro   0x0000000000000000       0x10 /home/yin/imx-optee/imx-optee-os/out/arm-plat-imx/export-ta_arm32/lib/libmpa.a(mpa_cmp.o)
 .debug_macro   0x0000000000000000       0x7c /home/yin/imx-optee/imx-optee-os/out/arm-plat-imx/export-ta_arm32/lib/libmpa.a(mpa_cmp.o)
 .debug_macro   0x0000000000000000      0x184 /home/yin/imx-optee/imx-optee-os/out/arm-plat-imx/export-ta_arm32/lib/libmpa.a(mpa_cmp.o)
 .debug_macro   0x0000000000000000       0x22 /home/yin/imx-optee/imx-optee-os/out/arm-plat-imx/export-ta_arm32/lib/libmpa.a(mpa_cmp.o)
 .debug_macro   0x0000000000000000       0x4c /home/yin/imx-optee/imx-optee-os/out/arm-plat-imx/export-ta_arm32/lib/libmpa.a(mpa_cmp.o)
 .debug_macro   0x0000000000000000       0xcd /home/yin/imx-optee/imx-optee-os/out/arm-plat-imx/export-ta_arm32/lib/libmpa.a(mpa_cmp.o)
 .debug_macro   0x0000000000000000      0x16d /home/yin/imx-optee/imx-optee-os/out/arm-plat-imx/export-ta_arm32/lib/libmpa.a(mpa_cmp.o)
 .debug_macro   0x0000000000000000       0xc4 /home/yin/imx-optee/imx-optee-os/out/arm-plat-imx/export-ta_arm32/lib/libmpa.a(mpa_cmp.o)
 .debug_macro   0x0000000000000000       0x22 /home/yin/imx-optee/imx-optee-os/out/arm-plat-imx/export-ta_arm32/lib/libmpa.a(mpa_cmp.o)
 .debug_macro   0x0000000000000000       0x16 /home/yin/imx-optee/imx-optee-os/out/arm-plat-imx/export-ta_arm32/lib/libmpa.a(mpa_cmp.o)
 .debug_macro   0x0000000000000000       0x16 /home/yin/imx-optee/imx-optee-os/out/arm-plat-imx/export-ta_arm32/lib/libmpa.a(mpa_cmp.o)
 .debug_macro   0x0000000000000000       0x6b /home/yin/imx-optee/imx-optee-os/out/arm-plat-imx/export-ta_arm32/lib/libmpa.a(mpa_cmp.o)
 .debug_macro   0x0000000000000000       0xa6 /home/yin/imx-optee/imx-optee-os/out/arm-plat-imx/export-ta_arm32/lib/libmpa.a(mpa_cmp.o)
 .group         0x0000000000000000        0x8 /home/yin/imx-optee/imx-optee-os/out/arm-plat-imx/export-ta_arm32/lib/libmpa.a(mpa_expmod.o)
 .group         0x0000000000000000        0x8 /home/yin/imx-optee/imx-optee-os/out/arm-plat-imx/export-ta_arm32/lib/libmpa.a(mpa_expmod.o)
 .group         0x0000000000000000        0x8 /home/yin/imx-optee/imx-optee-os/out/arm-plat-imx/export-ta_arm32/lib/libmpa.a(mpa_expmod.o)
 .group         0x0000000000000000        0x8 /home/yin/imx-optee/imx-optee-os/out/arm-plat-imx/export-ta_arm32/lib/libmpa.a(mpa_expmod.o)
 .group         0x0000000000000000        0x8 /home/yin/imx-optee/imx-optee-os/out/arm-plat-imx/export-ta_arm32/lib/libmpa.a(mpa_expmod.o)
 .group         0x0000000000000000        0x8 /home/yin/imx-optee/imx-optee-os/out/arm-plat-imx/export-ta_arm32/lib/libmpa.a(mpa_expmod.o)
 .group         0x0000000000000000        0x8 /home/yin/imx-optee/imx-optee-os/out/arm-plat-imx/export-ta_arm32/lib/libmpa.a(mpa_expmod.o)
 .group         0x0000000000000000        0x8 /home/yin/imx-optee/imx-optee-os/out/arm-plat-imx/export-ta_arm32/lib/libmpa.a(mpa_expmod.o)
 .group         0x0000000000000000        0x8 /home/yin/imx-optee/imx-optee-os/out/arm-plat-imx/export-ta_arm32/lib/libmpa.a(mpa_expmod.o)
 .group         0x0000000000000000        0x8 /home/yin/imx-optee/imx-optee-os/out/arm-plat-imx/export-ta_arm32/lib/libmpa.a(mpa_expmod.o)
 .group         0x0000000000000000        0x8 /home/yin/imx-optee/imx-optee-os/out/arm-plat-imx/export-ta_arm32/lib/libmpa.a(mpa_expmod.o)
 .group         0x0000000000000000        0x8 /home/yin/imx-optee/imx-optee-os/out/arm-plat-imx/export-ta_arm32/lib/libmpa.a(mpa_expmod.o)
 .group         0x0000000000000000        0x8 /home/yin/imx-optee/imx-optee-os/out/arm-plat-imx/export-ta_arm32/lib/libmpa.a(mpa_expmod.o)
 .group         0x0000000000000000        0x8 /home/yin/imx-optee/imx-optee-os/out/arm-plat-imx/export-ta_arm32/lib/libmpa.a(mpa_expmod.o)
 .group         0x0000000000000000        0x8 /home/yin/imx-optee/imx-optee-os/out/arm-plat-imx/export-ta_arm32/lib/libmpa.a(mpa_expmod.o)
 .debug_macro   0x0000000000000000      0x92e /home/yin/imx-optee/imx-optee-os/out/arm-plat-imx/export-ta_arm32/lib/libmpa.a(mpa_expmod.o)
 .debug_macro   0x0000000000000000      0x36c /home/yin/imx-optee/imx-optee-os/out/arm-plat-imx/export-ta_arm32/lib/libmpa.a(mpa_expmod.o)
 .debug_macro   0x0000000000000000       0x10 /home/yin/imx-optee/imx-optee-os/out/arm-plat-imx/export-ta_arm32/lib/libmpa.a(mpa_expmod.o)
 .debug_macro   0x0000000000000000       0x7c /home/yin/imx-optee/imx-optee-os/out/arm-plat-imx/export-ta_arm32/lib/libmpa.a(mpa_expmod.o)
 .debug_macro   0x0000000000000000      0x184 /home/yin/imx-optee/imx-optee-os/out/arm-plat-imx/export-ta_arm32/lib/libmpa.a(mpa_expmod.o)
 .debug_macro   0x0000000000000000       0x22 /home/yin/imx-optee/imx-optee-os/out/arm-plat-imx/export-ta_arm32/lib/libmpa.a(mpa_expmod.o)
 .debug_macro   0x0000000000000000       0x4c /home/yin/imx-optee/imx-optee-os/out/arm-plat-imx/export-ta_arm32/lib/libmpa.a(mpa_expmod.o)
 .debug_macro   0x0000000000000000       0xcd /home/yin/imx-optee/imx-optee-os/out/arm-plat-imx/export-ta_arm32/lib/libmpa.a(mpa_expmod.o)
 .debug_macro   0x0000000000000000      0x16d /home/yin/imx-optee/imx-optee-os/out/arm-plat-imx/export-ta_arm32/lib/libmpa.a(mpa_expmod.o)
 .debug_macro   0x0000000000000000       0xc4 /home/yin/imx-optee/imx-optee-os/out/arm-plat-imx/export-ta_arm32/lib/libmpa.a(mpa_expmod.o)
 .debug_macro   0x0000000000000000       0x22 /home/yin/imx-optee/imx-optee-os/out/arm-plat-imx/export-ta_arm32/lib/libmpa.a(mpa_expmod.o)
 .debug_macro   0x0000000000000000       0x16 /home/yin/imx-optee/imx-optee-os/out/arm-plat-imx/export-ta_arm32/lib/libmpa.a(mpa_expmod.o)
 .debug_macro   0x0000000000000000       0x16 /home/yin/imx-optee/imx-optee-os/out/arm-plat-imx/export-ta_arm32/lib/libmpa.a(mpa_expmod.o)
 .debug_macro   0x0000000000000000       0x6b /home/yin/imx-optee/imx-optee-os/out/arm-plat-imx/export-ta_arm32/lib/libmpa.a(mpa_expmod.o)
 .debug_macro   0x0000000000000000       0xa6 /home/yin/imx-optee/imx-optee-os/out/arm-plat-imx/export-ta_arm32/lib/libmpa.a(mpa_expmod.o)
 .group         0x0000000000000000        0x8 /home/yin/imx-optee/imx-optee-os/out/arm-plat-imx/export-ta_arm32/lib/libmpa.a(mpa_init.o)
 .group         0x0000000000000000        0x8 /home/yin/imx-optee/imx-optee-os/out/arm-plat-imx/export-ta_arm32/lib/libmpa.a(mpa_init.o)
 .group         0x0000000000000000        0x8 /home/yin/imx-optee/imx-optee-os/out/arm-plat-imx/export-ta_arm32/lib/libmpa.a(mpa_init.o)
 .group         0x0000000000000000        0x8 /home/yin/imx-optee/imx-optee-os/out/arm-plat-imx/export-ta_arm32/lib/libmpa.a(mpa_init.o)
 .group         0x0000000000000000        0x8 /home/yin/imx-optee/imx-optee-os/out/arm-plat-imx/export-ta_arm32/lib/libmpa.a(mpa_init.o)
 .group         0x0000000000000000        0x8 /home/yin/imx-optee/imx-optee-os/out/arm-plat-imx/export-ta_arm32/lib/libmpa.a(mpa_init.o)
 .group         0x0000000000000000        0x8 /home/yin/imx-optee/imx-optee-os/out/arm-plat-imx/export-ta_arm32/lib/libmpa.a(mpa_init.o)
 .group         0x0000000000000000        0x8 /home/yin/imx-optee/imx-optee-os/out/arm-plat-imx/export-ta_arm32/lib/libmpa.a(mpa_init.o)
 .group         0x0000000000000000        0x8 /home/yin/imx-optee/imx-optee-os/out/arm-plat-imx/export-ta_arm32/lib/libmpa.a(mpa_init.o)
 .group         0x0000000000000000        0x8 /home/yin/imx-optee/imx-optee-os/out/arm-plat-imx/export-ta_arm32/lib/libmpa.a(mpa_init.o)
 .group         0x0000000000000000        0x8 /home/yin/imx-optee/imx-optee-os/out/arm-plat-imx/export-ta_arm32/lib/libmpa.a(mpa_init.o)
 .group         0x0000000000000000        0x8 /home/yin/imx-optee/imx-optee-os/out/arm-plat-imx/export-ta_arm32/lib/libmpa.a(mpa_init.o)
 .group         0x0000000000000000        0x8 /home/yin/imx-optee/imx-optee-os/out/arm-plat-imx/export-ta_arm32/lib/libmpa.a(mpa_init.o)
 .group         0x0000000000000000        0x8 /home/yin/imx-optee/imx-optee-os/out/arm-plat-imx/export-ta_arm32/lib/libmpa.a(mpa_init.o)
 .group         0x0000000000000000        0x8 /home/yin/imx-optee/imx-optee-os/out/arm-plat-imx/export-ta_arm32/lib/libmpa.a(mpa_init.o)
 .debug_macro   0x0000000000000000      0x92e /home/yin/imx-optee/imx-optee-os/out/arm-plat-imx/export-ta_arm32/lib/libmpa.a(mpa_init.o)
 .debug_macro   0x0000000000000000      0x36c /home/yin/imx-optee/imx-optee-os/out/arm-plat-imx/export-ta_arm32/lib/libmpa.a(mpa_init.o)
 .debug_macro   0x0000000000000000       0x10 /home/yin/imx-optee/imx-optee-os/out/arm-plat-imx/export-ta_arm32/lib/libmpa.a(mpa_init.o)
 .debug_macro   0x0000000000000000       0x7c /home/yin/imx-optee/imx-optee-os/out/arm-plat-imx/export-ta_arm32/lib/libmpa.a(mpa_init.o)
 .debug_macro   0x0000000000000000      0x184 /home/yin/imx-optee/imx-optee-os/out/arm-plat-imx/export-ta_arm32/lib/libmpa.a(mpa_init.o)
 .debug_macro   0x0000000000000000       0x22 /home/yin/imx-optee/imx-optee-os/out/arm-plat-imx/export-ta_arm32/lib/libmpa.a(mpa_init.o)
 .debug_macro   0x0000000000000000       0x4c /home/yin/imx-optee/imx-optee-os/out/arm-plat-imx/export-ta_arm32/lib/libmpa.a(mpa_init.o)
 .debug_macro   0x0000000000000000       0xcd /home/yin/imx-optee/imx-optee-os/out/arm-plat-imx/export-ta_arm32/lib/libmpa.a(mpa_init.o)
 .debug_macro   0x0000000000000000      0x16d /home/yin/imx-optee/imx-optee-os/out/arm-plat-imx/export-ta_arm32/lib/libmpa.a(mpa_init.o)
 .debug_macro   0x0000000000000000       0xc4 /home/yin/imx-optee/imx-optee-os/out/arm-plat-imx/export-ta_arm32/lib/libmpa.a(mpa_init.o)
 .debug_macro   0x0000000000000000       0x22 /home/yin/imx-optee/imx-optee-os/out/arm-plat-imx/export-ta_arm32/lib/libmpa.a(mpa_init.o)
 .debug_macro   0x0000000000000000       0x16 /home/yin/imx-optee/imx-optee-os/out/arm-plat-imx/export-ta_arm32/lib/libmpa.a(mpa_init.o)
 .debug_macro   0x0000000000000000       0x16 /home/yin/imx-optee/imx-optee-os/out/arm-plat-imx/export-ta_arm32/lib/libmpa.a(mpa_init.o)
 .debug_macro   0x0000000000000000       0x6b /home/yin/imx-optee/imx-optee-os/out/arm-plat-imx/export-ta_arm32/lib/libmpa.a(mpa_init.o)
 .debug_macro   0x0000000000000000       0xa6 /home/yin/imx-optee/imx-optee-os/out/arm-plat-imx/export-ta_arm32/lib/libmpa.a(mpa_init.o)
 .group         0x0000000000000000        0x8 /home/yin/imx-optee/imx-optee-os/out/arm-plat-imx/export-ta_arm32/lib/libmpa.a(mpa_io.o)
 .group         0x0000000000000000        0x8 /home/yin/imx-optee/imx-optee-os/out/arm-plat-imx/export-ta_arm32/lib/libmpa.a(mpa_io.o)
 .group         0x0000000000000000        0x8 /home/yin/imx-optee/imx-optee-os/out/arm-plat-imx/export-ta_arm32/lib/libmpa.a(mpa_io.o)
 .group         0x0000000000000000        0x8 /home/yin/imx-optee/imx-optee-os/out/arm-plat-imx/export-ta_arm32/lib/libmpa.a(mpa_io.o)
 .group         0x0000000000000000        0x8 /home/yin/imx-optee/imx-optee-os/out/arm-plat-imx/export-ta_arm32/lib/libmpa.a(mpa_io.o)
 .group         0x0000000000000000        0x8 /home/yin/imx-optee/imx-optee-os/out/arm-plat-imx/export-ta_arm32/lib/libmpa.a(mpa_io.o)
 .group         0x0000000000000000        0x8 /home/yin/imx-optee/imx-optee-os/out/arm-plat-imx/export-ta_arm32/lib/libmpa.a(mpa_io.o)
 .group         0x0000000000000000        0x8 /home/yin/imx-optee/imx-optee-os/out/arm-plat-imx/export-ta_arm32/lib/libmpa.a(mpa_io.o)
 .group         0x0000000000000000        0x8 /home/yin/imx-optee/imx-optee-os/out/arm-plat-imx/export-ta_arm32/lib/libmpa.a(mpa_io.o)
 .group         0x0000000000000000        0x8 /home/yin/imx-optee/imx-optee-os/out/arm-plat-imx/export-ta_arm32/lib/libmpa.a(mpa_io.o)
 .group         0x0000000000000000        0x8 /home/yin/imx-optee/imx-optee-os/out/arm-plat-imx/export-ta_arm32/lib/libmpa.a(mpa_io.o)
 .group         0x0000000000000000        0x8 /home/yin/imx-optee/imx-optee-os/out/arm-plat-imx/export-ta_arm32/lib/libmpa.a(mpa_io.o)
 .group         0x0000000000000000        0x8 /home/yin/imx-optee/imx-optee-os/out/arm-plat-imx/export-ta_arm32/lib/libmpa.a(mpa_io.o)
 .group         0x0000000000000000        0x8 /home/yin/imx-optee/imx-optee-os/out/arm-plat-imx/export-ta_arm32/lib/libmpa.a(mpa_io.o)
 .group         0x0000000000000000        0x8 /home/yin/imx-optee/imx-optee-os/out/arm-plat-imx/export-ta_arm32/lib/libmpa.a(mpa_io.o)
 .group         0x0000000000000000        0x8 /home/yin/imx-optee/imx-optee-os/out/arm-plat-imx/export-ta_arm32/lib/libmpa.a(mpa_io.o)
 .group         0x0000000000000000        0x8 /home/yin/imx-optee/imx-optee-os/out/arm-plat-imx/export-ta_arm32/lib/libmpa.a(mpa_io.o)
 .group         0x0000000000000000        0x8 /home/yin/imx-optee/imx-optee-os/out/arm-plat-imx/export-ta_arm32/lib/libmpa.a(mpa_io.o)
 .debug_macro   0x0000000000000000      0x92e /home/yin/imx-optee/imx-optee-os/out/arm-plat-imx/export-ta_arm32/lib/libmpa.a(mpa_io.o)
 .debug_macro   0x0000000000000000      0x36c /home/yin/imx-optee/imx-optee-os/out/arm-plat-imx/export-ta_arm32/lib/libmpa.a(mpa_io.o)
 .debug_macro   0x0000000000000000       0xcd /home/yin/imx-optee/imx-optee-os/out/arm-plat-imx/export-ta_arm32/lib/libmpa.a(mpa_io.o)
 .debug_macro   0x0000000000000000       0x22 /home/yin/imx-optee/imx-optee-os/out/arm-plat-imx/export-ta_arm32/lib/libmpa.a(mpa_io.o)
 .debug_macro   0x0000000000000000      0x16d /home/yin/imx-optee/imx-optee-os/out/arm-plat-imx/export-ta_arm32/lib/libmpa.a(mpa_io.o)
 .debug_macro   0x0000000000000000       0x34 /home/yin/imx-optee/imx-optee-os/out/arm-plat-imx/export-ta_arm32/lib/libmpa.a(mpa_io.o)
 .debug_macro   0x0000000000000000       0x94 /home/yin/imx-optee/imx-optee-os/out/arm-plat-imx/export-ta_arm32/lib/libmpa.a(mpa_io.o)
 .debug_macro   0x0000000000000000       0x10 /home/yin/imx-optee/imx-optee-os/out/arm-plat-imx/export-ta_arm32/lib/libmpa.a(mpa_io.o)
 .debug_macro   0x0000000000000000       0x10 /home/yin/imx-optee/imx-optee-os/out/arm-plat-imx/export-ta_arm32/lib/libmpa.a(mpa_io.o)
 .debug_macro   0x0000000000000000       0x7c /home/yin/imx-optee/imx-optee-os/out/arm-plat-imx/export-ta_arm32/lib/libmpa.a(mpa_io.o)
 .debug_macro   0x0000000000000000      0x184 /home/yin/imx-optee/imx-optee-os/out/arm-plat-imx/export-ta_arm32/lib/libmpa.a(mpa_io.o)
 .debug_macro   0x0000000000000000       0x4c /home/yin/imx-optee/imx-optee-os/out/arm-plat-imx/export-ta_arm32/lib/libmpa.a(mpa_io.o)
 .debug_macro   0x0000000000000000       0xc4 /home/yin/imx-optee/imx-optee-os/out/arm-plat-imx/export-ta_arm32/lib/libmpa.a(mpa_io.o)
 .debug_macro   0x0000000000000000       0x22 /home/yin/imx-optee/imx-optee-os/out/arm-plat-imx/export-ta_arm32/lib/libmpa.a(mpa_io.o)
 .debug_macro   0x0000000000000000       0x16 /home/yin/imx-optee/imx-optee-os/out/arm-plat-imx/export-ta_arm32/lib/libmpa.a(mpa_io.o)
 .debug_macro   0x0000000000000000       0x16 /home/yin/imx-optee/imx-optee-os/out/arm-plat-imx/export-ta_arm32/lib/libmpa.a(mpa_io.o)
 .debug_macro   0x0000000000000000       0x6b /home/yin/imx-optee/imx-optee-os/out/arm-plat-imx/export-ta_arm32/lib/libmpa.a(mpa_io.o)
 .debug_macro   0x0000000000000000       0xa6 /home/yin/imx-optee/imx-optee-os/out/arm-plat-imx/export-ta_arm32/lib/libmpa.a(mpa_io.o)
 .group         0x0000000000000000        0x8 /home/yin/imx-optee/imx-optee-os/out/arm-plat-imx/export-ta_arm32/lib/libmpa.a(mpa_modulus.o)
 .group         0x0000000000000000        0x8 /home/yin/imx-optee/imx-optee-os/out/arm-plat-imx/export-ta_arm32/lib/libmpa.a(mpa_modulus.o)
 .group         0x0000000000000000        0x8 /home/yin/imx-optee/imx-optee-os/out/arm-plat-imx/export-ta_arm32/lib/libmpa.a(mpa_modulus.o)
 .group         0x0000000000000000        0x8 /home/yin/imx-optee/imx-optee-os/out/arm-plat-imx/export-ta_arm32/lib/libmpa.a(mpa_modulus.o)
 .group         0x0000000000000000        0x8 /home/yin/imx-optee/imx-optee-os/out/arm-plat-imx/export-ta_arm32/lib/libmpa.a(mpa_modulus.o)
 .group         0x0000000000000000        0x8 /home/yin/imx-optee/imx-optee-os/out/arm-plat-imx/export-ta_arm32/lib/libmpa.a(mpa_modulus.o)
 .group         0x0000000000000000        0x8 /home/yin/imx-optee/imx-optee-os/out/arm-plat-imx/export-ta_arm32/lib/libmpa.a(mpa_modulus.o)
 .group         0x0000000000000000        0x8 /home/yin/imx-optee/imx-optee-os/out/arm-plat-imx/export-ta_arm32/lib/libmpa.a(mpa_modulus.o)
 .group         0x0000000000000000        0x8 /home/yin/imx-optee/imx-optee-os/out/arm-plat-imx/export-ta_arm32/lib/libmpa.a(mpa_modulus.o)
 .group         0x0000000000000000        0x8 /home/yin/imx-optee/imx-optee-os/out/arm-plat-imx/export-ta_arm32/lib/libmpa.a(mpa_modulus.o)
 .group         0x0000000000000000        0x8 /home/yin/imx-optee/imx-optee-os/out/arm-plat-imx/export-ta_arm32/lib/libmpa.a(mpa_modulus.o)
 .group         0x0000000000000000        0x8 /home/yin/imx-optee/imx-optee-os/out/arm-plat-imx/export-ta_arm32/lib/libmpa.a(mpa_modulus.o)
 .group         0x0000000000000000        0x8 /home/yin/imx-optee/imx-optee-os/out/arm-plat-imx/export-ta_arm32/lib/libmpa.a(mpa_modulus.o)
 .group         0x0000000000000000        0x8 /home/yin/imx-optee/imx-optee-os/out/arm-plat-imx/export-ta_arm32/lib/libmpa.a(mpa_modulus.o)
 .group         0x0000000000000000        0x8 /home/yin/imx-optee/imx-optee-os/out/arm-plat-imx/export-ta_arm32/lib/libmpa.a(mpa_modulus.o)
 .debug_macro   0x0000000000000000      0x92e /home/yin/imx-optee/imx-optee-os/out/arm-plat-imx/export-ta_arm32/lib/libmpa.a(mpa_modulus.o)
 .debug_macro   0x0000000000000000      0x36c /home/yin/imx-optee/imx-optee-os/out/arm-plat-imx/export-ta_arm32/lib/libmpa.a(mpa_modulus.o)
 .debug_macro   0x0000000000000000       0x10 /home/yin/imx-optee/imx-optee-os/out/arm-plat-imx/export-ta_arm32/lib/libmpa.a(mpa_modulus.o)
 .debug_macro   0x0000000000000000       0x7c /home/yin/imx-optee/imx-optee-os/out/arm-plat-imx/export-ta_arm32/lib/libmpa.a(mpa_modulus.o)
 .debug_macro   0x0000000000000000      0x184 /home/yin/imx-optee/imx-optee-os/out/arm-plat-imx/export-ta_arm32/lib/libmpa.a(mpa_modulus.o)
 .debug_macro   0x0000000000000000       0x22 /home/yin/imx-optee/imx-optee-os/out/arm-plat-imx/export-ta_arm32/lib/libmpa.a(mpa_modulus.o)
 .debug_macro   0x0000000000000000       0x4c /home/yin/imx-optee/imx-optee-os/out/arm-plat-imx/export-ta_arm32/lib/libmpa.a(mpa_modulus.o)
 .debug_macro   0x0000000000000000       0xcd /home/yin/imx-optee/imx-optee-os/out/arm-plat-imx/export-ta_arm32/lib/libmpa.a(mpa_modulus.o)
 .debug_macro   0x0000000000000000      0x16d /home/yin/imx-optee/imx-optee-os/out/arm-plat-imx/export-ta_arm32/lib/libmpa.a(mpa_modulus.o)
 .debug_macro   0x0000000000000000       0xc4 /home/yin/imx-optee/imx-optee-os/out/arm-plat-imx/export-ta_arm32/lib/libmpa.a(mpa_modulus.o)
 .debug_macro   0x0000000000000000       0x22 /home/yin/imx-optee/imx-optee-os/out/arm-plat-imx/export-ta_arm32/lib/libmpa.a(mpa_modulus.o)
 .debug_macro   0x0000000000000000       0x16 /home/yin/imx-optee/imx-optee-os/out/arm-plat-imx/export-ta_arm32/lib/libmpa.a(mpa_modulus.o)
 .debug_macro   0x0000000000000000       0x16 /home/yin/imx-optee/imx-optee-os/out/arm-plat-imx/export-ta_arm32/lib/libmpa.a(mpa_modulus.o)
 .debug_macro   0x0000000000000000       0x6b /home/yin/imx-optee/imx-optee-os/out/arm-plat-imx/export-ta_arm32/lib/libmpa.a(mpa_modulus.o)
 .debug_macro   0x0000000000000000       0xa6 /home/yin/imx-optee/imx-optee-os/out/arm-plat-imx/export-ta_arm32/lib/libmpa.a(mpa_modulus.o)
 .group         0x0000000000000000        0x8 /home/yin/imx-optee/imx-optee-os/out/arm-plat-imx/export-ta_arm32/lib/libutee.a(assert.o)
 .group         0x0000000000000000        0x8 /home/yin/imx-optee/imx-optee-os/out/arm-plat-imx/export-ta_arm32/lib/libutee.a(assert.o)
 .group         0x0000000000000000        0x8 /home/yin/imx-optee/imx-optee-os/out/arm-plat-imx/export-ta_arm32/lib/libutee.a(assert.o)
 .group         0x0000000000000000        0x8 /home/yin/imx-optee/imx-optee-os/out/arm-plat-imx/export-ta_arm32/lib/libutee.a(assert.o)
 .group         0x0000000000000000        0x8 /home/yin/imx-optee/imx-optee-os/out/arm-plat-imx/export-ta_arm32/lib/libutee.a(assert.o)
 .group         0x0000000000000000        0x8 /home/yin/imx-optee/imx-optee-os/out/arm-plat-imx/export-ta_arm32/lib/libutee.a(assert.o)
 .group         0x0000000000000000        0x8 /home/yin/imx-optee/imx-optee-os/out/arm-plat-imx/export-ta_arm32/lib/libutee.a(assert.o)
 .group         0x0000000000000000        0x8 /home/yin/imx-optee/imx-optee-os/out/arm-plat-imx/export-ta_arm32/lib/libutee.a(assert.o)
 .group         0x0000000000000000        0x8 /home/yin/imx-optee/imx-optee-os/out/arm-plat-imx/export-ta_arm32/lib/libutee.a(assert.o)
 .group         0x0000000000000000        0x8 /home/yin/imx-optee/imx-optee-os/out/arm-plat-imx/export-ta_arm32/lib/libutee.a(assert.o)
 .group         0x0000000000000000        0x8 /home/yin/imx-optee/imx-optee-os/out/arm-plat-imx/export-ta_arm32/lib/libutee.a(assert.o)
 .group         0x0000000000000000        0x8 /home/yin/imx-optee/imx-optee-os/out/arm-plat-imx/export-ta_arm32/lib/libutee.a(assert.o)
 .group         0x0000000000000000        0x8 /home/yin/imx-optee/imx-optee-os/out/arm-plat-imx/export-ta_arm32/lib/libutee.a(assert.o)
 .group         0x0000000000000000        0x8 /home/yin/imx-optee/imx-optee-os/out/arm-plat-imx/export-ta_arm32/lib/libutee.a(assert.o)
 .group         0x0000000000000000        0x8 /home/yin/imx-optee/imx-optee-os/out/arm-plat-imx/export-ta_arm32/lib/libutee.a(assert.o)
 .group         0x0000000000000000        0x8 /home/yin/imx-optee/imx-optee-os/out/arm-plat-imx/export-ta_arm32/lib/libutee.a(assert.o)
 .debug_macro   0x0000000000000000      0x92e /home/yin/imx-optee/imx-optee-os/out/arm-plat-imx/export-ta_arm32/lib/libutee.a(assert.o)
 .debug_macro   0x0000000000000000      0x36c /home/yin/imx-optee/imx-optee-os/out/arm-plat-imx/export-ta_arm32/lib/libutee.a(assert.o)
 .debug_macro   0x0000000000000000       0xcd /home/yin/imx-optee/imx-optee-os/out/arm-plat-imx/export-ta_arm32/lib/libutee.a(assert.o)
 .debug_macro   0x0000000000000000       0x22 /home/yin/imx-optee/imx-optee-os/out/arm-plat-imx/export-ta_arm32/lib/libutee.a(assert.o)
 .debug_macro   0x0000000000000000      0x16d /home/yin/imx-optee/imx-optee-os/out/arm-plat-imx/export-ta_arm32/lib/libutee.a(assert.o)
 .debug_macro   0x0000000000000000       0x34 /home/yin/imx-optee/imx-optee-os/out/arm-plat-imx/export-ta_arm32/lib/libutee.a(assert.o)
 .debug_macro   0x0000000000000000       0x94 /home/yin/imx-optee/imx-optee-os/out/arm-plat-imx/export-ta_arm32/lib/libutee.a(assert.o)
 .debug_macro   0x0000000000000000       0x10 /home/yin/imx-optee/imx-optee-os/out/arm-plat-imx/export-ta_arm32/lib/libutee.a(assert.o)
 .debug_macro   0x0000000000000000      0x8e8 /home/yin/imx-optee/imx-optee-os/out/arm-plat-imx/export-ta_arm32/lib/libutee.a(assert.o)
 .debug_macro   0x0000000000000000       0x7c /home/yin/imx-optee/imx-optee-os/out/arm-plat-imx/export-ta_arm32/lib/libutee.a(assert.o)
 .debug_macro   0x0000000000000000      0x184 /home/yin/imx-optee/imx-optee-os/out/arm-plat-imx/export-ta_arm32/lib/libutee.a(assert.o)
 .debug_macro   0x0000000000000000       0x35 /home/yin/imx-optee/imx-optee-os/out/arm-plat-imx/export-ta_arm32/lib/libutee.a(assert.o)
 .debug_macro   0x0000000000000000       0x10 /home/yin/imx-optee/imx-optee-os/out/arm-plat-imx/export-ta_arm32/lib/libutee.a(assert.o)
 .debug_macro   0x0000000000000000       0x58 /home/yin/imx-optee/imx-optee-os/out/arm-plat-imx/export-ta_arm32/lib/libutee.a(assert.o)
 .debug_macro   0x0000000000000000       0xc4 /home/yin/imx-optee/imx-optee-os/out/arm-plat-imx/export-ta_arm32/lib/libutee.a(assert.o)
 .debug_macro   0x0000000000000000       0xc4 /home/yin/imx-optee/imx-optee-os/out/arm-plat-imx/export-ta_arm32/lib/libutee.a(assert.o)

Memory Configuration

Name             Origin             Length             Attributes
*default*        0x0000000000000000 0xffffffffffffffff

Linker script and memory map


.ta_head        0x0000000000000000       0x20
 *(SORT(.ta_head))
 .ta_head       0x0000000000000000       0x20 ./user_ta_header.o
                0x0000000000000000                ta_head

.text           0x0000000000000020     0x6dc8
                0x0000000000000020                __text_start = .
 *(SORT(.text) SORT(.text.*))
 .text          0x0000000000000020      0x278 ./hotp_ta.o
                0x0000000000000020                TA_CreateEntryPoint
                0x0000000000000024                TA_DestroyEntryPoint
                0x0000000000000026                TA_OpenSessionEntryPoint
                0x0000000000000034                TA_CloseSessionEntryPoint
                0x0000000000000036                TA_InvokeCommandEntryPoint
 .text          0x0000000000000298      0x78c /home/yin/imx-optee/imx-optee-os/out/arm-plat-imx/export-ta_arm32/lib/libutee.a(tee_api_objects.o)
                0x0000000000000298                __utee_from_attr
                0x00000000000002d2                TEE_GetObjectInfo
                0x00000000000002fc                TEE_GetObjectInfo1
                0x000000000000031c                TEE_RestrictObjectUsage1
                0x000000000000033c                TEE_RestrictObjectUsage
                0x0000000000000368                TEE_GetObjectBufferAttribute
                0x00000000000003d8                TEE_GetObjectValueAttribute
                0x000000000000045c                TEE_CloseObject
                0x0000000000000470                TEE_AllocateTransientObject
                0x00000000000004a0                TEE_FreeTransientObject
                0x00000000000004d0                TEE_ResetTransientObject
                0x0000000000000500                TEE_PopulateTransientObject
                0x0000000000000570                TEE_InitRefAttribute
                0x0000000000000592                TEE_InitValueAttribute
                0x00000000000005b4                TEE_CopyObjectAttributes1
                0x000000000000061c                TEE_CopyObjectAttributes
                0x000000000000064c                TEE_GenerateKey
                0x0000000000000694                TEE_OpenPersistentObject
                0x00000000000006f8                TEE_CreatePersistentObject
                0x0000000000000790                TEE_CloseAndDeletePersistentObject1
                0x00000000000007b4                TEE_CloseAndDeletePersistentObject
                0x00000000000007ca                TEE_RenamePersistentObject
                0x0000000000000810                TEE_AllocatePersistentObjectEnumerator
                0x0000000000000848                TEE_FreePersistentObjectEnumerator
                0x000000000000085c                TEE_ResetPersistentObjectEnumerator
                0x0000000000000870                TEE_StartPersistentObjectEnumerator
                0x000000000000089c                TEE_GetNextPersistentObject
                0x00000000000008f0                TEE_ReadObjectData
                0x0000000000000930                TEE_WriteObjectData
                0x0000000000000970                TEE_TruncateObjectData
                0x00000000000009a8                TEE_SeekObjectData
 .text          0x0000000000000a24     0x15c8 /home/yin/imx-optee/imx-optee-os/out/arm-plat-imx/export-ta_arm32/lib/libutee.a(tee_api_operations.o)
                0x0000000000000b80                TEE_FreeOperation
                0x0000000000000ba6                TEE_AllocateOperation
                0x00000000000010d8                TEE_GetOperationInfo
                0x00000000000010fa                TEE_GetOperationInfoMultiple
                0x00000000000011b0                TEE_ResetOperation
                0x00000000000011f0                TEE_SetOperationKey
                0x000000000000127c                TEE_SetOperationKey2
                0x0000000000001370                TEE_CopyOperation
                0x0000000000001412                TEE_DigestUpdate
                0x0000000000001442                TEE_DigestDoFinal
                0x00000000000014b4                TEE_CipherInit
                0x000000000000150a                TEE_CipherUpdate
                0x0000000000001604                TEE_CipherDoFinal
                0x0000000000001718                TEE_MACInit
                0x000000000000176e                TEE_MACUpdate
                0x00000000000017bc                TEE_MACComputeFinal
                0x0000000000001824                TEE_MACCompareFinal
                0x0000000000001888                TEE_AEInit
                0x00000000000018f8                TEE_AEUpdateAAD
                0x000000000000193e                TEE_AEUpdate
                0x0000000000001a0c                TEE_AEEncryptFinal
                0x0000000000001b24                TEE_AEDecryptFinal
                0x0000000000001c2c                TEE_AsymmetricEncrypt
                0x0000000000001ce8                TEE_AsymmetricDecrypt
                0x0000000000001da8                TEE_AsymmetricSignDigest
                0x0000000000001e5c                TEE_AsymmetricVerifyDigest
                0x0000000000001f08                TEE_DeriveKey
                0x0000000000001fc2                TEE_GenerateRandom
                0x0000000000001fd4                rand
 .text          0x0000000000001fec      0x210 /home/yin/imx-optee/imx-optee-os/out/arm-plat-imx/export-ta_arm32/lib/libutee.a(user_ta_entry.o)
                0x0000000000002070                __utee_entry
 .text          0x00000000000021fc        0x0 /home/yin/imx-optee/imx-optee-os/out/arm-plat-imx/export-ta_arm32/lib/libutee.a(utee_syscalls_a32.o)
 .text.utee_panic
                0x00000000000021fc       0x14 /home/yin/imx-optee/imx-optee-os/out/arm-plat-imx/export-ta_arm32/lib/libutee.a(utee_syscalls_a32.o)
                0x00000000000021fc                utee_panic
 .text.utee_return
                0x0000000000002210       0x14 /home/yin/imx-optee/imx-optee-os/out/arm-plat-imx/export-ta_arm32/lib/libutee.a(utee_syscalls_a32.o)
                0x0000000000002210                utee_return
 .text.utee_log
                0x0000000000002224       0x14 /home/yin/imx-optee/imx-optee-os/out/arm-plat-imx/export-ta_arm32/lib/libutee.a(utee_syscalls_a32.o)
                0x0000000000002224                utee_log
 .text.__utee_panic
                0x0000000000002238       0x14 /home/yin/imx-optee/imx-optee-os/out/arm-plat-imx/export-ta_arm32/lib/libutee.a(utee_syscalls_a32.o)
                0x0000000000002238                __utee_panic
 .text.utee_get_property
                0x000000000000224c       0x18 /home/yin/imx-optee/imx-optee-os/out/arm-plat-imx/export-ta_arm32/lib/libutee.a(utee_syscalls_a32.o)
                0x000000000000224c                utee_get_property
 .text.utee_get_property_name_to_index
                0x0000000000002264       0x14 /home/yin/imx-optee/imx-optee-os/out/arm-plat-imx/export-ta_arm32/lib/libutee.a(utee_syscalls_a32.o)
                0x0000000000002264                utee_get_property_name_to_index
 .text.utee_open_ta_session
                0x0000000000002278       0x18 /home/yin/imx-optee/imx-optee-os/out/arm-plat-imx/export-ta_arm32/lib/libutee.a(utee_syscalls_a32.o)
                0x0000000000002278                utee_open_ta_session
 .text.utee_close_ta_session
                0x0000000000002290       0x14 /home/yin/imx-optee/imx-optee-os/out/arm-plat-imx/export-ta_arm32/lib/libutee.a(utee_syscalls_a32.o)
                0x0000000000002290                utee_close_ta_session
 .text.utee_invoke_ta_command
                0x00000000000022a4       0x18 /home/yin/imx-optee/imx-optee-os/out/arm-plat-imx/export-ta_arm32/lib/libutee.a(utee_syscalls_a32.o)
                0x00000000000022a4                utee_invoke_ta_command
 .text.utee_get_cancellation_flag
                0x00000000000022bc       0x14 /home/yin/imx-optee/imx-optee-os/out/arm-plat-imx/export-ta_arm32/lib/libutee.a(utee_syscalls_a32.o)
                0x00000000000022bc                utee_get_cancellation_flag
 .text.utee_check_access_rights
                0x00000000000022d0       0x14 /home/yin/imx-optee/imx-optee-os/out/arm-plat-imx/export-ta_arm32/lib/libutee.a(utee_syscalls_a32.o)
                0x00000000000022d0                utee_check_access_rights
 .text.utee_unmask_cancellation
                0x00000000000022e4       0x14 /home/yin/imx-optee/imx-optee-os/out/arm-plat-imx/export-ta_arm32/lib/libutee.a(utee_syscalls_a32.o)
                0x00000000000022e4                utee_unmask_cancellation
 .text.utee_mask_cancellation
                0x00000000000022f8       0x14 /home/yin/imx-optee/imx-optee-os/out/arm-plat-imx/export-ta_arm32/lib/libutee.a(utee_syscalls_a32.o)
                0x00000000000022f8                utee_mask_cancellation
 .text.utee_wait
                0x000000000000230c       0x14 /home/yin/imx-optee/imx-optee-os/out/arm-plat-imx/export-ta_arm32/lib/libutee.a(utee_syscalls_a32.o)
                0x000000000000230c                utee_wait
 .text.utee_get_time
                0x0000000000002320       0x14 /home/yin/imx-optee/imx-optee-os/out/arm-plat-imx/export-ta_arm32/lib/libutee.a(utee_syscalls_a32.o)
                0x0000000000002320                utee_get_time
 .text.utee_set_ta_time
                0x0000000000002334       0x14 /home/yin/imx-optee/imx-optee-os/out/arm-plat-imx/export-ta_arm32/lib/libutee.a(utee_syscalls_a32.o)
                0x0000000000002334                utee_set_ta_time
 .text.utee_cryp_state_alloc
                0x0000000000002348       0x18 /home/yin/imx-optee/imx-optee-os/out/arm-plat-imx/export-ta_arm32/lib/libutee.a(utee_syscalls_a32.o)
                0x0000000000002348                utee_cryp_state_alloc
 .text.utee_cryp_state_copy
                0x0000000000002360       0x14 /home/yin/imx-optee/imx-optee-os/out/arm-plat-imx/export-ta_arm32/lib/libutee.a(utee_syscalls_a32.o)
                0x0000000000002360                utee_cryp_state_copy
 .text.utee_cryp_state_free
                0x0000000000002374       0x14 /home/yin/imx-optee/imx-optee-os/out/arm-plat-imx/export-ta_arm32/lib/libutee.a(utee_syscalls_a32.o)
                0x0000000000002374                utee_cryp_state_free
 .text.utee_hash_init
                0x0000000000002388       0x14 /home/yin/imx-optee/imx-optee-os/out/arm-plat-imx/export-ta_arm32/lib/libutee.a(utee_syscalls_a32.o)
                0x0000000000002388                utee_hash_init
 .text.utee_hash_update
                0x000000000000239c       0x14 /home/yin/imx-optee/imx-optee-os/out/arm-plat-imx/export-ta_arm32/lib/libutee.a(utee_syscalls_a32.o)
                0x000000000000239c                utee_hash_update
 .text.utee_hash_final
                0x00000000000023b0       0x18 /home/yin/imx-optee/imx-optee-os/out/arm-plat-imx/export-ta_arm32/lib/libutee.a(utee_syscalls_a32.o)
                0x00000000000023b0                utee_hash_final
 .text.utee_cipher_init
                0x00000000000023c8       0x14 /home/yin/imx-optee/imx-optee-os/out/arm-plat-imx/export-ta_arm32/lib/libutee.a(utee_syscalls_a32.o)
                0x00000000000023c8                utee_cipher_init
 .text.utee_cipher_update
                0x00000000000023dc       0x18 /home/yin/imx-optee/imx-optee-os/out/arm-plat-imx/export-ta_arm32/lib/libutee.a(utee_syscalls_a32.o)
                0x00000000000023dc                utee_cipher_update
 .text.utee_cipher_final
                0x00000000000023f4       0x18 /home/yin/imx-optee/imx-optee-os/out/arm-plat-imx/export-ta_arm32/lib/libutee.a(utee_syscalls_a32.o)
                0x00000000000023f4                utee_cipher_final
 .text.utee_cryp_obj_get_info
                0x000000000000240c       0x14 /home/yin/imx-optee/imx-optee-os/out/arm-plat-imx/export-ta_arm32/lib/libutee.a(utee_syscalls_a32.o)
                0x000000000000240c                utee_cryp_obj_get_info
 .text.utee_cryp_obj_restrict_usage
                0x0000000000002420       0x14 /home/yin/imx-optee/imx-optee-os/out/arm-plat-imx/export-ta_arm32/lib/libutee.a(utee_syscalls_a32.o)
                0x0000000000002420                utee_cryp_obj_restrict_usage
 .text.utee_cryp_obj_get_attr
                0x0000000000002434       0x14 /home/yin/imx-optee/imx-optee-os/out/arm-plat-imx/export-ta_arm32/lib/libutee.a(utee_syscalls_a32.o)
                0x0000000000002434                utee_cryp_obj_get_attr
 .text.utee_cryp_obj_alloc
                0x0000000000002448       0x14 /home/yin/imx-optee/imx-optee-os/out/arm-plat-imx/export-ta_arm32/lib/libutee.a(utee_syscalls_a32.o)
                0x0000000000002448                utee_cryp_obj_alloc
 .text.utee_cryp_obj_close
                0x000000000000245c       0x14 /home/yin/imx-optee/imx-optee-os/out/arm-plat-imx/export-ta_arm32/lib/libutee.a(utee_syscalls_a32.o)
                0x000000000000245c                utee_cryp_obj_close
 .text.utee_cryp_obj_reset
                0x0000000000002470       0x14 /home/yin/imx-optee/imx-optee-os/out/arm-plat-imx/export-ta_arm32/lib/libutee.a(utee_syscalls_a32.o)
                0x0000000000002470                utee_cryp_obj_reset
 .text.utee_cryp_obj_populate
                0x0000000000002484       0x14 /home/yin/imx-optee/imx-optee-os/out/arm-plat-imx/export-ta_arm32/lib/libutee.a(utee_syscalls_a32.o)
                0x0000000000002484                utee_cryp_obj_populate
 .text.utee_cryp_obj_copy
                0x0000000000002498       0x14 /home/yin/imx-optee/imx-optee-os/out/arm-plat-imx/export-ta_arm32/lib/libutee.a(utee_syscalls_a32.o)
                0x0000000000002498                utee_cryp_obj_copy
 .text.utee_cryp_derive_key
                0x00000000000024ac       0x14 /home/yin/imx-optee/imx-optee-os/out/arm-plat-imx/export-ta_arm32/lib/libutee.a(utee_syscalls_a32.o)
                0x00000000000024ac                utee_cryp_derive_key
 .text.utee_cryp_random_number_generate
                0x00000000000024c0       0x14 /home/yin/imx-optee/imx-optee-os/out/arm-plat-imx/export-ta_arm32/lib/libutee.a(utee_syscalls_a32.o)
                0x00000000000024c0                utee_cryp_random_number_generate
 .text.utee_authenc_init
                0x00000000000024d4       0x18 /home/yin/imx-optee/imx-optee-os/out/arm-plat-imx/export-ta_arm32/lib/libutee.a(utee_syscalls_a32.o)
                0x00000000000024d4                utee_authenc_init
 .text.utee_authenc_update_aad
                0x00000000000024ec       0x14 /home/yin/imx-optee/imx-optee-os/out/arm-plat-imx/export-ta_arm32/lib/libutee.a(utee_syscalls_a32.o)
                0x00000000000024ec                utee_authenc_update_aad
 .text.utee_authenc_update_payload
                0x0000000000002500       0x18 /home/yin/imx-optee/imx-optee-os/out/arm-plat-imx/export-ta_arm32/lib/libutee.a(utee_syscalls_a32.o)
                0x0000000000002500                utee_authenc_update_payload
 .text.utee_authenc_enc_final
                0x0000000000002518       0x18 /home/yin/imx-optee/imx-optee-os/out/arm-plat-imx/export-ta_arm32/lib/libutee.a(utee_syscalls_a32.o)
                0x0000000000002518                utee_authenc_enc_final
 .text.utee_authenc_dec_final
                0x0000000000002530       0x18 /home/yin/imx-optee/imx-optee-os/out/arm-plat-imx/export-ta_arm32/lib/libutee.a(utee_syscalls_a32.o)
                0x0000000000002530                utee_authenc_dec_final
 .text.utee_asymm_operate
                0x0000000000002548       0x18 /home/yin/imx-optee/imx-optee-os/out/arm-plat-imx/export-ta_arm32/lib/libutee.a(utee_syscalls_a32.o)
                0x0000000000002548                utee_asymm_operate
 .text.utee_asymm_verify
                0x0000000000002560       0x18 /home/yin/imx-optee/imx-optee-os/out/arm-plat-imx/export-ta_arm32/lib/libutee.a(utee_syscalls_a32.o)
                0x0000000000002560                utee_asymm_verify
 .text.utee_storage_obj_open
                0x0000000000002578       0x18 /home/yin/imx-optee/imx-optee-os/out/arm-plat-imx/export-ta_arm32/lib/libutee.a(utee_syscalls_a32.o)
                0x0000000000002578                utee_storage_obj_open
 .text.utee_storage_obj_create
                0x0000000000002590       0x18 /home/yin/imx-optee/imx-optee-os/out/arm-plat-imx/export-ta_arm32/lib/libutee.a(utee_syscalls_a32.o)
                0x0000000000002590                utee_storage_obj_create
 .text.utee_storage_obj_del
                0x00000000000025a8       0x14 /home/yin/imx-optee/imx-optee-os/out/arm-plat-imx/export-ta_arm32/lib/libutee.a(utee_syscalls_a32.o)
                0x00000000000025a8                utee_storage_obj_del
 .text.utee_storage_obj_rename
                0x00000000000025bc       0x14 /home/yin/imx-optee/imx-optee-os/out/arm-plat-imx/export-ta_arm32/lib/libutee.a(utee_syscalls_a32.o)
                0x00000000000025bc                utee_storage_obj_rename
 .text.utee_storage_alloc_enum
                0x00000000000025d0       0x14 /home/yin/imx-optee/imx-optee-os/out/arm-plat-imx/export-ta_arm32/lib/libutee.a(utee_syscalls_a32.o)
                0x00000000000025d0                utee_storage_alloc_enum
 .text.utee_storage_free_enum
                0x00000000000025e4       0x14 /home/yin/imx-optee/imx-optee-os/out/arm-plat-imx/export-ta_arm32/lib/libutee.a(utee_syscalls_a32.o)
                0x00000000000025e4                utee_storage_free_enum
 .text.utee_storage_reset_enum
                0x00000000000025f8       0x14 /home/yin/imx-optee/imx-optee-os/out/arm-plat-imx/export-ta_arm32/lib/libutee.a(utee_syscalls_a32.o)
                0x00000000000025f8                utee_storage_reset_enum
 .text.utee_storage_start_enum
                0x000000000000260c       0x14 /home/yin/imx-optee/imx-optee-os/out/arm-plat-imx/export-ta_arm32/lib/libutee.a(utee_syscalls_a32.o)
                0x000000000000260c                utee_storage_start_enum
 .text.utee_storage_next_enum
                0x0000000000002620       0x14 /home/yin/imx-optee/imx-optee-os/out/arm-plat-imx/export-ta_arm32/lib/libutee.a(utee_syscalls_a32.o)
                0x0000000000002620                utee_storage_next_enum
 .text.utee_storage_obj_read
                0x0000000000002634       0x14 /home/yin/imx-optee/imx-optee-os/out/arm-plat-imx/export-ta_arm32/lib/libutee.a(utee_syscalls_a32.o)
                0x0000000000002634                utee_storage_obj_read
 .text.utee_storage_obj_write
                0x0000000000002648       0x14 /home/yin/imx-optee/imx-optee-os/out/arm-plat-imx/export-ta_arm32/lib/libutee.a(utee_syscalls_a32.o)
                0x0000000000002648                utee_storage_obj_write
 .text.utee_storage_obj_trunc
                0x000000000000265c       0x14 /home/yin/imx-optee/imx-optee-os/out/arm-plat-imx/export-ta_arm32/lib/libutee.a(utee_syscalls_a32.o)
                0x000000000000265c                utee_storage_obj_trunc
 .text.utee_storage_obj_seek
                0x0000000000002670       0x14 /home/yin/imx-optee/imx-optee-os/out/arm-plat-imx/export-ta_arm32/lib/libutee.a(utee_syscalls_a32.o)
                0x0000000000002670                utee_storage_obj_seek
 .text.utee_cryp_obj_generate_key
                0x0000000000002684       0x14 /home/yin/imx-optee/imx-optee-os/out/arm-plat-imx/export-ta_arm32/lib/libutee.a(utee_syscalls_a32.o)
                0x0000000000002684                utee_cryp_obj_generate_key
 .text.utee_se_service_open
                0x0000000000002698       0x14 /home/yin/imx-optee/imx-optee-os/out/arm-plat-imx/export-ta_arm32/lib/libutee.a(utee_syscalls_a32.o)
                0x0000000000002698                utee_se_service_open
 .text.utee_se_service_close
                0x00000000000026ac       0x14 /home/yin/imx-optee/imx-optee-os/out/arm-plat-imx/export-ta_arm32/lib/libutee.a(utee_syscalls_a32.o)
                0x00000000000026ac                utee_se_service_close
 .text.utee_se_service_get_readers
                0x00000000000026c0       0x14 /home/yin/imx-optee/imx-optee-os/out/arm-plat-imx/export-ta_arm32/lib/libutee.a(utee_syscalls_a32.o)
                0x00000000000026c0                utee_se_service_get_readers
 .text.utee_se_reader_get_prop
                0x00000000000026d4       0x14 /home/yin/imx-optee/imx-optee-os/out/arm-plat-imx/export-ta_arm32/lib/libutee.a(utee_syscalls_a32.o)
                0x00000000000026d4                utee_se_reader_get_prop
 .text.utee_se_reader_get_name
                0x00000000000026e8       0x14 /home/yin/imx-optee/imx-optee-os/out/arm-plat-imx/export-ta_arm32/lib/libutee.a(utee_syscalls_a32.o)
                0x00000000000026e8                utee_se_reader_get_name
 .text.utee_se_reader_open_session
                0x00000000000026fc       0x14 /home/yin/imx-optee/imx-optee-os/out/arm-plat-imx/export-ta_arm32/lib/libutee.a(utee_syscalls_a32.o)
                0x00000000000026fc                utee_se_reader_open_session
 .text.utee_se_reader_close_sessions
                0x0000000000002710       0x14 /home/yin/imx-optee/imx-optee-os/out/arm-plat-imx/export-ta_arm32/lib/libutee.a(utee_syscalls_a32.o)
                0x0000000000002710                utee_se_reader_close_sessions
 .text.utee_se_session_is_closed
                0x0000000000002724       0x14 /home/yin/imx-optee/imx-optee-os/out/arm-plat-imx/export-ta_arm32/lib/libutee.a(utee_syscalls_a32.o)
                0x0000000000002724                utee_se_session_is_closed
 .text.utee_se_session_get_atr
                0x0000000000002738       0x14 /home/yin/imx-optee/imx-optee-os/out/arm-plat-imx/export-ta_arm32/lib/libutee.a(utee_syscalls_a32.o)
                0x0000000000002738                utee_se_session_get_atr
 .text.utee_se_session_open_channel
                0x000000000000274c       0x18 /home/yin/imx-optee/imx-optee-os/out/arm-plat-imx/export-ta_arm32/lib/libutee.a(utee_syscalls_a32.o)
                0x000000000000274c                utee_se_session_open_channel
 .text.utee_se_session_close
                0x0000000000002764       0x14 /home/yin/imx-optee/imx-optee-os/out/arm-plat-imx/export-ta_arm32/lib/libutee.a(utee_syscalls_a32.o)
                0x0000000000002764                utee_se_session_close
 .text.utee_se_channel_select_next
                0x0000000000002778       0x14 /home/yin/imx-optee/imx-optee-os/out/arm-plat-imx/export-ta_arm32/lib/libutee.a(utee_syscalls_a32.o)
                0x0000000000002778                utee_se_channel_select_next
 .text.utee_se_channel_get_select_resp
                0x000000000000278c       0x14 /home/yin/imx-optee/imx-optee-os/out/arm-plat-imx/export-ta_arm32/lib/libutee.a(utee_syscalls_a32.o)
                0x000000000000278c                utee_se_channel_get_select_resp
 .text.utee_se_channel_transmit
                0x00000000000027a0       0x18 /home/yin/imx-optee/imx-optee-os/out/arm-plat-imx/export-ta_arm32/lib/libutee.a(utee_syscalls_a32.o)
                0x00000000000027a0                utee_se_channel_transmit
 .text.utee_se_channel_close
                0x00000000000027b8       0x14 /home/yin/imx-optee/imx-optee-os/out/arm-plat-imx/export-ta_arm32/lib/libutee.a(utee_syscalls_a32.o)
                0x00000000000027b8                utee_se_channel_close
 .text.utee_cache_operation
                0x00000000000027cc       0x14 /home/yin/imx-optee/imx-optee-os/out/arm-plat-imx/export-ta_arm32/lib/libutee.a(utee_syscalls_a32.o)
                0x00000000000027cc                utee_cache_operation
 .text.__utee_mcount
                0x00000000000027e0        0xc /home/yin/imx-optee/imx-optee-os/out/arm-plat-imx/export-ta_arm32/lib/libutee.a(gprof_a32.o)
                0x00000000000027e0                __utee_mcount
 .text          0x00000000000027ec      0x478 /home/yin/imx-optee/imx-optee-os/out/arm-plat-imx/export-ta_arm32/lib/libutee.a(tee_api_arith.o)
                0x00000000000027ec                _TEE_MathAPI_Init
                0x0000000000002824                TEE_BigIntInit
                0x0000000000002828                TEE_BigIntInitFMM
                0x0000000000002836                TEE_BigIntInitFMMContext
                0x0000000000002860                TEE_BigIntFMMSizeInU32
                0x0000000000002868                TEE_BigIntFMMContextSizeInU32
                0x0000000000002872                TEE_BigIntConvertFromOctetString
                0x0000000000002888                TEE_BigIntConvertToOctetString
                0x00000000000028bc                TEE_BigIntConvertFromS32
                0x00000000000028c0                TEE_BigIntConvertToS32
                0x00000000000028d4                TEE_BigIntCmp
                0x00000000000028d8                TEE_BigIntCmpS32
                0x00000000000028dc                TEE_BigIntShiftRight
                0x00000000000028e0                TEE_BigIntGetBit
                0x00000000000028ee                TEE_BigIntGetBitCount
                0x00000000000028f8                TEE_BigIntAdd
                0x0000000000002908                TEE_BigIntSub
                0x0000000000002918                TEE_BigIntNeg
                0x000000000000291c                TEE_BigIntMul
                0x000000000000292c                TEE_BigIntSquare
                0x000000000000293c                TEE_BigIntDiv
                0x0000000000002978                TEE_BigIntMod
                0x00000000000029d0                TEE_BigIntAddMod
                0x0000000000002a30                TEE_BigIntSubMod
                0x0000000000002a90                TEE_BigIntMulMod
                0x0000000000002b10                TEE_BigIntSquareMod
                0x0000000000002b18                TEE_BigIntInvMod
                0x0000000000002b5c                TEE_BigIntRelativePrime
                0x0000000000002b9c                TEE_BigIntComputeExtendedGcd
                0x0000000000002bb8                TEE_BigIntIsProbablePrime
                0x0000000000002bd8                TEE_BigIntConvertToFMM
                0x0000000000002bf8                TEE_BigIntConvertFromFMM
                0x0000000000002c48                TEE_BigIntComputeFMM
 .text.unlikely
                0x0000000000002c64       0x1c /home/yin/imx-optee/imx-optee-os/out/arm-plat-imx/export-ta_arm32/lib/libutee.a(tee_api_arith.o)
 .text          0x0000000000002c80      0x2e8 /home/yin/imx-optee/imx-optee-os/out/arm-plat-imx/export-ta_arm32/lib/libutee.a(tee_api.o)
                0x0000000000002c80                __utee_from_param
                0x0000000000002cd2                __utee_to_param
                0x0000000000002d12                TEE_OpenTASession
                0x0000000000002d56                TEE_CloseTASession
                0x0000000000002d6a                TEE_InvokeTACommand
                0x0000000000002dd0                TEE_GetCancellationFlag
                0x0000000000002dec                TEE_UnmaskCancellation
                0x0000000000002e08                TEE_MaskCancellation
                0x0000000000002e24                TEE_CheckMemoryAccessRights
                0x0000000000002e2e                TEE_SetInstanceData
                0x0000000000002e3c                TEE_GetInstanceData
                0x0000000000002e48                TEE_MemMove
                0x0000000000002e4c                TEE_MemCompare
                0x0000000000002e50                TEE_MemFill
                0x0000000000002e54                TEE_GetSystemTime
                0x0000000000002e6a                TEE_Wait
                0x0000000000002e88                TEE_GetTAPersistentTime
                0x0000000000002ec4                TEE_SetTAPersistentTime
                0x0000000000002eec                TEE_GetREETime
                0x0000000000002f02                TEE_Malloc
                0x0000000000002f4c                TEE_Realloc
                0x0000000000002f50                TEE_Free
                0x0000000000002f54                TEE_CacheClean
                0x0000000000002f5a                TEE_CacheFlush
                0x0000000000002f60                TEE_CacheInvalidate
 .text          0x0000000000002f68       0x9c /home/yin/imx-optee/imx-optee-os/out/arm-plat-imx/export-ta_arm32/lib/libutee.a(trace_ext.o)
                0x0000000000002f68                trace_ext_puts
                0x0000000000002f7c                trace_ext_get_thread_id
                0x0000000000002f82                printf
                0x0000000000002fbc                puts
                0x0000000000002fe0                putchar
 .text          0x0000000000003004      0x9d8 /home/yin/imx-optee/imx-optee-os/out/arm-plat-imx/export-ta_arm32/lib/libutils.a(bget_malloc.o)
                0x00000000000030dc                bget
                0x00000000000031f8                bgetz
                0x0000000000003254                brel
                0x000000000000341c                bgetr
                0x0000000000003498                bpool
                0x0000000000003534                malloc
                0x000000000000354c                free
                0x000000000000355c                calloc
                0x0000000000003584                realloc
                0x000000000000359c                memalign
                0x00000000000037e8                malloc_add_pool
                0x00000000000038b8                malloc_buffer_is_within_alloced
                0x0000000000003994                malloc_buffer_overlaps_heap
 .text          0x00000000000039dc      0x758 /home/yin/imx-optee/imx-optee-os/out/arm-plat-imx/export-ta_arm32/lib/libutils.a(snprintk.o)
                0x00000000000039dc                __vsnprintf
                0x000000000000410c                vsnprintk
                0x000000000000411a                snprintk
 .text          0x0000000000004134      0x2c0 /home/yin/imx-optee/imx-optee-os/out/arm-plat-imx/export-ta_arm32/lib/libutils.a(trace.o)
                0x0000000000004182                trace_set_level
                0x00000000000041a0                trace_get_level
                0x00000000000041b4                trace_printf
                0x00000000000042f8                dhex_dump
 .text          0x00000000000043f4       0xbc /home/yin/imx-optee/imx-optee-os/out/arm-plat-imx/export-ta_arm32/lib/libutils.a(mempool.o)
                0x00000000000043f4                mempool_alloc_pool
                0x0000000000004438                mempool_alloc
                0x0000000000004482                mempool_free
 .text.ret_idivmod_values
                0x00000000000044b0        0x4 /home/yin/imx-optee/imx-optee-os/out/arm-plat-imx/export-ta_arm32/lib/libutils.a(arm32_aeabi_divmod_a32.o)
                0x00000000000044b0                ret_idivmod_values
 .text.ret_uidivmod_values
                0x00000000000044b4        0x4 /home/yin/imx-optee/imx-optee-os/out/arm-plat-imx/export-ta_arm32/lib/libutils.a(arm32_aeabi_divmod_a32.o)
                0x00000000000044b4                ret_uidivmod_values
 .text.__aeabi_ldivmod
                0x00000000000044b8       0x18 /home/yin/imx-optee/imx-optee-os/out/arm-plat-imx/export-ta_arm32/lib/libutils.a(arm32_aeabi_ldivmod_a32.o)
                0x00000000000044b8                __aeabi_ldivmod
 .text.__aeabi_uldivmod
                0x00000000000044d0       0x18 /home/yin/imx-optee/imx-optee-os/out/arm-plat-imx/export-ta_arm32/lib/libutils.a(arm32_aeabi_ldivmod_a32.o)
                0x00000000000044d0                __aeabi_uldivmod
 .text          0x00000000000044e8       0xe4 /home/yin/imx-optee/imx-optee-os/out/arm-plat-imx/export-ta_arm32/lib/libmpa.a(mpa_misc.o)
                0x00000000000044e8                __mpa_set_unused_digits_to_zero
                0x0000000000004502                mpa_wipe
                0x0000000000004518                mpa_copy
                0x000000000000453a                mpa_abs
                0x000000000000454e                mpa_highest_bit_index
                0x0000000000004578                mpa_get_bit
                0x00000000000045a4                mpa_can_hold
                0x00000000000045b8                mpa_parity
                0x00000000000045c0                mpa_constant_one
 .text          0x00000000000045cc      0x264 /home/yin/imx-optee/imx-optee-os/out/arm-plat-imx/export-ta_arm32/lib/libmpa.a(mpa_montgomery.o)
                0x00000000000045cc                __mpa_montgomery_mul_add
                0x000000000000462c                __mpa_montgomery_sub_ack
                0x000000000000468c                __mpa_montgomery_mul
                0x0000000000004724                mpa_compute_fmm_context
                0x00000000000047f4                mpa_montgomery_mul
 .text          0x0000000000004830      0x278 /home/yin/imx-optee/imx-optee-os/out/arm-plat-imx/export-ta_arm32/lib/libmpa.a(mpa_primetest.o)
                0x0000000000004830                mpa_is_prob_prime
 .text          0x0000000000004aa8      0x114 /home/yin/imx-optee/imx-optee-os/out/arm-plat-imx/export-ta_arm32/lib/libmpa.a(mpa_expmod.o)
                0x0000000000004aa8                mpa_exp_mod
 .text          0x0000000000004bbc      0x490 /home/yin/imx-optee/imx-optee-os/out/arm-plat-imx/export-ta_arm32/lib/libmpa.a(mpa_io.o)
                0x0000000000004ca8                mpa_get_str_size
                0x0000000000004cae                mpa_set_str
                0x0000000000004e84                mpa_get_str
                0x0000000000004ed8                mpa_set_oct_str
                0x0000000000004f74                mpa_get_oct_str
 .text          0x000000000000504c       0x38 /home/yin/imx-optee/imx-optee-os/out/arm-plat-imx/export-ta_arm32/lib/libutee.a(assert.o)
                0x000000000000504c                _assert_log
                0x0000000000005074                _assert_break
 .text          0x0000000000005084        0x4 ./user_ta_header.o
                0x0000000000005084                tahead_get_trace_level
 .text          0x0000000000005088        0x4 /home/yin/imx-optee/imx-optee-os/out/arm-plat-imx/export-ta_arm32/lib/libutee.a(tee_api_panic.o)
                0x0000000000005088                TEE_Panic
 .text          0x000000000000508c       0x2c /home/yin/imx-optee/imx-optee-os/out/arm-plat-imx/export-ta_arm32/lib/libutils.a(snprintf.o)
                0x000000000000508c                snprintf
                0x00000000000050aa                vsnprintf
 .text          0x00000000000050b8       0x1e /home/yin/imx-optee/imx-optee-os/out/arm-plat-imx/export-ta_arm32/lib/libutils.a(memcmp.o)
                0x00000000000050b8                memcmp
 .text          0x00000000000050d6       0x16 /home/yin/imx-optee/imx-optee-os/out/arm-plat-imx/export-ta_arm32/lib/libutils.a(memcpy.o)
                0x00000000000050d6                memcpy
 .text          0x00000000000050ec       0x34 /home/yin/imx-optee/imx-optee-os/out/arm-plat-imx/export-ta_arm32/lib/libutils.a(memmove.o)
                0x00000000000050ec                memmove
 .text          0x0000000000005120       0x10 /home/yin/imx-optee/imx-optee-os/out/arm-plat-imx/export-ta_arm32/lib/libutils.a(memset.o)
                0x0000000000005120                memset
 .text          0x0000000000005130       0x10 /home/yin/imx-optee/imx-optee-os/out/arm-plat-imx/export-ta_arm32/lib/libutils.a(strlen.o)
                0x0000000000005130                strlen
 .text          0x0000000000005140      0x1b6 /home/yin/imx-optee/imx-optee-os/out/arm-plat-imx/export-ta_arm32/lib/libutils.a(arm32_aeabi_divmod.o)
                0x000000000000518a                __aeabi_uidiv
                0x00000000000051aa                __aeabi_uimod
                0x00000000000051ca                __aeabi_uidivmod
                0x00000000000051f0                __aeabi_idiv
                0x0000000000005238                __aeabi_imod
                0x00000000000052a8                __aeabi_idivmod
 .text          0x00000000000052f6       0x2c /home/yin/imx-optee/imx-optee-os/out/arm-plat-imx/export-ta_arm32/lib/libutils.a(buf_compare_ct.o)
                0x00000000000052f6                buf_compare_ct
 .text          0x0000000000005322        0x6 /home/yin/imx-optee/imx-optee-os/out/arm-plat-imx/export-ta_arm32/lib/libutils.a(aeabi_unwind.o)
                0x0000000000005322                __aeabi_unwind_cpp_pr0
                0x0000000000005324                __aeabi_unwind_cpp_pr1
                0x0000000000005326                __aeabi_unwind_cpp_pr2
 .text          0x0000000000005328       0x1c /home/yin/imx-optee/imx-optee-os/out/arm-plat-imx/export-ta_arm32/lib/libutils.a(memchr.o)
                0x0000000000005328                memchr
 .text          0x0000000000005344      0x160 /home/yin/imx-optee/imx-optee-os/out/arm-plat-imx/export-ta_arm32/lib/libutils.a(arm32_aeabi_ldivmod.o)
                0x0000000000005344                __ul_divmod
                0x00000000000053b8                __l_divmod
 .text          0x00000000000054a4       0x76 /home/yin/imx-optee/imx-optee-os/out/arm-plat-imx/export-ta_arm32/lib/libmpa.a(mpa_conv.o)
                0x00000000000054a4                mpa_set_S32
                0x00000000000054c0                mpa_get_S32
                0x0000000000005502                mpa_set_word
                0x000000000000550e                mpa_get_word
 .text          0x000000000000551a      0x588 /home/yin/imx-optee/imx-optee-os/out/arm-plat-imx/export-ta_arm32/lib/libmpa.a(mpa_div.o)
                0x000000000000551a                __mpa_div_dword
                0x0000000000005574                __mpa_div_q_r_internal_word
                0x0000000000005632                __mpa_div_q_r
                0x0000000000005a14                mpa_div
 .text          0x0000000000005aa2      0x54a /home/yin/imx-optee/imx-optee-os/out/arm-plat-imx/export-ta_arm32/lib/libmpa.a(mpa_gcd.o)
                0x0000000000005e08                mpa_gcd
                0x0000000000005eb2                mpa_extended_gcd
 .text          0x0000000000005fec       0x42 /home/yin/imx-optee/imx-optee-os/out/arm-plat-imx/export-ta_arm32/lib/libmpa.a(mpa_mem_static.o)
                0x0000000000005fec                mpa_alloc_static_temp_var_size
                0x0000000000006014                mpa_alloc_static_temp_var
                0x000000000000601e                mpa_free_static_temp_var
 .text          0x000000000000602e      0x1f4 /home/yin/imx-optee/imx-optee-os/out/arm-plat-imx/export-ta_arm32/lib/libmpa.a(mpa_mul.o)
                0x000000000000602e                __mpa_mul_add_word
                0x000000000000603e                __mpa_mul_add_word_cum
                0x0000000000006056                __mpa_abs_mul_word
                0x00000000000060a6                __mpa_abs_mul
                0x0000000000006134                mpa_mul
                0x00000000000061b6                mpa_mul_word
 .text          0x0000000000006222       0xd6 /home/yin/imx-optee/imx-optee-os/out/arm-plat-imx/export-ta_arm32/lib/libmpa.a(mpa_random.o)
                0x0000000000006222                mpa_get_random
                0x00000000000062c2                mpa_get_random_digits
 .text          0x00000000000062f8      0x25a /home/yin/imx-optee/imx-optee-os/out/arm-plat-imx/export-ta_arm32/lib/libmpa.a(mpa_shift.o)
                0x00000000000062f8                __mpa_shift_words_left
                0x0000000000006344                __mpa_shift_words_right
                0x0000000000006388                mpa_shift_left
                0x000000000000647c                mpa_shift_right
 .text          0x0000000000006552      0x57e /home/yin/imx-optee/imx-optee-os/out/arm-plat-imx/export-ta_arm32/lib/libmpa.a(mpa_addsub.o)
                0x0000000000006552                __mpa_full_adder
                0x000000000000656a                __mpa_full_sub
                0x0000000000006582                __mpa_full_adder_ackum
                0x000000000000659c                __mpa_abs_add
                0x0000000000006646                __mpa_abs_add_ackum
                0x00000000000066ba                __mpa_abs_sub
                0x000000000000674e                mpa_add
                0x000000000000683c                mpa_sub
                0x0000000000006940                mpa_neg
                0x0000000000006950                mpa_add_word
                0x0000000000006a0e                mpa_sub_word
 .text          0x0000000000006ad0      0x10c /home/yin/imx-optee/imx-optee-os/out/arm-plat-imx/export-ta_arm32/lib/libmpa.a(mpa_cmp.o)
                0x0000000000006ad0                __mpa_abs_cmp
                0x0000000000006b22                __mpa_abs_greater_than
                0x0000000000006b32                __mpa_abs_less_than
                0x0000000000006b3c                mpa_cmp
                0x0000000000006b82                mpa_cmp_short
 .text          0x0000000000006bdc       0x48 /home/yin/imx-optee/imx-optee-os/out/arm-plat-imx/export-ta_arm32/lib/libmpa.a(mpa_init.o)
                0x0000000000006bdc                mpa_init_static
                0x0000000000006bee                mpa_init_static_fmm_context
 .text          0x0000000000006c24      0x180 /home/yin/imx-optee/imx-optee-os/out/arm-plat-imx/export-ta_arm32/lib/libmpa.a(mpa_modulus.o)
                0x0000000000006c24                mpa_mod
                0x0000000000006c3a                mpa_add_mod
                0x0000000000006c7c                mpa_sub_mod
                0x0000000000006cbe                mpa_mul_mod
                0x0000000000006d00                mpa_inv_mod
 .text          0x0000000000006da4        0x0 /home/yin/imx-optee/imx-optee-os/out/arm-plat-imx/export-ta_arm32/lib/libutee.a(gprof_a32.o)
 .text          0x0000000000006da4        0x0 /home/yin/imx-optee/imx-optee-os/out/arm-plat-imx/export-ta_arm32/lib/libutils.a(arm32_aeabi_divmod_a32.o)
 .text          0x0000000000006da4        0x0 /home/yin/imx-optee/imx-optee-os/out/arm-plat-imx/export-ta_arm32/lib/libutils.a(arm32_aeabi_ldivmod_a32.o)
 *fill*         0x0000000000006da4        0x4 
 .text.__stub   0x0000000000006da8       0x40 linker stubs
 *(SORT(.stub))
 *(SORT(.glue_7))
 .glue_7        0x0000000000006de8        0x0 linker stubs
 *(SORT(.glue_7t))
 .glue_7t       0x0000000000006de8        0x0 linker stubs
 *(SORT(.gnu.linkonce.t.*))
 *(SORT(.vfp11_veneer))
 .vfp11_veneer  0x0000000000006de8        0x0 linker stubs
                [!provide]                        PROVIDE (__gnu_mcount_nc, __utee_mcount)
                0x0000000000006de8                __text_end = .

.v4_bx          0x0000000000006de8        0x0
 .v4_bx         0x0000000000006de8        0x0 linker stubs

.iplt           0x0000000000006de8        0x0
 .iplt          0x0000000000006de8        0x0 ./hotp_ta.o

.plt            0x0000000000006de8        0x0
 *(SORT(.plt))
 .plt           0x0000000000006de8        0x0 ./hotp_ta.o

.eh_frame
 *(SORT(.eh_frame))

.rodata         0x0000000000006de8     0x1553
 *(SORT(.gnu.linkonce.r.*))
 *(SORT(.rodata) SORT(.rodata.*))
 .rodata.user_ta_header.c
                0x0000000000006de8       0x1b ./user_ta_header.o
                0x0000000000006de8                ta_num_props
                0x0000000000006dfc                ta_heap_size
                0x0000000000006e00                trace_ext_prefix
 *fill*         0x0000000000006e03        0x1 
 .rodata.lib/libmpa/mpa_misc.c
                0x0000000000006e04       0x28 /home/yin/imx-optee/imx-optee-os/out/arm-plat-imx/export-ta_arm32/lib/libmpa.a(mpa_misc.o)
                0x0000000000006e04                const_one
                0x0000000000006e10                Const_1_LShift_Base
                0x0000000000006e20                const_largest_deci_base
 .rodata.lib/libmpa/mpa_primetest.c
                0x0000000000006e2c      0xd30 /home/yin/imx-optee/imx-optee-os/out/arm-plat-imx/export-ta_arm32/lib/libmpa.a(mpa_primetest.o)
                0x0000000000006e2c                PRIME_TABLE
                0x0000000000007b54                NR_STORED_PRIMES
                0x0000000000007b58                MAX_TABULATED_PRIME
 .rodata.hotp_ta.c
                0x0000000000007b5c       0x27 ./hotp_ta.o
 .rodata.str1.1.hotp_ta.c
                0x0000000000007b83       0x4b ./hotp_ta.o
 .rodata.str1.1.user_ta_header.c
                0x0000000000007bce       0xff ./user_ta_header.o
 .rodata.str1.1.lib/libutee/tee_api_arith.c
                0x0000000000007ccd       0x5b /home/yin/imx-optee/imx-optee-os/out/arm-plat-imx/export-ta_arm32/lib/libutee.a(tee_api_arith.o)
 .rodata.lib/libutee/tee_api.c
                0x0000000000007d28        0xb /home/yin/imx-optee/imx-optee-os/out/arm-plat-imx/export-ta_arm32/lib/libutee.a(tee_api.o)
 .rodata.str1.1.lib/libutee/tee_api.c
                0x0000000000007d33       0x11 /home/yin/imx-optee/imx-optee-os/out/arm-plat-imx/export-ta_arm32/lib/libutee.a(tee_api.o)
 .rodata.str1.1.lib/libutee/trace_ext.c
                0x0000000000007d44       0x11 /home/yin/imx-optee/imx-optee-os/out/arm-plat-imx/export-ta_arm32/lib/libutee.a(trace_ext.o)
                                          0x2 (size before relaxing)
 .rodata.lib/libutils/isoc/bget_malloc.c
                0x0000000000007d44       0x83 /home/yin/imx-optee/imx-optee-os/out/arm-plat-imx/export-ta_arm32/lib/libutils.a(bget_malloc.o)
 .rodata.str1.1.lib/libutils/isoc/bget_malloc.c
                0x0000000000007dc7      0x3e1 /home/yin/imx-optee/imx-optee-os/out/arm-plat-imx/export-ta_arm32/lib/libutils.a(bget_malloc.o)
                                        0x3ea (size before relaxing)
 .rodata.lib/libutils/ext/snprintk.c
                0x00000000000081a8       0x22 /home/yin/imx-optee/imx-optee-os/out/arm-plat-imx/export-ta_arm32/lib/libutils.a(snprintk.o)
 .rodata.str1.1.lib/libutils/ext/snprintk.c
                0x00000000000081ca       0x38 /home/yin/imx-optee/imx-optee-os/out/arm-plat-imx/export-ta_arm32/lib/libutils.a(snprintk.o)
 .rodata.lib/libutils/ext/trace.c
                0x0000000000008202        0xf /home/yin/imx-optee/imx-optee-os/out/arm-plat-imx/export-ta_arm32/lib/libutils.a(trace.o)
 .rodata.str1.1.lib/libutils/ext/trace.c
                0x0000000000008211       0x3a /home/yin/imx-optee/imx-optee-os/out/arm-plat-imx/export-ta_arm32/lib/libutils.a(trace.o)
                                         0x3d (size before relaxing)
 .rodata.lib/libutils/ext/mempool.c
                0x000000000000824b       0x13 /home/yin/imx-optee/imx-optee-os/out/arm-plat-imx/export-ta_arm32/lib/libutils.a(mempool.o)
 .rodata.str1.1.lib/libutils/ext/mempool.c
                0x000000000000825e       0x3f /home/yin/imx-optee/imx-optee-os/out/arm-plat-imx/export-ta_arm32/lib/libutils.a(mempool.o)
 .rodata.lib/libmpa/mpa_io.c
                0x000000000000829d       0x18 /home/yin/imx-optee/imx-optee-os/out/arm-plat-imx/export-ta_arm32/lib/libmpa.a(mpa_io.o)
 .rodata.str1.1.lib/libmpa/mpa_io.c
                0x00000000000082b5       0x5f /home/yin/imx-optee/imx-optee-os/out/arm-plat-imx/export-ta_arm32/lib/libmpa.a(mpa_io.o)
 .rodata.str1.1.lib/libutee/assert.c
                0x0000000000008314       0x27 /home/yin/imx-optee/imx-optee-os/out/arm-plat-imx/export-ta_arm32/lib/libutee.a(assert.o)

.ARM.extab      0x000000000000833c       0xfc
 .ARM.extab     0x000000000000833c        0x0 ./hotp_ta.o
 .ARM.extab     0x000000000000833c        0x0 ./user_ta_header.o
 .ARM.extab     0x000000000000833c       0x30 /home/yin/imx-optee/imx-optee-os/out/arm-plat-imx/export-ta_arm32/lib/libutee.a(tee_api_objects.o)
 .ARM.extab     0x000000000000836c        0xc /home/yin/imx-optee/imx-optee-os/out/arm-plat-imx/export-ta_arm32/lib/libutee.a(tee_api_operations.o)
 .ARM.extab     0x0000000000008378        0x0 /home/yin/imx-optee/imx-optee-os/out/arm-plat-imx/export-ta_arm32/lib/libutee.a(tee_api_panic.o)
 .ARM.extab     0x0000000000008378        0x0 /home/yin/imx-optee/imx-optee-os/out/arm-plat-imx/export-ta_arm32/lib/libutee.a(user_ta_entry.o)
 .ARM.extab     0x0000000000008378       0x3c /home/yin/imx-optee/imx-optee-os/out/arm-plat-imx/export-ta_arm32/lib/libutee.a(tee_api_arith.o)
 .ARM.extab     0x00000000000083b4       0x24 /home/yin/imx-optee/imx-optee-os/out/arm-plat-imx/export-ta_arm32/lib/libutee.a(tee_api.o)
 .ARM.extab     0x00000000000083d8        0xc /home/yin/imx-optee/imx-optee-os/out/arm-plat-imx/export-ta_arm32/lib/libutee.a(trace_ext.o)
 .ARM.extab     0x00000000000083e4        0xc /home/yin/imx-optee/imx-optee-os/out/arm-plat-imx/export-ta_arm32/lib/libutils.a(bget_malloc.o)
 .ARM.extab     0x00000000000083f0        0xc /home/yin/imx-optee/imx-optee-os/out/arm-plat-imx/export-ta_arm32/lib/libutils.a(snprintf.o)
 .ARM.extab     0x00000000000083fc        0x0 /home/yin/imx-optee/imx-optee-os/out/arm-plat-imx/export-ta_arm32/lib/libutils.a(memcmp.o)
 .ARM.extab     0x00000000000083fc        0x0 /home/yin/imx-optee/imx-optee-os/out/arm-plat-imx/export-ta_arm32/lib/libutils.a(memcpy.o)
 .ARM.extab     0x00000000000083fc        0x0 /home/yin/imx-optee/imx-optee-os/out/arm-plat-imx/export-ta_arm32/lib/libutils.a(memmove.o)
 .ARM.extab     0x00000000000083fc        0x0 /home/yin/imx-optee/imx-optee-os/out/arm-plat-imx/export-ta_arm32/lib/libutils.a(memset.o)
 .ARM.extab     0x00000000000083fc        0x0 /home/yin/imx-optee/imx-optee-os/out/arm-plat-imx/export-ta_arm32/lib/libutils.a(strlen.o)
 .ARM.extab     0x00000000000083fc        0x0 /home/yin/imx-optee/imx-optee-os/out/arm-plat-imx/export-ta_arm32/lib/libutils.a(arm32_aeabi_divmod.o)
 .ARM.extab     0x00000000000083fc        0xc /home/yin/imx-optee/imx-optee-os/out/arm-plat-imx/export-ta_arm32/lib/libutils.a(snprintk.o)
 .ARM.extab     0x0000000000008408        0x0 /home/yin/imx-optee/imx-optee-os/out/arm-plat-imx/export-ta_arm32/lib/libutils.a(buf_compare_ct.o)
 .ARM.extab     0x0000000000008408        0xc /home/yin/imx-optee/imx-optee-os/out/arm-plat-imx/export-ta_arm32/lib/libutils.a(trace.o)
 .ARM.extab     0x0000000000008414        0x0 /home/yin/imx-optee/imx-optee-os/out/arm-plat-imx/export-ta_arm32/lib/libutils.a(mempool.o)
 .ARM.extab     0x0000000000008414        0x0 /home/yin/imx-optee/imx-optee-os/out/arm-plat-imx/export-ta_arm32/lib/libutils.a(aeabi_unwind.o)
 .ARM.extab     0x0000000000008414        0x0 /home/yin/imx-optee/imx-optee-os/out/arm-plat-imx/export-ta_arm32/lib/libutils.a(memchr.o)
 .ARM.extab     0x0000000000008414        0x0 /home/yin/imx-optee/imx-optee-os/out/arm-plat-imx/export-ta_arm32/lib/libutils.a(arm32_aeabi_ldivmod.o)
 .ARM.extab     0x0000000000008414        0x0 /home/yin/imx-optee/imx-optee-os/out/arm-plat-imx/export-ta_arm32/lib/libmpa.a(mpa_misc.o)
 .ARM.extab     0x0000000000008414        0x0 /home/yin/imx-optee/imx-optee-os/out/arm-plat-imx/export-ta_arm32/lib/libmpa.a(mpa_montgomery.o)
 .ARM.extab     0x0000000000008414        0x0 /home/yin/imx-optee/imx-optee-os/out/arm-plat-imx/export-ta_arm32/lib/libmpa.a(mpa_primetest.o)
 .ARM.extab     0x0000000000008414        0x0 /home/yin/imx-optee/imx-optee-os/out/arm-plat-imx/export-ta_arm32/lib/libmpa.a(mpa_conv.o)
 .ARM.extab     0x0000000000008414        0x0 /home/yin/imx-optee/imx-optee-os/out/arm-plat-imx/export-ta_arm32/lib/libmpa.a(mpa_div.o)
 .ARM.extab     0x0000000000008414        0x0 /home/yin/imx-optee/imx-optee-os/out/arm-plat-imx/export-ta_arm32/lib/libmpa.a(mpa_gcd.o)
 .ARM.extab     0x0000000000008414        0x0 /home/yin/imx-optee/imx-optee-os/out/arm-plat-imx/export-ta_arm32/lib/libmpa.a(mpa_mem_static.o)
 .ARM.extab     0x0000000000008414        0x0 /home/yin/imx-optee/imx-optee-os/out/arm-plat-imx/export-ta_arm32/lib/libmpa.a(mpa_mul.o)
 .ARM.extab     0x0000000000008414        0x0 /home/yin/imx-optee/imx-optee-os/out/arm-plat-imx/export-ta_arm32/lib/libmpa.a(mpa_random.o)
 .ARM.extab     0x0000000000008414        0x0 /home/yin/imx-optee/imx-optee-os/out/arm-plat-imx/export-ta_arm32/lib/libmpa.a(mpa_shift.o)
 .ARM.extab     0x0000000000008414        0x0 /home/yin/imx-optee/imx-optee-os/out/arm-plat-imx/export-ta_arm32/lib/libmpa.a(mpa_addsub.o)
 .ARM.extab     0x0000000000008414       0x18 /home/yin/imx-optee/imx-optee-os/out/arm-plat-imx/export-ta_arm32/lib/libmpa.a(mpa_cmp.o)
 .ARM.extab     0x000000000000842c        0x0 /home/yin/imx-optee/imx-optee-os/out/arm-plat-imx/export-ta_arm32/lib/libmpa.a(mpa_expmod.o)
 .ARM.extab     0x000000000000842c        0x0 /home/yin/imx-optee/imx-optee-os/out/arm-plat-imx/export-ta_arm32/lib/libmpa.a(mpa_init.o)
 .ARM.extab     0x000000000000842c        0x0 /home/yin/imx-optee/imx-optee-os/out/arm-plat-imx/export-ta_arm32/lib/libmpa.a(mpa_io.o)
 .ARM.extab     0x000000000000842c        0x0 /home/yin/imx-optee/imx-optee-os/out/arm-plat-imx/export-ta_arm32/lib/libmpa.a(mpa_modulus.o)
 .ARM.extab     0x000000000000842c        0xc /home/yin/imx-optee/imx-optee-os/out/arm-plat-imx/export-ta_arm32/lib/libutee.a(assert.o)

.gnu.version_d  0x0000000000008438        0x0
 .gnu.version_d
                0x0000000000008438        0x0 ./hotp_ta.o

.gnu.version    0x0000000000008438        0x0
 .gnu.version   0x0000000000008438        0x0 ./hotp_ta.o

.gnu.version_r  0x0000000000008438        0x0
 .gnu.version_r
                0x0000000000008438        0x0 ./hotp_ta.o

.ARM.extab.text.utee_panic
                0x0000000000008438        0xc
 .ARM.extab.text.utee_panic
                0x0000000000008438        0xc /home/yin/imx-optee/imx-optee-os/out/arm-plat-imx/export-ta_arm32/lib/libutee.a(utee_syscalls_a32.o)

.ARM.extab.text.utee_return
                0x0000000000008444        0x0
 .ARM.extab.text.utee_return
                0x0000000000008444        0x0 /home/yin/imx-optee/imx-optee-os/out/arm-plat-imx/export-ta_arm32/lib/libutee.a(utee_syscalls_a32.o)

.ARM.extab.text.utee_log
                0x0000000000008444        0x0
 .ARM.extab.text.utee_log
                0x0000000000008444        0x0 /home/yin/imx-optee/imx-optee-os/out/arm-plat-imx/export-ta_arm32/lib/libutee.a(utee_syscalls_a32.o)

.ARM.extab.text.__utee_panic
                0x0000000000008444        0x0
 .ARM.extab.text.__utee_panic
                0x0000000000008444        0x0 /home/yin/imx-optee/imx-optee-os/out/arm-plat-imx/export-ta_arm32/lib/libutee.a(utee_syscalls_a32.o)

.ARM.extab.text.utee_get_property
                0x0000000000008444        0x0
 .ARM.extab.text.utee_get_property
                0x0000000000008444        0x0 /home/yin/imx-optee/imx-optee-os/out/arm-plat-imx/export-ta_arm32/lib/libutee.a(utee_syscalls_a32.o)

.ARM.extab.text.utee_get_property_name_to_index
                0x0000000000008444        0x0
 .ARM.extab.text.utee_get_property_name_to_index
                0x0000000000008444        0x0 /home/yin/imx-optee/imx-optee-os/out/arm-plat-imx/export-ta_arm32/lib/libutee.a(utee_syscalls_a32.o)

.ARM.extab.text.utee_open_ta_session
                0x0000000000008444        0x0
 .ARM.extab.text.utee_open_ta_session
                0x0000000000008444        0x0 /home/yin/imx-optee/imx-optee-os/out/arm-plat-imx/export-ta_arm32/lib/libutee.a(utee_syscalls_a32.o)

.ARM.extab.text.utee_close_ta_session
                0x0000000000008444        0x0
 .ARM.extab.text.utee_close_ta_session
                0x0000000000008444        0x0 /home/yin/imx-optee/imx-optee-os/out/arm-plat-imx/export-ta_arm32/lib/libutee.a(utee_syscalls_a32.o)

.ARM.extab.text.utee_invoke_ta_command
                0x0000000000008444        0x0
 .ARM.extab.text.utee_invoke_ta_command
                0x0000000000008444        0x0 /home/yin/imx-optee/imx-optee-os/out/arm-plat-imx/export-ta_arm32/lib/libutee.a(utee_syscalls_a32.o)

.ARM.extab.text.utee_get_cancellation_flag
                0x0000000000008444        0x0
 .ARM.extab.text.utee_get_cancellation_flag
                0x0000000000008444        0x0 /home/yin/imx-optee/imx-optee-os/out/arm-plat-imx/export-ta_arm32/lib/libutee.a(utee_syscalls_a32.o)

.ARM.extab.text.utee_check_access_rights
                0x0000000000008444        0x0
 .ARM.extab.text.utee_check_access_rights
                0x0000000000008444        0x0 /home/yin/imx-optee/imx-optee-os/out/arm-plat-imx/export-ta_arm32/lib/libutee.a(utee_syscalls_a32.o)

.ARM.extab.text.utee_unmask_cancellation
                0x0000000000008444        0x0
 .ARM.extab.text.utee_unmask_cancellation
                0x0000000000008444        0x0 /home/yin/imx-optee/imx-optee-os/out/arm-plat-imx/export-ta_arm32/lib/libutee.a(utee_syscalls_a32.o)

.ARM.extab.text.utee_mask_cancellation
                0x0000000000008444        0x0
 .ARM.extab.text.utee_mask_cancellation
                0x0000000000008444        0x0 /home/yin/imx-optee/imx-optee-os/out/arm-plat-imx/export-ta_arm32/lib/libutee.a(utee_syscalls_a32.o)

.ARM.extab.text.utee_wait
                0x0000000000008444        0x0
 .ARM.extab.text.utee_wait
                0x0000000000008444        0x0 /home/yin/imx-optee/imx-optee-os/out/arm-plat-imx/export-ta_arm32/lib/libutee.a(utee_syscalls_a32.o)

.ARM.extab.text.utee_get_time
                0x0000000000008444        0x0
 .ARM.extab.text.utee_get_time
                0x0000000000008444        0x0 /home/yin/imx-optee/imx-optee-os/out/arm-plat-imx/export-ta_arm32/lib/libutee.a(utee_syscalls_a32.o)

.ARM.extab.text.utee_set_ta_time
                0x0000000000008444        0x0
 .ARM.extab.text.utee_set_ta_time
                0x0000000000008444        0x0 /home/yin/imx-optee/imx-optee-os/out/arm-plat-imx/export-ta_arm32/lib/libutee.a(utee_syscalls_a32.o)

.ARM.extab.text.utee_cryp_state_alloc
                0x0000000000008444        0x0
 .ARM.extab.text.utee_cryp_state_alloc
                0x0000000000008444        0x0 /home/yin/imx-optee/imx-optee-os/out/arm-plat-imx/export-ta_arm32/lib/libutee.a(utee_syscalls_a32.o)

.ARM.extab.text.utee_cryp_state_copy
                0x0000000000008444        0x0
 .ARM.extab.text.utee_cryp_state_copy
                0x0000000000008444        0x0 /home/yin/imx-optee/imx-optee-os/out/arm-plat-imx/export-ta_arm32/lib/libutee.a(utee_syscalls_a32.o)

.ARM.extab.text.utee_cryp_state_free
                0x0000000000008444        0x0
 .ARM.extab.text.utee_cryp_state_free
                0x0000000000008444        0x0 /home/yin/imx-optee/imx-optee-os/out/arm-plat-imx/export-ta_arm32/lib/libutee.a(utee_syscalls_a32.o)

.ARM.extab.text.utee_hash_init
                0x0000000000008444        0x0
 .ARM.extab.text.utee_hash_init
                0x0000000000008444        0x0 /home/yin/imx-optee/imx-optee-os/out/arm-plat-imx/export-ta_arm32/lib/libutee.a(utee_syscalls_a32.o)

.ARM.extab.text.utee_hash_update
                0x0000000000008444        0x0
 .ARM.extab.text.utee_hash_update
                0x0000000000008444        0x0 /home/yin/imx-optee/imx-optee-os/out/arm-plat-imx/export-ta_arm32/lib/libutee.a(utee_syscalls_a32.o)

.ARM.extab.text.utee_hash_final
                0x0000000000008444        0x0
 .ARM.extab.text.utee_hash_final
                0x0000000000008444        0x0 /home/yin/imx-optee/imx-optee-os/out/arm-plat-imx/export-ta_arm32/lib/libutee.a(utee_syscalls_a32.o)

.ARM.extab.text.utee_cipher_init
                0x0000000000008444        0x0
 .ARM.extab.text.utee_cipher_init
                0x0000000000008444        0x0 /home/yin/imx-optee/imx-optee-os/out/arm-plat-imx/export-ta_arm32/lib/libutee.a(utee_syscalls_a32.o)

.ARM.extab.text.utee_cipher_update
                0x0000000000008444        0x0
 .ARM.extab.text.utee_cipher_update
                0x0000000000008444        0x0 /home/yin/imx-optee/imx-optee-os/out/arm-plat-imx/export-ta_arm32/lib/libutee.a(utee_syscalls_a32.o)

.ARM.extab.text.utee_cipher_final
                0x0000000000008444        0x0
 .ARM.extab.text.utee_cipher_final
                0x0000000000008444        0x0 /home/yin/imx-optee/imx-optee-os/out/arm-plat-imx/export-ta_arm32/lib/libutee.a(utee_syscalls_a32.o)

.ARM.extab.text.utee_cryp_obj_get_info
                0x0000000000008444        0x0
 .ARM.extab.text.utee_cryp_obj_get_info
                0x0000000000008444        0x0 /home/yin/imx-optee/imx-optee-os/out/arm-plat-imx/export-ta_arm32/lib/libutee.a(utee_syscalls_a32.o)

.ARM.extab.text.utee_cryp_obj_restrict_usage
                0x0000000000008444        0x0
 .ARM.extab.text.utee_cryp_obj_restrict_usage
                0x0000000000008444        0x0 /home/yin/imx-optee/imx-optee-os/out/arm-plat-imx/export-ta_arm32/lib/libutee.a(utee_syscalls_a32.o)

.ARM.extab.text.utee_cryp_obj_get_attr
                0x0000000000008444        0x0
 .ARM.extab.text.utee_cryp_obj_get_attr
                0x0000000000008444        0x0 /home/yin/imx-optee/imx-optee-os/out/arm-plat-imx/export-ta_arm32/lib/libutee.a(utee_syscalls_a32.o)

.ARM.extab.text.utee_cryp_obj_alloc
                0x0000000000008444        0x0
 .ARM.extab.text.utee_cryp_obj_alloc
                0x0000000000008444        0x0 /home/yin/imx-optee/imx-optee-os/out/arm-plat-imx/export-ta_arm32/lib/libutee.a(utee_syscalls_a32.o)

.ARM.extab.text.utee_cryp_obj_close
                0x0000000000008444        0x0
 .ARM.extab.text.utee_cryp_obj_close
                0x0000000000008444        0x0 /home/yin/imx-optee/imx-optee-os/out/arm-plat-imx/export-ta_arm32/lib/libutee.a(utee_syscalls_a32.o)

.ARM.extab.text.utee_cryp_obj_reset
                0x0000000000008444        0x0
 .ARM.extab.text.utee_cryp_obj_reset
                0x0000000000008444        0x0 /home/yin/imx-optee/imx-optee-os/out/arm-plat-imx/export-ta_arm32/lib/libutee.a(utee_syscalls_a32.o)

.ARM.extab.text.utee_cryp_obj_populate
                0x0000000000008444        0x0
 .ARM.extab.text.utee_cryp_obj_populate
                0x0000000000008444        0x0 /home/yin/imx-optee/imx-optee-os/out/arm-plat-imx/export-ta_arm32/lib/libutee.a(utee_syscalls_a32.o)

.ARM.extab.text.utee_cryp_obj_copy
                0x0000000000008444        0x0
 .ARM.extab.text.utee_cryp_obj_copy
                0x0000000000008444        0x0 /home/yin/imx-optee/imx-optee-os/out/arm-plat-imx/export-ta_arm32/lib/libutee.a(utee_syscalls_a32.o)

.ARM.extab.text.utee_cryp_derive_key
                0x0000000000008444        0x0
 .ARM.extab.text.utee_cryp_derive_key
                0x0000000000008444        0x0 /home/yin/imx-optee/imx-optee-os/out/arm-plat-imx/export-ta_arm32/lib/libutee.a(utee_syscalls_a32.o)

.ARM.extab.text.utee_cryp_random_number_generate
                0x0000000000008444        0x0
 .ARM.extab.text.utee_cryp_random_number_generate
                0x0000000000008444        0x0 /home/yin/imx-optee/imx-optee-os/out/arm-plat-imx/export-ta_arm32/lib/libutee.a(utee_syscalls_a32.o)

.ARM.extab.text.utee_authenc_init
                0x0000000000008444        0x0
 .ARM.extab.text.utee_authenc_init
                0x0000000000008444        0x0 /home/yin/imx-optee/imx-optee-os/out/arm-plat-imx/export-ta_arm32/lib/libutee.a(utee_syscalls_a32.o)

.ARM.extab.text.utee_authenc_update_aad
                0x0000000000008444        0x0
 .ARM.extab.text.utee_authenc_update_aad
                0x0000000000008444        0x0 /home/yin/imx-optee/imx-optee-os/out/arm-plat-imx/export-ta_arm32/lib/libutee.a(utee_syscalls_a32.o)

.ARM.extab.text.utee_authenc_update_payload
                0x0000000000008444        0x0
 .ARM.extab.text.utee_authenc_update_payload
                0x0000000000008444        0x0 /home/yin/imx-optee/imx-optee-os/out/arm-plat-imx/export-ta_arm32/lib/libutee.a(utee_syscalls_a32.o)

.ARM.extab.text.utee_authenc_enc_final
                0x0000000000008444        0x0
 .ARM.extab.text.utee_authenc_enc_final
                0x0000000000008444        0x0 /home/yin/imx-optee/imx-optee-os/out/arm-plat-imx/export-ta_arm32/lib/libutee.a(utee_syscalls_a32.o)

.ARM.extab.text.utee_authenc_dec_final
                0x0000000000008444        0x0
 .ARM.extab.text.utee_authenc_dec_final
                0x0000000000008444        0x0 /home/yin/imx-optee/imx-optee-os/out/arm-plat-imx/export-ta_arm32/lib/libutee.a(utee_syscalls_a32.o)

.ARM.extab.text.utee_asymm_operate
                0x0000000000008444        0x0
 .ARM.extab.text.utee_asymm_operate
                0x0000000000008444        0x0 /home/yin/imx-optee/imx-optee-os/out/arm-plat-imx/export-ta_arm32/lib/libutee.a(utee_syscalls_a32.o)

.ARM.extab.text.utee_asymm_verify
                0x0000000000008444        0x0
 .ARM.extab.text.utee_asymm_verify
                0x0000000000008444        0x0 /home/yin/imx-optee/imx-optee-os/out/arm-plat-imx/export-ta_arm32/lib/libutee.a(utee_syscalls_a32.o)

.ARM.extab.text.utee_storage_obj_open
                0x0000000000008444        0x0
 .ARM.extab.text.utee_storage_obj_open
                0x0000000000008444        0x0 /home/yin/imx-optee/imx-optee-os/out/arm-plat-imx/export-ta_arm32/lib/libutee.a(utee_syscalls_a32.o)

.ARM.extab.text.utee_storage_obj_create
                0x0000000000008444        0x0
 .ARM.extab.text.utee_storage_obj_create
                0x0000000000008444        0x0 /home/yin/imx-optee/imx-optee-os/out/arm-plat-imx/export-ta_arm32/lib/libutee.a(utee_syscalls_a32.o)

.ARM.extab.text.utee_storage_obj_del
                0x0000000000008444        0x0
 .ARM.extab.text.utee_storage_obj_del
                0x0000000000008444        0x0 /home/yin/imx-optee/imx-optee-os/out/arm-plat-imx/export-ta_arm32/lib/libutee.a(utee_syscalls_a32.o)

.ARM.extab.text.utee_storage_obj_rename
                0x0000000000008444        0x0
 .ARM.extab.text.utee_storage_obj_rename
                0x0000000000008444        0x0 /home/yin/imx-optee/imx-optee-os/out/arm-plat-imx/export-ta_arm32/lib/libutee.a(utee_syscalls_a32.o)

.ARM.extab.text.utee_storage_alloc_enum
                0x0000000000008444        0x0
 .ARM.extab.text.utee_storage_alloc_enum
                0x0000000000008444        0x0 /home/yin/imx-optee/imx-optee-os/out/arm-plat-imx/export-ta_arm32/lib/libutee.a(utee_syscalls_a32.o)

.ARM.extab.text.utee_storage_free_enum
                0x0000000000008444        0x0
 .ARM.extab.text.utee_storage_free_enum
                0x0000000000008444        0x0 /home/yin/imx-optee/imx-optee-os/out/arm-plat-imx/export-ta_arm32/lib/libutee.a(utee_syscalls_a32.o)

.ARM.extab.text.utee_storage_reset_enum
                0x0000000000008444        0x0
 .ARM.extab.text.utee_storage_reset_enum
                0x0000000000008444        0x0 /home/yin/imx-optee/imx-optee-os/out/arm-plat-imx/export-ta_arm32/lib/libutee.a(utee_syscalls_a32.o)

.ARM.extab.text.utee_storage_start_enum
                0x0000000000008444        0x0
 .ARM.extab.text.utee_storage_start_enum
                0x0000000000008444        0x0 /home/yin/imx-optee/imx-optee-os/out/arm-plat-imx/export-ta_arm32/lib/libutee.a(utee_syscalls_a32.o)

.ARM.extab.text.utee_storage_next_enum
                0x0000000000008444        0x0
 .ARM.extab.text.utee_storage_next_enum
                0x0000000000008444        0x0 /home/yin/imx-optee/imx-optee-os/out/arm-plat-imx/export-ta_arm32/lib/libutee.a(utee_syscalls_a32.o)

.ARM.extab.text.utee_storage_obj_read
                0x0000000000008444        0x0
 .ARM.extab.text.utee_storage_obj_read
                0x0000000000008444        0x0 /home/yin/imx-optee/imx-optee-os/out/arm-plat-imx/export-ta_arm32/lib/libutee.a(utee_syscalls_a32.o)

.ARM.extab.text.utee_storage_obj_write
                0x0000000000008444        0x0
 .ARM.extab.text.utee_storage_obj_write
                0x0000000000008444        0x0 /home/yin/imx-optee/imx-optee-os/out/arm-plat-imx/export-ta_arm32/lib/libutee.a(utee_syscalls_a32.o)

.ARM.extab.text.utee_storage_obj_trunc
                0x0000000000008444        0x0
 .ARM.extab.text.utee_storage_obj_trunc
                0x0000000000008444        0x0 /home/yin/imx-optee/imx-optee-os/out/arm-plat-imx/export-ta_arm32/lib/libutee.a(utee_syscalls_a32.o)

.ARM.extab.text.utee_storage_obj_seek
                0x0000000000008444        0x0
 .ARM.extab.text.utee_storage_obj_seek
                0x0000000000008444        0x0 /home/yin/imx-optee/imx-optee-os/out/arm-plat-imx/export-ta_arm32/lib/libutee.a(utee_syscalls_a32.o)

.ARM.extab.text.utee_cryp_obj_generate_key
                0x0000000000008444        0x0
 .ARM.extab.text.utee_cryp_obj_generate_key
                0x0000000000008444        0x0 /home/yin/imx-optee/imx-optee-os/out/arm-plat-imx/export-ta_arm32/lib/libutee.a(utee_syscalls_a32.o)

.ARM.extab.text.utee_se_service_open
                0x0000000000008444        0x0
 .ARM.extab.text.utee_se_service_open
                0x0000000000008444        0x0 /home/yin/imx-optee/imx-optee-os/out/arm-plat-imx/export-ta_arm32/lib/libutee.a(utee_syscalls_a32.o)

.ARM.extab.text.utee_se_service_close
                0x0000000000008444        0x0
 .ARM.extab.text.utee_se_service_close
                0x0000000000008444        0x0 /home/yin/imx-optee/imx-optee-os/out/arm-plat-imx/export-ta_arm32/lib/libutee.a(utee_syscalls_a32.o)

.ARM.extab.text.utee_se_service_get_readers
                0x0000000000008444        0x0
 .ARM.extab.text.utee_se_service_get_readers
                0x0000000000008444        0x0 /home/yin/imx-optee/imx-optee-os/out/arm-plat-imx/export-ta_arm32/lib/libutee.a(utee_syscalls_a32.o)

.ARM.extab.text.utee_se_reader_get_prop
                0x0000000000008444        0x0
 .ARM.extab.text.utee_se_reader_get_prop
                0x0000000000008444        0x0 /home/yin/imx-optee/imx-optee-os/out/arm-plat-imx/export-ta_arm32/lib/libutee.a(utee_syscalls_a32.o)

.ARM.extab.text.utee_se_reader_get_name
                0x0000000000008444        0x0
 .ARM.extab.text.utee_se_reader_get_name
                0x0000000000008444        0x0 /home/yin/imx-optee/imx-optee-os/out/arm-plat-imx/export-ta_arm32/lib/libutee.a(utee_syscalls_a32.o)

.ARM.extab.text.utee_se_reader_open_session
                0x0000000000008444        0x0
 .ARM.extab.text.utee_se_reader_open_session
                0x0000000000008444        0x0 /home/yin/imx-optee/imx-optee-os/out/arm-plat-imx/export-ta_arm32/lib/libutee.a(utee_syscalls_a32.o)

.ARM.extab.text.utee_se_reader_close_sessions
                0x0000000000008444        0x0
 .ARM.extab.text.utee_se_reader_close_sessions
                0x0000000000008444        0x0 /home/yin/imx-optee/imx-optee-os/out/arm-plat-imx/export-ta_arm32/lib/libutee.a(utee_syscalls_a32.o)

.ARM.extab.text.utee_se_session_is_closed
                0x0000000000008444        0x0
 .ARM.extab.text.utee_se_session_is_closed
                0x0000000000008444        0x0 /home/yin/imx-optee/imx-optee-os/out/arm-plat-imx/export-ta_arm32/lib/libutee.a(utee_syscalls_a32.o)

.ARM.extab.text.utee_se_session_get_atr
                0x0000000000008444        0x0
 .ARM.extab.text.utee_se_session_get_atr
                0x0000000000008444        0x0 /home/yin/imx-optee/imx-optee-os/out/arm-plat-imx/export-ta_arm32/lib/libutee.a(utee_syscalls_a32.o)

.ARM.extab.text.utee_se_session_open_channel
                0x0000000000008444        0x0
 .ARM.extab.text.utee_se_session_open_channel
                0x0000000000008444        0x0 /home/yin/imx-optee/imx-optee-os/out/arm-plat-imx/export-ta_arm32/lib/libutee.a(utee_syscalls_a32.o)

.ARM.extab.text.utee_se_session_close
                0x0000000000008444        0x0
 .ARM.extab.text.utee_se_session_close
                0x0000000000008444        0x0 /home/yin/imx-optee/imx-optee-os/out/arm-plat-imx/export-ta_arm32/lib/libutee.a(utee_syscalls_a32.o)

.ARM.extab.text.utee_se_channel_select_next
                0x0000000000008444        0x0
 .ARM.extab.text.utee_se_channel_select_next
                0x0000000000008444        0x0 /home/yin/imx-optee/imx-optee-os/out/arm-plat-imx/export-ta_arm32/lib/libutee.a(utee_syscalls_a32.o)

.ARM.extab.text.utee_se_channel_get_select_resp
                0x0000000000008444        0x0
 .ARM.extab.text.utee_se_channel_get_select_resp
                0x0000000000008444        0x0 /home/yin/imx-optee/imx-optee-os/out/arm-plat-imx/export-ta_arm32/lib/libutee.a(utee_syscalls_a32.o)

.ARM.extab.text.utee_se_channel_transmit
                0x0000000000008444        0x0
 .ARM.extab.text.utee_se_channel_transmit
                0x0000000000008444        0x0 /home/yin/imx-optee/imx-optee-os/out/arm-plat-imx/export-ta_arm32/lib/libutee.a(utee_syscalls_a32.o)

.ARM.extab.text.utee_se_channel_close
                0x0000000000008444        0x0
 .ARM.extab.text.utee_se_channel_close
                0x0000000000008444        0x0 /home/yin/imx-optee/imx-optee-os/out/arm-plat-imx/export-ta_arm32/lib/libutee.a(utee_syscalls_a32.o)

.ARM.extab.text.utee_cache_operation
                0x0000000000008444        0x0
 .ARM.extab.text.utee_cache_operation
                0x0000000000008444        0x0 /home/yin/imx-optee/imx-optee-os/out/arm-plat-imx/export-ta_arm32/lib/libutee.a(utee_syscalls_a32.o)

.ARM.extab.text.unlikely
                0x0000000000008444        0xc
 .ARM.extab.text.unlikely
                0x0000000000008444        0xc /home/yin/imx-optee/imx-optee-os/out/arm-plat-imx/export-ta_arm32/lib/libutee.a(tee_api_arith.o)

.ARM.extab.text.ret_idivmod_values
                0x0000000000008450        0x0
 .ARM.extab.text.ret_idivmod_values
                0x0000000000008450        0x0 /home/yin/imx-optee/imx-optee-os/out/arm-plat-imx/export-ta_arm32/lib/libutils.a(arm32_aeabi_divmod_a32.o)

.ARM.extab.text.ret_uidivmod_values
                0x0000000000008450        0x0
 .ARM.extab.text.ret_uidivmod_values
                0x0000000000008450        0x0 /home/yin/imx-optee/imx-optee-os/out/arm-plat-imx/export-ta_arm32/lib/libutils.a(arm32_aeabi_divmod_a32.o)

.ARM.extab.text.__aeabi_ldivmod
                0x0000000000008450        0xc
 .ARM.extab.text.__aeabi_ldivmod
                0x0000000000008450        0xc /home/yin/imx-optee/imx-optee-os/out/arm-plat-imx/export-ta_arm32/lib/libutils.a(arm32_aeabi_ldivmod_a32.o)

.ARM.extab.text.__aeabi_uldivmod
                0x000000000000845c        0xc
 .ARM.extab.text.__aeabi_uldivmod
                0x000000000000845c        0xc /home/yin/imx-optee/imx-optee-os/out/arm-plat-imx/export-ta_arm32/lib/libutils.a(arm32_aeabi_ldivmod_a32.o)

.ARM.exidx      0x0000000000008468      0x648
 *(SORT(.ARM.exidx*) SORT(.gnu.linkonce.armexidx.*))
 .ARM.exidx     0x0000000000008468       0x10 ./hotp_ta.o
                                         0x28 (size before relaxing)
 .ARM.exidx     0x0000000000008908        0x8 ./user_ta_header.o
 .ARM.exidx     0x0000000000008478       0xd0 /home/yin/imx-optee/imx-optee-os/out/arm-plat-imx/export-ta_arm32/lib/libutee.a(tee_api_objects.o)
                                         0xf8 (size before relaxing)
 .ARM.exidx     0x0000000000008548       0xd8 /home/yin/imx-optee/imx-optee-os/out/arm-plat-imx/export-ta_arm32/lib/libutee.a(tee_api_operations.o)
                                         0xf0 (size before relaxing)
 .ARM.exidx     0x0000000000008910        0x0 /home/yin/imx-optee/imx-optee-os/out/arm-plat-imx/export-ta_arm32/lib/libutee.a(tee_api_panic.o)
                                          0x8 (size before relaxing)
 .ARM.exidx     0x0000000000008620       0x18 /home/yin/imx-optee/imx-optee-os/out/arm-plat-imx/export-ta_arm32/lib/libutee.a(user_ta_entry.o)
 .ARM.exidx.text.utee_panic
                0x0000000000008638        0x8 /home/yin/imx-optee/imx-optee-os/out/arm-plat-imx/export-ta_arm32/lib/libutee.a(utee_syscalls_a32.o)
 .ARM.exidx.text.utee_return
                0x0000000000008640        0x8 /home/yin/imx-optee/imx-optee-os/out/arm-plat-imx/export-ta_arm32/lib/libutee.a(utee_syscalls_a32.o)
 .ARM.exidx.text.utee_log
                0x0000000000008648        0x0 /home/yin/imx-optee/imx-optee-os/out/arm-plat-imx/export-ta_arm32/lib/libutee.a(utee_syscalls_a32.o)
                                          0x8 (size before relaxing)
 .ARM.exidx.text.__utee_panic
                0x0000000000008648        0x0 /home/yin/imx-optee/imx-optee-os/out/arm-plat-imx/export-ta_arm32/lib/libutee.a(utee_syscalls_a32.o)
                                          0x8 (size before relaxing)
 .ARM.exidx.text.utee_get_property
                0x0000000000008648        0x0 /home/yin/imx-optee/imx-optee-os/out/arm-plat-imx/export-ta_arm32/lib/libutee.a(utee_syscalls_a32.o)
                                          0x8 (size before relaxing)
 .ARM.exidx.text.utee_get_property_name_to_index
                0x0000000000008648        0x0 /home/yin/imx-optee/imx-optee-os/out/arm-plat-imx/export-ta_arm32/lib/libutee.a(utee_syscalls_a32.o)
                                          0x8 (size before relaxing)
 .ARM.exidx.text.utee_open_ta_session
                0x0000000000008648        0x0 /home/yin/imx-optee/imx-optee-os/out/arm-plat-imx/export-ta_arm32/lib/libutee.a(utee_syscalls_a32.o)
                                          0x8 (size before relaxing)
 .ARM.exidx.text.utee_close_ta_session
                0x0000000000008648        0x0 /home/yin/imx-optee/imx-optee-os/out/arm-plat-imx/export-ta_arm32/lib/libutee.a(utee_syscalls_a32.o)
                                          0x8 (size before relaxing)
 .ARM.exidx.text.utee_invoke_ta_command
                0x0000000000008648        0x0 /home/yin/imx-optee/imx-optee-os/out/arm-plat-imx/export-ta_arm32/lib/libutee.a(utee_syscalls_a32.o)
                                          0x8 (size before relaxing)
 .ARM.exidx.text.utee_get_cancellation_flag
                0x0000000000008648        0x0 /home/yin/imx-optee/imx-optee-os/out/arm-plat-imx/export-ta_arm32/lib/libutee.a(utee_syscalls_a32.o)
                                          0x8 (size before relaxing)
 .ARM.exidx.text.utee_check_access_rights
                0x0000000000008648        0x0 /home/yin/imx-optee/imx-optee-os/out/arm-plat-imx/export-ta_arm32/lib/libutee.a(utee_syscalls_a32.o)
                                          0x8 (size before relaxing)
 .ARM.exidx.text.utee_unmask_cancellation
                0x0000000000008648        0x0 /home/yin/imx-optee/imx-optee-os/out/arm-plat-imx/export-ta_arm32/lib/libutee.a(utee_syscalls_a32.o)
                                          0x8 (size before relaxing)
 .ARM.exidx.text.utee_mask_cancellation
                0x0000000000008648        0x0 /home/yin/imx-optee/imx-optee-os/out/arm-plat-imx/export-ta_arm32/lib/libutee.a(utee_syscalls_a32.o)
                                          0x8 (size before relaxing)
 .ARM.exidx.text.utee_wait
                0x0000000000008648        0x0 /home/yin/imx-optee/imx-optee-os/out/arm-plat-imx/export-ta_arm32/lib/libutee.a(utee_syscalls_a32.o)
                                          0x8 (size before relaxing)
 .ARM.exidx.text.utee_get_time
                0x0000000000008648        0x0 /home/yin/imx-optee/imx-optee-os/out/arm-plat-imx/export-ta_arm32/lib/libutee.a(utee_syscalls_a32.o)
                                          0x8 (size before relaxing)
 .ARM.exidx.text.utee_set_ta_time
                0x0000000000008648        0x0 /home/yin/imx-optee/imx-optee-os/out/arm-plat-imx/export-ta_arm32/lib/libutee.a(utee_syscalls_a32.o)
                                          0x8 (size before relaxing)
 .ARM.exidx.text.utee_cryp_state_alloc
                0x0000000000008648        0x0 /home/yin/imx-optee/imx-optee-os/out/arm-plat-imx/export-ta_arm32/lib/libutee.a(utee_syscalls_a32.o)
                                          0x8 (size before relaxing)
 .ARM.exidx.text.utee_cryp_state_copy
                0x0000000000008648        0x0 /home/yin/imx-optee/imx-optee-os/out/arm-plat-imx/export-ta_arm32/lib/libutee.a(utee_syscalls_a32.o)
                                          0x8 (size before relaxing)
 .ARM.exidx.text.utee_cryp_state_free
                0x0000000000008648        0x0 /home/yin/imx-optee/imx-optee-os/out/arm-plat-imx/export-ta_arm32/lib/libutee.a(utee_syscalls_a32.o)
                                          0x8 (size before relaxing)
 .ARM.exidx.text.utee_hash_init
                0x0000000000008648        0x0 /home/yin/imx-optee/imx-optee-os/out/arm-plat-imx/export-ta_arm32/lib/libutee.a(utee_syscalls_a32.o)
                                          0x8 (size before relaxing)
 .ARM.exidx.text.utee_hash_update
                0x0000000000008648        0x0 /home/yin/imx-optee/imx-optee-os/out/arm-plat-imx/export-ta_arm32/lib/libutee.a(utee_syscalls_a32.o)
                                          0x8 (size before relaxing)
 .ARM.exidx.text.utee_hash_final
                0x0000000000008648        0x0 /home/yin/imx-optee/imx-optee-os/out/arm-plat-imx/export-ta_arm32/lib/libutee.a(utee_syscalls_a32.o)
                                          0x8 (size before relaxing)
 .ARM.exidx.text.utee_cipher_init
                0x0000000000008648        0x0 /home/yin/imx-optee/imx-optee-os/out/arm-plat-imx/export-ta_arm32/lib/libutee.a(utee_syscalls_a32.o)
                                          0x8 (size before relaxing)
 .ARM.exidx.text.utee_cipher_update
                0x0000000000008648        0x0 /home/yin/imx-optee/imx-optee-os/out/arm-plat-imx/export-ta_arm32/lib/libutee.a(utee_syscalls_a32.o)
                                          0x8 (size before relaxing)
 .ARM.exidx.text.utee_cipher_final
                0x0000000000008648        0x0 /home/yin/imx-optee/imx-optee-os/out/arm-plat-imx/export-ta_arm32/lib/libutee.a(utee_syscalls_a32.o)
                                          0x8 (size before relaxing)
 .ARM.exidx.text.utee_cryp_obj_get_info
                0x0000000000008648        0x0 /home/yin/imx-optee/imx-optee-os/out/arm-plat-imx/export-ta_arm32/lib/libutee.a(utee_syscalls_a32.o)
                                          0x8 (size before relaxing)
 .ARM.exidx.text.utee_cryp_obj_restrict_usage
                0x0000000000008648        0x0 /home/yin/imx-optee/imx-optee-os/out/arm-plat-imx/export-ta_arm32/lib/libutee.a(utee_syscalls_a32.o)
                                          0x8 (size before relaxing)
 .ARM.exidx.text.utee_cryp_obj_get_attr
                0x0000000000008648        0x0 /home/yin/imx-optee/imx-optee-os/out/arm-plat-imx/export-ta_arm32/lib/libutee.a(utee_syscalls_a32.o)
                                          0x8 (size before relaxing)
 .ARM.exidx.text.utee_cryp_obj_alloc
                0x0000000000008648        0x0 /home/yin/imx-optee/imx-optee-os/out/arm-plat-imx/export-ta_arm32/lib/libutee.a(utee_syscalls_a32.o)
                                          0x8 (size before relaxing)
 .ARM.exidx.text.utee_cryp_obj_close
                0x0000000000008648        0x0 /home/yin/imx-optee/imx-optee-os/out/arm-plat-imx/export-ta_arm32/lib/libutee.a(utee_syscalls_a32.o)
                                          0x8 (size before relaxing)
 .ARM.exidx.text.utee_cryp_obj_reset
                0x0000000000008648        0x0 /home/yin/imx-optee/imx-optee-os/out/arm-plat-imx/export-ta_arm32/lib/libutee.a(utee_syscalls_a32.o)
                                          0x8 (size before relaxing)
 .ARM.exidx.text.utee_cryp_obj_populate
                0x0000000000008648        0x0 /home/yin/imx-optee/imx-optee-os/out/arm-plat-imx/export-ta_arm32/lib/libutee.a(utee_syscalls_a32.o)
                                          0x8 (size before relaxing)
 .ARM.exidx.text.utee_cryp_obj_copy
                0x0000000000008648        0x0 /home/yin/imx-optee/imx-optee-os/out/arm-plat-imx/export-ta_arm32/lib/libutee.a(utee_syscalls_a32.o)
                                          0x8 (size before relaxing)
 .ARM.exidx.text.utee_cryp_derive_key
                0x0000000000008648        0x0 /home/yin/imx-optee/imx-optee-os/out/arm-plat-imx/export-ta_arm32/lib/libutee.a(utee_syscalls_a32.o)
                                          0x8 (size before relaxing)
 .ARM.exidx.text.utee_cryp_random_number_generate
                0x0000000000008648        0x0 /home/yin/imx-optee/imx-optee-os/out/arm-plat-imx/export-ta_arm32/lib/libutee.a(utee_syscalls_a32.o)
                                          0x8 (size before relaxing)
 .ARM.exidx.text.utee_authenc_init
                0x0000000000008648        0x0 /home/yin/imx-optee/imx-optee-os/out/arm-plat-imx/export-ta_arm32/lib/libutee.a(utee_syscalls_a32.o)
                                          0x8 (size before relaxing)
 .ARM.exidx.text.utee_authenc_update_aad
                0x0000000000008648        0x0 /home/yin/imx-optee/imx-optee-os/out/arm-plat-imx/export-ta_arm32/lib/libutee.a(utee_syscalls_a32.o)
                                          0x8 (size before relaxing)
 .ARM.exidx.text.utee_authenc_update_payload
                0x0000000000008648        0x0 /home/yin/imx-optee/imx-optee-os/out/arm-plat-imx/export-ta_arm32/lib/libutee.a(utee_syscalls_a32.o)
                                          0x8 (size before relaxing)
 .ARM.exidx.text.utee_authenc_enc_final
                0x0000000000008648        0x0 /home/yin/imx-optee/imx-optee-os/out/arm-plat-imx/export-ta_arm32/lib/libutee.a(utee_syscalls_a32.o)
                                          0x8 (size before relaxing)
 .ARM.exidx.text.utee_authenc_dec_final
                0x0000000000008648        0x0 /home/yin/imx-optee/imx-optee-os/out/arm-plat-imx/export-ta_arm32/lib/libutee.a(utee_syscalls_a32.o)
                                          0x8 (size before relaxing)
 .ARM.exidx.text.utee_asymm_operate
                0x0000000000008648        0x0 /home/yin/imx-optee/imx-optee-os/out/arm-plat-imx/export-ta_arm32/lib/libutee.a(utee_syscalls_a32.o)
                                          0x8 (size before relaxing)
 .ARM.exidx.text.utee_asymm_verify
                0x0000000000008648        0x0 /home/yin/imx-optee/imx-optee-os/out/arm-plat-imx/export-ta_arm32/lib/libutee.a(utee_syscalls_a32.o)
                                          0x8 (size before relaxing)
 .ARM.exidx.text.utee_storage_obj_open
                0x0000000000008648        0x0 /home/yin/imx-optee/imx-optee-os/out/arm-plat-imx/export-ta_arm32/lib/libutee.a(utee_syscalls_a32.o)
                                          0x8 (size before relaxing)
 .ARM.exidx.text.utee_storage_obj_create
                0x0000000000008648        0x0 /home/yin/imx-optee/imx-optee-os/out/arm-plat-imx/export-ta_arm32/lib/libutee.a(utee_syscalls_a32.o)
                                          0x8 (size before relaxing)
 .ARM.exidx.text.utee_storage_obj_del
                0x0000000000008648        0x0 /home/yin/imx-optee/imx-optee-os/out/arm-plat-imx/export-ta_arm32/lib/libutee.a(utee_syscalls_a32.o)
                                          0x8 (size before relaxing)
 .ARM.exidx.text.utee_storage_obj_rename
                0x0000000000008648        0x0 /home/yin/imx-optee/imx-optee-os/out/arm-plat-imx/export-ta_arm32/lib/libutee.a(utee_syscalls_a32.o)
                                          0x8 (size before relaxing)
 .ARM.exidx.text.utee_storage_alloc_enum
                0x0000000000008648        0x0 /home/yin/imx-optee/imx-optee-os/out/arm-plat-imx/export-ta_arm32/lib/libutee.a(utee_syscalls_a32.o)
                                          0x8 (size before relaxing)
 .ARM.exidx.text.utee_storage_free_enum
                0x0000000000008648        0x0 /home/yin/imx-optee/imx-optee-os/out/arm-plat-imx/export-ta_arm32/lib/libutee.a(utee_syscalls_a32.o)
                                          0x8 (size before relaxing)
 .ARM.exidx.text.utee_storage_reset_enum
                0x0000000000008648        0x0 /home/yin/imx-optee/imx-optee-os/out/arm-plat-imx/export-ta_arm32/lib/libutee.a(utee_syscalls_a32.o)
                                          0x8 (size before relaxing)
 .ARM.exidx.text.utee_storage_start_enum
                0x0000000000008648        0x0 /home/yin/imx-optee/imx-optee-os/out/arm-plat-imx/export-ta_arm32/lib/libutee.a(utee_syscalls_a32.o)
                                          0x8 (size before relaxing)
 .ARM.exidx.text.utee_storage_next_enum
                0x0000000000008648        0x0 /home/yin/imx-optee/imx-optee-os/out/arm-plat-imx/export-ta_arm32/lib/libutee.a(utee_syscalls_a32.o)
                                          0x8 (size before relaxing)
 .ARM.exidx.text.utee_storage_obj_read
                0x0000000000008648        0x0 /home/yin/imx-optee/imx-optee-os/out/arm-plat-imx/export-ta_arm32/lib/libutee.a(utee_syscalls_a32.o)
                                          0x8 (size before relaxing)
 .ARM.exidx.text.utee_storage_obj_write
                0x0000000000008648        0x0 /home/yin/imx-optee/imx-optee-os/out/arm-plat-imx/export-ta_arm32/lib/libutee.a(utee_syscalls_a32.o)
                                          0x8 (size before relaxing)
 .ARM.exidx.text.utee_storage_obj_trunc
                0x0000000000008648        0x0 /home/yin/imx-optee/imx-optee-os/out/arm-plat-imx/export-ta_arm32/lib/libutee.a(utee_syscalls_a32.o)
                                          0x8 (size before relaxing)
 .ARM.exidx.text.utee_storage_obj_seek
                0x0000000000008648        0x0 /home/yin/imx-optee/imx-optee-os/out/arm-plat-imx/export-ta_arm32/lib/libutee.a(utee_syscalls_a32.o)
                                          0x8 (size before relaxing)
 .ARM.exidx.text.utee_cryp_obj_generate_key
                0x0000000000008648        0x0 /home/yin/imx-optee/imx-optee-os/out/arm-plat-imx/export-ta_arm32/lib/libutee.a(utee_syscalls_a32.o)
                                          0x8 (size before relaxing)
 .ARM.exidx.text.utee_se_service_open
                0x0000000000008648        0x0 /home/yin/imx-optee/imx-optee-os/out/arm-plat-imx/export-ta_arm32/lib/libutee.a(utee_syscalls_a32.o)
                                          0x8 (size before relaxing)
 .ARM.exidx.text.utee_se_service_close
                0x0000000000008648        0x0 /home/yin/imx-optee/imx-optee-os/out/arm-plat-imx/export-ta_arm32/lib/libutee.a(utee_syscalls_a32.o)
                                          0x8 (size before relaxing)
 .ARM.exidx.text.utee_se_service_get_readers
                0x0000000000008648        0x0 /home/yin/imx-optee/imx-optee-os/out/arm-plat-imx/export-ta_arm32/lib/libutee.a(utee_syscalls_a32.o)
                                          0x8 (size before relaxing)
 .ARM.exidx.text.utee_se_reader_get_prop
                0x0000000000008648        0x0 /home/yin/imx-optee/imx-optee-os/out/arm-plat-imx/export-ta_arm32/lib/libutee.a(utee_syscalls_a32.o)
                                          0x8 (size before relaxing)
 .ARM.exidx.text.utee_se_reader_get_name
                0x0000000000008648        0x0 /home/yin/imx-optee/imx-optee-os/out/arm-plat-imx/export-ta_arm32/lib/libutee.a(utee_syscalls_a32.o)
                                          0x8 (size before relaxing)
 .ARM.exidx.text.utee_se_reader_open_session
                0x0000000000008648        0x0 /home/yin/imx-optee/imx-optee-os/out/arm-plat-imx/export-ta_arm32/lib/libutee.a(utee_syscalls_a32.o)
                                          0x8 (size before relaxing)
 .ARM.exidx.text.utee_se_reader_close_sessions
                0x0000000000008648        0x0 /home/yin/imx-optee/imx-optee-os/out/arm-plat-imx/export-ta_arm32/lib/libutee.a(utee_syscalls_a32.o)
                                          0x8 (size before relaxing)
 .ARM.exidx.text.utee_se_session_is_closed
                0x0000000000008648        0x0 /home/yin/imx-optee/imx-optee-os/out/arm-plat-imx/export-ta_arm32/lib/libutee.a(utee_syscalls_a32.o)
                                          0x8 (size before relaxing)
 .ARM.exidx.text.utee_se_session_get_atr
                0x0000000000008648        0x0 /home/yin/imx-optee/imx-optee-os/out/arm-plat-imx/export-ta_arm32/lib/libutee.a(utee_syscalls_a32.o)
                                          0x8 (size before relaxing)
 .ARM.exidx.text.utee_se_session_open_channel
                0x0000000000008648        0x0 /home/yin/imx-optee/imx-optee-os/out/arm-plat-imx/export-ta_arm32/lib/libutee.a(utee_syscalls_a32.o)
                                          0x8 (size before relaxing)
 .ARM.exidx.text.utee_se_session_close
                0x0000000000008648        0x0 /home/yin/imx-optee/imx-optee-os/out/arm-plat-imx/export-ta_arm32/lib/libutee.a(utee_syscalls_a32.o)
                                          0x8 (size before relaxing)
 .ARM.exidx.text.utee_se_channel_select_next
                0x0000000000008648        0x0 /home/yin/imx-optee/imx-optee-os/out/arm-plat-imx/export-ta_arm32/lib/libutee.a(utee_syscalls_a32.o)
                                          0x8 (size before relaxing)
 .ARM.exidx.text.utee_se_channel_get_select_resp
                0x0000000000008648        0x0 /home/yin/imx-optee/imx-optee-os/out/arm-plat-imx/export-ta_arm32/lib/libutee.a(utee_syscalls_a32.o)
                                          0x8 (size before relaxing)
 .ARM.exidx.text.utee_se_channel_transmit
                0x0000000000008648        0x0 /home/yin/imx-optee/imx-optee-os/out/arm-plat-imx/export-ta_arm32/lib/libutee.a(utee_syscalls_a32.o)
                                          0x8 (size before relaxing)
 .ARM.exidx.text.utee_se_channel_close
                0x0000000000008648        0x0 /home/yin/imx-optee/imx-optee-os/out/arm-plat-imx/export-ta_arm32/lib/libutee.a(utee_syscalls_a32.o)
                                          0x8 (size before relaxing)
 .ARM.exidx.text.utee_cache_operation
                0x0000000000008648        0x8 /home/yin/imx-optee/imx-optee-os/out/arm-plat-imx/export-ta_arm32/lib/libutee.a(utee_syscalls_a32.o)
 .ARM.exidx.text.unlikely
                0x0000000000008710        0x8 /home/yin/imx-optee/imx-optee-os/out/arm-plat-imx/export-ta_arm32/lib/libutee.a(tee_api_arith.o)
 .ARM.exidx     0x0000000000008650       0xc0 /home/yin/imx-optee/imx-optee-os/out/arm-plat-imx/export-ta_arm32/lib/libutee.a(tee_api_arith.o)
                                        0x108 (size before relaxing)
 .ARM.exidx     0x0000000000008718       0x68 /home/yin/imx-optee/imx-optee-os/out/arm-plat-imx/export-ta_arm32/lib/libutee.a(tee_api.o)
                                         0xc8 (size before relaxing)
 .ARM.exidx     0x0000000000008780       0x28 /home/yin/imx-optee/imx-optee-os/out/arm-plat-imx/export-ta_arm32/lib/libutee.a(trace_ext.o)
 .ARM.exidx     0x00000000000087a8       0x50 /home/yin/imx-optee/imx-optee-os/out/arm-plat-imx/export-ta_arm32/lib/libutils.a(bget_malloc.o)
                                         0x70 (size before relaxing)
 .ARM.exidx     0x0000000000008910       0x10 /home/yin/imx-optee/imx-optee-os/out/arm-plat-imx/export-ta_arm32/lib/libutils.a(snprintf.o)
 .ARM.exidx     0x0000000000008920        0x8 /home/yin/imx-optee/imx-optee-os/out/arm-plat-imx/export-ta_arm32/lib/libutils.a(memcmp.o)
 .ARM.exidx     0x0000000000008928        0x0 /home/yin/imx-optee/imx-optee-os/out/arm-plat-imx/export-ta_arm32/lib/libutils.a(memcpy.o)
                                          0x8 (size before relaxing)
 .ARM.exidx     0x0000000000008928        0x0 /home/yin/imx-optee/imx-optee-os/out/arm-plat-imx/export-ta_arm32/lib/libutils.a(memmove.o)
                                          0x8 (size before relaxing)
 .ARM.exidx     0x0000000000008928        0x8 /home/yin/imx-optee/imx-optee-os/out/arm-plat-imx/export-ta_arm32/lib/libutils.a(memset.o)
 .ARM.exidx     0x0000000000008930        0x0 /home/yin/imx-optee/imx-optee-os/out/arm-plat-imx/export-ta_arm32/lib/libutils.a(strlen.o)
                                          0x8 (size before relaxing)
 .ARM.exidx     0x0000000000008930       0x10 /home/yin/imx-optee/imx-optee-os/out/arm-plat-imx/export-ta_arm32/lib/libutils.a(arm32_aeabi_divmod.o)
                                         0x38 (size before relaxing)
 .ARM.exidx     0x00000000000087f8       0x18 /home/yin/imx-optee/imx-optee-os/out/arm-plat-imx/export-ta_arm32/lib/libutils.a(snprintk.o)
 .ARM.exidx     0x0000000000008940        0x8 /home/yin/imx-optee/imx-optee-os/out/arm-plat-imx/export-ta_arm32/lib/libutils.a(buf_compare_ct.o)
 .ARM.exidx     0x0000000000008810       0x20 /home/yin/imx-optee/imx-optee-os/out/arm-plat-imx/export-ta_arm32/lib/libutils.a(trace.o)
                                         0x28 (size before relaxing)
 .ARM.exidx     0x0000000000008830       0x18 /home/yin/imx-optee/imx-optee-os/out/arm-plat-imx/export-ta_arm32/lib/libutils.a(mempool.o)
 .ARM.exidx     0x0000000000008948        0x8 /home/yin/imx-optee/imx-optee-os/out/arm-plat-imx/export-ta_arm32/lib/libutils.a(aeabi_unwind.o)
                                         0x18 (size before relaxing)
 .ARM.exidx     0x0000000000008950        0x8 /home/yin/imx-optee/imx-optee-os/out/arm-plat-imx/export-ta_arm32/lib/libutils.a(memchr.o)
 .ARM.exidx.text.ret_idivmod_values
                0x0000000000008848        0x8 /home/yin/imx-optee/imx-optee-os/out/arm-plat-imx/export-ta_arm32/lib/libutils.a(arm32_aeabi_divmod_a32.o)
 .ARM.exidx.text.ret_uidivmod_values
                0x0000000000008850        0x0 /home/yin/imx-optee/imx-optee-os/out/arm-plat-imx/export-ta_arm32/lib/libutils.a(arm32_aeabi_divmod_a32.o)
                                          0x8 (size before relaxing)
 .ARM.exidx.text.__aeabi_ldivmod
                0x0000000000008850        0x8 /home/yin/imx-optee/imx-optee-os/out/arm-plat-imx/export-ta_arm32/lib/libutils.a(arm32_aeabi_ldivmod_a32.o)
 .ARM.exidx.text.__aeabi_uldivmod
                0x0000000000008858        0x8 /home/yin/imx-optee/imx-optee-os/out/arm-plat-imx/export-ta_arm32/lib/libutils.a(arm32_aeabi_ldivmod_a32.o)
 .ARM.exidx     0x0000000000008958        0x8 /home/yin/imx-optee/imx-optee-os/out/arm-plat-imx/export-ta_arm32/lib/libutils.a(arm32_aeabi_ldivmod.o)
                                         0x10 (size before relaxing)
 .ARM.exidx     0x0000000000008860       0x28 /home/yin/imx-optee/imx-optee-os/out/arm-plat-imx/export-ta_arm32/lib/libmpa.a(mpa_misc.o)
                                         0x48 (size before relaxing)
 .ARM.exidx     0x0000000000008888       0x28 /home/yin/imx-optee/imx-optee-os/out/arm-plat-imx/export-ta_arm32/lib/libmpa.a(mpa_montgomery.o)
 .ARM.exidx     0x00000000000088b0        0x8 /home/yin/imx-optee/imx-optee-os/out/arm-plat-imx/export-ta_arm32/lib/libmpa.a(mpa_primetest.o)
 .ARM.exidx     0x0000000000008960        0x8 /home/yin/imx-optee/imx-optee-os/out/arm-plat-imx/export-ta_arm32/lib/libmpa.a(mpa_conv.o)
                                         0x20 (size before relaxing)
 .ARM.exidx     0x0000000000008968       0x20 /home/yin/imx-optee/imx-optee-os/out/arm-plat-imx/export-ta_arm32/lib/libmpa.a(mpa_div.o)
 .ARM.exidx     0x0000000000008988       0x28 /home/yin/imx-optee/imx-optee-os/out/arm-plat-imx/export-ta_arm32/lib/libmpa.a(mpa_gcd.o)
 .ARM.exidx     0x00000000000089b0       0x10 /home/yin/imx-optee/imx-optee-os/out/arm-plat-imx/export-ta_arm32/lib/libmpa.a(mpa_mem_static.o)
                                         0x18 (size before relaxing)
 .ARM.exidx     0x00000000000089c0       0x28 /home/yin/imx-optee/imx-optee-os/out/arm-plat-imx/export-ta_arm32/lib/libmpa.a(mpa_mul.o)
                                         0x30 (size before relaxing)
 .ARM.exidx     0x00000000000089e8       0x10 /home/yin/imx-optee/imx-optee-os/out/arm-plat-imx/export-ta_arm32/lib/libmpa.a(mpa_random.o)
 .ARM.exidx     0x00000000000089f8       0x20 /home/yin/imx-optee/imx-optee-os/out/arm-plat-imx/export-ta_arm32/lib/libmpa.a(mpa_shift.o)
 .ARM.exidx     0x0000000000008a18       0x48 /home/yin/imx-optee/imx-optee-os/out/arm-plat-imx/export-ta_arm32/lib/libmpa.a(mpa_addsub.o)
                                         0x58 (size before relaxing)
 .ARM.exidx     0x0000000000008a60       0x28 /home/yin/imx-optee/imx-optee-os/out/arm-plat-imx/export-ta_arm32/lib/libmpa.a(mpa_cmp.o)
 .ARM.exidx     0x00000000000088b8        0x8 /home/yin/imx-optee/imx-optee-os/out/arm-plat-imx/export-ta_arm32/lib/libmpa.a(mpa_expmod.o)
 .ARM.exidx     0x0000000000008a88       0x10 /home/yin/imx-optee/imx-optee-os/out/arm-plat-imx/export-ta_arm32/lib/libmpa.a(mpa_init.o)
 .ARM.exidx     0x00000000000088c0       0x38 /home/yin/imx-optee/imx-optee-os/out/arm-plat-imx/export-ta_arm32/lib/libmpa.a(mpa_io.o)
                                         0x40 (size before relaxing)
 .ARM.exidx     0x0000000000008a98       0x18 /home/yin/imx-optee/imx-optee-os/out/arm-plat-imx/export-ta_arm32/lib/libmpa.a(mpa_modulus.o)
                                         0x28 (size before relaxing)
 .ARM.exidx     0x00000000000088f8       0x10 /home/yin/imx-optee/imx-optee-os/out/arm-plat-imx/export-ta_arm32/lib/libutee.a(assert.o)

.ctors
 *(SORT(.ctors))

.dtors
 *(SORT(.dtors))

.got            0x0000000000008ab0       0x30
 *(SORT(.got.plt))
 .got.plt       0x0000000000008ab0        0xc ./hotp_ta.o
                0x0000000000008ab0                _GLOBAL_OFFSET_TABLE_
 *(SORT(.got))
 .got           0x0000000000008abc       0x24 ./hotp_ta.o

.rel.text
 *(SORT(.rel.text))
 *(SORT(.rel.gnu.linkonce.t*))

.rela.text
 *(SORT(.rela.text))
 *(SORT(.rela.gnu.linkonce.t*))

.rel.data
 *(SORT(.rel.data))
 *(SORT(.rel.gnu.linkonce.d*))

.rela.data
 *(SORT(.rela.data))
 *(SORT(.rela.gnu.linkonce.d*))

.rel.rodata
 *(SORT(.rel.rodata))
 *(SORT(.rel.gnu.linkonce.r*))

.rela.rodata
 *(SORT(.rela.rodata))
 *(SORT(.rela.gnu.linkonce.r*))

.rel.dyn        0x0000000000008ae0       0xb8
 *(SORT(.rel.dyn))
 .rel.iplt      0x0000000000008ae0        0x0 ./hotp_ta.o
 .rel.data.rel.ro.local
                0x0000000000008ae0       0x90 ./hotp_ta.o
 .rel.ta_head   0x0000000000008b70        0x8 ./hotp_ta.o
 .rel.data.rel  0x0000000000008b78        0x8 ./hotp_ta.o
 .rel.data.rel.local
                0x0000000000008b80       0x18 ./hotp_ta.o

.rel.got        0x0000000000008b98       0x48
 *(SORT(.rel.got))
 .rel.got       0x0000000000008b98       0x48 ./hotp_ta.o

.rela.got
 *(SORT(.rela.got))

.rel.ctors
 *(SORT(.rel.ctors))

.rela.ctors
 *(SORT(.rela.ctors))

.rel.dtors
 *(SORT(.rel.dtors))

.rela.dtors
 *(SORT(.rela.dtors))

.rel.init
 *(SORT(.rel.init))

.rela.init
 *(SORT(.rela.init))

.rel.fini
 *(SORT(.rel.fini))

.rela.fini
 *(SORT(.rela.fini))

.rel.bss
 *(SORT(.rel.bss))

.rela.bss
 *(SORT(.rela.bss))

.rel.plt        0x0000000000008be0        0x0
 *(SORT(.rel.plt))
 .rel.plt       0x0000000000008be0        0x0 ./hotp_ta.o

.rela.plt
 *(SORT(.rela.plt))

.dynamic        0x0000000000008be0       0x80
 *(SORT(.dynamic))
 .dynamic       0x0000000000008be0       0x80 ./hotp_ta.o
                0x0000000000008be0                _DYNAMIC

.dynsym         0x0000000000008c60       0xc0
 *(SORT(.dynsym))
 .dynsym        0x0000000000008c60       0xc0 ./hotp_ta.o

.dynstr         0x0000000000008d20       0x88
 *(SORT(.dynstr))
 .dynstr        0x0000000000008d20       0x88 ./hotp_ta.o

.hash           0x0000000000008da8       0x44
 *(SORT(.hash))
 .hash          0x0000000000008da8       0x44 ./hotp_ta.o
                0x0000000000009000                . = ALIGN (0x1000)

.data           0x0000000000009000       0x8c
 *(SORT(.data) SORT(.data.*) SORT(.gnu.linkonce.d.*))
 .data          0x0000000000009000        0x4 ./user_ta_header.o
                0x0000000000009000                trace_level
 .data.rel.ro.local
                0x0000000000009004       0x6c ./user_ta_header.o
                0x0000000000009004                ta_props
 .data.rel      0x0000000000009070        0x4 /home/yin/imx-optee/imx-optee-os/out/arm-plat-imx/export-ta_arm32/lib/libutee.a(user_ta_entry.o)
                0x0000000000009070                _ref__utee_mcount
 .data.rel.local
                0x0000000000009074        0x8 /home/yin/imx-optee/imx-optee-os/out/arm-plat-imx/export-ta_arm32/lib/libutee.a(user_ta_entry.o)
 .data.rel.local
                0x000000000000907c       0x10 /home/yin/imx-optee/imx-optee-os/out/arm-plat-imx/export-ta_arm32/lib/libutils.a(bget_malloc.o)
 .data          0x000000000000908c        0x0 ./hotp_ta.o
 .data          0x000000000000908c        0x0 /home/yin/imx-optee/imx-optee-os/out/arm-plat-imx/export-ta_arm32/lib/libutee.a(tee_api_objects.o)
 .data          0x000000000000908c        0x0 /home/yin/imx-optee/imx-optee-os/out/arm-plat-imx/export-ta_arm32/lib/libutee.a(tee_api_operations.o)
 .data          0x000000000000908c        0x0 /home/yin/imx-optee/imx-optee-os/out/arm-plat-imx/export-ta_arm32/lib/libutee.a(tee_api_panic.o)
 .data          0x000000000000908c        0x0 /home/yin/imx-optee/imx-optee-os/out/arm-plat-imx/export-ta_arm32/lib/libutee.a(user_ta_entry.o)
 .data          0x000000000000908c        0x0 /home/yin/imx-optee/imx-optee-os/out/arm-plat-imx/export-ta_arm32/lib/libutee.a(utee_syscalls_a32.o)
 .data          0x000000000000908c        0x0 /home/yin/imx-optee/imx-optee-os/out/arm-plat-imx/export-ta_arm32/lib/libutee.a(gprof_a32.o)
 .data          0x000000000000908c        0x0 /home/yin/imx-optee/imx-optee-os/out/arm-plat-imx/export-ta_arm32/lib/libutee.a(tee_api_arith.o)
 .data          0x000000000000908c        0x0 /home/yin/imx-optee/imx-optee-os/out/arm-plat-imx/export-ta_arm32/lib/libutee.a(tee_api.o)
 .data          0x000000000000908c        0x0 /home/yin/imx-optee/imx-optee-os/out/arm-plat-imx/export-ta_arm32/lib/libutee.a(trace_ext.o)
 .data          0x000000000000908c        0x0 /home/yin/imx-optee/imx-optee-os/out/arm-plat-imx/export-ta_arm32/lib/libutils.a(bget_malloc.o)
 .data          0x000000000000908c        0x0 /home/yin/imx-optee/imx-optee-os/out/arm-plat-imx/export-ta_arm32/lib/libutils.a(snprintf.o)
 .data          0x000000000000908c        0x0 /home/yin/imx-optee/imx-optee-os/out/arm-plat-imx/export-ta_arm32/lib/libutils.a(memcmp.o)
 .data          0x000000000000908c        0x0 /home/yin/imx-optee/imx-optee-os/out/arm-plat-imx/export-ta_arm32/lib/libutils.a(memcpy.o)
 .data          0x000000000000908c        0x0 /home/yin/imx-optee/imx-optee-os/out/arm-plat-imx/export-ta_arm32/lib/libutils.a(memmove.o)
 .data          0x000000000000908c        0x0 /home/yin/imx-optee/imx-optee-os/out/arm-plat-imx/export-ta_arm32/lib/libutils.a(memset.o)
 .data          0x000000000000908c        0x0 /home/yin/imx-optee/imx-optee-os/out/arm-plat-imx/export-ta_arm32/lib/libutils.a(strlen.o)
 .data          0x000000000000908c        0x0 /home/yin/imx-optee/imx-optee-os/out/arm-plat-imx/export-ta_arm32/lib/libutils.a(arm32_aeabi_divmod.o)
 .data          0x000000000000908c        0x0 /home/yin/imx-optee/imx-optee-os/out/arm-plat-imx/export-ta_arm32/lib/libutils.a(snprintk.o)
 .data          0x000000000000908c        0x0 /home/yin/imx-optee/imx-optee-os/out/arm-plat-imx/export-ta_arm32/lib/libutils.a(buf_compare_ct.o)
 .data          0x000000000000908c        0x0 /home/yin/imx-optee/imx-optee-os/out/arm-plat-imx/export-ta_arm32/lib/libutils.a(trace.o)
 .data          0x000000000000908c        0x0 /home/yin/imx-optee/imx-optee-os/out/arm-plat-imx/export-ta_arm32/lib/libutils.a(mempool.o)
 .data          0x000000000000908c        0x0 /home/yin/imx-optee/imx-optee-os/out/arm-plat-imx/export-ta_arm32/lib/libutils.a(aeabi_unwind.o)
 .data          0x000000000000908c        0x0 /home/yin/imx-optee/imx-optee-os/out/arm-plat-imx/export-ta_arm32/lib/libutils.a(memchr.o)
 .data          0x000000000000908c        0x0 /home/yin/imx-optee/imx-optee-os/out/arm-plat-imx/export-ta_arm32/lib/libutils.a(arm32_aeabi_divmod_a32.o)
 .data          0x000000000000908c        0x0 /home/yin/imx-optee/imx-optee-os/out/arm-plat-imx/export-ta_arm32/lib/libutils.a(arm32_aeabi_ldivmod_a32.o)
 .data          0x000000000000908c        0x0 /home/yin/imx-optee/imx-optee-os/out/arm-plat-imx/export-ta_arm32/lib/libutils.a(arm32_aeabi_ldivmod.o)
 .data          0x000000000000908c        0x0 /home/yin/imx-optee/imx-optee-os/out/arm-plat-imx/export-ta_arm32/lib/libmpa.a(mpa_misc.o)
 .data          0x000000000000908c        0x0 /home/yin/imx-optee/imx-optee-os/out/arm-plat-imx/export-ta_arm32/lib/libmpa.a(mpa_montgomery.o)
 .data          0x000000000000908c        0x0 /home/yin/imx-optee/imx-optee-os/out/arm-plat-imx/export-ta_arm32/lib/libmpa.a(mpa_primetest.o)
 .data          0x000000000000908c        0x0 /home/yin/imx-optee/imx-optee-os/out/arm-plat-imx/export-ta_arm32/lib/libmpa.a(mpa_conv.o)
 .data          0x000000000000908c        0x0 /home/yin/imx-optee/imx-optee-os/out/arm-plat-imx/export-ta_arm32/lib/libmpa.a(mpa_div.o)
 .data          0x000000000000908c        0x0 /home/yin/imx-optee/imx-optee-os/out/arm-plat-imx/export-ta_arm32/lib/libmpa.a(mpa_gcd.o)
 .data          0x000000000000908c        0x0 /home/yin/imx-optee/imx-optee-os/out/arm-plat-imx/export-ta_arm32/lib/libmpa.a(mpa_mem_static.o)
 .data          0x000000000000908c        0x0 /home/yin/imx-optee/imx-optee-os/out/arm-plat-imx/export-ta_arm32/lib/libmpa.a(mpa_mul.o)
 .data          0x000000000000908c        0x0 /home/yin/imx-optee/imx-optee-os/out/arm-plat-imx/export-ta_arm32/lib/libmpa.a(mpa_random.o)
 .data          0x000000000000908c        0x0 /home/yin/imx-optee/imx-optee-os/out/arm-plat-imx/export-ta_arm32/lib/libmpa.a(mpa_shift.o)
 .data          0x000000000000908c        0x0 /home/yin/imx-optee/imx-optee-os/out/arm-plat-imx/export-ta_arm32/lib/libmpa.a(mpa_addsub.o)
 .data          0x000000000000908c        0x0 /home/yin/imx-optee/imx-optee-os/out/arm-plat-imx/export-ta_arm32/lib/libmpa.a(mpa_cmp.o)
 .data          0x000000000000908c        0x0 /home/yin/imx-optee/imx-optee-os/out/arm-plat-imx/export-ta_arm32/lib/libmpa.a(mpa_expmod.o)
 .data          0x000000000000908c        0x0 /home/yin/imx-optee/imx-optee-os/out/arm-plat-imx/export-ta_arm32/lib/libmpa.a(mpa_init.o)
 .data          0x000000000000908c        0x0 /home/yin/imx-optee/imx-optee-os/out/arm-plat-imx/export-ta_arm32/lib/libmpa.a(mpa_io.o)
 .data          0x000000000000908c        0x0 /home/yin/imx-optee/imx-optee-os/out/arm-plat-imx/export-ta_arm32/lib/libmpa.a(mpa_modulus.o)
 .data          0x000000000000908c        0x0 /home/yin/imx-optee/imx-optee-os/out/arm-plat-imx/export-ta_arm32/lib/libutee.a(assert.o)

.igot.plt       0x000000000000908c        0x0
 .igot.plt      0x000000000000908c        0x0 ./hotp_ta.o

.bss            0x000000000000908c     0xa984
 *(SORT(.bss) SORT(.bss.*) SORT(.gnu.linkonce.b.*) SORT(COMMON))
 .bss           0x000000000000908c       0x4c ./hotp_ta.o
 .bss           0x00000000000090d8       0x28 /home/yin/imx-optee/imx-optee-os/out/arm-plat-imx/export-ta_arm32/lib/libutee.a(user_ta_entry.o)
                0x00000000000090dc                ta_param_types
                0x00000000000090e0                ta_params
 .bss           0x0000000000009100     0x18fc /home/yin/imx-optee/imx-optee-os/out/arm-plat-imx/export-ta_arm32/lib/libutee.a(tee_api_arith.o)
 .bss           0x000000000000a9fc        0x4 /home/yin/imx-optee/imx-optee-os/out/arm-plat-imx/export-ta_arm32/lib/libutee.a(tee_api.o)
 .bss           0x000000000000aa00        0x8 /home/yin/imx-optee/imx-optee-os/out/arm-plat-imx/export-ta_arm32/lib/libutils.a(bget_malloc.o)
 .bss           0x000000000000aa08     0x8000 ./user_ta_header.o
                0x000000000000aa08                ta_heap
 .bss           0x0000000000012a08        0x0 /home/yin/imx-optee/imx-optee-os/out/arm-plat-imx/export-ta_arm32/lib/libutee.a(tee_api_objects.o)
 .bss           0x0000000000012a08        0x0 /home/yin/imx-optee/imx-optee-os/out/arm-plat-imx/export-ta_arm32/lib/libutee.a(tee_api_operations.o)
 .bss           0x0000000000012a08        0x0 /home/yin/imx-optee/imx-optee-os/out/arm-plat-imx/export-ta_arm32/lib/libutee.a(tee_api_panic.o)
 .bss           0x0000000000012a08        0x0 /home/yin/imx-optee/imx-optee-os/out/arm-plat-imx/export-ta_arm32/lib/libutee.a(utee_syscalls_a32.o)
 .bss           0x0000000000012a08        0x0 /home/yin/imx-optee/imx-optee-os/out/arm-plat-imx/export-ta_arm32/lib/libutee.a(gprof_a32.o)
 .bss           0x0000000000012a08        0x0 /home/yin/imx-optee/imx-optee-os/out/arm-plat-imx/export-ta_arm32/lib/libutee.a(trace_ext.o)
 .bss           0x0000000000012a08        0x0 /home/yin/imx-optee/imx-optee-os/out/arm-plat-imx/export-ta_arm32/lib/libutils.a(snprintf.o)
 .bss           0x0000000000012a08        0x0 /home/yin/imx-optee/imx-optee-os/out/arm-plat-imx/export-ta_arm32/lib/libutils.a(memcmp.o)
 .bss           0x0000000000012a08        0x0 /home/yin/imx-optee/imx-optee-os/out/arm-plat-imx/export-ta_arm32/lib/libutils.a(memcpy.o)
 .bss           0x0000000000012a08        0x0 /home/yin/imx-optee/imx-optee-os/out/arm-plat-imx/export-ta_arm32/lib/libutils.a(memmove.o)
 .bss           0x0000000000012a08        0x0 /home/yin/imx-optee/imx-optee-os/out/arm-plat-imx/export-ta_arm32/lib/libutils.a(memset.o)
 .bss           0x0000000000012a08        0x0 /home/yin/imx-optee/imx-optee-os/out/arm-plat-imx/export-ta_arm32/lib/libutils.a(strlen.o)
 .bss           0x0000000000012a08        0x0 /home/yin/imx-optee/imx-optee-os/out/arm-plat-imx/export-ta_arm32/lib/libutils.a(arm32_aeabi_divmod.o)
 .bss           0x0000000000012a08        0x0 /home/yin/imx-optee/imx-optee-os/out/arm-plat-imx/export-ta_arm32/lib/libutils.a(snprintk.o)
 .bss           0x0000000000012a08        0x0 /home/yin/imx-optee/imx-optee-os/out/arm-plat-imx/export-ta_arm32/lib/libutils.a(buf_compare_ct.o)
 .bss           0x0000000000012a08        0x0 /home/yin/imx-optee/imx-optee-os/out/arm-plat-imx/export-ta_arm32/lib/libutils.a(trace.o)
 .bss           0x0000000000012a08        0x0 /home/yin/imx-optee/imx-optee-os/out/arm-plat-imx/export-ta_arm32/lib/libutils.a(mempool.o)
 .bss           0x0000000000012a08        0x0 /home/yin/imx-optee/imx-optee-os/out/arm-plat-imx/export-ta_arm32/lib/libutils.a(aeabi_unwind.o)
 .bss           0x0000000000012a08        0x0 /home/yin/imx-optee/imx-optee-os/out/arm-plat-imx/export-ta_arm32/lib/libutils.a(memchr.o)
 .bss           0x0000000000012a08        0x0 /home/yin/imx-optee/imx-optee-os/out/arm-plat-imx/export-ta_arm32/lib/libutils.a(arm32_aeabi_divmod_a32.o)
 .bss           0x0000000000012a08        0x0 /home/yin/imx-optee/imx-optee-os/out/arm-plat-imx/export-ta_arm32/lib/libutils.a(arm32_aeabi_ldivmod_a32.o)
 .bss           0x0000000000012a08        0x0 /home/yin/imx-optee/imx-optee-os/out/arm-plat-imx/export-ta_arm32/lib/libutils.a(arm32_aeabi_ldivmod.o)
 .bss           0x0000000000012a08        0x0 /home/yin/imx-optee/imx-optee-os/out/arm-plat-imx/export-ta_arm32/lib/libmpa.a(mpa_misc.o)
 .bss           0x0000000000012a08        0x0 /home/yin/imx-optee/imx-optee-os/out/arm-plat-imx/export-ta_arm32/lib/libmpa.a(mpa_montgomery.o)
 .bss           0x0000000000012a08        0x0 /home/yin/imx-optee/imx-optee-os/out/arm-plat-imx/export-ta_arm32/lib/libmpa.a(mpa_primetest.o)
 .bss           0x0000000000012a08        0x0 /home/yin/imx-optee/imx-optee-os/out/arm-plat-imx/export-ta_arm32/lib/libmpa.a(mpa_conv.o)
 .bss           0x0000000000012a08        0x0 /home/yin/imx-optee/imx-optee-os/out/arm-plat-imx/export-ta_arm32/lib/libmpa.a(mpa_div.o)
 .bss           0x0000000000012a08        0x0 /home/yin/imx-optee/imx-optee-os/out/arm-plat-imx/export-ta_arm32/lib/libmpa.a(mpa_gcd.o)
 .bss           0x0000000000012a08        0x0 /home/yin/imx-optee/imx-optee-os/out/arm-plat-imx/export-ta_arm32/lib/libmpa.a(mpa_mem_static.o)
 .bss           0x0000000000012a08        0x0 /home/yin/imx-optee/imx-optee-os/out/arm-plat-imx/export-ta_arm32/lib/libmpa.a(mpa_mul.o)
 .bss           0x0000000000012a08        0x0 /home/yin/imx-optee/imx-optee-os/out/arm-plat-imx/export-ta_arm32/lib/libmpa.a(mpa_random.o)
 .bss           0x0000000000012a08        0x0 /home/yin/imx-optee/imx-optee-os/out/arm-plat-imx/export-ta_arm32/lib/libmpa.a(mpa_shift.o)
 .bss           0x0000000000012a08        0x0 /home/yin/imx-optee/imx-optee-os/out/arm-plat-imx/export-ta_arm32/lib/libmpa.a(mpa_addsub.o)
 .bss           0x0000000000012a08        0x0 /home/yin/imx-optee/imx-optee-os/out/arm-plat-imx/export-ta_arm32/lib/libmpa.a(mpa_cmp.o)
 .bss           0x0000000000012a08        0x0 /home/yin/imx-optee/imx-optee-os/out/arm-plat-imx/export-ta_arm32/lib/libmpa.a(mpa_expmod.o)
 .bss           0x0000000000012a08        0x0 /home/yin/imx-optee/imx-optee-os/out/arm-plat-imx/export-ta_arm32/lib/libmpa.a(mpa_init.o)
 .bss           0x0000000000012a08     0x1002 /home/yin/imx-optee/imx-optee-os/out/arm-plat-imx/export-ta_arm32/lib/libmpa.a(mpa_io.o)
 .bss           0x0000000000013a0a        0x0 /home/yin/imx-optee/imx-optee-os/out/arm-plat-imx/export-ta_arm32/lib/libmpa.a(mpa_modulus.o)
 .bss           0x0000000000013a0a        0x0 /home/yin/imx-optee/imx-optee-os/out/arm-plat-imx/export-ta_arm32/lib/libutee.a(assert.o)
                0x0000000000013a10                . = ALIGN (0x8)
 *fill*         0x0000000000013a0a        0x6 
                0x0000000000013a10                __gprof_buf_start = .
                0x0000000000013a10                . = (. + DEFINED (__gnu_mcount_nc)?(((__text_end - __text_start) * 0x88) / 0x64):0x0)
                0x0000000000013a10                __gprof_buf_end = .

.dynbss         0x0000000000013a10        0x0
 .dynbss        0x0000000000013a10        0x0 ./hotp_ta.o

/DISCARD/
 *(SORT(.interp))
LOAD ./hotp_ta.o
LOAD ./user_ta_header.o
START GROUP
LOAD /home/yin/imx-optee/imx-optee-os/out/arm-plat-imx/export-ta_arm32/lib/libmbedtls.a
LOAD /home/yin/imx-optee/imx-optee-os/out/arm-plat-imx/export-ta_arm32/lib/libmpa.a
LOAD /home/yin/imx-optee/imx-optee-os/out/arm-plat-imx/export-ta_arm32/lib/libutee.a
LOAD /home/yin/imx-optee/imx-optee-os/out/arm-plat-imx/export-ta_arm32/lib/libutils.a
END GROUP
OUTPUT(484d4143-2d53-4841-3120-4a6f636b6542.elf elf32-littlearm)

.debug_info     0x0000000000000000    0x11eec
 .debug_info    0x0000000000000000      0x8c7 ./hotp_ta.o
 .debug_info    0x00000000000008c7      0x383 ./user_ta_header.o
 .debug_info    0x0000000000000c4a     0x171b /home/yin/imx-optee/imx-optee-os/out/arm-plat-imx/export-ta_arm32/lib/libutee.a(tee_api_objects.o)
 .debug_info    0x0000000000002365     0x2590 /home/yin/imx-optee/imx-optee-os/out/arm-plat-imx/export-ta_arm32/lib/libutee.a(tee_api_operations.o)
 .debug_info    0x00000000000048f5      0x107 /home/yin/imx-optee/imx-optee-os/out/arm-plat-imx/export-ta_arm32/lib/libutee.a(tee_api_panic.o)
 .debug_info    0x00000000000049fc      0xab3 /home/yin/imx-optee/imx-optee-os/out/arm-plat-imx/export-ta_arm32/lib/libutee.a(user_ta_entry.o)
 .debug_info    0x00000000000054af       0x6e /home/yin/imx-optee/imx-optee-os/out/arm-plat-imx/export-ta_arm32/lib/libutee.a(utee_syscalls_a32.o)
 .debug_info    0x000000000000551d       0x70 /home/yin/imx-optee/imx-optee-os/out/arm-plat-imx/export-ta_arm32/lib/libutee.a(gprof_a32.o)
 .debug_info    0x000000000000558d     0x19ad /home/yin/imx-optee/imx-optee-os/out/arm-plat-imx/export-ta_arm32/lib/libutee.a(tee_api_arith.o)
 .debug_info    0x0000000000006f3a      0xea8 /home/yin/imx-optee/imx-optee-os/out/arm-plat-imx/export-ta_arm32/lib/libutee.a(tee_api.o)
 .debug_info    0x0000000000007de2      0x2c1 /home/yin/imx-optee/imx-optee-os/out/arm-plat-imx/export-ta_arm32/lib/libutee.a(trace_ext.o)
 .debug_info    0x00000000000080a3     0x17dd /home/yin/imx-optee/imx-optee-os/out/arm-plat-imx/export-ta_arm32/lib/libutils.a(bget_malloc.o)
 .debug_info    0x0000000000009880      0x19b /home/yin/imx-optee/imx-optee-os/out/arm-plat-imx/export-ta_arm32/lib/libutils.a(snprintf.o)
 .debug_info    0x0000000000009a1b       0xb6 /home/yin/imx-optee/imx-optee-os/out/arm-plat-imx/export-ta_arm32/lib/libutils.a(memcmp.o)
 .debug_info    0x0000000000009ad1       0xc9 /home/yin/imx-optee/imx-optee-os/out/arm-plat-imx/export-ta_arm32/lib/libutils.a(memcpy.o)
 .debug_info    0x0000000000009b9a       0xc7 /home/yin/imx-optee/imx-optee-os/out/arm-plat-imx/export-ta_arm32/lib/libutils.a(memmove.o)
 .debug_info    0x0000000000009c61       0x9c /home/yin/imx-optee/imx-optee-os/out/arm-plat-imx/export-ta_arm32/lib/libutils.a(memset.o)
 .debug_info    0x0000000000009cfd       0x8d /home/yin/imx-optee/imx-optee-os/out/arm-plat-imx/export-ta_arm32/lib/libutils.a(strlen.o)
 .debug_info    0x0000000000009d8a      0x4b9 /home/yin/imx-optee/imx-optee-os/out/arm-plat-imx/export-ta_arm32/lib/libutils.a(arm32_aeabi_divmod.o)
 .debug_info    0x000000000000a243      0x694 /home/yin/imx-optee/imx-optee-os/out/arm-plat-imx/export-ta_arm32/lib/libutils.a(snprintk.o)
 .debug_info    0x000000000000a8d7       0xc5 /home/yin/imx-optee/imx-optee-os/out/arm-plat-imx/export-ta_arm32/lib/libutils.a(buf_compare_ct.o)
 .debug_info    0x000000000000a99c      0x656 /home/yin/imx-optee/imx-optee-os/out/arm-plat-imx/export-ta_arm32/lib/libutils.a(trace.o)
 .debug_info    0x000000000000aff2      0x34d /home/yin/imx-optee/imx-optee-os/out/arm-plat-imx/export-ta_arm32/lib/libutils.a(mempool.o)
 .debug_info    0x000000000000b33f       0x4f /home/yin/imx-optee/imx-optee-os/out/arm-plat-imx/export-ta_arm32/lib/libutils.a(aeabi_unwind.o)
 .debug_info    0x000000000000b38e       0xbd /home/yin/imx-optee/imx-optee-os/out/arm-plat-imx/export-ta_arm32/lib/libutils.a(memchr.o)
 .debug_info    0x000000000000b44b       0x79 /home/yin/imx-optee/imx-optee-os/out/arm-plat-imx/export-ta_arm32/lib/libutils.a(arm32_aeabi_divmod_a32.o)
 .debug_info    0x000000000000b4c4       0x7a /home/yin/imx-optee/imx-optee-os/out/arm-plat-imx/export-ta_arm32/lib/libutils.a(arm32_aeabi_ldivmod_a32.o)
 .debug_info    0x000000000000b53e      0x2cf /home/yin/imx-optee/imx-optee-os/out/arm-plat-imx/export-ta_arm32/lib/libutils.a(arm32_aeabi_ldivmod.o)
 .debug_info    0x000000000000b80d      0x38e /home/yin/imx-optee/imx-optee-os/out/arm-plat-imx/export-ta_arm32/lib/libmpa.a(mpa_misc.o)
 .debug_info    0x000000000000bb9b      0x7b1 /home/yin/imx-optee/imx-optee-os/out/arm-plat-imx/export-ta_arm32/lib/libmpa.a(mpa_montgomery.o)
 .debug_info    0x000000000000c34c      0x922 /home/yin/imx-optee/imx-optee-os/out/arm-plat-imx/export-ta_arm32/lib/libmpa.a(mpa_primetest.o)
 .debug_info    0x000000000000cc6e      0x1fe /home/yin/imx-optee/imx-optee-os/out/arm-plat-imx/export-ta_arm32/lib/libmpa.a(mpa_conv.o)
 .debug_info    0x000000000000ce6c      0xa90 /home/yin/imx-optee/imx-optee-os/out/arm-plat-imx/export-ta_arm32/lib/libmpa.a(mpa_div.o)
 .debug_info    0x000000000000d8fc      0xd7f /home/yin/imx-optee/imx-optee-os/out/arm-plat-imx/export-ta_arm32/lib/libmpa.a(mpa_gcd.o)
 .debug_info    0x000000000000e67b      0x2d8 /home/yin/imx-optee/imx-optee-os/out/arm-plat-imx/export-ta_arm32/lib/libmpa.a(mpa_mem_static.o)
 .debug_info    0x000000000000e953      0x630 /home/yin/imx-optee/imx-optee-os/out/arm-plat-imx/export-ta_arm32/lib/libmpa.a(mpa_mul.o)
 .debug_info    0x000000000000ef83      0x3c5 /home/yin/imx-optee/imx-optee-os/out/arm-plat-imx/export-ta_arm32/lib/libmpa.a(mpa_random.o)
 .debug_info    0x000000000000f348      0x39f /home/yin/imx-optee/imx-optee-os/out/arm-plat-imx/export-ta_arm32/lib/libmpa.a(mpa_shift.o)
 .debug_info    0x000000000000f6e7      0xbc3 /home/yin/imx-optee/imx-optee-os/out/arm-plat-imx/export-ta_arm32/lib/libmpa.a(mpa_addsub.o)
 .debug_info    0x00000000000102aa      0x2ff /home/yin/imx-optee/imx-optee-os/out/arm-plat-imx/export-ta_arm32/lib/libmpa.a(mpa_cmp.o)
 .debug_info    0x00000000000105a9      0x4d6 /home/yin/imx-optee/imx-optee-os/out/arm-plat-imx/export-ta_arm32/lib/libmpa.a(mpa_expmod.o)
 .debug_info    0x0000000000010a7f      0x230 /home/yin/imx-optee/imx-optee-os/out/arm-plat-imx/export-ta_arm32/lib/libmpa.a(mpa_init.o)
 .debug_info    0x0000000000010caf      0x9e5 /home/yin/imx-optee/imx-optee-os/out/arm-plat-imx/export-ta_arm32/lib/libmpa.a(mpa_io.o)
 .debug_info    0x0000000000011694      0x6cf /home/yin/imx-optee/imx-optee-os/out/arm-plat-imx/export-ta_arm32/lib/libmpa.a(mpa_modulus.o)
 .debug_info    0x0000000000011d63      0x189 /home/yin/imx-optee/imx-optee-os/out/arm-plat-imx/export-ta_arm32/lib/libutee.a(assert.o)

.debug_abbrev   0x0000000000000000     0x462a
 .debug_abbrev  0x0000000000000000      0x2d3 ./hotp_ta.o
 .debug_abbrev  0x00000000000002d3      0x13c ./user_ta_header.o
 .debug_abbrev  0x000000000000040f      0x326 /home/yin/imx-optee/imx-optee-os/out/arm-plat-imx/export-ta_arm32/lib/libutee.a(tee_api_objects.o)
 .debug_abbrev  0x0000000000000735      0x38b /home/yin/imx-optee/imx-optee-os/out/arm-plat-imx/export-ta_arm32/lib/libutee.a(tee_api_operations.o)
 .debug_abbrev  0x0000000000000ac0       0xb4 /home/yin/imx-optee/imx-optee-os/out/arm-plat-imx/export-ta_arm32/lib/libutee.a(tee_api_panic.o)
 .debug_abbrev  0x0000000000000b74      0x2da /home/yin/imx-optee/imx-optee-os/out/arm-plat-imx/export-ta_arm32/lib/libutee.a(user_ta_entry.o)
 .debug_abbrev  0x0000000000000e4e       0x12 /home/yin/imx-optee/imx-optee-os/out/arm-plat-imx/export-ta_arm32/lib/libutee.a(utee_syscalls_a32.o)
 .debug_abbrev  0x0000000000000e60       0x14 /home/yin/imx-optee/imx-optee-os/out/arm-plat-imx/export-ta_arm32/lib/libutee.a(gprof_a32.o)
 .debug_abbrev  0x0000000000000e74      0x2fe /home/yin/imx-optee/imx-optee-os/out/arm-plat-imx/export-ta_arm32/lib/libutee.a(tee_api_arith.o)
 .debug_abbrev  0x0000000000001172      0x2b4 /home/yin/imx-optee/imx-optee-os/out/arm-plat-imx/export-ta_arm32/lib/libutee.a(tee_api.o)
 .debug_abbrev  0x0000000000001426      0x183 /home/yin/imx-optee/imx-optee-os/out/arm-plat-imx/export-ta_arm32/lib/libutee.a(trace_ext.o)
 .debug_abbrev  0x00000000000015a9      0x3b3 /home/yin/imx-optee/imx-optee-os/out/arm-plat-imx/export-ta_arm32/lib/libutils.a(bget_malloc.o)
 .debug_abbrev  0x000000000000195c      0x101 /home/yin/imx-optee/imx-optee-os/out/arm-plat-imx/export-ta_arm32/lib/libutils.a(snprintf.o)
 .debug_abbrev  0x0000000000001a5d       0x82 /home/yin/imx-optee/imx-optee-os/out/arm-plat-imx/export-ta_arm32/lib/libutils.a(memcmp.o)
 .debug_abbrev  0x0000000000001adf       0xa7 /home/yin/imx-optee/imx-optee-os/out/arm-plat-imx/export-ta_arm32/lib/libutils.a(memcpy.o)
 .debug_abbrev  0x0000000000001b86       0x9f /home/yin/imx-optee/imx-optee-os/out/arm-plat-imx/export-ta_arm32/lib/libutils.a(memmove.o)
 .debug_abbrev  0x0000000000001c25       0x93 /home/yin/imx-optee/imx-optee-os/out/arm-plat-imx/export-ta_arm32/lib/libutils.a(memset.o)
 .debug_abbrev  0x0000000000001cb8       0x84 /home/yin/imx-optee/imx-optee-os/out/arm-plat-imx/export-ta_arm32/lib/libutils.a(strlen.o)
 .debug_abbrev  0x0000000000001d3c      0x164 /home/yin/imx-optee/imx-optee-os/out/arm-plat-imx/export-ta_arm32/lib/libutils.a(arm32_aeabi_divmod.o)
 .debug_abbrev  0x0000000000001ea0      0x26f /home/yin/imx-optee/imx-optee-os/out/arm-plat-imx/export-ta_arm32/lib/libutils.a(snprintk.o)
 .debug_abbrev  0x000000000000210f       0x82 /home/yin/imx-optee/imx-optee-os/out/arm-plat-imx/export-ta_arm32/lib/libutils.a(buf_compare_ct.o)
 .debug_abbrev  0x0000000000002191      0x281 /home/yin/imx-optee/imx-optee-os/out/arm-plat-imx/export-ta_arm32/lib/libutils.a(trace.o)
 .debug_abbrev  0x0000000000002412      0x195 /home/yin/imx-optee/imx-optee-os/out/arm-plat-imx/export-ta_arm32/lib/libutils.a(mempool.o)
 .debug_abbrev  0x00000000000025a7       0x47 /home/yin/imx-optee/imx-optee-os/out/arm-plat-imx/export-ta_arm32/lib/libutils.a(aeabi_unwind.o)
 .debug_abbrev  0x00000000000025ee       0xae /home/yin/imx-optee/imx-optee-os/out/arm-plat-imx/export-ta_arm32/lib/libutils.a(memchr.o)
 .debug_abbrev  0x000000000000269c       0x12 /home/yin/imx-optee/imx-optee-os/out/arm-plat-imx/export-ta_arm32/lib/libutils.a(arm32_aeabi_divmod_a32.o)
 .debug_abbrev  0x00000000000026ae       0x12 /home/yin/imx-optee/imx-optee-os/out/arm-plat-imx/export-ta_arm32/lib/libutils.a(arm32_aeabi_ldivmod_a32.o)
 .debug_abbrev  0x00000000000026c0      0x12f /home/yin/imx-optee/imx-optee-os/out/arm-plat-imx/export-ta_arm32/lib/libutils.a(arm32_aeabi_ldivmod.o)
 .debug_abbrev  0x00000000000027ef      0x163 /home/yin/imx-optee/imx-optee-os/out/arm-plat-imx/export-ta_arm32/lib/libmpa.a(mpa_misc.o)
 .debug_abbrev  0x0000000000002952      0x239 /home/yin/imx-optee/imx-optee-os/out/arm-plat-imx/export-ta_arm32/lib/libmpa.a(mpa_montgomery.o)
 .debug_abbrev  0x0000000000002b8b      0x248 /home/yin/imx-optee/imx-optee-os/out/arm-plat-imx/export-ta_arm32/lib/libmpa.a(mpa_primetest.o)
 .debug_abbrev  0x0000000000002dd3      0x122 /home/yin/imx-optee/imx-optee-os/out/arm-plat-imx/export-ta_arm32/lib/libmpa.a(mpa_conv.o)
 .debug_abbrev  0x0000000000002ef5      0x277 /home/yin/imx-optee/imx-optee-os/out/arm-plat-imx/export-ta_arm32/lib/libmpa.a(mpa_div.o)
 .debug_abbrev  0x000000000000316c      0x281 /home/yin/imx-optee/imx-optee-os/out/arm-plat-imx/export-ta_arm32/lib/libmpa.a(mpa_gcd.o)
 .debug_abbrev  0x00000000000033ed      0x14b /home/yin/imx-optee/imx-optee-os/out/arm-plat-imx/export-ta_arm32/lib/libmpa.a(mpa_mem_static.o)
 .debug_abbrev  0x0000000000003538      0x1ec /home/yin/imx-optee/imx-optee-os/out/arm-plat-imx/export-ta_arm32/lib/libmpa.a(mpa_mul.o)
 .debug_abbrev  0x0000000000003724      0x1d4 /home/yin/imx-optee/imx-optee-os/out/arm-plat-imx/export-ta_arm32/lib/libmpa.a(mpa_random.o)
 .debug_abbrev  0x00000000000038f8      0x14f /home/yin/imx-optee/imx-optee-os/out/arm-plat-imx/export-ta_arm32/lib/libmpa.a(mpa_shift.o)
 .debug_abbrev  0x0000000000003a47      0x28e /home/yin/imx-optee/imx-optee-os/out/arm-plat-imx/export-ta_arm32/lib/libmpa.a(mpa_addsub.o)
 .debug_abbrev  0x0000000000003cd5       0xf4 /home/yin/imx-optee/imx-optee-os/out/arm-plat-imx/export-ta_arm32/lib/libmpa.a(mpa_cmp.o)
 .debug_abbrev  0x0000000000003dc9      0x160 /home/yin/imx-optee/imx-optee-os/out/arm-plat-imx/export-ta_arm32/lib/libmpa.a(mpa_expmod.o)
 .debug_abbrev  0x0000000000003f29      0x112 /home/yin/imx-optee/imx-optee-os/out/arm-plat-imx/export-ta_arm32/lib/libmpa.a(mpa_init.o)
 .debug_abbrev  0x000000000000403b      0x39f /home/yin/imx-optee/imx-optee-os/out/arm-plat-imx/export-ta_arm32/lib/libmpa.a(mpa_io.o)
 .debug_abbrev  0x00000000000043da      0x186 /home/yin/imx-optee/imx-optee-os/out/arm-plat-imx/export-ta_arm32/lib/libmpa.a(mpa_modulus.o)
 .debug_abbrev  0x0000000000004560       0xca /home/yin/imx-optee/imx-optee-os/out/arm-plat-imx/export-ta_arm32/lib/libutee.a(assert.o)

.debug_loc      0x0000000000000000    0x1027f
 .debug_loc     0x0000000000000000      0x63d ./hotp_ta.o
 .debug_loc     0x000000000000063d     0x120a /home/yin/imx-optee/imx-optee-os/out/arm-plat-imx/export-ta_arm32/lib/libutee.a(tee_api_objects.o)
 .debug_loc     0x0000000000001847     0x293d /home/yin/imx-optee/imx-optee-os/out/arm-plat-imx/export-ta_arm32/lib/libutee.a(tee_api_operations.o)
 .debug_loc     0x0000000000004184       0x21 /home/yin/imx-optee/imx-optee-os/out/arm-plat-imx/export-ta_arm32/lib/libutee.a(tee_api_panic.o)
 .debug_loc     0x00000000000041a5      0x550 /home/yin/imx-optee/imx-optee-os/out/arm-plat-imx/export-ta_arm32/lib/libutee.a(user_ta_entry.o)
 .debug_loc     0x00000000000046f5     0x1c60 /home/yin/imx-optee/imx-optee-os/out/arm-plat-imx/export-ta_arm32/lib/libutee.a(tee_api_arith.o)
 .debug_loc     0x0000000000006355      0x7e0 /home/yin/imx-optee/imx-optee-os/out/arm-plat-imx/export-ta_arm32/lib/libutee.a(tee_api.o)
 .debug_loc     0x0000000000006b35       0x9f /home/yin/imx-optee/imx-optee-os/out/arm-plat-imx/export-ta_arm32/lib/libutee.a(trace_ext.o)
 .debug_loc     0x0000000000006bd4     0x21d8 /home/yin/imx-optee/imx-optee-os/out/arm-plat-imx/export-ta_arm32/lib/libutils.a(bget_malloc.o)
 .debug_loc     0x0000000000008dac       0xb8 /home/yin/imx-optee/imx-optee-os/out/arm-plat-imx/export-ta_arm32/lib/libutils.a(snprintf.o)
 .debug_loc     0x0000000000008e64      0x13c /home/yin/imx-optee/imx-optee-os/out/arm-plat-imx/export-ta_arm32/lib/libutils.a(memcmp.o)
 .debug_loc     0x0000000000008fa0       0xa0 /home/yin/imx-optee/imx-optee-os/out/arm-plat-imx/export-ta_arm32/lib/libutils.a(memcpy.o)
 .debug_loc     0x0000000000009040      0x10a /home/yin/imx-optee/imx-optee-os/out/arm-plat-imx/export-ta_arm32/lib/libutils.a(memmove.o)
 .debug_loc     0x000000000000914a       0x4c /home/yin/imx-optee/imx-optee-os/out/arm-plat-imx/export-ta_arm32/lib/libutils.a(memset.o)
 .debug_loc     0x0000000000009196       0x57 /home/yin/imx-optee/imx-optee-os/out/arm-plat-imx/export-ta_arm32/lib/libutils.a(strlen.o)
 .debug_loc     0x00000000000091ed      0x3f0 /home/yin/imx-optee/imx-optee-os/out/arm-plat-imx/export-ta_arm32/lib/libutils.a(arm32_aeabi_divmod.o)
 .debug_loc     0x00000000000095dd      0xe4d /home/yin/imx-optee/imx-optee-os/out/arm-plat-imx/export-ta_arm32/lib/libutils.a(snprintk.o)
 .debug_loc     0x000000000000a42a      0x16c /home/yin/imx-optee/imx-optee-os/out/arm-plat-imx/export-ta_arm32/lib/libutils.a(buf_compare_ct.o)
 .debug_loc     0x000000000000a596      0x40a /home/yin/imx-optee/imx-optee-os/out/arm-plat-imx/export-ta_arm32/lib/libutils.a(trace.o)
 .debug_loc     0x000000000000a9a0      0x233 /home/yin/imx-optee/imx-optee-os/out/arm-plat-imx/export-ta_arm32/lib/libutils.a(mempool.o)
 .debug_loc     0x000000000000abd3       0xfa /home/yin/imx-optee/imx-optee-os/out/arm-plat-imx/export-ta_arm32/lib/libutils.a(memchr.o)
 .debug_loc     0x000000000000accd      0x847 /home/yin/imx-optee/imx-optee-os/out/arm-plat-imx/export-ta_arm32/lib/libutils.a(arm32_aeabi_ldivmod.o)
 .debug_loc     0x000000000000b514      0x2c5 /home/yin/imx-optee/imx-optee-os/out/arm-plat-imx/export-ta_arm32/lib/libmpa.a(mpa_misc.o)
 .debug_loc     0x000000000000b7d9      0x649 /home/yin/imx-optee/imx-optee-os/out/arm-plat-imx/export-ta_arm32/lib/libmpa.a(mpa_montgomery.o)
 .debug_loc     0x000000000000be22      0x3b3 /home/yin/imx-optee/imx-optee-os/out/arm-plat-imx/export-ta_arm32/lib/libmpa.a(mpa_primetest.o)
 .debug_loc     0x000000000000c1d5       0xbf /home/yin/imx-optee/imx-optee-os/out/arm-plat-imx/export-ta_arm32/lib/libmpa.a(mpa_conv.o)
 .debug_loc     0x000000000000c294      0x9ca /home/yin/imx-optee/imx-optee-os/out/arm-plat-imx/export-ta_arm32/lib/libmpa.a(mpa_div.o)
 .debug_loc     0x000000000000cc5e      0x6b9 /home/yin/imx-optee/imx-optee-os/out/arm-plat-imx/export-ta_arm32/lib/libmpa.a(mpa_gcd.o)
 .debug_loc     0x000000000000d317      0x11b /home/yin/imx-optee/imx-optee-os/out/arm-plat-imx/export-ta_arm32/lib/libmpa.a(mpa_mem_static.o)
 .debug_loc     0x000000000000d432      0x482 /home/yin/imx-optee/imx-optee-os/out/arm-plat-imx/export-ta_arm32/lib/libmpa.a(mpa_mul.o)
 .debug_loc     0x000000000000d8b4      0x19f /home/yin/imx-optee/imx-optee-os/out/arm-plat-imx/export-ta_arm32/lib/libmpa.a(mpa_random.o)
 .debug_loc     0x000000000000da53      0x4f6 /home/yin/imx-optee/imx-optee-os/out/arm-plat-imx/export-ta_arm32/lib/libmpa.a(mpa_shift.o)
 .debug_loc     0x000000000000df49      0xd3b /home/yin/imx-optee/imx-optee-os/out/arm-plat-imx/export-ta_arm32/lib/libmpa.a(mpa_addsub.o)
 .debug_loc     0x000000000000ec84      0x327 /home/yin/imx-optee/imx-optee-os/out/arm-plat-imx/export-ta_arm32/lib/libmpa.a(mpa_cmp.o)
 .debug_loc     0x000000000000efab      0x26d /home/yin/imx-optee/imx-optee-os/out/arm-plat-imx/export-ta_arm32/lib/libmpa.a(mpa_expmod.o)
 .debug_loc     0x000000000000f218       0x82 /home/yin/imx-optee/imx-optee-os/out/arm-plat-imx/export-ta_arm32/lib/libmpa.a(mpa_init.o)
 .debug_loc     0x000000000000f29a      0xbe1 /home/yin/imx-optee/imx-optee-os/out/arm-plat-imx/export-ta_arm32/lib/libmpa.a(mpa_io.o)
 .debug_loc     0x000000000000fe7b      0x350 /home/yin/imx-optee/imx-optee-os/out/arm-plat-imx/export-ta_arm32/lib/libmpa.a(mpa_modulus.o)
 .debug_loc     0x00000000000101cb       0xb4 /home/yin/imx-optee/imx-optee-os/out/arm-plat-imx/export-ta_arm32/lib/libutee.a(assert.o)

.debug_aranges  0x0000000000000000      0x7f0
 .debug_aranges
                0x0000000000000000       0x20 ./hotp_ta.o
 .debug_aranges
                0x0000000000000020       0x20 ./user_ta_header.o
 .debug_aranges
                0x0000000000000040       0x20 /home/yin/imx-optee/imx-optee-os/out/arm-plat-imx/export-ta_arm32/lib/libutee.a(tee_api_objects.o)
 .debug_aranges
                0x0000000000000060       0x20 /home/yin/imx-optee/imx-optee-os/out/arm-plat-imx/export-ta_arm32/lib/libutee.a(tee_api_operations.o)
 .debug_aranges
                0x0000000000000080       0x20 /home/yin/imx-optee/imx-optee-os/out/arm-plat-imx/export-ta_arm32/lib/libutee.a(tee_api_panic.o)
 .debug_aranges
                0x00000000000000a0       0x20 /home/yin/imx-optee/imx-optee-os/out/arm-plat-imx/export-ta_arm32/lib/libutee.a(user_ta_entry.o)
 .debug_aranges
                0x00000000000000c0      0x258 /home/yin/imx-optee/imx-optee-os/out/arm-plat-imx/export-ta_arm32/lib/libutee.a(utee_syscalls_a32.o)
 .debug_aranges
                0x0000000000000318       0x20 /home/yin/imx-optee/imx-optee-os/out/arm-plat-imx/export-ta_arm32/lib/libutee.a(gprof_a32.o)
 .debug_aranges
                0x0000000000000338       0x28 /home/yin/imx-optee/imx-optee-os/out/arm-plat-imx/export-ta_arm32/lib/libutee.a(tee_api_arith.o)
 .debug_aranges
                0x0000000000000360       0x20 /home/yin/imx-optee/imx-optee-os/out/arm-plat-imx/export-ta_arm32/lib/libutee.a(tee_api.o)
 .debug_aranges
                0x0000000000000380       0x20 /home/yin/imx-optee/imx-optee-os/out/arm-plat-imx/export-ta_arm32/lib/libutee.a(trace_ext.o)
 .debug_aranges
                0x00000000000003a0       0x20 /home/yin/imx-optee/imx-optee-os/out/arm-plat-imx/export-ta_arm32/lib/libutils.a(bget_malloc.o)
 .debug_aranges
                0x00000000000003c0       0x20 /home/yin/imx-optee/imx-optee-os/out/arm-plat-imx/export-ta_arm32/lib/libutils.a(snprintf.o)
 .debug_aranges
                0x00000000000003e0       0x20 /home/yin/imx-optee/imx-optee-os/out/arm-plat-imx/export-ta_arm32/lib/libutils.a(memcmp.o)
 .debug_aranges
                0x0000000000000400       0x20 /home/yin/imx-optee/imx-optee-os/out/arm-plat-imx/export-ta_arm32/lib/libutils.a(memcpy.o)
 .debug_aranges
                0x0000000000000420       0x20 /home/yin/imx-optee/imx-optee-os/out/arm-plat-imx/export-ta_arm32/lib/libutils.a(memmove.o)
 .debug_aranges
                0x0000000000000440       0x20 /home/yin/imx-optee/imx-optee-os/out/arm-plat-imx/export-ta_arm32/lib/libutils.a(memset.o)
 .debug_aranges
                0x0000000000000460       0x20 /home/yin/imx-optee/imx-optee-os/out/arm-plat-imx/export-ta_arm32/lib/libutils.a(strlen.o)
 .debug_aranges
                0x0000000000000480       0x20 /home/yin/imx-optee/imx-optee-os/out/arm-plat-imx/export-ta_arm32/lib/libutils.a(arm32_aeabi_divmod.o)
 .debug_aranges
                0x00000000000004a0       0x20 /home/yin/imx-optee/imx-optee-os/out/arm-plat-imx/export-ta_arm32/lib/libutils.a(snprintk.o)
 .debug_aranges
                0x00000000000004c0       0x20 /home/yin/imx-optee/imx-optee-os/out/arm-plat-imx/export-ta_arm32/lib/libutils.a(buf_compare_ct.o)
 .debug_aranges
                0x00000000000004e0       0x20 /home/yin/imx-optee/imx-optee-os/out/arm-plat-imx/export-ta_arm32/lib/libutils.a(trace.o)
 .debug_aranges
                0x0000000000000500       0x20 /home/yin/imx-optee/imx-optee-os/out/arm-plat-imx/export-ta_arm32/lib/libutils.a(mempool.o)
 .debug_aranges
                0x0000000000000520       0x20 /home/yin/imx-optee/imx-optee-os/out/arm-plat-imx/export-ta_arm32/lib/libutils.a(aeabi_unwind.o)
 .debug_aranges
                0x0000000000000540       0x20 /home/yin/imx-optee/imx-optee-os/out/arm-plat-imx/export-ta_arm32/lib/libutils.a(memchr.o)
 .debug_aranges
                0x0000000000000560       0x28 /home/yin/imx-optee/imx-optee-os/out/arm-plat-imx/export-ta_arm32/lib/libutils.a(arm32_aeabi_divmod_a32.o)
 .debug_aranges
                0x0000000000000588       0x28 /home/yin/imx-optee/imx-optee-os/out/arm-plat-imx/export-ta_arm32/lib/libutils.a(arm32_aeabi_ldivmod_a32.o)
 .debug_aranges
                0x00000000000005b0       0x20 /home/yin/imx-optee/imx-optee-os/out/arm-plat-imx/export-ta_arm32/lib/libutils.a(arm32_aeabi_ldivmod.o)
 .debug_aranges
                0x00000000000005d0       0x20 /home/yin/imx-optee/imx-optee-os/out/arm-plat-imx/export-ta_arm32/lib/libmpa.a(mpa_misc.o)
 .debug_aranges
                0x00000000000005f0       0x20 /home/yin/imx-optee/imx-optee-os/out/arm-plat-imx/export-ta_arm32/lib/libmpa.a(mpa_montgomery.o)
 .debug_aranges
                0x0000000000000610       0x20 /home/yin/imx-optee/imx-optee-os/out/arm-plat-imx/export-ta_arm32/lib/libmpa.a(mpa_primetest.o)
 .debug_aranges
                0x0000000000000630       0x20 /home/yin/imx-optee/imx-optee-os/out/arm-plat-imx/export-ta_arm32/lib/libmpa.a(mpa_conv.o)
 .debug_aranges
                0x0000000000000650       0x20 /home/yin/imx-optee/imx-optee-os/out/arm-plat-imx/export-ta_arm32/lib/libmpa.a(mpa_div.o)
 .debug_aranges
                0x0000000000000670       0x20 /home/yin/imx-optee/imx-optee-os/out/arm-plat-imx/export-ta_arm32/lib/libmpa.a(mpa_gcd.o)
 .debug_aranges
                0x0000000000000690       0x20 /home/yin/imx-optee/imx-optee-os/out/arm-plat-imx/export-ta_arm32/lib/libmpa.a(mpa_mem_static.o)
 .debug_aranges
                0x00000000000006b0       0x20 /home/yin/imx-optee/imx-optee-os/out/arm-plat-imx/export-ta_arm32/lib/libmpa.a(mpa_mul.o)
 .debug_aranges
                0x00000000000006d0       0x20 /home/yin/imx-optee/imx-optee-os/out/arm-plat-imx/export-ta_arm32/lib/libmpa.a(mpa_random.o)
 .debug_aranges
                0x00000000000006f0       0x20 /home/yin/imx-optee/imx-optee-os/out/arm-plat-imx/export-ta_arm32/lib/libmpa.a(mpa_shift.o)
 .debug_aranges
                0x0000000000000710       0x20 /home/yin/imx-optee/imx-optee-os/out/arm-plat-imx/export-ta_arm32/lib/libmpa.a(mpa_addsub.o)
 .debug_aranges
                0x0000000000000730       0x20 /home/yin/imx-optee/imx-optee-os/out/arm-plat-imx/export-ta_arm32/lib/libmpa.a(mpa_cmp.o)
 .debug_aranges
                0x0000000000000750       0x20 /home/yin/imx-optee/imx-optee-os/out/arm-plat-imx/export-ta_arm32/lib/libmpa.a(mpa_expmod.o)
 .debug_aranges
                0x0000000000000770       0x20 /home/yin/imx-optee/imx-optee-os/out/arm-plat-imx/export-ta_arm32/lib/libmpa.a(mpa_init.o)
 .debug_aranges
                0x0000000000000790       0x20 /home/yin/imx-optee/imx-optee-os/out/arm-plat-imx/export-ta_arm32/lib/libmpa.a(mpa_io.o)
 .debug_aranges
                0x00000000000007b0       0x20 /home/yin/imx-optee/imx-optee-os/out/arm-plat-imx/export-ta_arm32/lib/libmpa.a(mpa_modulus.o)
 .debug_aranges
                0x00000000000007d0       0x20 /home/yin/imx-optee/imx-optee-os/out/arm-plat-imx/export-ta_arm32/lib/libutee.a(assert.o)

.debug_ranges   0x0000000000000000      0x9d0
 .debug_ranges  0x0000000000000000       0x78 ./hotp_ta.o
 .debug_ranges  0x0000000000000078       0x68 /home/yin/imx-optee/imx-optee-os/out/arm-plat-imx/export-ta_arm32/lib/libutee.a(tee_api_operations.o)
 .debug_ranges  0x00000000000000e0       0x98 /home/yin/imx-optee/imx-optee-os/out/arm-plat-imx/export-ta_arm32/lib/libutee.a(user_ta_entry.o)
 .debug_ranges  0x0000000000000178      0x250 /home/yin/imx-optee/imx-optee-os/out/arm-plat-imx/export-ta_arm32/lib/libutee.a(utee_syscalls_a32.o)
 .debug_ranges  0x00000000000003c8       0xa8 /home/yin/imx-optee/imx-optee-os/out/arm-plat-imx/export-ta_arm32/lib/libutee.a(tee_api_arith.o)
 .debug_ranges  0x0000000000000470       0x18 /home/yin/imx-optee/imx-optee-os/out/arm-plat-imx/export-ta_arm32/lib/libutee.a(tee_api.o)
 .debug_ranges  0x0000000000000488      0x188 /home/yin/imx-optee/imx-optee-os/out/arm-plat-imx/export-ta_arm32/lib/libutils.a(bget_malloc.o)
 .debug_ranges  0x0000000000000610       0x18 /home/yin/imx-optee/imx-optee-os/out/arm-plat-imx/export-ta_arm32/lib/libutils.a(arm32_aeabi_divmod.o)
 .debug_ranges  0x0000000000000628       0x40 /home/yin/imx-optee/imx-optee-os/out/arm-plat-imx/export-ta_arm32/lib/libutils.a(snprintk.o)
 .debug_ranges  0x0000000000000668       0x38 /home/yin/imx-optee/imx-optee-os/out/arm-plat-imx/export-ta_arm32/lib/libutils.a(trace.o)
 .debug_ranges  0x00000000000006a0       0x20 /home/yin/imx-optee/imx-optee-os/out/arm-plat-imx/export-ta_arm32/lib/libutils.a(arm32_aeabi_divmod_a32.o)
 .debug_ranges  0x00000000000006c0       0x20 /home/yin/imx-optee/imx-optee-os/out/arm-plat-imx/export-ta_arm32/lib/libutils.a(arm32_aeabi_ldivmod_a32.o)
 .debug_ranges  0x00000000000006e0       0x78 /home/yin/imx-optee/imx-optee-os/out/arm-plat-imx/export-ta_arm32/lib/libutils.a(arm32_aeabi_ldivmod.o)
 .debug_ranges  0x0000000000000758       0x20 /home/yin/imx-optee/imx-optee-os/out/arm-plat-imx/export-ta_arm32/lib/libmpa.a(mpa_montgomery.o)
 .debug_ranges  0x0000000000000778       0x60 /home/yin/imx-optee/imx-optee-os/out/arm-plat-imx/export-ta_arm32/lib/libmpa.a(mpa_primetest.o)
 .debug_ranges  0x00000000000007d8       0x38 /home/yin/imx-optee/imx-optee-os/out/arm-plat-imx/export-ta_arm32/lib/libmpa.a(mpa_div.o)
 .debug_ranges  0x0000000000000810       0x18 /home/yin/imx-optee/imx-optee-os/out/arm-plat-imx/export-ta_arm32/lib/libmpa.a(mpa_gcd.o)
 .debug_ranges  0x0000000000000828       0x18 /home/yin/imx-optee/imx-optee-os/out/arm-plat-imx/export-ta_arm32/lib/libmpa.a(mpa_mul.o)
 .debug_ranges  0x0000000000000840       0x98 /home/yin/imx-optee/imx-optee-os/out/arm-plat-imx/export-ta_arm32/lib/libmpa.a(mpa_random.o)
 .debug_ranges  0x00000000000008d8       0x18 /home/yin/imx-optee/imx-optee-os/out/arm-plat-imx/export-ta_arm32/lib/libmpa.a(mpa_addsub.o)
 .debug_ranges  0x00000000000008f0       0xe0 /home/yin/imx-optee/imx-optee-os/out/arm-plat-imx/export-ta_arm32/lib/libmpa.a(mpa_io.o)

.debug_macro    0x0000000000000000     0x5c64
 .debug_macro   0x0000000000000000       0xfb ./hotp_ta.o
 .debug_macro   0x00000000000000fb      0x95e ./hotp_ta.o
 .debug_macro   0x0000000000000a59       0x1c ./hotp_ta.o
 .debug_macro   0x0000000000000a75      0x16d ./hotp_ta.o
 .debug_macro   0x0000000000000be2       0x16 ./hotp_ta.o
 .debug_macro   0x0000000000000bf8       0x22 ./hotp_ta.o
 .debug_macro   0x0000000000000c1a       0xcd ./hotp_ta.o
 .debug_macro   0x0000000000000ce7       0x34 ./hotp_ta.o
 .debug_macro   0x0000000000000d1b       0x94 ./hotp_ta.o
 .debug_macro   0x0000000000000daf       0x58 ./hotp_ta.o
 .debug_macro   0x0000000000000e07       0xc4 ./hotp_ta.o
 .debug_macro   0x0000000000000ecb       0x7c ./hotp_ta.o
 .debug_macro   0x0000000000000f47      0x184 ./hotp_ta.o
 .debug_macro   0x00000000000010cb      0x8e8 ./hotp_ta.o
 .debug_macro   0x00000000000019b3       0x35 ./hotp_ta.o
 .debug_macro   0x00000000000019e8       0x10 ./hotp_ta.o
 .debug_macro   0x00000000000019f8       0xfe ./user_ta_header.o
 .debug_macro   0x0000000000001af6       0xc4 ./user_ta_header.o
 .debug_macro   0x0000000000001bba       0x7c ./user_ta_header.o
 .debug_macro   0x0000000000001c36       0x22 ./user_ta_header.o
 .debug_macro   0x0000000000001c58      0x13e /home/yin/imx-optee/imx-optee-os/out/arm-plat-imx/export-ta_arm32/lib/libutee.a(tee_api_objects.o)
 .debug_macro   0x0000000000001d96      0x92e /home/yin/imx-optee/imx-optee-os/out/arm-plat-imx/export-ta_arm32/lib/libutee.a(tee_api_objects.o)
 .debug_macro   0x00000000000026c4      0x36c /home/yin/imx-optee/imx-optee-os/out/arm-plat-imx/export-ta_arm32/lib/libutee.a(tee_api_objects.o)
 .debug_macro   0x0000000000002a30       0xc4 /home/yin/imx-optee/imx-optee-os/out/arm-plat-imx/export-ta_arm32/lib/libutee.a(tee_api_objects.o)
 .debug_macro   0x0000000000002af4       0x22 /home/yin/imx-optee/imx-optee-os/out/arm-plat-imx/export-ta_arm32/lib/libutee.a(tee_api_objects.o)
 .debug_macro   0x0000000000002b16       0x94 /home/yin/imx-optee/imx-optee-os/out/arm-plat-imx/export-ta_arm32/lib/libutee.a(tee_api_objects.o)
 .debug_macro   0x0000000000002baa      0x186 /home/yin/imx-optee/imx-optee-os/out/arm-plat-imx/export-ta_arm32/lib/libutee.a(tee_api_operations.o)
 .debug_macro   0x0000000000002d30      0x1b0 /home/yin/imx-optee/imx-optee-os/out/arm-plat-imx/export-ta_arm32/lib/libutee.a(tee_api_operations.o)
 .debug_macro   0x0000000000002ee0       0xb8 /home/yin/imx-optee/imx-optee-os/out/arm-plat-imx/export-ta_arm32/lib/libutee.a(tee_api_panic.o)
 .debug_macro   0x0000000000002f98      0x19d /home/yin/imx-optee/imx-optee-os/out/arm-plat-imx/export-ta_arm32/lib/libutee.a(user_ta_entry.o)
 .debug_macro   0x0000000000003135      0x2cd /home/yin/imx-optee/imx-optee-os/out/arm-plat-imx/export-ta_arm32/lib/libutee.a(user_ta_entry.o)
 .debug_macro   0x0000000000003402       0x34 /home/yin/imx-optee/imx-optee-os/out/arm-plat-imx/export-ta_arm32/lib/libutee.a(user_ta_entry.o)
 .debug_macro   0x0000000000003436      0x16a /home/yin/imx-optee/imx-optee-os/out/arm-plat-imx/export-ta_arm32/lib/libutee.a(tee_api_arith.o)
 .debug_macro   0x00000000000035a0       0x10 /home/yin/imx-optee/imx-optee-os/out/arm-plat-imx/export-ta_arm32/lib/libutee.a(tee_api_arith.o)
 .debug_macro   0x00000000000035b0       0x4c /home/yin/imx-optee/imx-optee-os/out/arm-plat-imx/export-ta_arm32/lib/libutee.a(tee_api_arith.o)
 .debug_macro   0x00000000000035fc       0x16 /home/yin/imx-optee/imx-optee-os/out/arm-plat-imx/export-ta_arm32/lib/libutee.a(tee_api_arith.o)
 .debug_macro   0x0000000000003612       0x6b /home/yin/imx-optee/imx-optee-os/out/arm-plat-imx/export-ta_arm32/lib/libutee.a(tee_api_arith.o)
 .debug_macro   0x000000000000367d      0x17e /home/yin/imx-optee/imx-optee-os/out/arm-plat-imx/export-ta_arm32/lib/libutee.a(tee_api.o)
 .debug_macro   0x00000000000037fb       0xf9 /home/yin/imx-optee/imx-optee-os/out/arm-plat-imx/export-ta_arm32/lib/libutee.a(trace_ext.o)
 .debug_macro   0x00000000000038f4      0x144 /home/yin/imx-optee/imx-optee-os/out/arm-plat-imx/export-ta_arm32/lib/libutils.a(bget_malloc.o)
 .debug_macro   0x0000000000003a38       0x16 /home/yin/imx-optee/imx-optee-os/out/arm-plat-imx/export-ta_arm32/lib/libutils.a(bget_malloc.o)
 .debug_macro   0x0000000000003a4e       0x3c /home/yin/imx-optee/imx-optee-os/out/arm-plat-imx/export-ta_arm32/lib/libutils.a(bget_malloc.o)
 .debug_macro   0x0000000000003a8a       0x4d /home/yin/imx-optee/imx-optee-os/out/arm-plat-imx/export-ta_arm32/lib/libutils.a(snprintf.o)
 .debug_macro   0x0000000000003ad7       0x51 /home/yin/imx-optee/imx-optee-os/out/arm-plat-imx/export-ta_arm32/lib/libutils.a(memcmp.o)
 .debug_macro   0x0000000000003b28      0x92e /home/yin/imx-optee/imx-optee-os/out/arm-plat-imx/export-ta_arm32/lib/libutils.a(memcmp.o)
 .debug_macro   0x0000000000004456       0x7c /home/yin/imx-optee/imx-optee-os/out/arm-plat-imx/export-ta_arm32/lib/libutils.a(memcmp.o)
 .debug_macro   0x00000000000044d2       0x57 /home/yin/imx-optee/imx-optee-os/out/arm-plat-imx/export-ta_arm32/lib/libutils.a(memcpy.o)
 .debug_macro   0x0000000000004529       0x64 /home/yin/imx-optee/imx-optee-os/out/arm-plat-imx/export-ta_arm32/lib/libutils.a(memmove.o)
 .debug_macro   0x000000000000458d       0x51 /home/yin/imx-optee/imx-optee-os/out/arm-plat-imx/export-ta_arm32/lib/libutils.a(memset.o)
 .debug_macro   0x00000000000045de       0x5a /home/yin/imx-optee/imx-optee-os/out/arm-plat-imx/export-ta_arm32/lib/libutils.a(strlen.o)
 .debug_macro   0x0000000000004638       0x1a /home/yin/imx-optee/imx-optee-os/out/arm-plat-imx/export-ta_arm32/lib/libutils.a(arm32_aeabi_divmod.o)
 .debug_macro   0x0000000000004652      0x134 /home/yin/imx-optee/imx-optee-os/out/arm-plat-imx/export-ta_arm32/lib/libutils.a(snprintk.o)
 .debug_macro   0x0000000000004786       0x36 /home/yin/imx-optee/imx-optee-os/out/arm-plat-imx/export-ta_arm32/lib/libutils.a(buf_compare_ct.o)
 .debug_macro   0x00000000000047bc       0xe1 /home/yin/imx-optee/imx-optee-os/out/arm-plat-imx/export-ta_arm32/lib/libutils.a(trace.o)
 .debug_macro   0x000000000000489d       0xdf /home/yin/imx-optee/imx-optee-os/out/arm-plat-imx/export-ta_arm32/lib/libutils.a(mempool.o)
 .debug_macro   0x000000000000497c       0x10 /home/yin/imx-optee/imx-optee-os/out/arm-plat-imx/export-ta_arm32/lib/libutils.a(mempool.o)
 .debug_macro   0x000000000000498c       0x1a /home/yin/imx-optee/imx-optee-os/out/arm-plat-imx/export-ta_arm32/lib/libutils.a(aeabi_unwind.o)
 .debug_macro   0x00000000000049a6       0x66 /home/yin/imx-optee/imx-optee-os/out/arm-plat-imx/export-ta_arm32/lib/libutils.a(memchr.o)
 .debug_macro   0x0000000000004a0c       0x1a /home/yin/imx-optee/imx-optee-os/out/arm-plat-imx/export-ta_arm32/lib/libutils.a(arm32_aeabi_ldivmod.o)
 .debug_macro   0x0000000000004a26       0xfb /home/yin/imx-optee/imx-optee-os/out/arm-plat-imx/export-ta_arm32/lib/libmpa.a(mpa_misc.o)
 .debug_macro   0x0000000000004b21       0xa6 /home/yin/imx-optee/imx-optee-os/out/arm-plat-imx/export-ta_arm32/lib/libmpa.a(mpa_misc.o)
 .debug_macro   0x0000000000004bc7       0xfb /home/yin/imx-optee/imx-optee-os/out/arm-plat-imx/export-ta_arm32/lib/libmpa.a(mpa_montgomery.o)
 .debug_macro   0x0000000000004cc2      0x121 /home/yin/imx-optee/imx-optee-os/out/arm-plat-imx/export-ta_arm32/lib/libmpa.a(mpa_primetest.o)
 .debug_macro   0x0000000000004de3       0xfb /home/yin/imx-optee/imx-optee-os/out/arm-plat-imx/export-ta_arm32/lib/libmpa.a(mpa_conv.o)
 .debug_macro   0x0000000000004ede       0xfb /home/yin/imx-optee/imx-optee-os/out/arm-plat-imx/export-ta_arm32/lib/libmpa.a(mpa_div.o)
 .debug_macro   0x0000000000004fd9       0xfb /home/yin/imx-optee/imx-optee-os/out/arm-plat-imx/export-ta_arm32/lib/libmpa.a(mpa_gcd.o)
 .debug_macro   0x00000000000050d4      0x12a /home/yin/imx-optee/imx-optee-os/out/arm-plat-imx/export-ta_arm32/lib/libmpa.a(mpa_mem_static.o)
 .debug_macro   0x00000000000051fe       0xfb /home/yin/imx-optee/imx-optee-os/out/arm-plat-imx/export-ta_arm32/lib/libmpa.a(mpa_mul.o)
 .debug_macro   0x00000000000052f9      0x153 /home/yin/imx-optee/imx-optee-os/out/arm-plat-imx/export-ta_arm32/lib/libmpa.a(mpa_random.o)
 .debug_macro   0x000000000000544c       0xfb /home/yin/imx-optee/imx-optee-os/out/arm-plat-imx/export-ta_arm32/lib/libmpa.a(mpa_shift.o)
 .debug_macro   0x0000000000005547       0xfb /home/yin/imx-optee/imx-optee-os/out/arm-plat-imx/export-ta_arm32/lib/libmpa.a(mpa_addsub.o)
 .debug_macro   0x0000000000005642       0xfb /home/yin/imx-optee/imx-optee-os/out/arm-plat-imx/export-ta_arm32/lib/libmpa.a(mpa_cmp.o)
 .debug_macro   0x000000000000573d      0x101 /home/yin/imx-optee/imx-optee-os/out/arm-plat-imx/export-ta_arm32/lib/libmpa.a(mpa_expmod.o)
 .debug_macro   0x000000000000583e       0xfb /home/yin/imx-optee/imx-optee-os/out/arm-plat-imx/export-ta_arm32/lib/libmpa.a(mpa_init.o)
 .debug_macro   0x0000000000005939      0x126 /home/yin/imx-optee/imx-optee-os/out/arm-plat-imx/export-ta_arm32/lib/libmpa.a(mpa_io.o)
 .debug_macro   0x0000000000005a5f       0xfb /home/yin/imx-optee/imx-optee-os/out/arm-plat-imx/export-ta_arm32/lib/libmpa.a(mpa_modulus.o)
 .debug_macro   0x0000000000005b5a      0x10a /home/yin/imx-optee/imx-optee-os/out/arm-plat-imx/export-ta_arm32/lib/libutee.a(assert.o)

.debug_line     0x0000000000000000     0x6f2f
 .debug_line    0x0000000000000000      0x2d1 ./hotp_ta.o
 .debug_line    0x00000000000002d1      0x257 ./user_ta_header.o
 .debug_line    0x0000000000000528      0x490 /home/yin/imx-optee/imx-optee-os/out/arm-plat-imx/export-ta_arm32/lib/libutee.a(tee_api_objects.o)
 .debug_line    0x00000000000009b8      0x955 /home/yin/imx-optee/imx-optee-os/out/arm-plat-imx/export-ta_arm32/lib/libutee.a(tee_api_operations.o)
 .debug_line    0x000000000000130d      0x1ca /home/yin/imx-optee/imx-optee-os/out/arm-plat-imx/export-ta_arm32/lib/libutee.a(tee_api_panic.o)
 .debug_line    0x00000000000014d7      0x3ea /home/yin/imx-optee/imx-optee-os/out/arm-plat-imx/export-ta_arm32/lib/libutee.a(user_ta_entry.o)
 .debug_line    0x00000000000018c1      0x554 /home/yin/imx-optee/imx-optee-os/out/arm-plat-imx/export-ta_arm32/lib/libutee.a(utee_syscalls_a32.o)
 .debug_line    0x0000000000001e15       0x58 /home/yin/imx-optee/imx-optee-os/out/arm-plat-imx/export-ta_arm32/lib/libutee.a(gprof_a32.o)
 .debug_line    0x0000000000001e6d      0x3bb /home/yin/imx-optee/imx-optee-os/out/arm-plat-imx/export-ta_arm32/lib/libutee.a(tee_api_arith.o)
 .debug_line    0x0000000000002228      0x384 /home/yin/imx-optee/imx-optee-os/out/arm-plat-imx/export-ta_arm32/lib/libutee.a(tee_api.o)
 .debug_line    0x00000000000025ac      0x24e /home/yin/imx-optee/imx-optee-os/out/arm-plat-imx/export-ta_arm32/lib/libutee.a(trace_ext.o)
 .debug_line    0x00000000000027fa      0x4db /home/yin/imx-optee/imx-optee-os/out/arm-plat-imx/export-ta_arm32/lib/libutils.a(bget_malloc.o)
 .debug_line    0x0000000000002cd5      0x148 /home/yin/imx-optee/imx-optee-os/out/arm-plat-imx/export-ta_arm32/lib/libutils.a(snprintf.o)
 .debug_line    0x0000000000002e1d      0x136 /home/yin/imx-optee/imx-optee-os/out/arm-plat-imx/export-ta_arm32/lib/libutils.a(memcmp.o)
 .debug_line    0x0000000000002f53      0x134 /home/yin/imx-optee/imx-optee-os/out/arm-plat-imx/export-ta_arm32/lib/libutils.a(memcpy.o)
 .debug_line    0x0000000000003087      0x14c /home/yin/imx-optee/imx-optee-os/out/arm-plat-imx/export-ta_arm32/lib/libutils.a(memmove.o)
 .debug_line    0x00000000000031d3      0x133 /home/yin/imx-optee/imx-optee-os/out/arm-plat-imx/export-ta_arm32/lib/libutils.a(memset.o)
 .debug_line    0x0000000000003306      0x13d /home/yin/imx-optee/imx-optee-os/out/arm-plat-imx/export-ta_arm32/lib/libutils.a(strlen.o)
 .debug_line    0x0000000000003443      0x135 /home/yin/imx-optee/imx-optee-os/out/arm-plat-imx/export-ta_arm32/lib/libutils.a(arm32_aeabi_divmod.o)
 .debug_line    0x0000000000003578      0x329 /home/yin/imx-optee/imx-optee-os/out/arm-plat-imx/export-ta_arm32/lib/libutils.a(snprintk.o)
 .debug_line    0x00000000000038a1      0x12c /home/yin/imx-optee/imx-optee-os/out/arm-plat-imx/export-ta_arm32/lib/libutils.a(buf_compare_ct.o)
 .debug_line    0x00000000000039cd      0x2a4 /home/yin/imx-optee/imx-optee-os/out/arm-plat-imx/export-ta_arm32/lib/libutils.a(trace.o)
 .debug_line    0x0000000000003c71      0x1e3 /home/yin/imx-optee/imx-optee-os/out/arm-plat-imx/export-ta_arm32/lib/libutils.a(mempool.o)
 .debug_line    0x0000000000003e54       0x87 /home/yin/imx-optee/imx-optee-os/out/arm-plat-imx/export-ta_arm32/lib/libutils.a(aeabi_unwind.o)
 .debug_line    0x0000000000003edb      0x141 /home/yin/imx-optee/imx-optee-os/out/arm-plat-imx/export-ta_arm32/lib/libutils.a(memchr.o)
 .debug_line    0x000000000000401c       0x72 /home/yin/imx-optee/imx-optee-os/out/arm-plat-imx/export-ta_arm32/lib/libutils.a(arm32_aeabi_divmod_a32.o)
 .debug_line    0x000000000000408e       0x7d /home/yin/imx-optee/imx-optee-os/out/arm-plat-imx/export-ta_arm32/lib/libutils.a(arm32_aeabi_ldivmod_a32.o)
 .debug_line    0x000000000000410b      0x106 /home/yin/imx-optee/imx-optee-os/out/arm-plat-imx/export-ta_arm32/lib/libutils.a(arm32_aeabi_ldivmod.o)
 .debug_line    0x0000000000004211      0x22d /home/yin/imx-optee/imx-optee-os/out/arm-plat-imx/export-ta_arm32/lib/libmpa.a(mpa_misc.o)
 .debug_line    0x000000000000443e      0x2b7 /home/yin/imx-optee/imx-optee-os/out/arm-plat-imx/export-ta_arm32/lib/libmpa.a(mpa_montgomery.o)
 .debug_line    0x00000000000046f5      0x291 /home/yin/imx-optee/imx-optee-os/out/arm-plat-imx/export-ta_arm32/lib/libmpa.a(mpa_primetest.o)
 .debug_line    0x0000000000004986      0x22e /home/yin/imx-optee/imx-optee-os/out/arm-plat-imx/export-ta_arm32/lib/libmpa.a(mpa_conv.o)
 .debug_line    0x0000000000004bb4      0x311 /home/yin/imx-optee/imx-optee-os/out/arm-plat-imx/export-ta_arm32/lib/libmpa.a(mpa_div.o)
 .debug_line    0x0000000000004ec5      0x35c /home/yin/imx-optee/imx-optee-os/out/arm-plat-imx/export-ta_arm32/lib/libmpa.a(mpa_gcd.o)
 .debug_line    0x0000000000005221      0x22d /home/yin/imx-optee/imx-optee-os/out/arm-plat-imx/export-ta_arm32/lib/libmpa.a(mpa_mem_static.o)
 .debug_line    0x000000000000544e      0x2bb /home/yin/imx-optee/imx-optee-os/out/arm-plat-imx/export-ta_arm32/lib/libmpa.a(mpa_mul.o)
 .debug_line    0x0000000000005709      0x2af /home/yin/imx-optee/imx-optee-os/out/arm-plat-imx/export-ta_arm32/lib/libmpa.a(mpa_random.o)
 .debug_line    0x00000000000059b8      0x31f /home/yin/imx-optee/imx-optee-os/out/arm-plat-imx/export-ta_arm32/lib/libmpa.a(mpa_shift.o)
 .debug_line    0x0000000000005cd7      0x37f /home/yin/imx-optee/imx-optee-os/out/arm-plat-imx/export-ta_arm32/lib/libmpa.a(mpa_addsub.o)
 .debug_line    0x0000000000006056      0x25d /home/yin/imx-optee/imx-optee-os/out/arm-plat-imx/export-ta_arm32/lib/libmpa.a(mpa_cmp.o)
 .debug_line    0x00000000000062b3      0x232 /home/yin/imx-optee/imx-optee-os/out/arm-plat-imx/export-ta_arm32/lib/libmpa.a(mpa_expmod.o)
 .debug_line    0x00000000000064e5      0x202 /home/yin/imx-optee/imx-optee-os/out/arm-plat-imx/export-ta_arm32/lib/libmpa.a(mpa_init.o)
 .debug_line    0x00000000000066e7      0x3bf /home/yin/imx-optee/imx-optee-os/out/arm-plat-imx/export-ta_arm32/lib/libmpa.a(mpa_io.o)
 .debug_line    0x0000000000006aa6      0x239 /home/yin/imx-optee/imx-optee-os/out/arm-plat-imx/export-ta_arm32/lib/libmpa.a(mpa_modulus.o)
 .debug_line    0x0000000000006cdf      0x250 /home/yin/imx-optee/imx-optee-os/out/arm-plat-imx/export-ta_arm32/lib/libutee.a(assert.o)

.debug_str      0x0000000000000000    0x11926
 .debug_str     0x0000000000000000     0x79ee ./hotp_ta.o
                                       0x7bd8 (size before relaxing)
 .debug_str     0x00000000000079ee      0xd3c ./user_ta_header.o
                                       0x8536 (size before relaxing)
 .debug_str     0x000000000000872a     0x1674 /home/yin/imx-optee/imx-optee-os/out/arm-plat-imx/export-ta_arm32/lib/libutee.a(tee_api_objects.o)
                                       0x881e (size before relaxing)
 .debug_str     0x0000000000009d9e     0x1307 /home/yin/imx-optee/imx-optee-os/out/arm-plat-imx/export-ta_arm32/lib/libutee.a(tee_api_operations.o)
                                       0xa317 (size before relaxing)
 .debug_str     0x000000000000b0a5       0x31 /home/yin/imx-optee/imx-optee-os/out/arm-plat-imx/export-ta_arm32/lib/libutee.a(tee_api_panic.o)
                                       0x7f02 (size before relaxing)
 .debug_str     0x000000000000b0d6     0x3533 /home/yin/imx-optee/imx-optee-os/out/arm-plat-imx/export-ta_arm32/lib/libutee.a(user_ta_entry.o)
                                       0xc84e (size before relaxing)
 .debug_str     0x000000000000e609      0xc0a /home/yin/imx-optee/imx-optee-os/out/arm-plat-imx/export-ta_arm32/lib/libutee.a(tee_api_arith.o)
                                       0x8e7e (size before relaxing)
 .debug_str     0x000000000000f213      0x3ed /home/yin/imx-optee/imx-optee-os/out/arm-plat-imx/export-ta_arm32/lib/libutee.a(tee_api.o)
                                       0x9651 (size before relaxing)
 .debug_str     0x000000000000f600       0x85 /home/yin/imx-optee/imx-optee-os/out/arm-plat-imx/export-ta_arm32/lib/libutee.a(trace_ext.o)
                                       0x87a2 (size before relaxing)
 .debug_str     0x000000000000f685      0x5d9 /home/yin/imx-optee/imx-optee-os/out/arm-plat-imx/export-ta_arm32/lib/libutils.a(bget_malloc.o)
                                       0x5a93 (size before relaxing)
 .debug_str     0x000000000000fc5e       0x3a /home/yin/imx-optee/imx-optee-os/out/arm-plat-imx/export-ta_arm32/lib/libutils.a(snprintf.o)
                                       0x377c (size before relaxing)
 .debug_str     0x000000000000fc98      0x345 /home/yin/imx-optee/imx-optee-os/out/arm-plat-imx/export-ta_arm32/lib/libutils.a(memcmp.o)
                                       0x3847 (size before relaxing)
 .debug_str     0x000000000000ffdd       0x9c /home/yin/imx-optee/imx-optee-os/out/arm-plat-imx/export-ta_arm32/lib/libutils.a(memcpy.o)
                                       0x387a (size before relaxing)
 .debug_str     0x0000000000010079       0x35 /home/yin/imx-optee/imx-optee-os/out/arm-plat-imx/export-ta_arm32/lib/libutils.a(memmove.o)
                                       0x3a60 (size before relaxing)
 .debug_str     0x00000000000100ae       0x4c /home/yin/imx-optee/imx-optee-os/out/arm-plat-imx/export-ta_arm32/lib/libutils.a(memset.o)
                                       0x3817 (size before relaxing)
 .debug_str     0x00000000000100fa       0x5c /home/yin/imx-optee/imx-optee-os/out/arm-plat-imx/export-ta_arm32/lib/libutils.a(strlen.o)
                                       0x3a12 (size before relaxing)
 .debug_str     0x0000000000010156       0xd2 /home/yin/imx-optee/imx-optee-os/out/arm-plat-imx/export-ta_arm32/lib/libutils.a(arm32_aeabi_divmod.o)
                                       0x3363 (size before relaxing)
 .debug_str     0x0000000000010228      0x577 /home/yin/imx-optee/imx-optee-os/out/arm-plat-imx/export-ta_arm32/lib/libutils.a(snprintk.o)
                                       0x44fd (size before relaxing)
 .debug_str     0x000000000001079f       0x22 /home/yin/imx-optee/imx-optee-os/out/arm-plat-imx/export-ta_arm32/lib/libutils.a(buf_compare_ct.o)
                                       0x3625 (size before relaxing)
 .debug_str     0x00000000000107c1       0xba /home/yin/imx-optee/imx-optee-os/out/arm-plat-imx/export-ta_arm32/lib/libutils.a(trace.o)
                                       0x5545 (size before relaxing)
 .debug_str     0x000000000001087b       0xe1 /home/yin/imx-optee/imx-optee-os/out/arm-plat-imx/export-ta_arm32/lib/libutils.a(mempool.o)
                                       0x54af (size before relaxing)
 .debug_str     0x000000000001095c       0x6e /home/yin/imx-optee/imx-optee-os/out/arm-plat-imx/export-ta_arm32/lib/libutils.a(aeabi_unwind.o)
                                       0x32e1 (size before relaxing)
 .debug_str     0x00000000000109ca       0x78 /home/yin/imx-optee/imx-optee-os/out/arm-plat-imx/export-ta_arm32/lib/libutils.a(memchr.o)
                                       0x3a75 (size before relaxing)
 .debug_str     0x0000000000010a42       0x70 /home/yin/imx-optee/imx-optee-os/out/arm-plat-imx/export-ta_arm32/lib/libutils.a(arm32_aeabi_ldivmod.o)
                                       0x332b (size before relaxing)
 .debug_str     0x0000000000010ab2      0x537 /home/yin/imx-optee/imx-optee-os/out/arm-plat-imx/export-ta_arm32/lib/libmpa.a(mpa_misc.o)
                                       0x521f (size before relaxing)
 .debug_str     0x0000000000010fe9       0xea /home/yin/imx-optee/imx-optee-os/out/arm-plat-imx/export-ta_arm32/lib/libmpa.a(mpa_montgomery.o)
                                       0x5373 (size before relaxing)
 .debug_str     0x00000000000110d3      0x1b5 /home/yin/imx-optee/imx-optee-os/out/arm-plat-imx/export-ta_arm32/lib/libmpa.a(mpa_primetest.o)
                                       0x5454 (size before relaxing)
 .debug_str     0x0000000000011288       0x20 /home/yin/imx-optee/imx-optee-os/out/arm-plat-imx/export-ta_arm32/lib/libmpa.a(mpa_conv.o)
                                       0x51c8 (size before relaxing)
 .debug_str     0x00000000000112a8      0x14c /home/yin/imx-optee/imx-optee-os/out/arm-plat-imx/export-ta_arm32/lib/libmpa.a(mpa_div.o)
                                       0x53be (size before relaxing)
 .debug_str     0x00000000000113f4       0x8b /home/yin/imx-optee/imx-optee-os/out/arm-plat-imx/export-ta_arm32/lib/libmpa.a(mpa_gcd.o)
                                       0x52ee (size before relaxing)
 .debug_str     0x000000000001147f       0x45 /home/yin/imx-optee/imx-optee-os/out/arm-plat-imx/export-ta_arm32/lib/libmpa.a(mpa_mem_static.o)
                                       0x5ea7 (size before relaxing)
 .debug_str     0x00000000000114c4       0x59 /home/yin/imx-optee/imx-optee-os/out/arm-plat-imx/export-ta_arm32/lib/libmpa.a(mpa_mul.o)
                                       0x52c3 (size before relaxing)
 .debug_str     0x000000000001151d       0x4c /home/yin/imx-optee/imx-optee-os/out/arm-plat-imx/export-ta_arm32/lib/libmpa.a(mpa_random.o)
                                       0x8b94 (size before relaxing)
 .debug_str     0x0000000000011569       0x33 /home/yin/imx-optee/imx-optee-os/out/arm-plat-imx/export-ta_arm32/lib/libmpa.a(mpa_shift.o)
                                       0x5234 (size before relaxing)
 .debug_str     0x000000000001159c       0xf8 /home/yin/imx-optee/imx-optee-os/out/arm-plat-imx/export-ta_arm32/lib/libmpa.a(mpa_addsub.o)
                                       0x5393 (size before relaxing)
 .debug_str     0x0000000000011694       0x3c /home/yin/imx-optee/imx-optee-os/out/arm-plat-imx/export-ta_arm32/lib/libmpa.a(mpa_cmp.o)
                                       0x5200 (size before relaxing)
 .debug_str     0x00000000000116d0       0x81 /home/yin/imx-optee/imx-optee-os/out/arm-plat-imx/export-ta_arm32/lib/libmpa.a(mpa_expmod.o)
                                       0x5314 (size before relaxing)
 .debug_str     0x0000000000011751       0x1e /home/yin/imx-optee/imx-optee-os/out/arm-plat-imx/export-ta_arm32/lib/libmpa.a(mpa_init.o)
                                       0x5209 (size before relaxing)
 .debug_str     0x000000000001176f      0x17f /home/yin/imx-optee/imx-optee-os/out/arm-plat-imx/export-ta_arm32/lib/libmpa.a(mpa_io.o)
                                       0x5a43 (size before relaxing)
 .debug_str     0x00000000000118ee       0x19 /home/yin/imx-optee/imx-optee-os/out/arm-plat-imx/export-ta_arm32/lib/libmpa.a(mpa_modulus.o)
                                       0x52b3 (size before relaxing)
 .debug_str     0x0000000000011907       0x1f /home/yin/imx-optee/imx-optee-os/out/arm-plat-imx/export-ta_arm32/lib/libutee.a(assert.o)
                                       0x8674 (size before relaxing)

.comment        0x0000000000000000       0x24
 .comment       0x0000000000000000       0x24 ./hotp_ta.o
                                         0x25 (size before relaxing)
 .comment       0x0000000000000024       0x25 ./user_ta_header.o
 .comment       0x0000000000000024       0x25 /home/yin/imx-optee/imx-optee-os/out/arm-plat-imx/export-ta_arm32/lib/libutee.a(tee_api_objects.o)
 .comment       0x0000000000000024       0x25 /home/yin/imx-optee/imx-optee-os/out/arm-plat-imx/export-ta_arm32/lib/libutee.a(tee_api_operations.o)
 .comment       0x0000000000000024       0x25 /home/yin/imx-optee/imx-optee-os/out/arm-plat-imx/export-ta_arm32/lib/libutee.a(tee_api_panic.o)
 .comment       0x0000000000000024       0x25 /home/yin/imx-optee/imx-optee-os/out/arm-plat-imx/export-ta_arm32/lib/libutee.a(user_ta_entry.o)
 .comment       0x0000000000000024       0x25 /home/yin/imx-optee/imx-optee-os/out/arm-plat-imx/export-ta_arm32/lib/libutee.a(tee_api_arith.o)
 .comment       0x0000000000000024       0x25 /home/yin/imx-optee/imx-optee-os/out/arm-plat-imx/export-ta_arm32/lib/libutee.a(tee_api.o)
 .comment       0x0000000000000024       0x25 /home/yin/imx-optee/imx-optee-os/out/arm-plat-imx/export-ta_arm32/lib/libutee.a(trace_ext.o)
 .comment       0x0000000000000024       0x25 /home/yin/imx-optee/imx-optee-os/out/arm-plat-imx/export-ta_arm32/lib/libutils.a(bget_malloc.o)
 .comment       0x0000000000000024       0x25 /home/yin/imx-optee/imx-optee-os/out/arm-plat-imx/export-ta_arm32/lib/libutils.a(snprintf.o)
 .comment       0x0000000000000024       0x25 /home/yin/imx-optee/imx-optee-os/out/arm-plat-imx/export-ta_arm32/lib/libutils.a(memcmp.o)
 .comment       0x0000000000000024       0x25 /home/yin/imx-optee/imx-optee-os/out/arm-plat-imx/export-ta_arm32/lib/libutils.a(memcpy.o)
 .comment       0x0000000000000024       0x25 /home/yin/imx-optee/imx-optee-os/out/arm-plat-imx/export-ta_arm32/lib/libutils.a(memmove.o)
 .comment       0x0000000000000024       0x25 /home/yin/imx-optee/imx-optee-os/out/arm-plat-imx/export-ta_arm32/lib/libutils.a(memset.o)
 .comment       0x0000000000000024       0x25 /home/yin/imx-optee/imx-optee-os/out/arm-plat-imx/export-ta_arm32/lib/libutils.a(strlen.o)
 .comment       0x0000000000000024       0x25 /home/yin/imx-optee/imx-optee-os/out/arm-plat-imx/export-ta_arm32/lib/libutils.a(arm32_aeabi_divmod.o)
 .comment       0x0000000000000024       0x25 /home/yin/imx-optee/imx-optee-os/out/arm-plat-imx/export-ta_arm32/lib/libutils.a(snprintk.o)
 .comment       0x0000000000000024       0x25 /home/yin/imx-optee/imx-optee-os/out/arm-plat-imx/export-ta_arm32/lib/libutils.a(buf_compare_ct.o)
 .comment       0x0000000000000024       0x25 /home/yin/imx-optee/imx-optee-os/out/arm-plat-imx/export-ta_arm32/lib/libutils.a(trace.o)
 .comment       0x0000000000000024       0x25 /home/yin/imx-optee/imx-optee-os/out/arm-plat-imx/export-ta_arm32/lib/libutils.a(mempool.o)
 .comment       0x0000000000000024       0x25 /home/yin/imx-optee/imx-optee-os/out/arm-plat-imx/export-ta_arm32/lib/libutils.a(aeabi_unwind.o)
 .comment       0x0000000000000024       0x25 /home/yin/imx-optee/imx-optee-os/out/arm-plat-imx/export-ta_arm32/lib/libutils.a(memchr.o)
 .comment       0x0000000000000024       0x25 /home/yin/imx-optee/imx-optee-os/out/arm-plat-imx/export-ta_arm32/lib/libutils.a(arm32_aeabi_ldivmod.o)
 .comment       0x0000000000000024       0x25 /home/yin/imx-optee/imx-optee-os/out/arm-plat-imx/export-ta_arm32/lib/libmpa.a(mpa_misc.o)
 .comment       0x0000000000000024       0x25 /home/yin/imx-optee/imx-optee-os/out/arm-plat-imx/export-ta_arm32/lib/libmpa.a(mpa_montgomery.o)
 .comment       0x0000000000000024       0x25 /home/yin/imx-optee/imx-optee-os/out/arm-plat-imx/export-ta_arm32/lib/libmpa.a(mpa_primetest.o)
 .comment       0x0000000000000024       0x25 /home/yin/imx-optee/imx-optee-os/out/arm-plat-imx/export-ta_arm32/lib/libmpa.a(mpa_conv.o)
 .comment       0x0000000000000024       0x25 /home/yin/imx-optee/imx-optee-os/out/arm-plat-imx/export-ta_arm32/lib/libmpa.a(mpa_div.o)
 .comment       0x0000000000000024       0x25 /home/yin/imx-optee/imx-optee-os/out/arm-plat-imx/export-ta_arm32/lib/libmpa.a(mpa_gcd.o)
 .comment       0x0000000000000024       0x25 /home/yin/imx-optee/imx-optee-os/out/arm-plat-imx/export-ta_arm32/lib/libmpa.a(mpa_mem_static.o)
 .comment       0x0000000000000024       0x25 /home/yin/imx-optee/imx-optee-os/out/arm-plat-imx/export-ta_arm32/lib/libmpa.a(mpa_mul.o)
 .comment       0x0000000000000024       0x25 /home/yin/imx-optee/imx-optee-os/out/arm-plat-imx/export-ta_arm32/lib/libmpa.a(mpa_random.o)
 .comment       0x0000000000000024       0x25 /home/yin/imx-optee/imx-optee-os/out/arm-plat-imx/export-ta_arm32/lib/libmpa.a(mpa_shift.o)
 .comment       0x0000000000000024       0x25 /home/yin/imx-optee/imx-optee-os/out/arm-plat-imx/export-ta_arm32/lib/libmpa.a(mpa_addsub.o)
 .comment       0x0000000000000024       0x25 /home/yin/imx-optee/imx-optee-os/out/arm-plat-imx/export-ta_arm32/lib/libmpa.a(mpa_cmp.o)
 .comment       0x0000000000000024       0x25 /home/yin/imx-optee/imx-optee-os/out/arm-plat-imx/export-ta_arm32/lib/libmpa.a(mpa_expmod.o)
 .comment       0x0000000000000024       0x25 /home/yin/imx-optee/imx-optee-os/out/arm-plat-imx/export-ta_arm32/lib/libmpa.a(mpa_init.o)
 .comment       0x0000000000000024       0x25 /home/yin/imx-optee/imx-optee-os/out/arm-plat-imx/export-ta_arm32/lib/libmpa.a(mpa_io.o)
 .comment       0x0000000000000024       0x25 /home/yin/imx-optee/imx-optee-os/out/arm-plat-imx/export-ta_arm32/lib/libmpa.a(mpa_modulus.o)
 .comment       0x0000000000000024       0x25 /home/yin/imx-optee/imx-optee-os/out/arm-plat-imx/export-ta_arm32/lib/libutee.a(assert.o)

.note.GNU-stack
                0x0000000000000000        0x0
 .note.GNU-stack
                0x0000000000000000        0x0 ./hotp_ta.o
 .note.GNU-stack
                0x0000000000000000        0x0 ./user_ta_header.o
 .note.GNU-stack
                0x0000000000000000        0x0 /home/yin/imx-optee/imx-optee-os/out/arm-plat-imx/export-ta_arm32/lib/libutee.a(tee_api_objects.o)
 .note.GNU-stack
                0x0000000000000000        0x0 /home/yin/imx-optee/imx-optee-os/out/arm-plat-imx/export-ta_arm32/lib/libutee.a(tee_api_operations.o)
 .note.GNU-stack
                0x0000000000000000        0x0 /home/yin/imx-optee/imx-optee-os/out/arm-plat-imx/export-ta_arm32/lib/libutee.a(tee_api_panic.o)
 .note.GNU-stack
                0x0000000000000000        0x0 /home/yin/imx-optee/imx-optee-os/out/arm-plat-imx/export-ta_arm32/lib/libutee.a(user_ta_entry.o)
 .note.GNU-stack
                0x0000000000000000        0x0 /home/yin/imx-optee/imx-optee-os/out/arm-plat-imx/export-ta_arm32/lib/libutee.a(tee_api_arith.o)
 .note.GNU-stack
                0x0000000000000000        0x0 /home/yin/imx-optee/imx-optee-os/out/arm-plat-imx/export-ta_arm32/lib/libutee.a(tee_api.o)
 .note.GNU-stack
                0x0000000000000000        0x0 /home/yin/imx-optee/imx-optee-os/out/arm-plat-imx/export-ta_arm32/lib/libutee.a(trace_ext.o)
 .note.GNU-stack
                0x0000000000000000        0x0 /home/yin/imx-optee/imx-optee-os/out/arm-plat-imx/export-ta_arm32/lib/libutils.a(bget_malloc.o)
 .note.GNU-stack
                0x0000000000000000        0x0 /home/yin/imx-optee/imx-optee-os/out/arm-plat-imx/export-ta_arm32/lib/libutils.a(snprintf.o)
 .note.GNU-stack
                0x0000000000000000        0x0 /home/yin/imx-optee/imx-optee-os/out/arm-plat-imx/export-ta_arm32/lib/libutils.a(memcmp.o)
 .note.GNU-stack
                0x0000000000000000        0x0 /home/yin/imx-optee/imx-optee-os/out/arm-plat-imx/export-ta_arm32/lib/libutils.a(memcpy.o)
 .note.GNU-stack
                0x0000000000000000        0x0 /home/yin/imx-optee/imx-optee-os/out/arm-plat-imx/export-ta_arm32/lib/libutils.a(memmove.o)
 .note.GNU-stack
                0x0000000000000000        0x0 /home/yin/imx-optee/imx-optee-os/out/arm-plat-imx/export-ta_arm32/lib/libutils.a(memset.o)
 .note.GNU-stack
                0x0000000000000000        0x0 /home/yin/imx-optee/imx-optee-os/out/arm-plat-imx/export-ta_arm32/lib/libutils.a(strlen.o)
 .note.GNU-stack
                0x0000000000000000        0x0 /home/yin/imx-optee/imx-optee-os/out/arm-plat-imx/export-ta_arm32/lib/libutils.a(arm32_aeabi_divmod.o)
 .note.GNU-stack
                0x0000000000000000        0x0 /home/yin/imx-optee/imx-optee-os/out/arm-plat-imx/export-ta_arm32/lib/libutils.a(snprintk.o)
 .note.GNU-stack
                0x0000000000000000        0x0 /home/yin/imx-optee/imx-optee-os/out/arm-plat-imx/export-ta_arm32/lib/libutils.a(buf_compare_ct.o)
 .note.GNU-stack
                0x0000000000000000        0x0 /home/yin/imx-optee/imx-optee-os/out/arm-plat-imx/export-ta_arm32/lib/libutils.a(trace.o)
 .note.GNU-stack
                0x0000000000000000        0x0 /home/yin/imx-optee/imx-optee-os/out/arm-plat-imx/export-ta_arm32/lib/libutils.a(mempool.o)
 .note.GNU-stack
                0x0000000000000000        0x0 /home/yin/imx-optee/imx-optee-os/out/arm-plat-imx/export-ta_arm32/lib/libutils.a(aeabi_unwind.o)
 .note.GNU-stack
                0x0000000000000000        0x0 /home/yin/imx-optee/imx-optee-os/out/arm-plat-imx/export-ta_arm32/lib/libutils.a(memchr.o)
 .note.GNU-stack
                0x0000000000000000        0x0 /home/yin/imx-optee/imx-optee-os/out/arm-plat-imx/export-ta_arm32/lib/libutils.a(arm32_aeabi_ldivmod.o)
 .note.GNU-stack
                0x0000000000000000        0x0 /home/yin/imx-optee/imx-optee-os/out/arm-plat-imx/export-ta_arm32/lib/libmpa.a(mpa_misc.o)
 .note.GNU-stack
                0x0000000000000000        0x0 /home/yin/imx-optee/imx-optee-os/out/arm-plat-imx/export-ta_arm32/lib/libmpa.a(mpa_montgomery.o)
 .note.GNU-stack
                0x0000000000000000        0x0 /home/yin/imx-optee/imx-optee-os/out/arm-plat-imx/export-ta_arm32/lib/libmpa.a(mpa_primetest.o)
 .note.GNU-stack
                0x0000000000000000        0x0 /home/yin/imx-optee/imx-optee-os/out/arm-plat-imx/export-ta_arm32/lib/libmpa.a(mpa_conv.o)
 .note.GNU-stack
                0x0000000000000000        0x0 /home/yin/imx-optee/imx-optee-os/out/arm-plat-imx/export-ta_arm32/lib/libmpa.a(mpa_div.o)
 .note.GNU-stack
                0x0000000000000000        0x0 /home/yin/imx-optee/imx-optee-os/out/arm-plat-imx/export-ta_arm32/lib/libmpa.a(mpa_gcd.o)
 .note.GNU-stack
                0x0000000000000000        0x0 /home/yin/imx-optee/imx-optee-os/out/arm-plat-imx/export-ta_arm32/lib/libmpa.a(mpa_mem_static.o)
 .note.GNU-stack
                0x0000000000000000        0x0 /home/yin/imx-optee/imx-optee-os/out/arm-plat-imx/export-ta_arm32/lib/libmpa.a(mpa_mul.o)
 .note.GNU-stack
                0x0000000000000000        0x0 /home/yin/imx-optee/imx-optee-os/out/arm-plat-imx/export-ta_arm32/lib/libmpa.a(mpa_random.o)
 .note.GNU-stack
                0x0000000000000000        0x0 /home/yin/imx-optee/imx-optee-os/out/arm-plat-imx/export-ta_arm32/lib/libmpa.a(mpa_shift.o)
 .note.GNU-stack
                0x0000000000000000        0x0 /home/yin/imx-optee/imx-optee-os/out/arm-plat-imx/export-ta_arm32/lib/libmpa.a(mpa_addsub.o)
 .note.GNU-stack
                0x0000000000000000        0x0 /home/yin/imx-optee/imx-optee-os/out/arm-plat-imx/export-ta_arm32/lib/libmpa.a(mpa_cmp.o)
 .note.GNU-stack
                0x0000000000000000        0x0 /home/yin/imx-optee/imx-optee-os/out/arm-plat-imx/export-ta_arm32/lib/libmpa.a(mpa_expmod.o)
 .note.GNU-stack
                0x0000000000000000        0x0 /home/yin/imx-optee/imx-optee-os/out/arm-plat-imx/export-ta_arm32/lib/libmpa.a(mpa_init.o)
 .note.GNU-stack
                0x0000000000000000        0x0 /home/yin/imx-optee/imx-optee-os/out/arm-plat-imx/export-ta_arm32/lib/libmpa.a(mpa_io.o)
 .note.GNU-stack
                0x0000000000000000        0x0 /home/yin/imx-optee/imx-optee-os/out/arm-plat-imx/export-ta_arm32/lib/libmpa.a(mpa_modulus.o)
 .note.GNU-stack
                0x0000000000000000        0x0 /home/yin/imx-optee/imx-optee-os/out/arm-plat-imx/export-ta_arm32/lib/libutee.a(assert.o)

.ARM.attributes
                0x0000000000000000       0x35
 .ARM.attributes
                0x0000000000000000       0x37 ./hotp_ta.o
 .ARM.attributes
                0x0000000000000037       0x37 ./user_ta_header.o
 .ARM.attributes
                0x000000000000006e       0x37 /home/yin/imx-optee/imx-optee-os/out/arm-plat-imx/export-ta_arm32/lib/libutee.a(tee_api_objects.o)
 .ARM.attributes
                0x00000000000000a5       0x37 /home/yin/imx-optee/imx-optee-os/out/arm-plat-imx/export-ta_arm32/lib/libutee.a(tee_api_operations.o)
 .ARM.attributes
                0x00000000000000dc       0x37 /home/yin/imx-optee/imx-optee-os/out/arm-plat-imx/export-ta_arm32/lib/libutee.a(tee_api_panic.o)
 .ARM.attributes
                0x0000000000000113       0x37 /home/yin/imx-optee/imx-optee-os/out/arm-plat-imx/export-ta_arm32/lib/libutee.a(user_ta_entry.o)
 .ARM.attributes
                0x000000000000014a       0x29 /home/yin/imx-optee/imx-optee-os/out/arm-plat-imx/export-ta_arm32/lib/libutee.a(utee_syscalls_a32.o)
 .ARM.attributes
                0x0000000000000173       0x29 /home/yin/imx-optee/imx-optee-os/out/arm-plat-imx/export-ta_arm32/lib/libutee.a(gprof_a32.o)
 .ARM.attributes
                0x000000000000019c       0x37 /home/yin/imx-optee/imx-optee-os/out/arm-plat-imx/export-ta_arm32/lib/libutee.a(tee_api_arith.o)
 .ARM.attributes
                0x00000000000001d3       0x37 /home/yin/imx-optee/imx-optee-os/out/arm-plat-imx/export-ta_arm32/lib/libutee.a(tee_api.o)
 .ARM.attributes
                0x000000000000020a       0x37 /home/yin/imx-optee/imx-optee-os/out/arm-plat-imx/export-ta_arm32/lib/libutee.a(trace_ext.o)
 .ARM.attributes
                0x0000000000000241       0x37 /home/yin/imx-optee/imx-optee-os/out/arm-plat-imx/export-ta_arm32/lib/libutils.a(bget_malloc.o)
 .ARM.attributes
                0x0000000000000278       0x37 /home/yin/imx-optee/imx-optee-os/out/arm-plat-imx/export-ta_arm32/lib/libutils.a(snprintf.o)
 .ARM.attributes
                0x00000000000002af       0x37 /home/yin/imx-optee/imx-optee-os/out/arm-plat-imx/export-ta_arm32/lib/libutils.a(memcmp.o)
 .ARM.attributes
                0x00000000000002e6       0x37 /home/yin/imx-optee/imx-optee-os/out/arm-plat-imx/export-ta_arm32/lib/libutils.a(memcpy.o)
 .ARM.attributes
                0x000000000000031d       0x37 /home/yin/imx-optee/imx-optee-os/out/arm-plat-imx/export-ta_arm32/lib/libutils.a(memmove.o)
 .ARM.attributes
                0x0000000000000354       0x37 /home/yin/imx-optee/imx-optee-os/out/arm-plat-imx/export-ta_arm32/lib/libutils.a(memset.o)
 .ARM.attributes
                0x000000000000038b       0x37 /home/yin/imx-optee/imx-optee-os/out/arm-plat-imx/export-ta_arm32/lib/libutils.a(strlen.o)
 .ARM.attributes
                0x00000000000003c2       0x37 /home/yin/imx-optee/imx-optee-os/out/arm-plat-imx/export-ta_arm32/lib/libutils.a(arm32_aeabi_divmod.o)
 .ARM.attributes
                0x00000000000003f9       0x37 /home/yin/imx-optee/imx-optee-os/out/arm-plat-imx/export-ta_arm32/lib/libutils.a(snprintk.o)
 .ARM.attributes
                0x0000000000000430       0x37 /home/yin/imx-optee/imx-optee-os/out/arm-plat-imx/export-ta_arm32/lib/libutils.a(buf_compare_ct.o)
 .ARM.attributes
                0x0000000000000467       0x37 /home/yin/imx-optee/imx-optee-os/out/arm-plat-imx/export-ta_arm32/lib/libutils.a(trace.o)
 .ARM.attributes
                0x000000000000049e       0x37 /home/yin/imx-optee/imx-optee-os/out/arm-plat-imx/export-ta_arm32/lib/libutils.a(mempool.o)
 .ARM.attributes
                0x00000000000004d5       0x37 /home/yin/imx-optee/imx-optee-os/out/arm-plat-imx/export-ta_arm32/lib/libutils.a(aeabi_unwind.o)
 .ARM.attributes
                0x000000000000050c       0x37 /home/yin/imx-optee/imx-optee-os/out/arm-plat-imx/export-ta_arm32/lib/libutils.a(memchr.o)
 .ARM.attributes
                0x0000000000000543       0x29 /home/yin/imx-optee/imx-optee-os/out/arm-plat-imx/export-ta_arm32/lib/libutils.a(arm32_aeabi_divmod_a32.o)
 .ARM.attributes
                0x000000000000056c       0x29 /home/yin/imx-optee/imx-optee-os/out/arm-plat-imx/export-ta_arm32/lib/libutils.a(arm32_aeabi_ldivmod_a32.o)
 .ARM.attributes
                0x0000000000000595       0x37 /home/yin/imx-optee/imx-optee-os/out/arm-plat-imx/export-ta_arm32/lib/libutils.a(arm32_aeabi_ldivmod.o)
 .ARM.attributes
                0x00000000000005cc       0x37 /home/yin/imx-optee/imx-optee-os/out/arm-plat-imx/export-ta_arm32/lib/libmpa.a(mpa_misc.o)
 .ARM.attributes
                0x0000000000000603       0x37 /home/yin/imx-optee/imx-optee-os/out/arm-plat-imx/export-ta_arm32/lib/libmpa.a(mpa_montgomery.o)
 .ARM.attributes
                0x000000000000063a       0x37 /home/yin/imx-optee/imx-optee-os/out/arm-plat-imx/export-ta_arm32/lib/libmpa.a(mpa_primetest.o)
 .ARM.attributes
                0x0000000000000671       0x37 /home/yin/imx-optee/imx-optee-os/out/arm-plat-imx/export-ta_arm32/lib/libmpa.a(mpa_conv.o)
 .ARM.attributes
                0x00000000000006a8       0x37 /home/yin/imx-optee/imx-optee-os/out/arm-plat-imx/export-ta_arm32/lib/libmpa.a(mpa_div.o)
 .ARM.attributes
                0x00000000000006df       0x37 /home/yin/imx-optee/imx-optee-os/out/arm-plat-imx/export-ta_arm32/lib/libmpa.a(mpa_gcd.o)
 .ARM.attributes
                0x0000000000000716       0x37 /home/yin/imx-optee/imx-optee-os/out/arm-plat-imx/export-ta_arm32/lib/libmpa.a(mpa_mem_static.o)
 .ARM.attributes
                0x000000000000074d       0x37 /home/yin/imx-optee/imx-optee-os/out/arm-plat-imx/export-ta_arm32/lib/libmpa.a(mpa_mul.o)
 .ARM.attributes
                0x0000000000000784       0x37 /home/yin/imx-optee/imx-optee-os/out/arm-plat-imx/export-ta_arm32/lib/libmpa.a(mpa_random.o)
 .ARM.attributes
                0x00000000000007bb       0x37 /home/yin/imx-optee/imx-optee-os/out/arm-plat-imx/export-ta_arm32/lib/libmpa.a(mpa_shift.o)
 .ARM.attributes
                0x00000000000007f2       0x37 /home/yin/imx-optee/imx-optee-os/out/arm-plat-imx/export-ta_arm32/lib/libmpa.a(mpa_addsub.o)
 .ARM.attributes
                0x0000000000000829       0x37 /home/yin/imx-optee/imx-optee-os/out/arm-plat-imx/export-ta_arm32/lib/libmpa.a(mpa_cmp.o)
 .ARM.attributes
                0x0000000000000860       0x37 /home/yin/imx-optee/imx-optee-os/out/arm-plat-imx/export-ta_arm32/lib/libmpa.a(mpa_expmod.o)
 .ARM.attributes
                0x0000000000000897       0x37 /home/yin/imx-optee/imx-optee-os/out/arm-plat-imx/export-ta_arm32/lib/libmpa.a(mpa_init.o)
 .ARM.attributes
                0x00000000000008ce       0x37 /home/yin/imx-optee/imx-optee-os/out/arm-plat-imx/export-ta_arm32/lib/libmpa.a(mpa_io.o)
 .ARM.attributes
                0x0000000000000905       0x37 /home/yin/imx-optee/imx-optee-os/out/arm-plat-imx/export-ta_arm32/lib/libmpa.a(mpa_modulus.o)
 .ARM.attributes
                0x000000000000093c       0x37 /home/yin/imx-optee/imx-optee-os/out/arm-plat-imx/export-ta_arm32/lib/libutee.a(assert.o)

.debug_frame    0x0000000000000000     0x2118
 .debug_frame   0x0000000000000000       0x7c ./hotp_ta.o
 .debug_frame   0x000000000000007c       0x20 ./user_ta_header.o
 .debug_frame   0x000000000000009c      0x3e4 /home/yin/imx-optee/imx-optee-os/out/arm-plat-imx/export-ta_arm32/lib/libutee.a(tee_api_objects.o)
 .debug_frame   0x0000000000000480      0x4c4 /home/yin/imx-optee/imx-optee-os/out/arm-plat-imx/export-ta_arm32/lib/libutee.a(tee_api_operations.o)
 .debug_frame   0x0000000000000944       0x20 /home/yin/imx-optee/imx-optee-os/out/arm-plat-imx/export-ta_arm32/lib/libutee.a(tee_api_panic.o)
 .debug_frame   0x0000000000000964       0x5c /home/yin/imx-optee/imx-optee-os/out/arm-plat-imx/export-ta_arm32/lib/libutee.a(user_ta_entry.o)
 .debug_frame   0x00000000000009c0      0x364 /home/yin/imx-optee/imx-optee-os/out/arm-plat-imx/export-ta_arm32/lib/libutee.a(tee_api_arith.o)
 .debug_frame   0x0000000000000d24      0x26c /home/yin/imx-optee/imx-optee-os/out/arm-plat-imx/export-ta_arm32/lib/libutee.a(tee_api.o)
 .debug_frame   0x0000000000000f90       0xac /home/yin/imx-optee/imx-optee-os/out/arm-plat-imx/export-ta_arm32/lib/libutee.a(trace_ext.o)
 .debug_frame   0x000000000000103c      0x188 /home/yin/imx-optee/imx-optee-os/out/arm-plat-imx/export-ta_arm32/lib/libutils.a(bget_malloc.o)
 .debug_frame   0x00000000000011c4       0x58 /home/yin/imx-optee/imx-optee-os/out/arm-plat-imx/export-ta_arm32/lib/libutils.a(snprintf.o)
 .debug_frame   0x000000000000121c       0x28 /home/yin/imx-optee/imx-optee-os/out/arm-plat-imx/export-ta_arm32/lib/libutils.a(memcmp.o)
 .debug_frame   0x0000000000001244       0x28 /home/yin/imx-optee/imx-optee-os/out/arm-plat-imx/export-ta_arm32/lib/libutils.a(memcpy.o)
 .debug_frame   0x000000000000126c       0x28 /home/yin/imx-optee/imx-optee-os/out/arm-plat-imx/export-ta_arm32/lib/libutils.a(memmove.o)
 .debug_frame   0x0000000000001294       0x20 /home/yin/imx-optee/imx-optee-os/out/arm-plat-imx/export-ta_arm32/lib/libutils.a(memset.o)
 .debug_frame   0x00000000000012b4       0x20 /home/yin/imx-optee/imx-optee-os/out/arm-plat-imx/export-ta_arm32/lib/libutils.a(strlen.o)
 .debug_frame   0x00000000000012d4       0xf4 /home/yin/imx-optee/imx-optee-os/out/arm-plat-imx/export-ta_arm32/lib/libutils.a(arm32_aeabi_divmod.o)
 .debug_frame   0x00000000000013c8       0x84 /home/yin/imx-optee/imx-optee-os/out/arm-plat-imx/export-ta_arm32/lib/libutils.a(snprintk.o)
 .debug_frame   0x000000000000144c       0x2c /home/yin/imx-optee/imx-optee-os/out/arm-plat-imx/export-ta_arm32/lib/libutils.a(buf_compare_ct.o)
 .debug_frame   0x0000000000001478       0xc4 /home/yin/imx-optee/imx-optee-os/out/arm-plat-imx/export-ta_arm32/lib/libutils.a(trace.o)
 .debug_frame   0x000000000000153c       0x60 /home/yin/imx-optee/imx-optee-os/out/arm-plat-imx/export-ta_arm32/lib/libutils.a(mempool.o)
 .debug_frame   0x000000000000159c       0x40 /home/yin/imx-optee/imx-optee-os/out/arm-plat-imx/export-ta_arm32/lib/libutils.a(aeabi_unwind.o)
 .debug_frame   0x00000000000015dc       0x28 /home/yin/imx-optee/imx-optee-os/out/arm-plat-imx/export-ta_arm32/lib/libutils.a(memchr.o)
 .debug_frame   0x0000000000001604       0x58 /home/yin/imx-optee/imx-optee-os/out/arm-plat-imx/export-ta_arm32/lib/libutils.a(arm32_aeabi_ldivmod.o)
 .debug_frame   0x000000000000165c       0xbc /home/yin/imx-optee/imx-optee-os/out/arm-plat-imx/export-ta_arm32/lib/libmpa.a(mpa_misc.o)
 .debug_frame   0x0000000000001718       0xdc /home/yin/imx-optee/imx-optee-os/out/arm-plat-imx/export-ta_arm32/lib/libmpa.a(mpa_montgomery.o)
 .debug_frame   0x00000000000017f4       0x40 /home/yin/imx-optee/imx-optee-os/out/arm-plat-imx/export-ta_arm32/lib/libmpa.a(mpa_primetest.o)
 .debug_frame   0x0000000000001834       0x50 /home/yin/imx-optee/imx-optee-os/out/arm-plat-imx/export-ta_arm32/lib/libmpa.a(mpa_conv.o)
 .debug_frame   0x0000000000001884       0xb8 /home/yin/imx-optee/imx-optee-os/out/arm-plat-imx/export-ta_arm32/lib/libmpa.a(mpa_div.o)
 .debug_frame   0x000000000000193c       0xe0 /home/yin/imx-optee/imx-optee-os/out/arm-plat-imx/export-ta_arm32/lib/libmpa.a(mpa_gcd.o)
 .debug_frame   0x0000000000001a1c       0x4c /home/yin/imx-optee/imx-optee-os/out/arm-plat-imx/export-ta_arm32/lib/libmpa.a(mpa_mem_static.o)
 .debug_frame   0x0000000000001a68       0xe8 /home/yin/imx-optee/imx-optee-os/out/arm-plat-imx/export-ta_arm32/lib/libmpa.a(mpa_mul.o)
 .debug_frame   0x0000000000001b50       0x54 /home/yin/imx-optee/imx-optee-os/out/arm-plat-imx/export-ta_arm32/lib/libmpa.a(mpa_random.o)
 .debug_frame   0x0000000000001ba4       0xac /home/yin/imx-optee/imx-optee-os/out/arm-plat-imx/export-ta_arm32/lib/libmpa.a(mpa_shift.o)
 .debug_frame   0x0000000000001c50      0x1ac /home/yin/imx-optee/imx-optee-os/out/arm-plat-imx/export-ta_arm32/lib/libmpa.a(mpa_addsub.o)
 .debug_frame   0x0000000000001dfc       0x90 /home/yin/imx-optee/imx-optee-os/out/arm-plat-imx/export-ta_arm32/lib/libmpa.a(mpa_cmp.o)
 .debug_frame   0x0000000000001e8c       0x40 /home/yin/imx-optee/imx-optee-os/out/arm-plat-imx/export-ta_arm32/lib/libmpa.a(mpa_expmod.o)
 .debug_frame   0x0000000000001ecc       0x3c /home/yin/imx-optee/imx-optee-os/out/arm-plat-imx/export-ta_arm32/lib/libmpa.a(mpa_init.o)
 .debug_frame   0x0000000000001f08      0x104 /home/yin/imx-optee/imx-optee-os/out/arm-plat-imx/export-ta_arm32/lib/libmpa.a(mpa_io.o)
 .debug_frame   0x000000000000200c       0xcc /home/yin/imx-optee/imx-optee-os/out/arm-plat-imx/export-ta_arm32/lib/libmpa.a(mpa_modulus.o)
 .debug_frame   0x00000000000020d8       0x40 /home/yin/imx-optee/imx-optee-os/out/arm-plat-imx/export-ta_arm32/lib/libutee.a(assert.o)
