
8aaaf200-2450-11e4-abe2-0002a5d5c51b.elf:     file format elf32-littlearm
8aaaf200-2450-11e4-abe2-0002a5d5c51b.elf
architecture: arm, flags 0x00000150:
HAS_SYMS, DYNAMIC, D_PAGED
start address 0x00000020

Program Header:
0x70000001 off    0x0001662c vaddr 0x0000662c paddr 0x0000662c align 2**2
         filesz 0x00000498 memsz 0x00000498 flags r--
    LOAD off    0x00010000 vaddr 0x00000000 paddr 0x00000000 align 2**16
         filesz 0x00004f80 memsz 0x00004f80 flags r-x
    LOAD off    0x00014f80 vaddr 0x00004f80 paddr 0x00004f80 align 2**16
         filesz 0x00001e14 memsz 0x00001e14 flags r--
    LOAD off    0x00017000 vaddr 0x00007000 paddr 0x00007000 align 2**16
         filesz 0x0000008c memsz 0x0000a9c0 flags rw-
 DYNAMIC off    0x00016bdc vaddr 0x00006bdc paddr 0x00006bdc align 2**2
         filesz 0x00000080 memsz 0x00000080 flags rw-

Dynamic Section:
  HASH                 0x00006d58
  STRTAB               0x00006cfc
  SYMTAB               0x00006c5c
  STRSZ                0x00000059
  SYMENT               0x00000010
  DEBUG                0x00000000
  REL                  0x00006aec
  RELSZ                0x000000f0
  RELENT               0x00000008
  FLAGS_1              0x08000000
  RELCOUNT             0x00000017
private flags = 5000400: [Version5 EABI] [hard-float ABI]

Sections:
Idx Name          Size      VMA       LMA       File off  Algn
  0 .ta_head      00000020  00000000  00000000  00010000  2**3
                  CONTENTS, ALLOC, LOAD, DATA
  1 .text         00004f60  00000020  00000020  00010020  2**3
                  CONTENTS, ALLOC, LOAD, READONLY, CODE
  2 .rodata       000015bc  00004f80  00004f80  00014f80  2**2
                  CONTENTS, ALLOC, LOAD, READONLY, DATA
  3 .ARM.extab    000000c0  0000653c  0000653c  0001653c  2**2
                  CONTENTS, ALLOC, LOAD, READONLY, DATA
  4 .ARM.extab.text.utee_panic 0000000c  000065fc  000065fc  000165fc  2**2
                  CONTENTS, ALLOC, LOAD, READONLY, DATA
  5 .ARM.extab.text.unlikely 0000000c  00006608  00006608  00016608  2**2
                  CONTENTS, ALLOC, LOAD, READONLY, DATA
  6 .ARM.extab.text.__aeabi_ldivmod 0000000c  00006614  00006614  00016614  2**2
                  CONTENTS, ALLOC, LOAD, READONLY, DATA
  7 .ARM.extab.text.__aeabi_uldivmod 0000000c  00006620  00006620  00016620  2**2
                  CONTENTS, ALLOC, LOAD, READONLY, DATA
  8 .ARM.exidx    00000498  0000662c  0000662c  0001662c  2**2
                  CONTENTS, ALLOC, LOAD, READONLY, DATA
  9 .got          00000028  00006ac4  00006ac4  00016ac4  2**2
                  CONTENTS, ALLOC, LOAD, DATA
 10 .dynsym       000000a0  00006c5c  00006c5c  00016c5c  2**2
                  CONTENTS, ALLOC, LOAD, READONLY, DATA
 11 .rel.got      00000038  00006ba4  00006ba4  00016ba4  2**2
                  CONTENTS, ALLOC, LOAD, READONLY, DATA
 12 .dynamic      00000080  00006bdc  00006bdc  00016bdc  2**2
                  CONTENTS, ALLOC, LOAD, DATA
 13 .dynstr       00000059  00006cfc  00006cfc  00016cfc  2**0
                  CONTENTS, ALLOC, LOAD, READONLY, DATA
 14 .hash         0000003c  00006d58  00006d58  00016d58  2**2
                  CONTENTS, ALLOC, LOAD, READONLY, DATA
 15 .data         0000008c  00007000  00007000  00017000  2**2
                  CONTENTS, ALLOC, LOAD, DATA
 16 .bss          0000a934  0000708c  0000708c  0001708c  2**2
                  ALLOC
 17 .debug_info   0000ddbe  00000000  00000000  0001708c  2**0
                  CONTENTS, READONLY, DEBUGGING
 18 .debug_abbrev 00003e04  00000000  00000000  00024e4a  2**0
                  CONTENTS, READONLY, DEBUGGING
 19 .debug_loc    0000c1cd  00000000  00000000  00028c4e  2**0
                  CONTENTS, READONLY, DEBUGGING
 20 .debug_aranges 00000790  00000000  00000000  00034e20  2**3
                  CONTENTS, READONLY, DEBUGGING
 21 .debug_ranges 00000908  00000000  00000000  000355b0  2**3
                  CONTENTS, READONLY, DEBUGGING
 22 .debug_macro  000056f7  00000000  00000000  00035eb8  2**0
                  CONTENTS, READONLY, DEBUGGING
 23 .debug_line   00005f8a  00000000  00000000  0003b5af  2**0
                  CONTENTS, READONLY, DEBUGGING
 24 .debug_str    0000fd14  00000000  00000000  00041539  2**0
                  CONTENTS, READONLY, DEBUGGING
 25 .comment      00000024  00000000  00000000  0005124d  2**0
                  CONTENTS, READONLY
 26 .ARM.attributes 00000035  00000000  00000000  00051271  2**0
                  CONTENTS, READONLY
 27 .debug_frame  00001864  00000000  00000000  000512a8  2**2
                  CONTENTS, READONLY, DEBUGGING
 28 .rel.dyn      000000b8  00006aec  00006aec  00016aec  2**2
                  CONTENTS, ALLOC, LOAD, READONLY, DATA
SYMBOL TABLE:
00000000 l    d  .ta_head	00000000 .ta_head
00000020 l    d  .text	00000000 .text
00004f80 l    d  .rodata	00000000 .rodata
0000653c l    d  .ARM.extab	00000000 .ARM.extab
000065fc l    d  .ARM.extab.text.utee_panic	00000000 .ARM.extab.text.utee_panic
00006608 l    d  .ARM.extab.text.unlikely	00000000 .ARM.extab.text.unlikely
00006614 l    d  .ARM.extab.text.__aeabi_ldivmod	00000000 .ARM.extab.text.__aeabi_ldivmod
00006620 l    d  .ARM.extab.text.__aeabi_uldivmod	00000000 .ARM.extab.text.__aeabi_uldivmod
0000662c l    d  .ARM.exidx	00000000 .ARM.exidx
00006ac4 l    d  .got	00000000 .got
00006ba4 l    d  .rel.got	00000000 .rel.got
00006bdc l    d  .dynamic	00000000 .dynamic
00006c5c l    d  .dynsym	00000000 .dynsym
00006cfc l    d  .dynstr	00000000 .dynstr
00006d58 l    d  .hash	00000000 .hash
00007000 l    d  .data	00000000 .data
0000708c l    d  .bss	00000000 .bss
00000000 l    d  .debug_info	00000000 .debug_info
00000000 l    d  .debug_abbrev	00000000 .debug_abbrev
00000000 l    d  .debug_loc	00000000 .debug_loc
00000000 l    d  .debug_aranges	00000000 .debug_aranges
00000000 l    d  .debug_ranges	00000000 .debug_ranges
00000000 l    d  .debug_macro	00000000 .debug_macro
00000000 l    d  .debug_line	00000000 .debug_line
00000000 l    d  .debug_str	00000000 .debug_str
00000000 l    d  .comment	00000000 .comment
00000000 l    d  .ARM.attributes	00000000 .ARM.attributes
00000000 l    d  .debug_frame	00000000 .debug_frame
00006aec l    d  .rel.dyn	00000000 .rel.dyn
00000000 l    df *ABS*	00000000 user_ta_header.c
00004f84 l     O .rodata	00000004 __compound_literal.5
00004f88 l     O .rodata	00000004 __compound_literal.4
00004f8c l     O .rodata	00000004 __compound_literal.3
00004f90 l     O .rodata	00000001 __compound_literal.2
00004f91 l     O .rodata	00000001 __compound_literal.1
00004f92 l     O .rodata	00000001 __compound_literal.0
00000000 l    df *ABS*	00000000 hello_world_ta.c
00005cf4 l     O .rodata	00000014 __func__.6130
00005d08 l     O .rodata	00000015 __func__.6134
00005d1d l     O .rodata	00000019 __func__.6141
00005d36 l     O .rodata	0000001a __func__.6145
00005d50 l     O .rodata	0000000a __func__.6151
00005d5a l     O .rodata	0000000a __func__.6157
00000000 l    df *ABS*	00000000 user_ta_entry.c
000001b4 l     F .text	0000001c ta_header_get_session
000001d0 l     F .text	00000068 ta_header_remove_session
0000708c l     O .bss	00000001 init_done
00007074 l     O .data	00000008 ta_sessions
00000000 l    df *ABS*	00000000 utee_syscalls_a32.o
00000000 l    df *ABS*	00000000 gprof_a32.o
00000000 l    df *ABS*	00000000 tee_api_arith.c
00000e2c l     F .text	0000001c TEE_BigInt_Panic
000070c0 l     O .bss	000018f0 mempool_u32
000070b4 l     O .bss	00000008 mem.6436
000070bc l     O .bss	00000004 mempool
00000000 l    df *ABS*	00000000 tee_api.c
00005f29 l     O .rodata	0000000b __func__.6699
000089b0 l     O .bss	00000004 tee_api_instance_data
00000000 l    df *ABS*	00000000 trace_ext.c
00000000 l    df *ABS*	00000000 bget_malloc.c
000011cc l     F .text	000000d8 create_free_block.constprop.11
00005f45 l     O .rodata	00000012 __func__.5801
00005f57 l     O .rodata	00000005 __func__.5679
00005f5c l     O .rodata	00000006 __func__.5694
00005f62 l     O .rodata	00000005 __func__.5711
00005f67 l     O .rodata	00000006 __func__.5703
00005f6d l     O .rodata	00000006 __func__.5720
00005f73 l     O .rodata	0000000d __func__.5837
00005f80 l     O .rodata	0000000c __func__.5811
00005f8c l     O .rodata	0000000b __func__.5822
00005f97 l     O .rodata	00000010 __func__.5889
00005fa7 l     O .rodata	0000000e __func__.5843
00005fb5 l     O .rodata	00000013 __func__.5749
000089b4 l     O .bss	00000004 malloc_pool_len
000089b8 l     O .bss	00000004 malloc_pool
0000707c l     O .data	00000010 malloc_poolset
00000000 l    df *ABS*	00000000 snprintk.c
000063a9 l     O .rodata	00000011 HEXDIGITS
000063ba l     O .rodata	00000011 hexdigits
00000000 l    df *ABS*	00000000 trace.c
000022fc l     F .text	0000004e append
00006403 l     O .rodata	00000005 lvl_strs.5552
00006408 l     O .rodata	0000000a __func__.5603
00000000 l    df *ABS*	00000000 mempool.c
0000644c l     O .rodata	00000013 __func__.5543
00000000 l    df *ABS*	00000000 arm32_aeabi_ldivmod_a32.o
00000000 l    df *ABS*	00000000 mpa_misc.c
00000000 l    df *ABS*	00000000 mpa_montgomery.c
00000000 l    df *ABS*	00000000 mpa_primetest.c
00005bfc l     O .rodata	00000010 const_miller_rabin_proof_limit
00005c0c l     O .rodata	0000001c proof_a.5912
00005c28 l     O .rodata	0000000c const_two
00005c34 l     O .rodata	000000b8 const_small_prime_factors
00000000 l    df *ABS*	00000000 mpa_expmod.c
00000000 l    df *ABS*	00000000 mpa_io.c
00002d7c l     F .text	0000002a __mpa_word_to_hexstr
00002da6 l     F .text	0000009c __mpa_mpanum_to_hexstr
00002e42 l     F .text	00000026 __mpa_isspace
000109bc l     O .bss	00001002 buf.5972
0000649e l     O .rodata	0000000c __func__.5986
000064aa l     O .rodata	0000000c __func__.6000
00000000 l    df *ABS*	00000000 assert.c
00000000 l    df *ABS*	00000000 arm32_aeabi_divmod_a32.o
00000000 l    df *ABS*	00000000 tee_api_panic.c
00000000 l    df *ABS*	00000000 snprintf.c
00000000 l    df *ABS*	00000000 memcmp.c
00000000 l    df *ABS*	00000000 memcpy.c
00000000 l    df *ABS*	00000000 memmove.c
00000000 l    df *ABS*	00000000 memset.c
00000000 l    df *ABS*	00000000 strlen.c
00000000 l    df *ABS*	00000000 aeabi_unwind.c
00000000 l    df *ABS*	00000000 memchr.c
00000000 l    df *ABS*	00000000 arm32_aeabi_ldivmod.c
00000000 l    df *ABS*	00000000 mpa_conv.c
00000000 l    df *ABS*	00000000 mpa_div.c
00000000 l    df *ABS*	00000000 mpa_gcd.c
00003a88 l     F .text	0000004c __mpa_divby2
00003ad4 l     F .text	000000e4 __mpa_gcd.part.0
00003bb8 l     F .text	00000236 __mpa_egcd
00000000 l    df *ABS*	00000000 mpa_mem_static.c
00000000 l    df *ABS*	00000000 mpa_mul.c
00000000 l    df *ABS*	00000000 mpa_random.c
00000000 l    df *ABS*	00000000 mpa_shift.c
00000000 l    df *ABS*	00000000 mpa_addsub.c
00000000 l    df *ABS*	00000000 mpa_cmp.c
00000000 l    df *ABS*	00000000 mpa_init.c
00000000 l    df *ABS*	00000000 mpa_modulus.c
00000000 l    df *ABS*	00000000 arm32_aeabi_divmod.c
00004d8a l     F .text	0000004a uint_div_qr
00000000 l    df *ABS*	00000000 
00006bdc l     O *ABS*	00000000 _DYNAMIC
00006ac4 l     O *ABS*	00000000 _GLOBAL_OFFSET_TABLE_
00004f40 l     F .text	00000010 __utee_panic_from_thumb
00004f50 l     F .text	00000010 __utee_check_access_rights_from_thumb
00004f60 l     F .text	00000010 __utee_log_from_thumb
00004f70 l     F .text	00000010 __utee_cache_operation_from_thumb
00000968 g     F .text	00000018 utee_se_channel_transmit
00003244 g     F .text	00000004 ret_idivmod_values
000011a8 g     F .text	00000022 putchar
00004bc2 g     F .text	00000012 mpa_init_static
000026d8 g     F .text	00000022 mpa_copy
00000da0 g     F .text	00000020 TEE_BigIntConvertToFMM
00000cd8 g     F .text	00000008 TEE_BigIntSquareMod
00000aa4 g     F .text	00000004 TEE_BigIntShiftRight
000034a6 g     F .text	00000042 mpa_get_S32
0000270e g     F .text	0000002a mpa_highest_bit_index
00000758 g     F .text	00000018 utee_storage_obj_create
0000339e g     F .text	000000ec __l_divmod
0000092c g     F .text	00000014 utee_se_session_close
000003d8 g     F .text	00000014 utee_return
00000888 g     F .text	00000014 utee_se_service_get_readers
00001114 g     F .text	00000004 TEE_Realloc
0000355a g     F .text	000000be __mpa_div_q_r_internal_word
00004822 g     F .text	00000104 mpa_sub
0000114a g     F .text	0000003a printf
000003ec g     F .text	00000014 utee_log
00005cec g     O .rodata	00000004 NR_STORED_PRIMES
00000f32 g     F .text	00000066 TEE_InvokeTACommand
00002764 g     F .text	00000014 mpa_can_hold
0000403c g     F .text	00000050 __mpa_abs_mul_word
000029b4 g     F .text	0000003c mpa_montgomery_mul
000022d4 g     F .text	0000000e vsnprintk
00002778 g     F .text	00000008 mpa_parity
000032b4 g     F .text	00000034 memmove
00004568 g     F .text	0000001a __mpa_full_adder_ackum
00003254 g     F .text	0000001e snprintf
00000aa0 g     F .text	00000004 TEE_BigIntCmpS32
00003308 g     F .text	00000002 __aeabi_unwind_cpp_pr0
00000ac0 g     F .text	00000010 TEE_BigIntAdd
0000042c g     F .text	00000014 utee_get_property_name_to_index
00004df4 g     F .text	00000020 __aeabi_uimod
00004f94 g     O .rodata	00000004 ta_heap_size
00005cf0 g     O .rodata	00000004 MAX_TABULATED_PRIME
00000510 g     F .text	00000018 utee_cryp_state_alloc
000006e0 g     F .text	00000018 utee_authenc_enc_final
00004024 g     F .text	00000018 __mpa_mul_add_word_cum
00000ae0 g     F .text	00000004 TEE_BigIntNeg
000039fa g     F .text	0000008e mpa_div
00000020 g       .text	00000000 __text_start
00004f9c g     O .rodata	0000000c const_one
00001b5c g     F .text	00000048 malloc_buffer_overlaps_heap
00004b18 g     F .text	0000000a __mpa_abs_less_than
00000bf8 g     F .text	00000060 TEE_BigIntSubMod
00004208 g     F .text	000000a0 mpa_get_random
0000237c g     F .text	00000144 trace_printf
00000860 g     F .text	00000014 utee_se_service_open
0000329e g     F .text	00000016 memcpy
0000053c g     F .text	00000014 utee_cryp_state_free
000026c2 g     F .text	00000016 mpa_wipe
00000dc0 g     F .text	00000050 TEE_BigIntConvertFromFMM
00003250 g     F .text	00000004 TEE_Panic
00000954 g     F .text	00000014 utee_se_channel_get_select_resp
00002690 g     F .text	00000018 __aeabi_uldivmod
00001184 g     F .text	00000024 puts
00000e10 g     F .text	0000001c TEE_BigIntComputeFMM
000034e8 g     F .text	0000000c mpa_set_word
0000436e g     F .text	000000f4 mpa_shift_left
000005bc g     F .text	00000018 utee_cipher_final
0000411a g     F .text	00000082 mpa_mul
000010b4 g     F .text	00000016 TEE_GetREETime
00007004 g     O .data	0000006c ta_props
000016fc g     F .text	00000018 malloc
00000624 g     F .text	00000014 utee_cryp_obj_close
000008c4 g     F .text	00000014 utee_se_reader_open_session
00003248 g     F .text	00000004 ret_uidivmod_values
00003272 g     F .text	0000000e vsnprintf
00007000 g     O .data	00000004 trace_level
00000a9c g     F .text	00000004 TEE_BigIntCmp
00004f80 g     O .rodata	00000004 ta_num_props
000015e4 g     F .text	0000007c bgetr
000006c8 g     F .text	00000018 utee_authenc_update_payload
0000264a g     F .text	0000002e mempool_free
00000a50 g     F .text	00000034 TEE_BigIntConvertToOctetString
00000994 g     F .text	00000014 utee_cache_operation
0000069c g     F .text	00000018 utee_authenc_init
00000aa8 g     F .text	0000000e TEE_BigIntGetBit
00004f98 g     O .rodata	00000003 trace_ext_prefix
00004582 g     F .text	000000aa __mpa_abs_add
000013c0 g     F .text	0000005c bgetz
00001004 g     F .text	0000000c TEE_GetInstanceData
00001032 g     F .text	0000001e TEE_Wait
00000810 g     F .text	00000014 utee_storage_obj_write
00004004 g     F .text	00000010 mpa_free_static_temp_var
000029f0 g     F .text	00000278 mpa_is_prob_prime
0000330c g     F .text	00000002 __aeabi_unwind_cpp_pr2
00000980 g     F .text	00000014 utee_se_channel_close
0000419c g     F .text	0000006c mpa_mul_word
00001122 g     F .text	00000006 TEE_CacheFlush
00000048 g     F .text	00000028 TA_DestroyEntryPoint
0000320c g     F .text	00000028 _assert_log
00000a30 g     F .text	0000000a TEE_BigIntFMMContextSizeInU32
00004e82 g     F .text	00000070 __aeabi_imod
00003618 g     F .text	000003e2 __mpa_div_q_r
000009b4 g     F .text	00000038 _TEE_MathAPI_Init
000007e8 g     F .text	00000014 utee_storage_next_enum
000089bc g     O .bss	00008000 ta_heap
00000ce0 g     F .text	00000044 TEE_BigIntInvMod
000000bc g     F .text	00000028 TA_CloseSessionEntryPoint
00000400 g     F .text	00000014 __utee_panic
00000528 g     F .text	00000014 utee_cryp_state_copy
000000e4 g     F .text	000000d0 TA_InvokeCommandEntryPoint
00003098 g     F .text	0000009c mpa_set_oct_str
00000914 g     F .text	00000018 utee_se_session_open_channel
00002600 g     F .text	0000004a mempool_alloc
000042de g     F .text	0000004c __mpa_shift_words_left
00000610 g     F .text	00000014 utee_cryp_obj_alloc
000004fc g     F .text	00000014 utee_set_ta_time
000005fc g     F .text	00000014 utee_cryp_obj_get_attr
000027ec g     F .text	00000060 __mpa_montgomery_sub_ack
00001724 g     F .text	00000028 calloc
000010ca g     F .text	0000004a TEE_Malloc
000004c0 g     F .text	00000014 utee_mask_cancellation
00000638 g     F .text	00000014 utee_cryp_obj_reset
00000fec g     F .text	0000000a TEE_CheckMemoryAccessRights
000119c0 g       .bss	00000000 __gprof_buf_end
0000332a g     F .text	00000074 __ul_divmod
00004926 g     F .text	00000010 mpa_neg
00004fc4 g     O .rodata	00000c38 PRIME_TABLE
00000070 g     F .text	0000004c TA_OpenSessionEntryPoint
00003dee g     F .text	000000aa mpa_gcd
000026fa g     F .text	00000014 mpa_abs
000007d4 g     F .text	00000014 utee_storage_start_enum
00002e6e g     F .text	000001d6 mpa_set_str
00000784 g     F .text	00000014 utee_storage_obj_rename
00007090 g     O .bss	00000004 ta_param_types
00004e3a g     F .text	00000048 __aeabi_idiv
00000d80 g     F .text	00000020 TEE_BigIntIsProbablePrime
00003ffa g     F .text	0000000a mpa_alloc_static_temp_var
00000414 g     F .text	00000018 utee_get_property
000009ec g     F .text	00000004 TEE_BigIntInit
00001010 g     F .text	00000004 TEE_MemMove
00000a3a g     F .text	00000016 TEE_BigIntConvertFromOctetString
00007070 g     O .data	00000004 _ref__utee_mcount
0000330e g     F .text	0000001c memchr
00000fb4 g     F .text	0000001c TEE_UnmaskCancellation
00004ca4 g     F .text	00000042 mpa_mul_mod
00000770 g     F .text	00000014 utee_storage_obj_del
00000838 g     F .text	00000014 utee_storage_obj_seek
000028e4 g     F .text	000000d0 mpa_compute_fmm_context
00000564 g     F .text	00000014 utee_hash_update
000009a8  w    F .text	0000000c __utee_mcount
00000b40 g     F .text	00000058 TEE_BigIntMod
00000940 g     F .text	00000014 utee_se_channel_select_next
00000458 g     F .text	00000014 utee_close_ta_session
00000b04 g     F .text	0000003c TEE_BigIntDiv
000005a4 g     F .text	00000018 utee_cipher_update
00000900 g     F .text	00000014 utee_se_session_get_atr
0000174c g     F .text	00000018 realloc
0000462c g     F .text	00000074 __mpa_abs_add_ackum
000025bc g     F .text	00000044 mempool_alloc_pool
00000728 g     F .text	00000018 utee_asymm_verify
00000ae4 g     F .text	00000010 TEE_BigIntMul
000034f4 g     F .text	0000000c mpa_get_word
00001018 g     F .text	00000004 TEE_MemFill
00003280 g     F .text	0000001e memcmp
000019b0 g     F .text	000000d0 malloc_add_pool
00002368 g     F .text	00000014 trace_get_level
00000688 g     F .text	00000014 utee_cryp_random_number_generate
00000a28 g     F .text	00000008 TEE_BigIntFMMSizeInU32
000009f0 g     F .text	0000000e TEE_BigIntInitFMM
00000710 g     F .text	00000018 utee_asymm_operate
00000238 g     F .text	0000018c __utee_entry
00004f80 g       .text	00000000 __text_end
00000d24 g     F .text	00000040 TEE_BigIntRelativePrime
000042a8 g     F .text	00000036 mpa_get_random_digits
00001660 g     F .text	0000009c bpool
0000348a g     F .text	0000001c mpa_set_S32
00004bd4 g     F .text	00000036 mpa_init_static_fmm_context
00000f98 g     F .text	0000001c TEE_GetCancellationFlag
00000874 g     F .text	00000014 utee_se_service_close
0000108c g     F .text	00000028 TEE_SetTAPersistentTime
00004936 g     F .text	000000be mpa_add_word
0000089c g     F .text	00000014 utee_se_reader_get_prop
000032e8 g     F .text	00000010 memset
00001050 g     F .text	0000003c TEE_GetTAPersistentTime
000024c0 g     F .text	000000fc dhex_dump
00000fd0 g     F .text	0000001c TEE_MaskCancellation
00004550 g     F .text	00000018 __mpa_full_sub
000007fc g     F .text	00000014 utee_storage_obj_read
00004dd4 g     F .text	00000020 __aeabi_uidiv
0000064c g     F .text	00000014 utee_cryp_obj_populate
00004b22 g     F .text	00000046 mpa_cmp
00004ce6 g     F .text	000000a4 mpa_inv_mod
000049f4 g     F .text	000000c2 mpa_sub_word
00004014 g     F .text	00000010 __mpa_mul_add_word
00004734 g     F .text	000000ee mpa_add
00002c68 g     F .text	00000114 mpa_exp_mod
0000432a g     F .text	00000044 __mpa_shift_words_right
0000234a g     F .text	0000001e trace_set_level
000008ec g     F .text	00000014 utee_se_session_is_closed
000005d4 g     F .text	00000014 utee_cryp_obj_get_info
00000798 g     F .text	00000014 utee_storage_alloc_enum
000007c0 g     F .text	00000014 utee_storage_reset_enum
00000824 g     F .text	00000014 utee_storage_obj_trunc
00004c0a g     F .text	00000016 mpa_mod
00004b08 g     F .text	00000010 __mpa_abs_greater_than
00000a88 g     F .text	00000014 TEE_BigIntConvertToS32
00000ad0 g     F .text	00000010 TEE_BigIntSub
00000484 g     F .text	00000014 utee_get_cancellation_flag
00000550 g     F .text	00000014 utee_hash_init
0000324c g     F .text	00000004 tahead_get_trace_level
00000e48 g     F .text	00000052 __utee_from_param
00004fa8 g     O .rodata	00000010 Const_1_LShift_Base
00000e9a g     F .text	00000040 __utee_to_param
00001764 g     F .text	0000024c memalign
00000a84 g     F .text	00000004 TEE_BigIntConvertFromS32
00004c62 g     F .text	00000042 mpa_sub_mod
000005e8 g     F .text	00000014 utee_cryp_obj_restrict_usage
00001a80 g     F .text	000000dc malloc_buffer_is_within_alloced
00000660 g     F .text	00000014 utee_cryp_obj_copy
00004462 g     F .text	000000d6 mpa_shift_right
000009fe g     F .text	0000002a TEE_BigIntInitFMMContext
00000674 g     F .text	00000014 utee_cryp_derive_key
0000284c g     F .text	00000098 __mpa_montgomery_mul
00003134 g     F .text	000000d6 mpa_get_oct_str
00004b68 g     F .text	0000005a mpa_cmp_short
000006f8 g     F .text	00000018 utee_authenc_dec_final
00004ab6 g     F .text	00000052 __mpa_abs_cmp
00000af4 g     F .text	00000010 TEE_BigIntSquare
00000020 g     F .text	00000028 TA_CreateEntryPoint
000022e2 g     F .text	0000001a snprintk
00000ab6 g     F .text	0000000a TEE_BigIntGetBitCount
00000c58 g     F .text	00000080 TEE_BigIntMulMod
00007094 g     O .bss	00000020 ta_params
0000408c g     F .text	0000008e __mpa_abs_mul
000012a4 g     F .text	0000011c bget
00001118 g     F .text	00000004 TEE_Free
000008b0 g     F .text	00000014 utee_se_reader_get_name
00001128 g     F .text	00000006 TEE_CacheInvalidate
00000590 g     F .text	00000014 utee_cipher_init
00004e14 g     F .text	00000026 __aeabi_uidivmod
00003234 g     F .text	00000010 _assert_break
00000b98 g     F .text	00000060 TEE_BigIntAddMod
000007ac g     F .text	00000014 utee_storage_free_enum
000006b4 g     F .text	00000014 utee_authenc_update_aad
00002738 g     F .text	0000002c mpa_get_bit
00001014 g     F .text	00000004 TEE_MemCompare
00001ba4 g     F .text	00000730 __vsnprintf
00000eda g     F .text	00000044 TEE_OpenTASession
000003c4 g     F .text	00000014 utee_panic
00001130 g     F .text	00000014 trace_ext_puts
00001144 g     F .text	00000006 trace_ext_get_thread_id
0000111c g     F .text	00000006 TEE_CacheClean
00000440 g     F .text	00000018 utee_open_ta_session
00003500 g     F .text	0000005a __mpa_div_dword
000026a8 g     F .text	0000001a __mpa_set_unused_digits_to_zero
00004fb8 g     O .rodata	0000000c const_largest_deci_base
00002e68 g     F .text	00000006 mpa_get_str_size
00000578 g     F .text	00000018 utee_hash_final
000032f8 g     F .text	00000010 strlen
00000d64 g     F .text	0000001c TEE_BigIntComputeExtendedGcd
0000330a g     F .text	00000002 __aeabi_unwind_cpp_pr1
00003e98 g     F .text	0000013a mpa_extended_gcd
00004c20 g     F .text	00000042 mpa_add_mod
00000740 g     F .text	00000018 utee_storage_obj_open
0000046c g     F .text	00000018 utee_invoke_ta_command
00003044 g     F .text	00000054 mpa_get_str
000004d4 g     F .text	00000014 utee_wait
0000101c g     F .text	00000016 TEE_GetSystemTime
00000000 g     O .ta_head	00000020 ta_head
0000141c g     F .text	000001c8 brel
00003fd2 g     F .text	00000028 mpa_alloc_static_temp_var_size
000004e8 g     F .text	00000014 utee_get_time
0000278c g     F .text	00000060 __mpa_montgomery_mul_add
00000ff6 g     F .text	0000000e TEE_SetInstanceData
00004ef2 g     F .text	0000004e __aeabi_idivmod
000004ac g     F .text	00000014 utee_unmask_cancellation
00002678 g     F .text	00000018 __aeabi_ldivmod
00000498 g     F .text	00000014 utee_check_access_rights
000008d8 g     F .text	00000014 utee_se_reader_close_sessions
0000084c g     F .text	00000014 utee_cryp_obj_generate_key
00000f1e g     F .text	00000014 TEE_CloseTASession
00002780 g     F .text	0000000c mpa_constant_one
00004538 g     F .text	00000018 __mpa_full_adder
000046a0 g     F .text	00000094 __mpa_abs_sub
000119c0 g       .bss	00000000 __gprof_buf_start
00001714 g     F .text	00000010 free



Disassembly of section .text:

00000020 <TA_CreateEntryPoint>:
TA_CreateEntryPoint():
/home/yin/imx-optee/optee_examples/hello_world/ta/hello_world_ta.c:39
      20:	4b07      	ldr	r3, [pc, #28]	; (40 <TA_CreateEntryPoint+0x20>)
/home/yin/imx-optee/optee_examples/hello_world/ta/hello_world_ta.c:38
      22:	b507      	push	{r0, r1, r2, lr}
/home/yin/imx-optee/optee_examples/hello_world/ta/hello_world_ta.c:39
      24:	2203      	movs	r2, #3
      26:	4807      	ldr	r0, [pc, #28]	; (44 <TA_CreateEntryPoint+0x24>)
      28:	2127      	movs	r1, #39	; 0x27
      2a:	447b      	add	r3, pc
      2c:	9300      	str	r3, [sp, #0]
      2e:	2301      	movs	r3, #1
      30:	4478      	add	r0, pc
      32:	f002 f9a3 	bl	237c <trace_printf>
/home/yin/imx-optee/optee_examples/hello_world/ta/hello_world_ta.c:42
      36:	2000      	movs	r0, #0
      38:	b003      	add	sp, #12
      3a:	f85d fb04 	ldr.w	pc, [sp], #4
      3e:	bf00      	nop
      40:	00005d36 	.word	0x00005d36
      44:	00005cc0 	.word	0x00005cc0

00000048 <TA_DestroyEntryPoint>:
TA_DestroyEntryPoint():
/home/yin/imx-optee/optee_examples/hello_world/ta/hello_world_ta.c:49
      48:	b507      	push	{r0, r1, r2, lr}
/home/yin/imx-optee/optee_examples/hello_world/ta/hello_world_ta.c:50
      4a:	2203      	movs	r2, #3
      4c:	4b06      	ldr	r3, [pc, #24]	; (68 <TA_DestroyEntryPoint+0x20>)
      4e:	2132      	movs	r1, #50	; 0x32
      50:	4806      	ldr	r0, [pc, #24]	; (6c <TA_DestroyEntryPoint+0x24>)
      52:	447b      	add	r3, pc
      54:	9300      	str	r3, [sp, #0]
      56:	2301      	movs	r3, #1
      58:	4478      	add	r0, pc
      5a:	3014      	adds	r0, #20
      5c:	f002 f98e 	bl	237c <trace_printf>
/home/yin/imx-optee/optee_examples/hello_world/ta/hello_world_ta.c:51
      60:	b003      	add	sp, #12
      62:	f85d fb04 	ldr.w	pc, [sp], #4
      66:	bf00      	nop
      68:	00005d0e 	.word	0x00005d0e
      6c:	00005c98 	.word	0x00005c98

00000070 <TA_OpenSessionEntryPoint>:
TA_OpenSessionEntryPoint():
/home/yin/imx-optee/optee_examples/hello_world/ta/hello_world_ta.c:62
      70:	b537      	push	{r0, r1, r2, r4, r5, lr}
      72:	4604      	mov	r4, r0
/home/yin/imx-optee/optee_examples/hello_world/ta/hello_world_ta.c:68
      74:	4d0e      	ldr	r5, [pc, #56]	; (b0 <TA_OpenSessionEntryPoint+0x40>)
      76:	2203      	movs	r2, #3
      78:	2144      	movs	r1, #68	; 0x44
      7a:	4b0e      	ldr	r3, [pc, #56]	; (b4 <TA_OpenSessionEntryPoint+0x44>)
      7c:	447d      	add	r5, pc
      7e:	3529      	adds	r5, #41	; 0x29
      80:	447b      	add	r3, pc
      82:	4628      	mov	r0, r5
      84:	9300      	str	r3, [sp, #0]
      86:	2301      	movs	r3, #1
      88:	f002 f978 	bl	237c <trace_printf>
/home/yin/imx-optee/optee_examples/hello_world/ta/hello_world_ta.c:70
      8c:	b95c      	cbnz	r4, a6 <TA_OpenSessionEntryPoint+0x36>
/home/yin/imx-optee/optee_examples/hello_world/ta/hello_world_ta.c:81
      8e:	4b0a      	ldr	r3, [pc, #40]	; (b8 <TA_OpenSessionEntryPoint+0x48>)
      90:	4628      	mov	r0, r5
      92:	2202      	movs	r2, #2
      94:	2151      	movs	r1, #81	; 0x51
      96:	447b      	add	r3, pc
      98:	9300      	str	r3, [sp, #0]
      9a:	2301      	movs	r3, #1
      9c:	f002 f96e 	bl	237c <trace_printf>
/home/yin/imx-optee/optee_examples/hello_world/ta/hello_world_ta.c:84
      a0:	4620      	mov	r0, r4
/home/yin/imx-optee/optee_examples/hello_world/ta/hello_world_ta.c:85
      a2:	b003      	add	sp, #12
      a4:	bd30      	pop	{r4, r5, pc}
/home/yin/imx-optee/optee_examples/hello_world/ta/hello_world_ta.c:71
      a6:	4801      	ldr	r0, [pc, #4]	; (ac <TA_OpenSessionEntryPoint+0x3c>)
      a8:	e7fb      	b.n	a2 <TA_OpenSessionEntryPoint+0x32>
      aa:	bf00      	nop
      ac:	ffff0006 	.word	0xffff0006
      b0:	00005c74 	.word	0x00005c74
      b4:	00005ce0 	.word	0x00005ce0
      b8:	00005cda 	.word	0x00005cda

000000bc <TA_CloseSessionEntryPoint>:
TA_CloseSessionEntryPoint():
/home/yin/imx-optee/optee_examples/hello_world/ta/hello_world_ta.c:92
      bc:	b507      	push	{r0, r1, r2, lr}
/home/yin/imx-optee/optee_examples/hello_world/ta/hello_world_ta.c:94
      be:	2202      	movs	r2, #2
      c0:	4b06      	ldr	r3, [pc, #24]	; (dc <TA_CloseSessionEntryPoint+0x20>)
      c2:	215e      	movs	r1, #94	; 0x5e
      c4:	4806      	ldr	r0, [pc, #24]	; (e0 <TA_CloseSessionEntryPoint+0x24>)
      c6:	447b      	add	r3, pc
      c8:	9300      	str	r3, [sp, #0]
      ca:	2301      	movs	r3, #1
      cc:	4478      	add	r0, pc
      ce:	3042      	adds	r0, #66	; 0x42
      d0:	f002 f954 	bl	237c <trace_printf>
/home/yin/imx-optee/optee_examples/hello_world/ta/hello_world_ta.c:95
      d4:	b003      	add	sp, #12
      d6:	f85d fb04 	ldr.w	pc, [sp], #4
      da:	bf00      	nop
      dc:	00005cb8 	.word	0x00005cb8
      e0:	00005c24 	.word	0x00005c24

000000e4 <TA_InvokeCommandEntryPoint>:
TA_InvokeCommandEntryPoint():
/home/yin/imx-optee/optee_examples/hello_world/ta/hello_world_ta.c:144
      e4:	b5f7      	push	{r0, r1, r2, r4, r5, r6, r7, lr}
      e6:	4617      	mov	r7, r2
      e8:	461d      	mov	r5, r3
/home/yin/imx-optee/optee_examples/hello_world/ta/hello_world_ta.c:147
      ea:	460c      	mov	r4, r1
      ec:	b119      	cbz	r1, f6 <TA_InvokeCommandEntryPoint+0x12>
      ee:	2901      	cmp	r1, #1
      f0:	d02a      	beq.n	148 <TA_InvokeCommandEntryPoint+0x64>
/home/yin/imx-optee/optee_examples/hello_world/ta/hello_world_ta.c:153
      f2:	4827      	ldr	r0, [pc, #156]	; (190 <TA_InvokeCommandEntryPoint+0xac>)
      f4:	e026      	b.n	144 <TA_InvokeCommandEntryPoint+0x60>
inc_value():
/home/yin/imx-optee/optee_examples/hello_world/ta/hello_world_ta.c:105
      f6:	4e27      	ldr	r6, [pc, #156]	; (194 <TA_InvokeCommandEntryPoint+0xb0>)
      f8:	2203      	movs	r2, #3
      fa:	4b27      	ldr	r3, [pc, #156]	; (198 <TA_InvokeCommandEntryPoint+0xb4>)
      fc:	2169      	movs	r1, #105	; 0x69
      fe:	447e      	add	r6, pc
     100:	447b      	add	r3, pc
     102:	365c      	adds	r6, #92	; 0x5c
     104:	9300      	str	r3, [sp, #0]
     106:	4630      	mov	r0, r6
     108:	2301      	movs	r3, #1
     10a:	f002 f937 	bl	237c <trace_printf>
/home/yin/imx-optee/optee_examples/hello_world/ta/hello_world_ta.c:107
     10e:	2f03      	cmp	r7, #3
     110:	d1ef      	bne.n	f2 <TA_InvokeCommandEntryPoint+0xe>
/home/yin/imx-optee/optee_examples/hello_world/ta/hello_world_ta.c:110
     112:	682b      	ldr	r3, [r5, #0]
     114:	2202      	movs	r2, #2
     116:	216e      	movs	r1, #110	; 0x6e
     118:	4630      	mov	r0, r6
     11a:	9301      	str	r3, [sp, #4]
     11c:	4b1f      	ldr	r3, [pc, #124]	; (19c <TA_InvokeCommandEntryPoint+0xb8>)
     11e:	447b      	add	r3, pc
     120:	9300      	str	r3, [sp, #0]
     122:	2301      	movs	r3, #1
     124:	f002 f92a 	bl	237c <trace_printf>
/home/yin/imx-optee/optee_examples/hello_world/ta/hello_world_ta.c:111
     128:	682b      	ldr	r3, [r5, #0]
/home/yin/imx-optee/optee_examples/hello_world/ta/hello_world_ta.c:112
     12a:	2202      	movs	r2, #2
     12c:	2170      	movs	r1, #112	; 0x70
/home/yin/imx-optee/optee_examples/hello_world/ta/hello_world_ta.c:111
     12e:	3301      	adds	r3, #1
     130:	602b      	str	r3, [r5, #0]
/home/yin/imx-optee/optee_examples/hello_world/ta/hello_world_ta.c:112
     132:	9301      	str	r3, [sp, #4]
     134:	4b1a      	ldr	r3, [pc, #104]	; (1a0 <TA_InvokeCommandEntryPoint+0xbc>)
     136:	447b      	add	r3, pc
     138:	9300      	str	r3, [sp, #0]
     13a:	2301      	movs	r3, #1
dec_value():
/home/yin/imx-optee/optee_examples/hello_world/ta/hello_world_ta.c:132
     13c:	4630      	mov	r0, r6
     13e:	f002 f91d 	bl	237c <trace_printf>
/home/yin/imx-optee/optee_examples/hello_world/ta/hello_world_ta.c:134
     142:	2000      	movs	r0, #0
TA_InvokeCommandEntryPoint():
/home/yin/imx-optee/optee_examples/hello_world/ta/hello_world_ta.c:155
     144:	b003      	add	sp, #12
     146:	bdf0      	pop	{r4, r5, r6, r7, pc}
dec_value():
/home/yin/imx-optee/optee_examples/hello_world/ta/hello_world_ta.c:125
     148:	4e16      	ldr	r6, [pc, #88]	; (1a4 <TA_InvokeCommandEntryPoint+0xc0>)
     14a:	2203      	movs	r2, #3
     14c:	4b16      	ldr	r3, [pc, #88]	; (1a8 <TA_InvokeCommandEntryPoint+0xc4>)
     14e:	447e      	add	r6, pc
     150:	447b      	add	r3, pc
     152:	3666      	adds	r6, #102	; 0x66
     154:	9300      	str	r3, [sp, #0]
     156:	4630      	mov	r0, r6
     158:	460b      	mov	r3, r1
     15a:	217d      	movs	r1, #125	; 0x7d
     15c:	f002 f90e 	bl	237c <trace_printf>
/home/yin/imx-optee/optee_examples/hello_world/ta/hello_world_ta.c:127
     160:	2f03      	cmp	r7, #3
     162:	d1c6      	bne.n	f2 <TA_InvokeCommandEntryPoint+0xe>
/home/yin/imx-optee/optee_examples/hello_world/ta/hello_world_ta.c:130
     164:	682b      	ldr	r3, [r5, #0]
     166:	2202      	movs	r2, #2
     168:	2182      	movs	r1, #130	; 0x82
     16a:	4630      	mov	r0, r6
     16c:	9301      	str	r3, [sp, #4]
     16e:	4b0f      	ldr	r3, [pc, #60]	; (1ac <TA_InvokeCommandEntryPoint+0xc8>)
     170:	447b      	add	r3, pc
     172:	9300      	str	r3, [sp, #0]
     174:	4623      	mov	r3, r4
     176:	f002 f901 	bl	237c <trace_printf>
/home/yin/imx-optee/optee_examples/hello_world/ta/hello_world_ta.c:131
     17a:	682b      	ldr	r3, [r5, #0]
/home/yin/imx-optee/optee_examples/hello_world/ta/hello_world_ta.c:132
     17c:	2202      	movs	r2, #2
     17e:	2184      	movs	r1, #132	; 0x84
/home/yin/imx-optee/optee_examples/hello_world/ta/hello_world_ta.c:131
     180:	3b01      	subs	r3, #1
     182:	602b      	str	r3, [r5, #0]
/home/yin/imx-optee/optee_examples/hello_world/ta/hello_world_ta.c:132
     184:	9301      	str	r3, [sp, #4]
     186:	4b0a      	ldr	r3, [pc, #40]	; (1b0 <TA_InvokeCommandEntryPoint+0xcc>)
     188:	447b      	add	r3, pc
     18a:	9300      	str	r3, [sp, #0]
     18c:	4623      	mov	r3, r4
     18e:	e7d5      	b.n	13c <TA_InvokeCommandEntryPoint+0x58>
     190:	ffff0006 	.word	0xffff0006
     194:	00005bf2 	.word	0x00005bf2
     198:	00005c60 	.word	0x00005c60
     19c:	00005c6a 	.word	0x00005c6a
     1a0:	00005c68 	.word	0x00005c68
     1a4:	00005ba2 	.word	0x00005ba2
     1a8:	00005c10 	.word	0x00005c10
     1ac:	00005c18 	.word	0x00005c18
     1b0:	00005c2c 	.word	0x00005c2c

000001b4 <ta_header_get_session>:
ta_header_get_session():
/home/yin/imx-optee/imx-optee-os/lib/libutee/arch/arm/user_ta_entry.c:81
     1b4:	4b05      	ldr	r3, [pc, #20]	; (1cc <ta_header_get_session+0x18>)
     1b6:	447b      	add	r3, pc
     1b8:	681b      	ldr	r3, [r3, #0]
/home/yin/imx-optee/imx-optee-os/lib/libutee/arch/arm/user_ta_entry.c:81 (discriminator 1)
     1ba:	b90b      	cbnz	r3, 1c0 <ta_header_get_session+0xc>
/home/yin/imx-optee/imx-optee-os/lib/libutee/arch/arm/user_ta_entry.c:86
     1bc:	4618      	mov	r0, r3
     1be:	4770      	bx	lr
/home/yin/imx-optee/imx-optee-os/lib/libutee/arch/arm/user_ta_entry.c:82
     1c0:	681a      	ldr	r2, [r3, #0]
     1c2:	4282      	cmp	r2, r0
     1c4:	d0fa      	beq.n	1bc <ta_header_get_session+0x8>
/home/yin/imx-optee/imx-optee-os/lib/libutee/arch/arm/user_ta_entry.c:81 (discriminator 2)
     1c6:	689b      	ldr	r3, [r3, #8]
     1c8:	e7f7      	b.n	1ba <ta_header_get_session+0x6>
     1ca:	bf00      	nop
     1cc:	00006eba 	.word	0x00006eba

000001d0 <ta_header_remove_session>:
ta_header_remove_session():
/home/yin/imx-optee/imx-optee-os/lib/libutee/arch/arm/user_ta_entry.c:119
     1d0:	4b14      	ldr	r3, [pc, #80]	; (224 <ta_header_remove_session+0x54>)
/home/yin/imx-optee/imx-optee-os/lib/libutee/arch/arm/user_ta_entry.c:115
     1d2:	b510      	push	{r4, lr}
     1d4:	4c14      	ldr	r4, [pc, #80]	; (228 <ta_header_remove_session+0x58>)
/home/yin/imx-optee/imx-optee-os/lib/libutee/arch/arm/user_ta_entry.c:119
     1d6:	447b      	add	r3, pc
     1d8:	681b      	ldr	r3, [r3, #0]
/home/yin/imx-optee/imx-optee-os/lib/libutee/arch/arm/user_ta_entry.c:115
     1da:	447c      	add	r4, pc
/home/yin/imx-optee/imx-optee-os/lib/libutee/arch/arm/user_ta_entry.c:119 (discriminator 1)
     1dc:	b903      	cbnz	r3, 1e0 <ta_header_remove_session+0x10>
     1de:	bd10      	pop	{r4, pc}
/home/yin/imx-optee/imx-optee-os/lib/libutee/arch/arm/user_ta_entry.c:120
     1e0:	681a      	ldr	r2, [r3, #0]
     1e2:	4282      	cmp	r2, r0
     1e4:	689a      	ldr	r2, [r3, #8]
     1e6:	d11b      	bne.n	220 <ta_header_remove_session+0x50>
     1e8:	68d9      	ldr	r1, [r3, #12]
/home/yin/imx-optee/imx-optee-os/lib/libutee/arch/arm/user_ta_entry.c:121
     1ea:	b1aa      	cbz	r2, 218 <ta_header_remove_session+0x48>
/home/yin/imx-optee/imx-optee-os/lib/libutee/arch/arm/user_ta_entry.c:121 (discriminator 1)
     1ec:	60d1      	str	r1, [r2, #12]
/home/yin/imx-optee/imx-optee-os/lib/libutee/arch/arm/user_ta_entry.c:121 (discriminator 4)
     1ee:	68d9      	ldr	r1, [r3, #12]
/home/yin/imx-optee/imx-optee-os/lib/libutee/arch/arm/user_ta_entry.c:122 (discriminator 4)
     1f0:	4618      	mov	r0, r3
/home/yin/imx-optee/imx-optee-os/lib/libutee/arch/arm/user_ta_entry.c:121 (discriminator 4)
     1f2:	600a      	str	r2, [r1, #0]
/home/yin/imx-optee/imx-optee-os/lib/libutee/arch/arm/user_ta_entry.c:122 (discriminator 4)
     1f4:	f000 ff90 	bl	1118 <TEE_Free>
/home/yin/imx-optee/imx-optee-os/lib/libutee/arch/arm/user_ta_entry.c:127 (discriminator 4)
     1f8:	4b0c      	ldr	r3, [pc, #48]	; (22c <ta_header_remove_session+0x5c>)
     1fa:	447b      	add	r3, pc
     1fc:	681b      	ldr	r3, [r3, #0]
     1fe:	2b00      	cmp	r3, #0
     200:	d1ed      	bne.n	1de <ta_header_remove_session+0xe>
/home/yin/imx-optee/imx-optee-os/lib/libutee/arch/arm/user_ta_entry.c:125 (discriminator 1)
     202:	4b0b      	ldr	r3, [pc, #44]	; (230 <ta_header_remove_session+0x60>)
     204:	58e3      	ldr	r3, [r4, r3]
     206:	695b      	ldr	r3, [r3, #20]
     208:	f003 0314 	and.w	r3, r3, #20
/home/yin/imx-optee/imx-optee-os/lib/libutee/arch/arm/user_ta_entry.c:127 (discriminator 1)
     20c:	2b14      	cmp	r3, #20
     20e:	d0e6      	beq.n	1de <ta_header_remove_session+0xe>
/home/yin/imx-optee/imx-optee-os/lib/libutee/arch/arm/user_ta_entry.c:133
     210:	e8bd 4010 	ldmia.w	sp!, {r4, lr}
uninit_instance():
/home/yin/imx-optee/imx-optee-os/lib/libutee/arch/arm/user_ta_entry.c:63
     214:	f7ff bf18 	b.w	48 <TA_DestroyEntryPoint>
ta_header_remove_session():
/home/yin/imx-optee/imx-optee-os/lib/libutee/arch/arm/user_ta_entry.c:121 (discriminator 2)
     218:	4806      	ldr	r0, [pc, #24]	; (234 <ta_header_remove_session+0x64>)
     21a:	4478      	add	r0, pc
     21c:	6041      	str	r1, [r0, #4]
     21e:	e7e6      	b.n	1ee <ta_header_remove_session+0x1e>
/home/yin/imx-optee/imx-optee-os/lib/libutee/arch/arm/user_ta_entry.c:119 (discriminator 2)
     220:	4613      	mov	r3, r2
     222:	e7db      	b.n	1dc <ta_header_remove_session+0xc>
     224:	00006e9a 	.word	0x00006e9a
     228:	000068e6 	.word	0x000068e6
     22c:	00006e76 	.word	0x00006e76
     230:	00000024 	.word	0x00000024
     234:	00006e56 	.word	0x00006e56

00000238 <__utee_entry>:
__utee_entry():
/home/yin/imx-optee/imx-optee-os/lib/libutee/arch/arm/user_ta_entry.c:200
     238:	4c5a      	ldr	r4, [pc, #360]	; (3a4 <__utee_entry+0x16c>)
     23a:	4616      	mov	r6, r2
     23c:	b580      	push	{r7, lr}
     23e:	4698      	mov	r8, r3
     240:	b08c      	sub	sp, #48	; 0x30
     242:	460f      	mov	r7, r1
     244:	447c      	add	r4, pc
/home/yin/imx-optee/imx-optee-os/lib/libutee/arch/arm/user_ta_entry.c:211
     246:	2801      	cmp	r0, #1
     248:	d073      	beq.n	332 <__utee_entry+0xfa>
     24a:	d307      	bcc.n	25c <__utee_entry+0x24>
     24c:	2802      	cmp	r0, #2
     24e:	d07d      	beq.n	34c <__utee_entry+0x114>
/home/yin/imx-optee/imx-optee-os/lib/libutee/arch/arm/user_ta_entry.c:223
     250:	2000      	movs	r0, #0
/home/yin/imx-optee/imx-optee-os/lib/libutee/arch/arm/user_ta_entry.c:222
     252:	f04f 34ff 	mov.w	r4, #4294967295	; 0xffffffff
/home/yin/imx-optee/imx-optee-os/lib/libutee/arch/arm/user_ta_entry.c:223
     256:	f002 fffb 	bl	3250 <TEE_Panic>
/home/yin/imx-optee/imx-optee-os/lib/libutee/arch/arm/user_ta_entry.c:224
     25a:	e026      	b.n	2aa <__utee_entry+0x72>
ta_header_add_session():
/home/yin/imx-optee/imx-optee-os/lib/libutee/arch/arm/user_ta_entry.c:90
     25c:	4608      	mov	r0, r1
     25e:	f7ff ffa9 	bl	1b4 <ta_header_get_session>
/home/yin/imx-optee/imx-optee-os/lib/libutee/arch/arm/user_ta_entry.c:93
     262:	2800      	cmp	r0, #0
     264:	d137      	bne.n	2d6 <__utee_entry+0x9e>
/home/yin/imx-optee/imx-optee-os/lib/libutee/arch/arm/user_ta_entry.c:96
     266:	4b50      	ldr	r3, [pc, #320]	; (3a8 <__utee_entry+0x170>)
     268:	447b      	add	r3, pc
     26a:	781a      	ldrb	r2, [r3, #0]
     26c:	b13a      	cbz	r2, 27e <__utee_entry+0x46>
/home/yin/imx-optee/imx-optee-os/lib/libutee/arch/arm/user_ta_entry.c:103
     26e:	f04f 4100 	mov.w	r1, #2147483648	; 0x80000000
     272:	2010      	movs	r0, #16
     274:	f000 ff29 	bl	10ca <TEE_Malloc>
/home/yin/imx-optee/imx-optee-os/lib/libutee/arch/arm/user_ta_entry.c:105
     278:	bb10      	cbnz	r0, 2c0 <__utee_entry+0x88>
/home/yin/imx-optee/imx-optee-os/lib/libutee/arch/arm/user_ta_entry.c:106
     27a:	4c48      	ldr	r4, [pc, #288]	; (39c <__utee_entry+0x164>)
     27c:	e015      	b.n	2aa <__utee_entry+0x72>
/home/yin/imx-optee/imx-optee-os/lib/libutee/arch/arm/user_ta_entry.c:97
     27e:	2201      	movs	r2, #1
     280:	701a      	strb	r2, [r3, #0]
init_instance():
/home/yin/imx-optee/imx-optee-os/lib/libutee/arch/arm/user_ta_entry.c:53
     282:	f002 ffe3 	bl	324c <tahead_get_trace_level>
     286:	f002 f860 	bl	234a <trace_set_level>
/home/yin/imx-optee/imx-optee-os/lib/libutee/arch/arm/user_ta_entry.c:55
     28a:	4b48      	ldr	r3, [pc, #288]	; (3ac <__utee_entry+0x174>)
     28c:	4a48      	ldr	r2, [pc, #288]	; (3b0 <__utee_entry+0x178>)
     28e:	58e3      	ldr	r3, [r4, r3]
     290:	58a2      	ldr	r2, [r4, r2]
     292:	6819      	ldr	r1, [r3, #0]
     294:	4610      	mov	r0, r2
     296:	9201      	str	r2, [sp, #4]
     298:	f001 fb8a 	bl	19b0 <malloc_add_pool>
/home/yin/imx-optee/imx-optee-os/lib/libutee/arch/arm/user_ta_entry.c:56
     29c:	f000 fb8a 	bl	9b4 <_TEE_MathAPI_Init>
/home/yin/imx-optee/imx-optee-os/lib/libutee/arch/arm/user_ta_entry.c:57
     2a0:	f7ff febe 	bl	20 <TA_CreateEntryPoint>
ta_header_add_session():
/home/yin/imx-optee/imx-optee-os/lib/libutee/arch/arm/user_ta_entry.c:99
     2a4:	4604      	mov	r4, r0
     2a6:	2800      	cmp	r0, #0
     2a8:	d0e1      	beq.n	26e <__utee_entry+0x36>
ta_header_save_params():
/home/yin/imx-optee/imx-optee-os/lib/libutee/arch/arm/user_ta_entry.c:69
     2aa:	4842      	ldr	r0, [pc, #264]	; (3b4 <__utee_entry+0x17c>)
     2ac:	2100      	movs	r1, #0
/home/yin/imx-optee/imx-optee-os/lib/libutee/arch/arm/user_ta_entry.c:74
     2ae:	2220      	movs	r2, #32
/home/yin/imx-optee/imx-optee-os/lib/libutee/arch/arm/user_ta_entry.c:69
     2b0:	4478      	add	r0, pc
     2b2:	6041      	str	r1, [r0, #4]
/home/yin/imx-optee/imx-optee-os/lib/libutee/arch/arm/user_ta_entry.c:74
     2b4:	3008      	adds	r0, #8
     2b6:	f003 f817 	bl	32e8 <memset>
__utee_entry():
/home/yin/imx-optee/imx-optee-os/lib/libutee/arch/arm/user_ta_entry.c:227
     2ba:	4620      	mov	r0, r4
     2bc:	f000 e88c 	blx	3d8 <utee_return>
ta_header_add_session():
/home/yin/imx-optee/imx-optee-os/lib/libutee/arch/arm/user_ta_entry.c:108
     2c0:	2300      	movs	r3, #0
/home/yin/imx-optee/imx-optee-os/lib/libutee/arch/arm/user_ta_entry.c:107
     2c2:	6007      	str	r7, [r0, #0]
/home/yin/imx-optee/imx-optee-os/lib/libutee/arch/arm/user_ta_entry.c:108
     2c4:	6043      	str	r3, [r0, #4]
/home/yin/imx-optee/imx-optee-os/lib/libutee/arch/arm/user_ta_entry.c:109
     2c6:	6083      	str	r3, [r0, #8]
     2c8:	4b3b      	ldr	r3, [pc, #236]	; (3b8 <__utee_entry+0x180>)
     2ca:	447b      	add	r3, pc
     2cc:	685a      	ldr	r2, [r3, #4]
     2ce:	60c2      	str	r2, [r0, #12]
     2d0:	6010      	str	r0, [r2, #0]
     2d2:	3008      	adds	r0, #8
     2d4:	6058      	str	r0, [r3, #4]
entry_open_session():
/home/yin/imx-optee/imx-optee-os/lib/libutee/arch/arm/user_ta_entry.c:147
     2d6:	4638      	mov	r0, r7
     2d8:	f7ff ff6c 	bl	1b4 <ta_header_get_session>
/home/yin/imx-optee/imx-optee-os/lib/libutee/arch/arm/user_ta_entry.c:148
     2dc:	4681      	mov	r9, r0
     2de:	b908      	cbnz	r0, 2e4 <__utee_entry+0xac>
entry_close_session():
/home/yin/imx-optee/imx-optee-os/lib/libutee/arch/arm/user_ta_entry.c:169
     2e0:	4c2f      	ldr	r4, [pc, #188]	; (3a0 <__utee_entry+0x168>)
     2e2:	e7e2      	b.n	2aa <__utee_entry+0x72>
entry_open_session():
/home/yin/imx-optee/imx-optee-os/lib/libutee/arch/arm/user_ta_entry.c:151
     2e4:	f10d 0810 	add.w	r8, sp, #16
     2e8:	4632      	mov	r2, r6
     2ea:	a903      	add	r1, sp, #12
     2ec:	4640      	mov	r0, r8
ta_header_save_params():
/home/yin/imx-optee/imx-optee-os/lib/libutee/arch/arm/user_ta_entry.c:69
     2ee:	4c33      	ldr	r4, [pc, #204]	; (3bc <__utee_entry+0x184>)
/home/yin/imx-optee/imx-optee-os/lib/libutee/arch/arm/user_ta_entry.c:72
     2f0:	4645      	mov	r5, r8
entry_open_session():
/home/yin/imx-optee/imx-optee-os/lib/libutee/arch/arm/user_ta_entry.c:151
     2f2:	f000 fdd2 	bl	e9a <__utee_to_param>
/home/yin/imx-optee/imx-optee-os/lib/libutee/arch/arm/user_ta_entry.c:152
     2f6:	f8dd c00c 	ldr.w	ip, [sp, #12]
ta_header_save_params():
/home/yin/imx-optee/imx-optee-os/lib/libutee/arch/arm/user_ta_entry.c:72
     2fa:	cd0f      	ldmia	r5!, {r0, r1, r2, r3}
/home/yin/imx-optee/imx-optee-os/lib/libutee/arch/arm/user_ta_entry.c:69
     2fc:	447c      	add	r4, pc
/home/yin/imx-optee/imx-optee-os/lib/libutee/arch/arm/user_ta_entry.c:72
     2fe:	3408      	adds	r4, #8
/home/yin/imx-optee/imx-optee-os/lib/libutee/arch/arm/user_ta_entry.c:69
     300:	f844 cc04 	str.w	ip, [r4, #-4]
/home/yin/imx-optee/imx-optee-os/lib/libutee/arch/arm/user_ta_entry.c:72
     304:	c40f      	stmia	r4!, {r0, r1, r2, r3}
     306:	e895 000f 	ldmia.w	r5, {r0, r1, r2, r3}
     30a:	e884 000f 	stmia.w	r4, {r0, r1, r2, r3}
entry_open_session():
/home/yin/imx-optee/imx-optee-os/lib/libutee/arch/arm/user_ta_entry.c:154
     30e:	f109 0204 	add.w	r2, r9, #4
     312:	4641      	mov	r1, r8
     314:	4660      	mov	r0, ip
     316:	f7ff feab 	bl	70 <TA_OpenSessionEntryPoint>
     31a:	4604      	mov	r4, r0
/home/yin/imx-optee/imx-optee-os/lib/libutee/arch/arm/user_ta_entry.c:157
     31c:	4642      	mov	r2, r8
     31e:	9903      	ldr	r1, [sp, #12]
     320:	4630      	mov	r0, r6
     322:	f000 fd91 	bl	e48 <__utee_from_param>
/home/yin/imx-optee/imx-optee-os/lib/libutee/arch/arm/user_ta_entry.c:159
     326:	2c00      	cmp	r4, #0
     328:	d0bf      	beq.n	2aa <__utee_entry+0x72>
/home/yin/imx-optee/imx-optee-os/lib/libutee/arch/arm/user_ta_entry.c:160
     32a:	4638      	mov	r0, r7
     32c:	f7ff ff50 	bl	1d0 <ta_header_remove_session>
     330:	e7bb      	b.n	2aa <__utee_entry+0x72>
entry_close_session():
/home/yin/imx-optee/imx-optee-os/lib/libutee/arch/arm/user_ta_entry.c:166
     332:	4608      	mov	r0, r1
     334:	f7ff ff3e 	bl	1b4 <ta_header_get_session>
/home/yin/imx-optee/imx-optee-os/lib/libutee/arch/arm/user_ta_entry.c:168
     338:	2800      	cmp	r0, #0
     33a:	d0d1      	beq.n	2e0 <__utee_entry+0xa8>
/home/yin/imx-optee/imx-optee-os/lib/libutee/arch/arm/user_ta_entry.c:171
     33c:	6840      	ldr	r0, [r0, #4]
/home/yin/imx-optee/imx-optee-os/lib/libutee/arch/arm/user_ta_entry.c:174
     33e:	2400      	movs	r4, #0
/home/yin/imx-optee/imx-optee-os/lib/libutee/arch/arm/user_ta_entry.c:171
     340:	f7ff febc 	bl	bc <TA_CloseSessionEntryPoint>
/home/yin/imx-optee/imx-optee-os/lib/libutee/arch/arm/user_ta_entry.c:173
     344:	4638      	mov	r0, r7
     346:	f7ff ff43 	bl	1d0 <ta_header_remove_session>
     34a:	e7ae      	b.n	2aa <__utee_entry+0x72>
entry_invoke_command():
/home/yin/imx-optee/imx-optee-os/lib/libutee/arch/arm/user_ta_entry.c:183
     34c:	4608      	mov	r0, r1
     34e:	f7ff ff31 	bl	1b4 <ta_header_get_session>
/home/yin/imx-optee/imx-optee-os/lib/libutee/arch/arm/user_ta_entry.c:185
     352:	4681      	mov	r9, r0
     354:	2800      	cmp	r0, #0
     356:	d0c3      	beq.n	2e0 <__utee_entry+0xa8>
/home/yin/imx-optee/imx-optee-os/lib/libutee/arch/arm/user_ta_entry.c:188
     358:	af04      	add	r7, sp, #16
     35a:	4632      	mov	r2, r6
     35c:	a903      	add	r1, sp, #12
     35e:	4638      	mov	r0, r7
ta_header_save_params():
/home/yin/imx-optee/imx-optee-os/lib/libutee/arch/arm/user_ta_entry.c:72
     360:	463d      	mov	r5, r7
/home/yin/imx-optee/imx-optee-os/lib/libutee/arch/arm/user_ta_entry.c:69
     362:	4c17      	ldr	r4, [pc, #92]	; (3c0 <__utee_entry+0x188>)
entry_invoke_command():
/home/yin/imx-optee/imx-optee-os/lib/libutee/arch/arm/user_ta_entry.c:188
     364:	f000 fd99 	bl	e9a <__utee_to_param>
/home/yin/imx-optee/imx-optee-os/lib/libutee/arch/arm/user_ta_entry.c:189
     368:	f8dd c00c 	ldr.w	ip, [sp, #12]
ta_header_save_params():
/home/yin/imx-optee/imx-optee-os/lib/libutee/arch/arm/user_ta_entry.c:72
     36c:	cd0f      	ldmia	r5!, {r0, r1, r2, r3}
/home/yin/imx-optee/imx-optee-os/lib/libutee/arch/arm/user_ta_entry.c:69
     36e:	447c      	add	r4, pc
/home/yin/imx-optee/imx-optee-os/lib/libutee/arch/arm/user_ta_entry.c:72
     370:	3408      	adds	r4, #8
/home/yin/imx-optee/imx-optee-os/lib/libutee/arch/arm/user_ta_entry.c:69
     372:	f844 cc04 	str.w	ip, [r4, #-4]
/home/yin/imx-optee/imx-optee-os/lib/libutee/arch/arm/user_ta_entry.c:72
     376:	c40f      	stmia	r4!, {r0, r1, r2, r3}
     378:	e895 000f 	ldmia.w	r5, {r0, r1, r2, r3}
     37c:	e884 000f 	stmia.w	r4, {r0, r1, r2, r3}
entry_invoke_command():
/home/yin/imx-optee/imx-optee-os/lib/libutee/arch/arm/user_ta_entry.c:191
     380:	4662      	mov	r2, ip
     382:	4641      	mov	r1, r8
     384:	463b      	mov	r3, r7
     386:	f8d9 0004 	ldr.w	r0, [r9, #4]
     38a:	f7ff feab 	bl	e4 <TA_InvokeCommandEntryPoint>
/home/yin/imx-optee/imx-optee-os/lib/libutee/arch/arm/user_ta_entry.c:194
     38e:	463a      	mov	r2, r7
/home/yin/imx-optee/imx-optee-os/lib/libutee/arch/arm/user_ta_entry.c:191
     390:	4604      	mov	r4, r0
/home/yin/imx-optee/imx-optee-os/lib/libutee/arch/arm/user_ta_entry.c:194
     392:	9903      	ldr	r1, [sp, #12]
     394:	4630      	mov	r0, r6
     396:	f000 fd57 	bl	e48 <__utee_from_param>
     39a:	e786      	b.n	2aa <__utee_entry+0x72>
     39c:	ffff000c 	.word	0xffff000c
     3a0:	ffff0007 	.word	0xffff0007
     3a4:	0000687c 	.word	0x0000687c
     3a8:	00006e20 	.word	0x00006e20
     3ac:	0000000c 	.word	0x0000000c
     3b0:	0000001c 	.word	0x0000001c
     3b4:	00006dd8 	.word	0x00006dd8
     3b8:	00006da6 	.word	0x00006da6
     3bc:	00006d8c 	.word	0x00006d8c
     3c0:	00006d1a 	.word	0x00006d1a

000003c4 <utee_panic>:
utee_panic():
/home/yin/imx-optee/imx-optee-os/lib/libutee/arch/arm/utee_syscalls_a32.S:47
     3c4:	e92d4fff 	push	{r0, r1, r2, r3, r4, r5, r6, r7, r8, r9, sl, fp, lr}
/home/yin/imx-optee/imx-optee-os/lib/libutee/arch/arm/utee_syscalls_a32.S:49
     3c8:	e1a0e00f 	mov	lr, pc
/home/yin/imx-optee/imx-optee-os/lib/libutee/arch/arm/utee_syscalls_a32.S:50
     3cc:	e52de004 	push	{lr}		; (str lr, [sp, #-4]!)
/home/yin/imx-optee/imx-optee-os/lib/libutee/arch/arm/utee_syscalls_a32.S:52
     3d0:	e1a0100d 	mov	r1, sp
/home/yin/imx-optee/imx-optee-os/lib/libutee/arch/arm/utee_syscalls_a32.S:53
     3d4:	eb000009 	bl	400 <__utee_panic>

000003d8 <utee_return>:
utee_return():
/home/yin/imx-optee/imx-optee-os/lib/libutee/arch/arm/utee_syscalls_asm.S:8
     3d8:	e92d40e0 	push	{r5, r6, r7, lr}
     3dc:	e3a07000 	mov	r7, #0
     3e0:	e3a06000 	mov	r6, #0
     3e4:	ef000000 	svc	0x00000000
     3e8:	e8bd80e0 	pop	{r5, r6, r7, pc}

000003ec <utee_log>:
utee_log():
/home/yin/imx-optee/imx-optee-os/lib/libutee/arch/arm/utee_syscalls_asm.S:10
     3ec:	e92d40e0 	push	{r5, r6, r7, lr}
     3f0:	e3a07001 	mov	r7, #1
     3f4:	e3a06000 	mov	r6, #0
     3f8:	ef000000 	svc	0x00000000
     3fc:	e8bd80e0 	pop	{r5, r6, r7, pc}

00000400 <__utee_panic>:
__utee_panic():
/home/yin/imx-optee/imx-optee-os/lib/libutee/arch/arm/utee_syscalls_asm.S:12
     400:	e92d40e0 	push	{r5, r6, r7, lr}
     404:	e3a07002 	mov	r7, #2
     408:	e3a06000 	mov	r6, #0
     40c:	ef000000 	svc	0x00000000
     410:	e8bd80e0 	pop	{r5, r6, r7, pc}

00000414 <utee_get_property>:
utee_get_property():
/home/yin/imx-optee/imx-optee-os/lib/libutee/arch/arm/utee_syscalls_asm.S:14
     414:	e92d40e0 	push	{r5, r6, r7, lr}
     418:	e3a07003 	mov	r7, #3
     41c:	e3a06003 	mov	r6, #3
     420:	e28d5010 	add	r5, sp, #16
     424:	ef000000 	svc	0x00000000
     428:	e8bd80e0 	pop	{r5, r6, r7, pc}

0000042c <utee_get_property_name_to_index>:
utee_get_property_name_to_index():
/home/yin/imx-optee/imx-optee-os/lib/libutee/arch/arm/utee_syscalls_asm.S:16
     42c:	e92d40e0 	push	{r5, r6, r7, lr}
     430:	e3a07004 	mov	r7, #4
     434:	e3a06000 	mov	r6, #0
     438:	ef000000 	svc	0x00000000
     43c:	e8bd80e0 	pop	{r5, r6, r7, pc}

00000440 <utee_open_ta_session>:
utee_open_ta_session():
/home/yin/imx-optee/imx-optee-os/lib/libutee/arch/arm/utee_syscalls_asm.S:19
     440:	e92d40e0 	push	{r5, r6, r7, lr}
     444:	e3a07005 	mov	r7, #5
     448:	e3a06001 	mov	r6, #1
     44c:	e28d5010 	add	r5, sp, #16
     450:	ef000000 	svc	0x00000000
     454:	e8bd80e0 	pop	{r5, r6, r7, pc}

00000458 <utee_close_ta_session>:
utee_close_ta_session():
/home/yin/imx-optee/imx-optee-os/lib/libutee/arch/arm/utee_syscalls_asm.S:21
     458:	e92d40e0 	push	{r5, r6, r7, lr}
     45c:	e3a07006 	mov	r7, #6
     460:	e3a06000 	mov	r6, #0
     464:	ef000000 	svc	0x00000000
     468:	e8bd80e0 	pop	{r5, r6, r7, pc}

0000046c <utee_invoke_ta_command>:
utee_invoke_ta_command():
/home/yin/imx-optee/imx-optee-os/lib/libutee/arch/arm/utee_syscalls_asm.S:23
     46c:	e92d40e0 	push	{r5, r6, r7, lr}
     470:	e3a07007 	mov	r7, #7
     474:	e3a06001 	mov	r6, #1
     478:	e28d5010 	add	r5, sp, #16
     47c:	ef000000 	svc	0x00000000
     480:	e8bd80e0 	pop	{r5, r6, r7, pc}

00000484 <utee_get_cancellation_flag>:
utee_get_cancellation_flag():
/home/yin/imx-optee/imx-optee-os/lib/libutee/arch/arm/utee_syscalls_asm.S:25
     484:	e92d40e0 	push	{r5, r6, r7, lr}
     488:	e3a07009 	mov	r7, #9
     48c:	e3a06000 	mov	r6, #0
     490:	ef000000 	svc	0x00000000
     494:	e8bd80e0 	pop	{r5, r6, r7, pc}

00000498 <utee_check_access_rights>:
utee_check_access_rights():
/home/yin/imx-optee/imx-optee-os/lib/libutee/arch/arm/utee_syscalls_asm.S:28
     498:	e92d40e0 	push	{r5, r6, r7, lr}
     49c:	e3a07008 	mov	r7, #8
     4a0:	e3a06000 	mov	r6, #0
     4a4:	ef000000 	svc	0x00000000
     4a8:	e8bd80e0 	pop	{r5, r6, r7, pc}

000004ac <utee_unmask_cancellation>:
utee_unmask_cancellation():
/home/yin/imx-optee/imx-optee-os/lib/libutee/arch/arm/utee_syscalls_asm.S:30
     4ac:	e92d40e0 	push	{r5, r6, r7, lr}
     4b0:	e3a0700a 	mov	r7, #10
     4b4:	e3a06000 	mov	r6, #0
     4b8:	ef000000 	svc	0x00000000
     4bc:	e8bd80e0 	pop	{r5, r6, r7, pc}

000004c0 <utee_mask_cancellation>:
utee_mask_cancellation():
/home/yin/imx-optee/imx-optee-os/lib/libutee/arch/arm/utee_syscalls_asm.S:32
     4c0:	e92d40e0 	push	{r5, r6, r7, lr}
     4c4:	e3a0700b 	mov	r7, #11
     4c8:	e3a06000 	mov	r6, #0
     4cc:	ef000000 	svc	0x00000000
     4d0:	e8bd80e0 	pop	{r5, r6, r7, pc}

000004d4 <utee_wait>:
utee_wait():
/home/yin/imx-optee/imx-optee-os/lib/libutee/arch/arm/utee_syscalls_asm.S:34
     4d4:	e92d40e0 	push	{r5, r6, r7, lr}
     4d8:	e3a0700c 	mov	r7, #12
     4dc:	e3a06000 	mov	r6, #0
     4e0:	ef000000 	svc	0x00000000
     4e4:	e8bd80e0 	pop	{r5, r6, r7, pc}

000004e8 <utee_get_time>:
utee_get_time():
/home/yin/imx-optee/imx-optee-os/lib/libutee/arch/arm/utee_syscalls_asm.S:36
     4e8:	e92d40e0 	push	{r5, r6, r7, lr}
     4ec:	e3a0700d 	mov	r7, #13
     4f0:	e3a06000 	mov	r6, #0
     4f4:	ef000000 	svc	0x00000000
     4f8:	e8bd80e0 	pop	{r5, r6, r7, pc}

000004fc <utee_set_ta_time>:
utee_set_ta_time():
/home/yin/imx-optee/imx-optee-os/lib/libutee/arch/arm/utee_syscalls_asm.S:38
     4fc:	e92d40e0 	push	{r5, r6, r7, lr}
     500:	e3a0700e 	mov	r7, #14
     504:	e3a06000 	mov	r6, #0
     508:	ef000000 	svc	0x00000000
     50c:	e8bd80e0 	pop	{r5, r6, r7, pc}

00000510 <utee_cryp_state_alloc>:
utee_cryp_state_alloc():
/home/yin/imx-optee/imx-optee-os/lib/libutee/arch/arm/utee_syscalls_asm.S:40
     510:	e92d40e0 	push	{r5, r6, r7, lr}
     514:	e3a0700f 	mov	r7, #15
     518:	e3a06001 	mov	r6, #1
     51c:	e28d5010 	add	r5, sp, #16
     520:	ef000000 	svc	0x00000000
     524:	e8bd80e0 	pop	{r5, r6, r7, pc}

00000528 <utee_cryp_state_copy>:
utee_cryp_state_copy():
/home/yin/imx-optee/imx-optee-os/lib/libutee/arch/arm/utee_syscalls_asm.S:42
     528:	e92d40e0 	push	{r5, r6, r7, lr}
     52c:	e3a07010 	mov	r7, #16
     530:	e3a06000 	mov	r6, #0
     534:	ef000000 	svc	0x00000000
     538:	e8bd80e0 	pop	{r5, r6, r7, pc}

0000053c <utee_cryp_state_free>:
utee_cryp_state_free():
/home/yin/imx-optee/imx-optee-os/lib/libutee/arch/arm/utee_syscalls_asm.S:44
     53c:	e92d40e0 	push	{r5, r6, r7, lr}
     540:	e3a07011 	mov	r7, #17
     544:	e3a06000 	mov	r6, #0
     548:	ef000000 	svc	0x00000000
     54c:	e8bd80e0 	pop	{r5, r6, r7, pc}

00000550 <utee_hash_init>:
utee_hash_init():
/home/yin/imx-optee/imx-optee-os/lib/libutee/arch/arm/utee_syscalls_asm.S:46
     550:	e92d40e0 	push	{r5, r6, r7, lr}
     554:	e3a07012 	mov	r7, #18
     558:	e3a06000 	mov	r6, #0
     55c:	ef000000 	svc	0x00000000
     560:	e8bd80e0 	pop	{r5, r6, r7, pc}

00000564 <utee_hash_update>:
utee_hash_update():
/home/yin/imx-optee/imx-optee-os/lib/libutee/arch/arm/utee_syscalls_asm.S:48
     564:	e92d40e0 	push	{r5, r6, r7, lr}
     568:	e3a07013 	mov	r7, #19
     56c:	e3a06000 	mov	r6, #0
     570:	ef000000 	svc	0x00000000
     574:	e8bd80e0 	pop	{r5, r6, r7, pc}

00000578 <utee_hash_final>:
utee_hash_final():
/home/yin/imx-optee/imx-optee-os/lib/libutee/arch/arm/utee_syscalls_asm.S:50
     578:	e92d40e0 	push	{r5, r6, r7, lr}
     57c:	e3a07014 	mov	r7, #20
     580:	e3a06001 	mov	r6, #1
     584:	e28d5010 	add	r5, sp, #16
     588:	ef000000 	svc	0x00000000
     58c:	e8bd80e0 	pop	{r5, r6, r7, pc}

00000590 <utee_cipher_init>:
utee_cipher_init():
/home/yin/imx-optee/imx-optee-os/lib/libutee/arch/arm/utee_syscalls_asm.S:52
     590:	e92d40e0 	push	{r5, r6, r7, lr}
     594:	e3a07015 	mov	r7, #21
     598:	e3a06000 	mov	r6, #0
     59c:	ef000000 	svc	0x00000000
     5a0:	e8bd80e0 	pop	{r5, r6, r7, pc}

000005a4 <utee_cipher_update>:
utee_cipher_update():
/home/yin/imx-optee/imx-optee-os/lib/libutee/arch/arm/utee_syscalls_asm.S:54
     5a4:	e92d40e0 	push	{r5, r6, r7, lr}
     5a8:	e3a07016 	mov	r7, #22
     5ac:	e3a06001 	mov	r6, #1
     5b0:	e28d5010 	add	r5, sp, #16
     5b4:	ef000000 	svc	0x00000000
     5b8:	e8bd80e0 	pop	{r5, r6, r7, pc}

000005bc <utee_cipher_final>:
utee_cipher_final():
/home/yin/imx-optee/imx-optee-os/lib/libutee/arch/arm/utee_syscalls_asm.S:56
     5bc:	e92d40e0 	push	{r5, r6, r7, lr}
     5c0:	e3a07017 	mov	r7, #23
     5c4:	e3a06001 	mov	r6, #1
     5c8:	e28d5010 	add	r5, sp, #16
     5cc:	ef000000 	svc	0x00000000
     5d0:	e8bd80e0 	pop	{r5, r6, r7, pc}

000005d4 <utee_cryp_obj_get_info>:
utee_cryp_obj_get_info():
/home/yin/imx-optee/imx-optee-os/lib/libutee/arch/arm/utee_syscalls_asm.S:58
     5d4:	e92d40e0 	push	{r5, r6, r7, lr}
     5d8:	e3a07018 	mov	r7, #24
     5dc:	e3a06000 	mov	r6, #0
     5e0:	ef000000 	svc	0x00000000
     5e4:	e8bd80e0 	pop	{r5, r6, r7, pc}

000005e8 <utee_cryp_obj_restrict_usage>:
utee_cryp_obj_restrict_usage():
/home/yin/imx-optee/imx-optee-os/lib/libutee/arch/arm/utee_syscalls_asm.S:60
     5e8:	e92d40e0 	push	{r5, r6, r7, lr}
     5ec:	e3a07019 	mov	r7, #25
     5f0:	e3a06000 	mov	r6, #0
     5f4:	ef000000 	svc	0x00000000
     5f8:	e8bd80e0 	pop	{r5, r6, r7, pc}

000005fc <utee_cryp_obj_get_attr>:
utee_cryp_obj_get_attr():
/home/yin/imx-optee/imx-optee-os/lib/libutee/arch/arm/utee_syscalls_asm.S:63
     5fc:	e92d40e0 	push	{r5, r6, r7, lr}
     600:	e3a0701a 	mov	r7, #26
     604:	e3a06000 	mov	r6, #0
     608:	ef000000 	svc	0x00000000
     60c:	e8bd80e0 	pop	{r5, r6, r7, pc}

00000610 <utee_cryp_obj_alloc>:
utee_cryp_obj_alloc():
/home/yin/imx-optee/imx-optee-os/lib/libutee/arch/arm/utee_syscalls_asm.S:65
     610:	e92d40e0 	push	{r5, r6, r7, lr}
     614:	e3a0701b 	mov	r7, #27
     618:	e3a06000 	mov	r6, #0
     61c:	ef000000 	svc	0x00000000
     620:	e8bd80e0 	pop	{r5, r6, r7, pc}

00000624 <utee_cryp_obj_close>:
utee_cryp_obj_close():
/home/yin/imx-optee/imx-optee-os/lib/libutee/arch/arm/utee_syscalls_asm.S:67
     624:	e92d40e0 	push	{r5, r6, r7, lr}
     628:	e3a0701c 	mov	r7, #28
     62c:	e3a06000 	mov	r6, #0
     630:	ef000000 	svc	0x00000000
     634:	e8bd80e0 	pop	{r5, r6, r7, pc}

00000638 <utee_cryp_obj_reset>:
utee_cryp_obj_reset():
/home/yin/imx-optee/imx-optee-os/lib/libutee/arch/arm/utee_syscalls_asm.S:69
     638:	e92d40e0 	push	{r5, r6, r7, lr}
     63c:	e3a0701d 	mov	r7, #29
     640:	e3a06000 	mov	r6, #0
     644:	ef000000 	svc	0x00000000
     648:	e8bd80e0 	pop	{r5, r6, r7, pc}

0000064c <utee_cryp_obj_populate>:
utee_cryp_obj_populate():
/home/yin/imx-optee/imx-optee-os/lib/libutee/arch/arm/utee_syscalls_asm.S:71
     64c:	e92d40e0 	push	{r5, r6, r7, lr}
     650:	e3a0701e 	mov	r7, #30
     654:	e3a06000 	mov	r6, #0
     658:	ef000000 	svc	0x00000000
     65c:	e8bd80e0 	pop	{r5, r6, r7, pc}

00000660 <utee_cryp_obj_copy>:
utee_cryp_obj_copy():
/home/yin/imx-optee/imx-optee-os/lib/libutee/arch/arm/utee_syscalls_asm.S:73
     660:	e92d40e0 	push	{r5, r6, r7, lr}
     664:	e3a0701f 	mov	r7, #31
     668:	e3a06000 	mov	r6, #0
     66c:	ef000000 	svc	0x00000000
     670:	e8bd80e0 	pop	{r5, r6, r7, pc}

00000674 <utee_cryp_derive_key>:
utee_cryp_derive_key():
/home/yin/imx-optee/imx-optee-os/lib/libutee/arch/arm/utee_syscalls_asm.S:75
     674:	e92d40e0 	push	{r5, r6, r7, lr}
     678:	e3a07020 	mov	r7, #32
     67c:	e3a06000 	mov	r6, #0
     680:	ef000000 	svc	0x00000000
     684:	e8bd80e0 	pop	{r5, r6, r7, pc}

00000688 <utee_cryp_random_number_generate>:
utee_cryp_random_number_generate():
/home/yin/imx-optee/imx-optee-os/lib/libutee/arch/arm/utee_syscalls_asm.S:77
     688:	e92d40e0 	push	{r5, r6, r7, lr}
     68c:	e3a07021 	mov	r7, #33	; 0x21
     690:	e3a06000 	mov	r6, #0
     694:	ef000000 	svc	0x00000000
     698:	e8bd80e0 	pop	{r5, r6, r7, pc}

0000069c <utee_authenc_init>:
utee_authenc_init():
/home/yin/imx-optee/imx-optee-os/lib/libutee/arch/arm/utee_syscalls_asm.S:80
     69c:	e92d40e0 	push	{r5, r6, r7, lr}
     6a0:	e3a07022 	mov	r7, #34	; 0x22
     6a4:	e3a06002 	mov	r6, #2
     6a8:	e28d5010 	add	r5, sp, #16
     6ac:	ef000000 	svc	0x00000000
     6b0:	e8bd80e0 	pop	{r5, r6, r7, pc}

000006b4 <utee_authenc_update_aad>:
utee_authenc_update_aad():
/home/yin/imx-optee/imx-optee-os/lib/libutee/arch/arm/utee_syscalls_asm.S:82
     6b4:	e92d40e0 	push	{r5, r6, r7, lr}
     6b8:	e3a07023 	mov	r7, #35	; 0x23
     6bc:	e3a06000 	mov	r6, #0
     6c0:	ef000000 	svc	0x00000000
     6c4:	e8bd80e0 	pop	{r5, r6, r7, pc}

000006c8 <utee_authenc_update_payload>:
utee_authenc_update_payload():
/home/yin/imx-optee/imx-optee-os/lib/libutee/arch/arm/utee_syscalls_asm.S:84
     6c8:	e92d40e0 	push	{r5, r6, r7, lr}
     6cc:	e3a07024 	mov	r7, #36	; 0x24
     6d0:	e3a06001 	mov	r6, #1
     6d4:	e28d5010 	add	r5, sp, #16
     6d8:	ef000000 	svc	0x00000000
     6dc:	e8bd80e0 	pop	{r5, r6, r7, pc}

000006e0 <utee_authenc_enc_final>:
utee_authenc_enc_final():
/home/yin/imx-optee/imx-optee-os/lib/libutee/arch/arm/utee_syscalls_asm.S:87
     6e0:	e92d40e0 	push	{r5, r6, r7, lr}
     6e4:	e3a07025 	mov	r7, #37	; 0x25
     6e8:	e3a06003 	mov	r6, #3
     6ec:	e28d5010 	add	r5, sp, #16
     6f0:	ef000000 	svc	0x00000000
     6f4:	e8bd80e0 	pop	{r5, r6, r7, pc}

000006f8 <utee_authenc_dec_final>:
utee_authenc_dec_final():
/home/yin/imx-optee/imx-optee-os/lib/libutee/arch/arm/utee_syscalls_asm.S:89
     6f8:	e92d40e0 	push	{r5, r6, r7, lr}
     6fc:	e3a07026 	mov	r7, #38	; 0x26
     700:	e3a06003 	mov	r6, #3
     704:	e28d5010 	add	r5, sp, #16
     708:	ef000000 	svc	0x00000000
     70c:	e8bd80e0 	pop	{r5, r6, r7, pc}

00000710 <utee_asymm_operate>:
utee_asymm_operate():
/home/yin/imx-optee/imx-optee-os/lib/libutee/arch/arm/utee_syscalls_asm.S:91
     710:	e92d40e0 	push	{r5, r6, r7, lr}
     714:	e3a07027 	mov	r7, #39	; 0x27
     718:	e3a06003 	mov	r6, #3
     71c:	e28d5010 	add	r5, sp, #16
     720:	ef000000 	svc	0x00000000
     724:	e8bd80e0 	pop	{r5, r6, r7, pc}

00000728 <utee_asymm_verify>:
utee_asymm_verify():
/home/yin/imx-optee/imx-optee-os/lib/libutee/arch/arm/utee_syscalls_asm.S:93
     728:	e92d40e0 	push	{r5, r6, r7, lr}
     72c:	e3a07028 	mov	r7, #40	; 0x28
     730:	e3a06003 	mov	r6, #3
     734:	e28d5010 	add	r5, sp, #16
     738:	ef000000 	svc	0x00000000
     73c:	e8bd80e0 	pop	{r5, r6, r7, pc}

00000740 <utee_storage_obj_open>:
utee_storage_obj_open():
/home/yin/imx-optee/imx-optee-os/lib/libutee/arch/arm/utee_syscalls_asm.S:95
     740:	e92d40e0 	push	{r5, r6, r7, lr}
     744:	e3a07029 	mov	r7, #41	; 0x29
     748:	e3a06001 	mov	r6, #1
     74c:	e28d5010 	add	r5, sp, #16
     750:	ef000000 	svc	0x00000000
     754:	e8bd80e0 	pop	{r5, r6, r7, pc}

00000758 <utee_storage_obj_create>:
utee_storage_obj_create():
/home/yin/imx-optee/imx-optee-os/lib/libutee/arch/arm/utee_syscalls_asm.S:97
     758:	e92d40e0 	push	{r5, r6, r7, lr}
     75c:	e3a0702a 	mov	r7, #42	; 0x2a
     760:	e3a06004 	mov	r6, #4
     764:	e28d5010 	add	r5, sp, #16
     768:	ef000000 	svc	0x00000000
     76c:	e8bd80e0 	pop	{r5, r6, r7, pc}

00000770 <utee_storage_obj_del>:
utee_storage_obj_del():
/home/yin/imx-optee/imx-optee-os/lib/libutee/arch/arm/utee_syscalls_asm.S:99
     770:	e92d40e0 	push	{r5, r6, r7, lr}
     774:	e3a0702b 	mov	r7, #43	; 0x2b
     778:	e3a06000 	mov	r6, #0
     77c:	ef000000 	svc	0x00000000
     780:	e8bd80e0 	pop	{r5, r6, r7, pc}

00000784 <utee_storage_obj_rename>:
utee_storage_obj_rename():
/home/yin/imx-optee/imx-optee-os/lib/libutee/arch/arm/utee_syscalls_asm.S:101
     784:	e92d40e0 	push	{r5, r6, r7, lr}
     788:	e3a0702c 	mov	r7, #44	; 0x2c
     78c:	e3a06000 	mov	r6, #0
     790:	ef000000 	svc	0x00000000
     794:	e8bd80e0 	pop	{r5, r6, r7, pc}

00000798 <utee_storage_alloc_enum>:
utee_storage_alloc_enum():
/home/yin/imx-optee/imx-optee-os/lib/libutee/arch/arm/utee_syscalls_asm.S:103
     798:	e92d40e0 	push	{r5, r6, r7, lr}
     79c:	e3a0702d 	mov	r7, #45	; 0x2d
     7a0:	e3a06000 	mov	r6, #0
     7a4:	ef000000 	svc	0x00000000
     7a8:	e8bd80e0 	pop	{r5, r6, r7, pc}

000007ac <utee_storage_free_enum>:
utee_storage_free_enum():
/home/yin/imx-optee/imx-optee-os/lib/libutee/arch/arm/utee_syscalls_asm.S:105
     7ac:	e92d40e0 	push	{r5, r6, r7, lr}
     7b0:	e3a0702e 	mov	r7, #46	; 0x2e
     7b4:	e3a06000 	mov	r6, #0
     7b8:	ef000000 	svc	0x00000000
     7bc:	e8bd80e0 	pop	{r5, r6, r7, pc}

000007c0 <utee_storage_reset_enum>:
utee_storage_reset_enum():
/home/yin/imx-optee/imx-optee-os/lib/libutee/arch/arm/utee_syscalls_asm.S:107
     7c0:	e92d40e0 	push	{r5, r6, r7, lr}
     7c4:	e3a0702f 	mov	r7, #47	; 0x2f
     7c8:	e3a06000 	mov	r6, #0
     7cc:	ef000000 	svc	0x00000000
     7d0:	e8bd80e0 	pop	{r5, r6, r7, pc}

000007d4 <utee_storage_start_enum>:
utee_storage_start_enum():
/home/yin/imx-optee/imx-optee-os/lib/libutee/arch/arm/utee_syscalls_asm.S:109
     7d4:	e92d40e0 	push	{r5, r6, r7, lr}
     7d8:	e3a07030 	mov	r7, #48	; 0x30
     7dc:	e3a06000 	mov	r6, #0
     7e0:	ef000000 	svc	0x00000000
     7e4:	e8bd80e0 	pop	{r5, r6, r7, pc}

000007e8 <utee_storage_next_enum>:
utee_storage_next_enum():
/home/yin/imx-optee/imx-optee-os/lib/libutee/arch/arm/utee_syscalls_asm.S:111
     7e8:	e92d40e0 	push	{r5, r6, r7, lr}
     7ec:	e3a07031 	mov	r7, #49	; 0x31
     7f0:	e3a06000 	mov	r6, #0
     7f4:	ef000000 	svc	0x00000000
     7f8:	e8bd80e0 	pop	{r5, r6, r7, pc}

000007fc <utee_storage_obj_read>:
utee_storage_obj_read():
/home/yin/imx-optee/imx-optee-os/lib/libutee/arch/arm/utee_syscalls_asm.S:113
     7fc:	e92d40e0 	push	{r5, r6, r7, lr}
     800:	e3a07032 	mov	r7, #50	; 0x32
     804:	e3a06000 	mov	r6, #0
     808:	ef000000 	svc	0x00000000
     80c:	e8bd80e0 	pop	{r5, r6, r7, pc}

00000810 <utee_storage_obj_write>:
utee_storage_obj_write():
/home/yin/imx-optee/imx-optee-os/lib/libutee/arch/arm/utee_syscalls_asm.S:115
     810:	e92d40e0 	push	{r5, r6, r7, lr}
     814:	e3a07033 	mov	r7, #51	; 0x33
     818:	e3a06000 	mov	r6, #0
     81c:	ef000000 	svc	0x00000000
     820:	e8bd80e0 	pop	{r5, r6, r7, pc}

00000824 <utee_storage_obj_trunc>:
utee_storage_obj_trunc():
/home/yin/imx-optee/imx-optee-os/lib/libutee/arch/arm/utee_syscalls_asm.S:117
     824:	e92d40e0 	push	{r5, r6, r7, lr}
     828:	e3a07034 	mov	r7, #52	; 0x34
     82c:	e3a06000 	mov	r6, #0
     830:	ef000000 	svc	0x00000000
     834:	e8bd80e0 	pop	{r5, r6, r7, pc}

00000838 <utee_storage_obj_seek>:
utee_storage_obj_seek():
/home/yin/imx-optee/imx-optee-os/lib/libutee/arch/arm/utee_syscalls_asm.S:119
     838:	e92d40e0 	push	{r5, r6, r7, lr}
     83c:	e3a07035 	mov	r7, #53	; 0x35
     840:	e3a06000 	mov	r6, #0
     844:	ef000000 	svc	0x00000000
     848:	e8bd80e0 	pop	{r5, r6, r7, pc}

0000084c <utee_cryp_obj_generate_key>:
utee_cryp_obj_generate_key():
/home/yin/imx-optee/imx-optee-os/lib/libutee/arch/arm/utee_syscalls_asm.S:121
     84c:	e92d40e0 	push	{r5, r6, r7, lr}
     850:	e3a07036 	mov	r7, #54	; 0x36
     854:	e3a06000 	mov	r6, #0
     858:	ef000000 	svc	0x00000000
     85c:	e8bd80e0 	pop	{r5, r6, r7, pc}

00000860 <utee_se_service_open>:
utee_se_service_open():
/home/yin/imx-optee/imx-optee-os/lib/libutee/arch/arm/utee_syscalls_asm.S:124
     860:	e92d40e0 	push	{r5, r6, r7, lr}
     864:	e3a07037 	mov	r7, #55	; 0x37
     868:	e3a06000 	mov	r6, #0
     86c:	ef000000 	svc	0x00000000
     870:	e8bd80e0 	pop	{r5, r6, r7, pc}

00000874 <utee_se_service_close>:
utee_se_service_close():
/home/yin/imx-optee/imx-optee-os/lib/libutee/arch/arm/utee_syscalls_asm.S:126
     874:	e92d40e0 	push	{r5, r6, r7, lr}
     878:	e3a07038 	mov	r7, #56	; 0x38
     87c:	e3a06000 	mov	r6, #0
     880:	ef000000 	svc	0x00000000
     884:	e8bd80e0 	pop	{r5, r6, r7, pc}

00000888 <utee_se_service_get_readers>:
utee_se_service_get_readers():
/home/yin/imx-optee/imx-optee-os/lib/libutee/arch/arm/utee_syscalls_asm.S:128
     888:	e92d40e0 	push	{r5, r6, r7, lr}
     88c:	e3a07039 	mov	r7, #57	; 0x39
     890:	e3a06000 	mov	r6, #0
     894:	ef000000 	svc	0x00000000
     898:	e8bd80e0 	pop	{r5, r6, r7, pc}

0000089c <utee_se_reader_get_prop>:
utee_se_reader_get_prop():
/home/yin/imx-optee/imx-optee-os/lib/libutee/arch/arm/utee_syscalls_asm.S:131
     89c:	e92d40e0 	push	{r5, r6, r7, lr}
     8a0:	e3a0703a 	mov	r7, #58	; 0x3a
     8a4:	e3a06000 	mov	r6, #0
     8a8:	ef000000 	svc	0x00000000
     8ac:	e8bd80e0 	pop	{r5, r6, r7, pc}

000008b0 <utee_se_reader_get_name>:
utee_se_reader_get_name():
/home/yin/imx-optee/imx-optee-os/lib/libutee/arch/arm/utee_syscalls_asm.S:134
     8b0:	e92d40e0 	push	{r5, r6, r7, lr}
     8b4:	e3a0703b 	mov	r7, #59	; 0x3b
     8b8:	e3a06000 	mov	r6, #0
     8bc:	ef000000 	svc	0x00000000
     8c0:	e8bd80e0 	pop	{r5, r6, r7, pc}

000008c4 <utee_se_reader_open_session>:
utee_se_reader_open_session():
/home/yin/imx-optee/imx-optee-os/lib/libutee/arch/arm/utee_syscalls_asm.S:137
     8c4:	e92d40e0 	push	{r5, r6, r7, lr}
     8c8:	e3a0703c 	mov	r7, #60	; 0x3c
     8cc:	e3a06000 	mov	r6, #0
     8d0:	ef000000 	svc	0x00000000
     8d4:	e8bd80e0 	pop	{r5, r6, r7, pc}

000008d8 <utee_se_reader_close_sessions>:
utee_se_reader_close_sessions():
/home/yin/imx-optee/imx-optee-os/lib/libutee/arch/arm/utee_syscalls_asm.S:140
     8d8:	e92d40e0 	push	{r5, r6, r7, lr}
     8dc:	e3a0703d 	mov	r7, #61	; 0x3d
     8e0:	e3a06000 	mov	r6, #0
     8e4:	ef000000 	svc	0x00000000
     8e8:	e8bd80e0 	pop	{r5, r6, r7, pc}

000008ec <utee_se_session_is_closed>:
utee_se_session_is_closed():
/home/yin/imx-optee/imx-optee-os/lib/libutee/arch/arm/utee_syscalls_asm.S:143
     8ec:	e92d40e0 	push	{r5, r6, r7, lr}
     8f0:	e3a0703e 	mov	r7, #62	; 0x3e
     8f4:	e3a06000 	mov	r6, #0
     8f8:	ef000000 	svc	0x00000000
     8fc:	e8bd80e0 	pop	{r5, r6, r7, pc}

00000900 <utee_se_session_get_atr>:
utee_se_session_get_atr():
/home/yin/imx-optee/imx-optee-os/lib/libutee/arch/arm/utee_syscalls_asm.S:146
     900:	e92d40e0 	push	{r5, r6, r7, lr}
     904:	e3a0703f 	mov	r7, #63	; 0x3f
     908:	e3a06000 	mov	r6, #0
     90c:	ef000000 	svc	0x00000000
     910:	e8bd80e0 	pop	{r5, r6, r7, pc}

00000914 <utee_se_session_open_channel>:
utee_se_session_open_channel():
/home/yin/imx-optee/imx-optee-os/lib/libutee/arch/arm/utee_syscalls_asm.S:149
     914:	e92d40e0 	push	{r5, r6, r7, lr}
     918:	e3a07040 	mov	r7, #64	; 0x40
     91c:	e3a06001 	mov	r6, #1
     920:	e28d5010 	add	r5, sp, #16
     924:	ef000000 	svc	0x00000000
     928:	e8bd80e0 	pop	{r5, r6, r7, pc}

0000092c <utee_se_session_close>:
utee_se_session_close():
/home/yin/imx-optee/imx-optee-os/lib/libutee/arch/arm/utee_syscalls_asm.S:152
     92c:	e92d40e0 	push	{r5, r6, r7, lr}
     930:	e3a07041 	mov	r7, #65	; 0x41
     934:	e3a06000 	mov	r6, #0
     938:	ef000000 	svc	0x00000000
     93c:	e8bd80e0 	pop	{r5, r6, r7, pc}

00000940 <utee_se_channel_select_next>:
utee_se_channel_select_next():
/home/yin/imx-optee/imx-optee-os/lib/libutee/arch/arm/utee_syscalls_asm.S:155
     940:	e92d40e0 	push	{r5, r6, r7, lr}
     944:	e3a07042 	mov	r7, #66	; 0x42
     948:	e3a06000 	mov	r6, #0
     94c:	ef000000 	svc	0x00000000
     950:	e8bd80e0 	pop	{r5, r6, r7, pc}

00000954 <utee_se_channel_get_select_resp>:
utee_se_channel_get_select_resp():
/home/yin/imx-optee/imx-optee-os/lib/libutee/arch/arm/utee_syscalls_asm.S:158
     954:	e92d40e0 	push	{r5, r6, r7, lr}
     958:	e3a07043 	mov	r7, #67	; 0x43
     95c:	e3a06000 	mov	r6, #0
     960:	ef000000 	svc	0x00000000
     964:	e8bd80e0 	pop	{r5, r6, r7, pc}

00000968 <utee_se_channel_transmit>:
utee_se_channel_transmit():
/home/yin/imx-optee/imx-optee-os/lib/libutee/arch/arm/utee_syscalls_asm.S:161
     968:	e92d40e0 	push	{r5, r6, r7, lr}
     96c:	e3a07044 	mov	r7, #68	; 0x44
     970:	e3a06001 	mov	r6, #1
     974:	e28d5010 	add	r5, sp, #16
     978:	ef000000 	svc	0x00000000
     97c:	e8bd80e0 	pop	{r5, r6, r7, pc}

00000980 <utee_se_channel_close>:
utee_se_channel_close():
/home/yin/imx-optee/imx-optee-os/lib/libutee/arch/arm/utee_syscalls_asm.S:164
     980:	e92d40e0 	push	{r5, r6, r7, lr}
     984:	e3a07045 	mov	r7, #69	; 0x45
     988:	e3a06000 	mov	r6, #0
     98c:	ef000000 	svc	0x00000000
     990:	e8bd80e0 	pop	{r5, r6, r7, pc}

00000994 <utee_cache_operation>:
utee_cache_operation():
/home/yin/imx-optee/imx-optee-os/lib/libutee/arch/arm/utee_syscalls_asm.S:167
     994:	e92d40e0 	push	{r5, r6, r7, lr}
     998:	e3a07046 	mov	r7, #70	; 0x46
     99c:	e3a06000 	mov	r6, #0
     9a0:	ef000000 	svc	0x00000000
     9a4:	e8bd80e0 	pop	{r5, r6, r7, pc}

000009a8 <__utee_mcount>:
__utee_mcount():
/home/yin/imx-optee/imx-optee-os/lib/libutee/arch/arm/gprof/gprof_a32.S:49
     9a8:	e52de004 	push	{lr}		; (str lr, [sp, #-4]!)
/home/yin/imx-optee/imx-optee-os/lib/libutee/arch/arm/gprof/gprof_a32.S:50
     9ac:	e8bd5000 	pop	{ip, lr}
/home/yin/imx-optee/imx-optee-os/lib/libutee/arch/arm/gprof/gprof_a32.S:51
     9b0:	e12fff1c 	bx	ip

000009b4 <_TEE_MathAPI_Init>:
_TEE_MathAPI_Init():
/home/yin/imx-optee/imx-optee-os/lib/libutee/tee_api_arith.c:53
     9b4:	480a      	ldr	r0, [pc, #40]	; (9e0 <_TEE_MathAPI_Init+0x2c>)
     9b6:	2200      	movs	r2, #0
/home/yin/imx-optee/imx-optee-os/lib/libutee/tee_api_arith.c:50
     9b8:	b508      	push	{r3, lr}
/home/yin/imx-optee/imx-optee-os/lib/libutee/tee_api_arith.c:53
     9ba:	f641 01f0 	movw	r1, #6384	; 0x18f0
     9be:	4478      	add	r0, pc
     9c0:	f001 fdfc 	bl	25bc <mempool_alloc_pool>
     9c4:	4a07      	ldr	r2, [pc, #28]	; (9e4 <_TEE_MathAPI_Init+0x30>)
     9c6:	447a      	add	r2, pc
     9c8:	6010      	str	r0, [r2, #0]
/home/yin/imx-optee/imx-optee-os/lib/libutee/tee_api_arith.c:54
     9ca:	b908      	cbnz	r0, 9d0 <_TEE_MathAPI_Init+0x1c>
/home/yin/imx-optee/imx-optee-os/lib/libutee/tee_api_arith.c:55
     9cc:	f002 fc40 	bl	3250 <TEE_Panic>
/home/yin/imx-optee/imx-optee-os/lib/libutee/tee_api_arith.c:61
     9d0:	4b05      	ldr	r3, [pc, #20]	; (9e8 <_TEE_MathAPI_Init+0x34>)
     9d2:	f44f 5280 	mov.w	r2, #4096	; 0x1000
     9d6:	447b      	add	r3, pc
     9d8:	605a      	str	r2, [r3, #4]
/home/yin/imx-optee/imx-optee-os/lib/libutee/tee_api_arith.c:62
     9da:	609b      	str	r3, [r3, #8]
     9dc:	bd08      	pop	{r3, pc}
     9de:	bf00      	nop
     9e0:	000066fe 	.word	0x000066fe
     9e4:	000066ea 	.word	0x000066ea
     9e8:	000066da 	.word	0x000066da

000009ec <TEE_BigIntInit>:
TEE_BigIntInit():
/home/yin/imx-optee/imx-optee-os/lib/libutee/tee_api_arith.c:70
     9ec:	f004 b8e9 	b.w	4bc2 <mpa_init_static>

000009f0 <TEE_BigIntInitFMM>:
TEE_BigIntInitFMM():
/home/yin/imx-optee/imx-optee-os/lib/libutee/tee_api_arith.c:80
     9f0:	0089      	lsls	r1, r1, #2
/home/yin/imx-optee/imx-optee-os/lib/libutee/tee_api_arith.c:81
     9f2:	2300      	movs	r3, #0
     9f4:	6043      	str	r3, [r0, #4]
/home/yin/imx-optee/imx-optee-os/lib/libutee/tee_api_arith.c:80
     9f6:	3905      	subs	r1, #5
     9f8:	0889      	lsrs	r1, r1, #2
     9fa:	6001      	str	r1, [r0, #0]
/home/yin/imx-optee/imx-optee-os/lib/libutee/tee_api_arith.c:81
     9fc:	4770      	bx	lr

000009fe <TEE_BigIntInitFMMContext>:
TEE_BigIntInitFMMContext():
/home/yin/imx-optee/imx-optee-os/lib/libutee/tee_api_arith.c:89
     9fe:	b537      	push	{r0, r1, r2, r4, r5, lr}
     a00:	4604      	mov	r4, r0
     a02:	4615      	mov	r5, r2
/home/yin/imx-optee/imx-optee-os/lib/libutee/tee_api_arith.c:93
     a04:	f004 f8e6 	bl	4bd4 <mpa_init_static_fmm_context>
/home/yin/imx-optee/imx-optee-os/lib/libutee/tee_api_arith.c:94
     a08:	4b06      	ldr	r3, [pc, #24]	; (a24 <TEE_BigIntInitFMMContext+0x26>)
     a0a:	4628      	mov	r0, r5
     a0c:	e894 0006 	ldmia.w	r4, {r1, r2}
     a10:	447b      	add	r3, pc
     a12:	689b      	ldr	r3, [r3, #8]
     a14:	9300      	str	r3, [sp, #0]
     a16:	f104 0308 	add.w	r3, r4, #8
     a1a:	f001 ff63 	bl	28e4 <mpa_compute_fmm_context>
/home/yin/imx-optee/imx-optee-os/lib/libutee/tee_api_arith.c:97
     a1e:	b003      	add	sp, #12
     a20:	bd30      	pop	{r4, r5, pc}
     a22:	bf00      	nop
     a24:	000066a0 	.word	0x000066a0

00000a28 <TEE_BigIntFMMSizeInU32>:
TEE_BigIntFMMSizeInU32():
/home/yin/imx-optee/imx-optee-os/lib/libutee/tee_api_arith.c:108
     a28:	301f      	adds	r0, #31
     a2a:	0940      	lsrs	r0, r0, #5
/home/yin/imx-optee/imx-optee-os/lib/libutee/tee_api_arith.c:109
     a2c:	3003      	adds	r0, #3
     a2e:	4770      	bx	lr

00000a30 <TEE_BigIntFMMContextSizeInU32>:
TEE_BigIntFMMContextSizeInU32():
/home/yin/imx-optee/imx-optee-os/lib/libutee/tee_api_arith.c:116
     a30:	301f      	adds	r0, #31
     a32:	0940      	lsrs	r0, r0, #5
     a34:	0040      	lsls	r0, r0, #1
/home/yin/imx-optee/imx-optee-os/lib/libutee/tee_api_arith.c:117
     a36:	300b      	adds	r0, #11
     a38:	4770      	bx	lr

00000a3a <TEE_BigIntConvertFromOctetString>:
TEE_BigIntConvertFromOctetString():
/home/yin/imx-optee/imx-optee-os/lib/libutee/tee_api_arith.c:130
     a3a:	b508      	push	{r3, lr}
/home/yin/imx-optee/imx-optee-os/lib/libutee/tee_api_arith.c:135
     a3c:	0fdb      	lsrs	r3, r3, #31
     a3e:	f002 fb2b 	bl	3098 <mpa_set_oct_str>
     a42:	2800      	cmp	r0, #0
/home/yin/imx-optee/imx-optee-os/lib/libutee/tee_api_arith.c:145
     a44:	4801      	ldr	r0, [pc, #4]	; (a4c <TEE_BigIntConvertFromOctetString+0x12>)
     a46:	bf08      	it	eq
     a48:	2000      	moveq	r0, #0
     a4a:	bd08      	pop	{r3, pc}
     a4c:	ffff300f 	.word	0xffff300f

00000a50 <TEE_BigIntConvertToOctetString>:
TEE_BigIntConvertToOctetString():
/home/yin/imx-optee/imx-optee-os/lib/libutee/tee_api_arith.c:155
     a50:	680b      	ldr	r3, [r1, #0]
/home/yin/imx-optee/imx-optee-os/lib/libutee/tee_api_arith.c:153
     a52:	b537      	push	{r0, r1, r2, r4, r5, lr}
     a54:	460d      	mov	r5, r1
/home/yin/imx-optee/imx-optee-os/lib/libutee/tee_api_arith.c:155
     a56:	a902      	add	r1, sp, #8
     a58:	f841 3d04 	str.w	r3, [r1, #-4]!
/home/yin/imx-optee/imx-optee-os/lib/libutee/tee_api_arith.c:158
     a5c:	f002 fb6a 	bl	3134 <mpa_get_oct_str>
/home/yin/imx-optee/imx-optee-os/lib/libutee/tee_api_arith.c:161
     a60:	4b07      	ldr	r3, [pc, #28]	; (a80 <TEE_BigIntConvertToOctetString+0x30>)
     a62:	2800      	cmp	r0, #0
/home/yin/imx-optee/imx-optee-os/lib/libutee/tee_api_arith.c:163
     a64:	9a01      	ldr	r2, [sp, #4]
/home/yin/imx-optee/imx-optee-os/lib/libutee/tee_api_arith.c:161
     a66:	bf0c      	ite	eq
     a68:	2400      	moveq	r4, #0
     a6a:	461c      	movne	r4, r3
/home/yin/imx-optee/imx-optee-os/lib/libutee/tee_api_arith.c:163
     a6c:	602a      	str	r2, [r5, #0]
/home/yin/imx-optee/imx-optee-os/lib/libutee/tee_api_arith.c:165
     a6e:	b124      	cbz	r4, a7a <TEE_BigIntConvertToOctetString+0x2a>
/home/yin/imx-optee/imx-optee-os/lib/libutee/tee_api_arith.c:165 (discriminator 1)
     a70:	429c      	cmp	r4, r3
     a72:	d002      	beq.n	a7a <TEE_BigIntConvertToOctetString+0x2a>
/home/yin/imx-optee/imx-optee-os/lib/libutee/tee_api_arith.c:167
     a74:	4620      	mov	r0, r4
     a76:	f002 fbeb 	bl	3250 <TEE_Panic>
/home/yin/imx-optee/imx-optee-os/lib/libutee/tee_api_arith.c:170
     a7a:	4620      	mov	r0, r4
     a7c:	b003      	add	sp, #12
     a7e:	bd30      	pop	{r4, r5, pc}
     a80:	ffff0010 	.word	0xffff0010

00000a84 <TEE_BigIntConvertFromS32>:
TEE_BigIntConvertFromS32():
/home/yin/imx-optee/imx-optee-os/lib/libutee/tee_api_arith.c:180
     a84:	f002 bd01 	b.w	348a <mpa_set_S32>

00000a88 <TEE_BigIntConvertToS32>:
TEE_BigIntConvertToS32():
/home/yin/imx-optee/imx-optee-os/lib/libutee/tee_api_arith.c:190
     a88:	b508      	push	{r3, lr}
/home/yin/imx-optee/imx-optee-os/lib/libutee/tee_api_arith.c:194
     a8a:	f002 fd0c 	bl	34a6 <mpa_get_S32>
     a8e:	2800      	cmp	r0, #0
/home/yin/imx-optee/imx-optee-os/lib/libutee/tee_api_arith.c:204
     a90:	4801      	ldr	r0, [pc, #4]	; (a98 <TEE_BigIntConvertToS32+0x10>)
     a92:	bf08      	it	eq
     a94:	2000      	moveq	r0, #0
     a96:	bd08      	pop	{r3, pc}
     a98:	ffff300f 	.word	0xffff300f

00000a9c <TEE_BigIntCmp>:
TEE_BigIntCmp():
/home/yin/imx-optee/imx-optee-os/lib/libutee/tee_api_arith.c:218
     a9c:	f004 b841 	b.w	4b22 <mpa_cmp>

00000aa0 <TEE_BigIntCmpS32>:
TEE_BigIntCmpS32():
/home/yin/imx-optee/imx-optee-os/lib/libutee/tee_api_arith.c:228
     aa0:	f004 b862 	b.w	4b68 <mpa_cmp_short>

00000aa4 <TEE_BigIntShiftRight>:
TEE_BigIntShiftRight():
/home/yin/imx-optee/imx-optee-os/lib/libutee/tee_api_arith.c:240
     aa4:	f003 bcdd 	b.w	4462 <mpa_shift_right>

00000aa8 <TEE_BigIntGetBit>:
TEE_BigIntGetBit():
/home/yin/imx-optee/imx-optee-os/lib/libutee/tee_api_arith.c:247
     aa8:	b508      	push	{r3, lr}
/home/yin/imx-optee/imx-optee-os/lib/libutee/tee_api_arith.c:250
     aaa:	f001 fe45 	bl	2738 <mpa_get_bit>
/home/yin/imx-optee/imx-optee-os/lib/libutee/tee_api_arith.c:251
     aae:	3000      	adds	r0, #0
     ab0:	bf18      	it	ne
     ab2:	2001      	movne	r0, #1
     ab4:	bd08      	pop	{r3, pc}

00000ab6 <TEE_BigIntGetBitCount>:
TEE_BigIntGetBitCount():
/home/yin/imx-optee/imx-optee-os/lib/libutee/tee_api_arith.c:257
     ab6:	b508      	push	{r3, lr}
/home/yin/imx-optee/imx-optee-os/lib/libutee/tee_api_arith.c:260
     ab8:	f001 fe29 	bl	270e <mpa_highest_bit_index>
/home/yin/imx-optee/imx-optee-os/lib/libutee/tee_api_arith.c:261
     abc:	3001      	adds	r0, #1
     abe:	bd08      	pop	{r3, pc}

00000ac0 <TEE_BigIntAdd>:
TEE_BigIntAdd():
/home/yin/imx-optee/imx-optee-os/lib/libutee/tee_api_arith.c:277
     ac0:	4b02      	ldr	r3, [pc, #8]	; (acc <TEE_BigIntAdd+0xc>)
     ac2:	447b      	add	r3, pc
     ac4:	689b      	ldr	r3, [r3, #8]
     ac6:	f003 be35 	b.w	4734 <mpa_add>
     aca:	bf00      	nop
     acc:	000065ee 	.word	0x000065ee

00000ad0 <TEE_BigIntSub>:
TEE_BigIntSub():
/home/yin/imx-optee/imx-optee-os/lib/libutee/tee_api_arith.c:290
     ad0:	4b02      	ldr	r3, [pc, #8]	; (adc <TEE_BigIntSub+0xc>)
     ad2:	447b      	add	r3, pc
     ad4:	689b      	ldr	r3, [r3, #8]
     ad6:	f003 bea4 	b.w	4822 <mpa_sub>
     ada:	bf00      	nop
     adc:	000065de 	.word	0x000065de

00000ae0 <TEE_BigIntNeg>:
TEE_BigIntNeg():
/home/yin/imx-optee/imx-optee-os/lib/libutee/tee_api_arith.c:301
     ae0:	f003 bf21 	b.w	4926 <mpa_neg>

00000ae4 <TEE_BigIntMul>:
TEE_BigIntMul():
/home/yin/imx-optee/imx-optee-os/lib/libutee/tee_api_arith.c:314
     ae4:	4b02      	ldr	r3, [pc, #8]	; (af0 <TEE_BigIntMul+0xc>)
     ae6:	447b      	add	r3, pc
     ae8:	689b      	ldr	r3, [r3, #8]
     aea:	f003 bb16 	b.w	411a <mpa_mul>
     aee:	bf00      	nop
     af0:	000065ca 	.word	0x000065ca

00000af4 <TEE_BigIntSquare>:
TEE_BigIntSquare():
/home/yin/imx-optee/imx-optee-os/lib/libutee/tee_api_arith.c:325
     af4:	4b02      	ldr	r3, [pc, #8]	; (b00 <TEE_BigIntSquare+0xc>)
     af6:	460a      	mov	r2, r1
     af8:	447b      	add	r3, pc
     afa:	689b      	ldr	r3, [r3, #8]
     afc:	f003 bb0d 	b.w	411a <mpa_mul>
     b00:	000065b8 	.word	0x000065b8

00000b04 <TEE_BigIntDiv>:
TEE_BigIntDiv():
/home/yin/imx-optee/imx-optee-os/lib/libutee/tee_api_arith.c:333
     b04:	b5f7      	push	{r0, r1, r2, r4, r5, r6, r7, lr}
     b06:	4605      	mov	r5, r0
     b08:	460e      	mov	r6, r1
TEE_BigIntCmpS32():
/home/yin/imx-optee/imx-optee-os/lib/libutee/tee_api_arith.c:228
     b0a:	4618      	mov	r0, r3
     b0c:	2100      	movs	r1, #0
TEE_BigIntDiv():
/home/yin/imx-optee/imx-optee-os/lib/libutee/tee_api_arith.c:333
     b0e:	4617      	mov	r7, r2
     b10:	461c      	mov	r4, r3
TEE_BigIntCmpS32():
/home/yin/imx-optee/imx-optee-os/lib/libutee/tee_api_arith.c:228
     b12:	f004 f829 	bl	4b68 <mpa_cmp_short>
TEE_BigIntDiv():
/home/yin/imx-optee/imx-optee-os/lib/libutee/tee_api_arith.c:339
     b16:	b918      	cbnz	r0, b20 <TEE_BigIntDiv+0x1c>
/home/yin/imx-optee/imx-optee-os/lib/libutee/tee_api_arith.c:340
     b18:	4807      	ldr	r0, [pc, #28]	; (b38 <TEE_BigIntDiv+0x34>)
     b1a:	4478      	add	r0, pc
     b1c:	f000 f986 	bl	e2c <TEE_BigInt_Panic>
/home/yin/imx-optee/imx-optee-os/lib/libutee/tee_api_arith.c:342
     b20:	4b06      	ldr	r3, [pc, #24]	; (b3c <TEE_BigIntDiv+0x38>)
     b22:	463a      	mov	r2, r7
     b24:	4631      	mov	r1, r6
     b26:	4628      	mov	r0, r5
     b28:	447b      	add	r3, pc
     b2a:	689b      	ldr	r3, [r3, #8]
     b2c:	9300      	str	r3, [sp, #0]
     b2e:	4623      	mov	r3, r4
     b30:	f002 ff63 	bl	39fa <mpa_div>
/home/yin/imx-optee/imx-optee-os/lib/libutee/tee_api_arith.c:343
     b34:	b003      	add	sp, #12
     b36:	bdf0      	pop	{r4, r5, r6, r7, pc}
     b38:	000053bb 	.word	0x000053bb
     b3c:	00006588 	.word	0x00006588

00000b40 <TEE_BigIntMod>:
TEE_BigIntMod():
/home/yin/imx-optee/imx-optee-os/lib/libutee/tee_api_arith.c:354
     b40:	e92d 41f0 	stmdb	sp!, {r4, r5, r6, r7, r8, lr}
     b44:	4604      	mov	r4, r0
     b46:	460f      	mov	r7, r1
TEE_BigIntCmpS32():
/home/yin/imx-optee/imx-optee-os/lib/libutee/tee_api_arith.c:228
     b48:	4610      	mov	r0, r2
     b4a:	2102      	movs	r1, #2
TEE_BigIntMod():
/home/yin/imx-optee/imx-optee-os/lib/libutee/tee_api_arith.c:354
     b4c:	4615      	mov	r5, r2
TEE_BigIntCmpS32():
/home/yin/imx-optee/imx-optee-os/lib/libutee/tee_api_arith.c:228
     b4e:	f004 f80b 	bl	4b68 <mpa_cmp_short>
TEE_BigIntMod():
/home/yin/imx-optee/imx-optee-os/lib/libutee/tee_api_arith.c:359
     b52:	2800      	cmp	r0, #0
     b54:	da03      	bge.n	b5e <TEE_BigIntMod+0x1e>
/home/yin/imx-optee/imx-optee-os/lib/libutee/tee_api_arith.c:360
     b56:	480e      	ldr	r0, [pc, #56]	; (b90 <TEE_BigIntMod+0x50>)
     b58:	4478      	add	r0, pc
     b5a:	f000 f967 	bl	e2c <TEE_BigInt_Panic>
/home/yin/imx-optee/imx-optee-os/lib/libutee/tee_api_arith.c:362
     b5e:	4e0d      	ldr	r6, [pc, #52]	; (b94 <TEE_BigIntMod+0x54>)
     b60:	462a      	mov	r2, r5
     b62:	4639      	mov	r1, r7
     b64:	4620      	mov	r0, r4
     b66:	447e      	add	r6, pc
     b68:	68b3      	ldr	r3, [r6, #8]
     b6a:	f004 f84e 	bl	4c0a <mpa_mod>
/home/yin/imx-optee/imx-optee-os/lib/libutee/tee_api_arith.c:364
     b6e:	2100      	movs	r1, #0
     b70:	4620      	mov	r0, r4
     b72:	f003 fff9 	bl	4b68 <mpa_cmp_short>
     b76:	2800      	cmp	r0, #0
     b78:	da07      	bge.n	b8a <TEE_BigIntMod+0x4a>
/home/yin/imx-optee/imx-optee-os/lib/libutee/tee_api_arith.c:365
     b7a:	68b3      	ldr	r3, [r6, #8]
     b7c:	462a      	mov	r2, r5
     b7e:	4621      	mov	r1, r4
     b80:	4620      	mov	r0, r4
/home/yin/imx-optee/imx-optee-os/lib/libutee/tee_api_arith.c:366
     b82:	e8bd 41f0 	ldmia.w	sp!, {r4, r5, r6, r7, r8, lr}
/home/yin/imx-optee/imx-optee-os/lib/libutee/tee_api_arith.c:365
     b86:	f003 bdd5 	b.w	4734 <mpa_add>
     b8a:	e8bd 81f0 	ldmia.w	sp!, {r4, r5, r6, r7, r8, pc}
     b8e:	bf00      	nop
     b90:	0000538d 	.word	0x0000538d
     b94:	0000654a 	.word	0x0000654a

00000b98 <TEE_BigIntAddMod>:
TEE_BigIntAddMod():
/home/yin/imx-optee/imx-optee-os/lib/libutee/tee_api_arith.c:373
     b98:	e92d 41f3 	stmdb	sp!, {r0, r1, r4, r5, r6, r7, r8, lr}
     b9c:	4604      	mov	r4, r0
     b9e:	460f      	mov	r7, r1
TEE_BigIntCmpS32():
/home/yin/imx-optee/imx-optee-os/lib/libutee/tee_api_arith.c:228
     ba0:	4618      	mov	r0, r3
     ba2:	2102      	movs	r1, #2
TEE_BigIntAddMod():
/home/yin/imx-optee/imx-optee-os/lib/libutee/tee_api_arith.c:373
     ba4:	4690      	mov	r8, r2
     ba6:	461d      	mov	r5, r3
TEE_BigIntCmpS32():
/home/yin/imx-optee/imx-optee-os/lib/libutee/tee_api_arith.c:228
     ba8:	f003 ffde 	bl	4b68 <mpa_cmp_short>
TEE_BigIntAddMod():
/home/yin/imx-optee/imx-optee-os/lib/libutee/tee_api_arith.c:379
     bac:	2800      	cmp	r0, #0
     bae:	da03      	bge.n	bb8 <TEE_BigIntAddMod+0x20>
/home/yin/imx-optee/imx-optee-os/lib/libutee/tee_api_arith.c:380
     bb0:	480f      	ldr	r0, [pc, #60]	; (bf0 <TEE_BigIntAddMod+0x58>)
     bb2:	4478      	add	r0, pc
     bb4:	f000 f93a 	bl	e2c <TEE_BigInt_Panic>
/home/yin/imx-optee/imx-optee-os/lib/libutee/tee_api_arith.c:382
     bb8:	4e0e      	ldr	r6, [pc, #56]	; (bf4 <TEE_BigIntAddMod+0x5c>)
     bba:	4642      	mov	r2, r8
     bbc:	4639      	mov	r1, r7
     bbe:	4620      	mov	r0, r4
     bc0:	447e      	add	r6, pc
     bc2:	68b3      	ldr	r3, [r6, #8]
     bc4:	9300      	str	r3, [sp, #0]
     bc6:	462b      	mov	r3, r5
     bc8:	f004 f82a 	bl	4c20 <mpa_add_mod>
/home/yin/imx-optee/imx-optee-os/lib/libutee/tee_api_arith.c:383
     bcc:	2100      	movs	r1, #0
     bce:	4620      	mov	r0, r4
     bd0:	f003 ffca 	bl	4b68 <mpa_cmp_short>
     bd4:	2800      	cmp	r0, #0
     bd6:	da08      	bge.n	bea <TEE_BigIntAddMod+0x52>
/home/yin/imx-optee/imx-optee-os/lib/libutee/tee_api_arith.c:384
     bd8:	68b3      	ldr	r3, [r6, #8]
     bda:	462a      	mov	r2, r5
     bdc:	4621      	mov	r1, r4
     bde:	4620      	mov	r0, r4
/home/yin/imx-optee/imx-optee-os/lib/libutee/tee_api_arith.c:385
     be0:	b002      	add	sp, #8
     be2:	e8bd 41f0 	ldmia.w	sp!, {r4, r5, r6, r7, r8, lr}
/home/yin/imx-optee/imx-optee-os/lib/libutee/tee_api_arith.c:384
     be6:	f003 bda5 	b.w	4734 <mpa_add>
/home/yin/imx-optee/imx-optee-os/lib/libutee/tee_api_arith.c:385
     bea:	b002      	add	sp, #8
     bec:	e8bd 81f0 	ldmia.w	sp!, {r4, r5, r6, r7, r8, pc}
     bf0:	00005333 	.word	0x00005333
     bf4:	000064f0 	.word	0x000064f0

00000bf8 <TEE_BigIntSubMod>:
TEE_BigIntSubMod():
/home/yin/imx-optee/imx-optee-os/lib/libutee/tee_api_arith.c:392
     bf8:	e92d 41f3 	stmdb	sp!, {r0, r1, r4, r5, r6, r7, r8, lr}
     bfc:	4604      	mov	r4, r0
     bfe:	460f      	mov	r7, r1
TEE_BigIntCmpS32():
/home/yin/imx-optee/imx-optee-os/lib/libutee/tee_api_arith.c:228
     c00:	4618      	mov	r0, r3
     c02:	2102      	movs	r1, #2
TEE_BigIntSubMod():
/home/yin/imx-optee/imx-optee-os/lib/libutee/tee_api_arith.c:392
     c04:	4690      	mov	r8, r2
     c06:	461d      	mov	r5, r3
TEE_BigIntCmpS32():
/home/yin/imx-optee/imx-optee-os/lib/libutee/tee_api_arith.c:228
     c08:	f003 ffae 	bl	4b68 <mpa_cmp_short>
TEE_BigIntSubMod():
/home/yin/imx-optee/imx-optee-os/lib/libutee/tee_api_arith.c:398
     c0c:	2800      	cmp	r0, #0
     c0e:	da03      	bge.n	c18 <TEE_BigIntSubMod+0x20>
/home/yin/imx-optee/imx-optee-os/lib/libutee/tee_api_arith.c:399
     c10:	480f      	ldr	r0, [pc, #60]	; (c50 <TEE_BigIntSubMod+0x58>)
     c12:	4478      	add	r0, pc
     c14:	f000 f90a 	bl	e2c <TEE_BigInt_Panic>
/home/yin/imx-optee/imx-optee-os/lib/libutee/tee_api_arith.c:401
     c18:	4e0e      	ldr	r6, [pc, #56]	; (c54 <TEE_BigIntSubMod+0x5c>)
     c1a:	4642      	mov	r2, r8
     c1c:	4639      	mov	r1, r7
     c1e:	4620      	mov	r0, r4
     c20:	447e      	add	r6, pc
     c22:	68b3      	ldr	r3, [r6, #8]
     c24:	9300      	str	r3, [sp, #0]
     c26:	462b      	mov	r3, r5
     c28:	f004 f81b 	bl	4c62 <mpa_sub_mod>
/home/yin/imx-optee/imx-optee-os/lib/libutee/tee_api_arith.c:402
     c2c:	2100      	movs	r1, #0
     c2e:	4620      	mov	r0, r4
     c30:	f003 ff9a 	bl	4b68 <mpa_cmp_short>
     c34:	2800      	cmp	r0, #0
     c36:	da08      	bge.n	c4a <TEE_BigIntSubMod+0x52>
/home/yin/imx-optee/imx-optee-os/lib/libutee/tee_api_arith.c:403
     c38:	68b3      	ldr	r3, [r6, #8]
     c3a:	462a      	mov	r2, r5
     c3c:	4621      	mov	r1, r4
     c3e:	4620      	mov	r0, r4
/home/yin/imx-optee/imx-optee-os/lib/libutee/tee_api_arith.c:404
     c40:	b002      	add	sp, #8
     c42:	e8bd 41f0 	ldmia.w	sp!, {r4, r5, r6, r7, r8, lr}
/home/yin/imx-optee/imx-optee-os/lib/libutee/tee_api_arith.c:403
     c46:	f003 bd75 	b.w	4734 <mpa_add>
/home/yin/imx-optee/imx-optee-os/lib/libutee/tee_api_arith.c:404
     c4a:	b002      	add	sp, #8
     c4c:	e8bd 81f0 	ldmia.w	sp!, {r4, r5, r6, r7, r8, pc}
     c50:	000052d3 	.word	0x000052d3
     c54:	00006490 	.word	0x00006490

00000c58 <TEE_BigIntMulMod>:
TEE_BigIntMulMod():
/home/yin/imx-optee/imx-optee-os/lib/libutee/tee_api_arith.c:411
     c58:	e92d 43f0 	stmdb	sp!, {r4, r5, r6, r7, r8, r9, lr}
     c5c:	4607      	mov	r7, r0
     c5e:	b085      	sub	sp, #20
     c60:	4688      	mov	r8, r1
TEE_BigIntCmpS32():
/home/yin/imx-optee/imx-optee-os/lib/libutee/tee_api_arith.c:228
     c62:	4618      	mov	r0, r3
     c64:	2102      	movs	r1, #2
TEE_BigIntMulMod():
/home/yin/imx-optee/imx-optee-os/lib/libutee/tee_api_arith.c:411
     c66:	4691      	mov	r9, r2
     c68:	461c      	mov	r4, r3
TEE_BigIntCmpS32():
/home/yin/imx-optee/imx-optee-os/lib/libutee/tee_api_arith.c:228
     c6a:	f003 ff7d 	bl	4b68 <mpa_cmp_short>
TEE_BigIntMulMod():
/home/yin/imx-optee/imx-optee-os/lib/libutee/tee_api_arith.c:418
     c6e:	2800      	cmp	r0, #0
     c70:	da03      	bge.n	c7a <TEE_BigIntMulMod+0x22>
/home/yin/imx-optee/imx-optee-os/lib/libutee/tee_api_arith.c:419
     c72:	4816      	ldr	r0, [pc, #88]	; (ccc <TEE_BigIntMulMod+0x74>)
     c74:	4478      	add	r0, pc
     c76:	f000 f8d9 	bl	e2c <TEE_BigInt_Panic>
/home/yin/imx-optee/imx-optee-os/lib/libutee/tee_api_arith.c:429
     c7a:	4d15      	ldr	r5, [pc, #84]	; (cd0 <TEE_BigIntMulMod+0x78>)
     c7c:	ae03      	add	r6, sp, #12
     c7e:	4630      	mov	r0, r6
     c80:	447d      	add	r5, pc
     c82:	68a9      	ldr	r1, [r5, #8]
     c84:	f003 f9b9 	bl	3ffa <mpa_alloc_static_temp_var>
/home/yin/imx-optee/imx-optee-os/lib/libutee/tee_api_arith.c:430
     c88:	68ab      	ldr	r3, [r5, #8]
     c8a:	464a      	mov	r2, r9
     c8c:	4641      	mov	r1, r8
     c8e:	9803      	ldr	r0, [sp, #12]
     c90:	9300      	str	r3, [sp, #0]
     c92:	4623      	mov	r3, r4
     c94:	f004 f806 	bl	4ca4 <mpa_mul_mod>
/home/yin/imx-optee/imx-optee-os/lib/libutee/tee_api_arith.c:431
     c98:	2100      	movs	r1, #0
     c9a:	9803      	ldr	r0, [sp, #12]
     c9c:	f003 ff64 	bl	4b68 <mpa_cmp_short>
     ca0:	2800      	cmp	r0, #0
     ca2:	da05      	bge.n	cb0 <TEE_BigIntMulMod+0x58>
/home/yin/imx-optee/imx-optee-os/lib/libutee/tee_api_arith.c:432
     ca4:	9903      	ldr	r1, [sp, #12]
     ca6:	4622      	mov	r2, r4
     ca8:	68ab      	ldr	r3, [r5, #8]
     caa:	4608      	mov	r0, r1
     cac:	f003 fd42 	bl	4734 <mpa_add>
/home/yin/imx-optee/imx-optee-os/lib/libutee/tee_api_arith.c:433
     cb0:	9903      	ldr	r1, [sp, #12]
     cb2:	4638      	mov	r0, r7
     cb4:	f001 fd10 	bl	26d8 <mpa_copy>
/home/yin/imx-optee/imx-optee-os/lib/libutee/tee_api_arith.c:434
     cb8:	4b06      	ldr	r3, [pc, #24]	; (cd4 <TEE_BigIntMulMod+0x7c>)
     cba:	4630      	mov	r0, r6
     cbc:	447b      	add	r3, pc
     cbe:	6899      	ldr	r1, [r3, #8]
     cc0:	f003 f9a0 	bl	4004 <mpa_free_static_temp_var>
/home/yin/imx-optee/imx-optee-os/lib/libutee/tee_api_arith.c:435
     cc4:	b005      	add	sp, #20
     cc6:	e8bd 83f0 	ldmia.w	sp!, {r4, r5, r6, r7, r8, r9, pc}
     cca:	bf00      	nop
     ccc:	00005271 	.word	0x00005271
     cd0:	00006430 	.word	0x00006430
     cd4:	000063f4 	.word	0x000063f4

00000cd8 <TEE_BigIntSquareMod>:
TEE_BigIntSquareMod():
/home/yin/imx-optee/imx-optee-os/lib/libutee/tee_api_arith.c:443
     cd8:	4613      	mov	r3, r2
     cda:	460a      	mov	r2, r1
     cdc:	f7ff bfbc 	b.w	c58 <TEE_BigIntMulMod>

00000ce0 <TEE_BigIntInvMod>:
TEE_BigIntInvMod():
/home/yin/imx-optee/imx-optee-os/lib/libutee/tee_api_arith.c:451
     ce0:	b570      	push	{r4, r5, r6, lr}
     ce2:	4606      	mov	r6, r0
     ce4:	460c      	mov	r4, r1
TEE_BigIntCmpS32():
/home/yin/imx-optee/imx-optee-os/lib/libutee/tee_api_arith.c:228
     ce6:	4610      	mov	r0, r2
     ce8:	2102      	movs	r1, #2
TEE_BigIntInvMod():
/home/yin/imx-optee/imx-optee-os/lib/libutee/tee_api_arith.c:451
     cea:	4615      	mov	r5, r2
TEE_BigIntCmpS32():
/home/yin/imx-optee/imx-optee-os/lib/libutee/tee_api_arith.c:228
     cec:	f003 ff3c 	bl	4b68 <mpa_cmp_short>
TEE_BigIntInvMod():
/home/yin/imx-optee/imx-optee-os/lib/libutee/tee_api_arith.c:456
     cf0:	2800      	cmp	r0, #0
     cf2:	da03      	bge.n	cfc <TEE_BigIntInvMod+0x1c>
/home/yin/imx-optee/imx-optee-os/lib/libutee/tee_api_arith.c:457
     cf4:	4809      	ldr	r0, [pc, #36]	; (d1c <TEE_BigIntInvMod+0x3c>)
     cf6:	4478      	add	r0, pc
     cf8:	f000 f898 	bl	e2c <TEE_BigInt_Panic>
TEE_BigIntCmpS32():
/home/yin/imx-optee/imx-optee-os/lib/libutee/tee_api_arith.c:228
     cfc:	2100      	movs	r1, #0
     cfe:	4620      	mov	r0, r4
     d00:	f003 ff32 	bl	4b68 <mpa_cmp_short>
TEE_BigIntInvMod():
/home/yin/imx-optee/imx-optee-os/lib/libutee/tee_api_arith.c:456
     d04:	2800      	cmp	r0, #0
     d06:	d0f5      	beq.n	cf4 <TEE_BigIntInvMod+0x14>
/home/yin/imx-optee/imx-optee-os/lib/libutee/tee_api_arith.c:459
     d08:	4b05      	ldr	r3, [pc, #20]	; (d20 <TEE_BigIntInvMod+0x40>)
     d0a:	462a      	mov	r2, r5
     d0c:	4621      	mov	r1, r4
     d0e:	4630      	mov	r0, r6
/home/yin/imx-optee/imx-optee-os/lib/libutee/tee_api_arith.c:460
     d10:	e8bd 4070 	ldmia.w	sp!, {r4, r5, r6, lr}
/home/yin/imx-optee/imx-optee-os/lib/libutee/tee_api_arith.c:459
     d14:	447b      	add	r3, pc
     d16:	689b      	ldr	r3, [r3, #8]
     d18:	f003 bfe5 	b.w	4ce6 <mpa_inv_mod>
     d1c:	00005204 	.word	0x00005204
     d20:	0000639c 	.word	0x0000639c

00000d24 <TEE_BigIntRelativePrime>:
TEE_BigIntRelativePrime():
/home/yin/imx-optee/imx-optee-os/lib/libutee/tee_api_arith.c:470
     d24:	b5f7      	push	{r0, r1, r2, r4, r5, r6, r7, lr}
/home/yin/imx-optee/imx-optee-os/lib/libutee/tee_api_arith.c:476
     d26:	ad01      	add	r5, sp, #4
     d28:	4c0d      	ldr	r4, [pc, #52]	; (d60 <TEE_BigIntRelativePrime+0x3c>)
/home/yin/imx-optee/imx-optee-os/lib/libutee/tee_api_arith.c:470
     d2a:	4606      	mov	r6, r0
     d2c:	460f      	mov	r7, r1
/home/yin/imx-optee/imx-optee-os/lib/libutee/tee_api_arith.c:476
     d2e:	4628      	mov	r0, r5
     d30:	447c      	add	r4, pc
     d32:	68a1      	ldr	r1, [r4, #8]
     d34:	f003 f961 	bl	3ffa <mpa_alloc_static_temp_var>
/home/yin/imx-optee/imx-optee-os/lib/libutee/tee_api_arith.c:478
     d38:	68a3      	ldr	r3, [r4, #8]
     d3a:	463a      	mov	r2, r7
     d3c:	4631      	mov	r1, r6
     d3e:	9801      	ldr	r0, [sp, #4]
     d40:	f003 f855 	bl	3dee <mpa_gcd>
/home/yin/imx-optee/imx-optee-os/lib/libutee/tee_api_arith.c:479
     d44:	2101      	movs	r1, #1
     d46:	9801      	ldr	r0, [sp, #4]
     d48:	f003 ff0e 	bl	4b68 <mpa_cmp_short>
/home/yin/imx-optee/imx-optee-os/lib/libutee/tee_api_arith.c:481
     d4c:	68a1      	ldr	r1, [r4, #8]
/home/yin/imx-optee/imx-optee-os/lib/libutee/tee_api_arith.c:479
     d4e:	4606      	mov	r6, r0
/home/yin/imx-optee/imx-optee-os/lib/libutee/tee_api_arith.c:481
     d50:	4628      	mov	r0, r5
     d52:	f003 f957 	bl	4004 <mpa_free_static_temp_var>
/home/yin/imx-optee/imx-optee-os/lib/libutee/tee_api_arith.c:484
     d56:	fab6 f086 	clz	r0, r6
     d5a:	0940      	lsrs	r0, r0, #5
     d5c:	b003      	add	sp, #12
     d5e:	bdf0      	pop	{r4, r5, r6, r7, pc}
     d60:	00006380 	.word	0x00006380

00000d64 <TEE_BigIntComputeExtendedGcd>:
TEE_BigIntComputeExtendedGcd():
/home/yin/imx-optee/imx-optee-os/lib/libutee/tee_api_arith.c:492
     d64:	b513      	push	{r0, r1, r4, lr}
/home/yin/imx-optee/imx-optee-os/lib/libutee/tee_api_arith.c:499
     d66:	4c05      	ldr	r4, [pc, #20]	; (d7c <TEE_BigIntComputeExtendedGcd+0x18>)
     d68:	447c      	add	r4, pc
     d6a:	68a4      	ldr	r4, [r4, #8]
     d6c:	9401      	str	r4, [sp, #4]
     d6e:	9c04      	ldr	r4, [sp, #16]
     d70:	9400      	str	r4, [sp, #0]
     d72:	f003 f891 	bl	3e98 <mpa_extended_gcd>
/home/yin/imx-optee/imx-optee-os/lib/libutee/tee_api_arith.c:500
     d76:	b002      	add	sp, #8
     d78:	bd10      	pop	{r4, pc}
     d7a:	bf00      	nop
     d7c:	00006348 	.word	0x00006348

00000d80 <TEE_BigIntIsProbablePrime>:
TEE_BigIntIsProbablePrime():
/home/yin/imx-optee/imx-optee-os/lib/libutee/tee_api_arith.c:516
     d80:	4b06      	ldr	r3, [pc, #24]	; (d9c <TEE_BigIntIsProbablePrime+0x1c>)
     d82:	f5b1 7f80 	cmp.w	r1, #256	; 0x100
     d86:	bf28      	it	cs
     d88:	f44f 7180 	movcs.w	r1, #256	; 0x100
     d8c:	2950      	cmp	r1, #80	; 0x50
     d8e:	447b      	add	r3, pc
     d90:	bf38      	it	cc
     d92:	2150      	movcc	r1, #80	; 0x50
     d94:	689a      	ldr	r2, [r3, #8]
     d96:	f001 be2b 	b.w	29f0 <mpa_is_prob_prime>
     d9a:	bf00      	nop
     d9c:	00006322 	.word	0x00006322

00000da0 <TEE_BigIntConvertToFMM>:
TEE_BigIntConvertToFMM():
/home/yin/imx-optee/imx-optee-os/lib/libutee/tee_api_arith.c:530
     da0:	b513      	push	{r0, r1, r4, lr}
     da2:	461c      	mov	r4, r3
/home/yin/imx-optee/imx-optee-os/lib/libutee/tee_api_arith.c:537
     da4:	4b05      	ldr	r3, [pc, #20]	; (dbc <TEE_BigIntConvertToFMM+0x1c>)
     da6:	447b      	add	r3, pc
     da8:	689b      	ldr	r3, [r3, #8]
     daa:	9301      	str	r3, [sp, #4]
     dac:	68a3      	ldr	r3, [r4, #8]
     dae:	9300      	str	r3, [sp, #0]
     db0:	4613      	mov	r3, r2
     db2:	6862      	ldr	r2, [r4, #4]
     db4:	f001 fdfe 	bl	29b4 <mpa_montgomery_mul>
/home/yin/imx-optee/imx-optee-os/lib/libutee/tee_api_arith.c:539
     db8:	b002      	add	sp, #8
     dba:	bd10      	pop	{r4, pc}
     dbc:	0000630a 	.word	0x0000630a

00000dc0 <TEE_BigIntConvertFromFMM>:
TEE_BigIntConvertFromFMM():
/home/yin/imx-optee/imx-optee-os/lib/libutee/tee_api_arith.c:548
     dc0:	e92d 47ff 	stmdb	sp!, {r0, r1, r2, r3, r4, r5, r6, r7, r8, r9, sl, lr}
/home/yin/imx-optee/imx-optee-os/lib/libutee/tee_api_arith.c:560
     dc4:	ac03      	add	r4, sp, #12
     dc6:	4d11      	ldr	r5, [pc, #68]	; (e0c <TEE_BigIntConvertFromFMM+0x4c>)
/home/yin/imx-optee/imx-optee-os/lib/libutee/tee_api_arith.c:548
     dc8:	4606      	mov	r6, r0
     dca:	4688      	mov	r8, r1
/home/yin/imx-optee/imx-optee-os/lib/libutee/tee_api_arith.c:560
     dcc:	4620      	mov	r0, r4
/home/yin/imx-optee/imx-optee-os/lib/libutee/tee_api_arith.c:548
     dce:	4691      	mov	r9, r2
     dd0:	469a      	mov	sl, r3
/home/yin/imx-optee/imx-optee-os/lib/libutee/tee_api_arith.c:560
     dd2:	447d      	add	r5, pc
     dd4:	68a9      	ldr	r1, [r5, #8]
     dd6:	f003 f910 	bl	3ffa <mpa_alloc_static_temp_var>
/home/yin/imx-optee/imx-optee-os/lib/libutee/tee_api_arith.c:563
     dda:	9f03      	ldr	r7, [sp, #12]
     ddc:	f001 fcd0 	bl	2780 <mpa_constant_one>
     de0:	68ab      	ldr	r3, [r5, #8]
     de2:	4642      	mov	r2, r8
     de4:	4601      	mov	r1, r0
     de6:	4638      	mov	r0, r7
     de8:	9301      	str	r3, [sp, #4]
     dea:	f8da 3008 	ldr.w	r3, [sl, #8]
     dee:	9300      	str	r3, [sp, #0]
     df0:	464b      	mov	r3, r9
     df2:	f001 fddf 	bl	29b4 <mpa_montgomery_mul>
/home/yin/imx-optee/imx-optee-os/lib/libutee/tee_api_arith.c:566
     df6:	9903      	ldr	r1, [sp, #12]
     df8:	4630      	mov	r0, r6
     dfa:	f001 fc6d 	bl	26d8 <mpa_copy>
/home/yin/imx-optee/imx-optee-os/lib/libutee/tee_api_arith.c:567
     dfe:	68a9      	ldr	r1, [r5, #8]
     e00:	4620      	mov	r0, r4
     e02:	f003 f8ff 	bl	4004 <mpa_free_static_temp_var>
/home/yin/imx-optee/imx-optee-os/lib/libutee/tee_api_arith.c:568
     e06:	b004      	add	sp, #16
     e08:	e8bd 87f0 	ldmia.w	sp!, {r4, r5, r6, r7, r8, r9, sl, pc}
     e0c:	000062de 	.word	0x000062de

00000e10 <TEE_BigIntComputeFMM>:
TEE_BigIntComputeFMM():
/home/yin/imx-optee/imx-optee-os/lib/libutee/tee_api_arith.c:578
     e10:	b513      	push	{r0, r1, r4, lr}
/home/yin/imx-optee/imx-optee-os/lib/libutee/tee_api_arith.c:585
     e12:	4c05      	ldr	r4, [pc, #20]	; (e28 <TEE_BigIntComputeFMM+0x18>)
     e14:	447c      	add	r4, pc
     e16:	68a4      	ldr	r4, [r4, #8]
     e18:	9401      	str	r4, [sp, #4]
     e1a:	9c04      	ldr	r4, [sp, #16]
     e1c:	68a4      	ldr	r4, [r4, #8]
     e1e:	9400      	str	r4, [sp, #0]
     e20:	f001 fdc8 	bl	29b4 <mpa_montgomery_mul>
/home/yin/imx-optee/imx-optee-os/lib/libutee/tee_api_arith.c:587
     e24:	b002      	add	sp, #8
     e26:	bd10      	pop	{r4, pc}
     e28:	0000629c 	.word	0x0000629c

00000e2c <TEE_BigInt_Panic>:
TEE_BigInt_Panic():
/home/yin/imx-optee/imx-optee-os/lib/libutee/tee_api_arith.c:36
     e2c:	4601      	mov	r1, r0
     e2e:	4805      	ldr	r0, [pc, #20]	; (e44 <TEE_BigInt_Panic+0x18>)
/home/yin/imx-optee/imx-optee-os/lib/libutee/tee_api_arith.c:35
     e30:	b508      	push	{r3, lr}
/home/yin/imx-optee/imx-optee-os/lib/libutee/tee_api_arith.c:36
     e32:	4478      	add	r0, pc
     e34:	f000 f989 	bl	114a <printf>
/home/yin/imx-optee/imx-optee-os/lib/libutee/tee_api_arith.c:37
     e38:	4801      	ldr	r0, [pc, #4]	; (e40 <TEE_BigInt_Panic+0x14>)
     e3a:	f002 fa09 	bl	3250 <TEE_Panic>
     e3e:	e7fe      	b.n	e3e <TEE_BigInt_Panic+0x12>
     e40:	00b16127 	.word	0x00b16127
     e44:	00005098 	.word	0x00005098

00000e48 <__utee_from_param>:
__utee_from_param():
/home/yin/imx-optee/imx-optee-os/lib/libutee/tee_api.c:23
     e48:	2300      	movs	r3, #0
/home/yin/imx-optee/imx-optee-os/lib/libutee/tee_api.c:20
     e4a:	b5f0      	push	{r4, r5, r6, r7, lr}
     e4c:	4694      	mov	ip, r2
     e4e:	4615      	mov	r5, r2
/home/yin/imx-optee/imx-optee-os/lib/libutee/tee_api.c:39
     e50:	2600      	movs	r6, #0
     e52:	2700      	movs	r7, #0
/home/yin/imx-optee/imx-optee-os/lib/libutee/tee_api.c:35
     e54:	461a      	mov	r2, r3
/home/yin/imx-optee/imx-optee-os/lib/libutee/tee_api.c:23
     e56:	e880 000a 	stmia.w	r0, {r1, r3}
/home/yin/imx-optee/imx-optee-os/lib/libutee/tee_api.c:25
     e5a:	fa21 f403 	lsr.w	r4, r1, r3
     e5e:	f004 040f 	and.w	r4, r4, #15
     e62:	3c01      	subs	r4, #1
     e64:	2c06      	cmp	r4, #6
     e66:	d813      	bhi.n	e90 <__utee_from_param+0x48>
     e68:	e8df f004 	tbb	[pc, r4]
     e6c:	12040404 	.word	0x12040404
     e70:	0404      	.short	0x0404
     e72:	04          	.byte	0x04
     e73:	00          	.byte	0x00
/home/yin/imx-optee/imx-optee-os/lib/libutee/tee_api.c:35
     e74:	f85c 4013 	ldr.w	r4, [ip, r3, lsl #1]
     e78:	60c2      	str	r2, [r0, #12]
     e7a:	6084      	str	r4, [r0, #8]
/home/yin/imx-optee/imx-optee-os/lib/libutee/tee_api.c:36
     e7c:	686c      	ldr	r4, [r5, #4]
     e7e:	6142      	str	r2, [r0, #20]
     e80:	6104      	str	r4, [r0, #16]
     e82:	3304      	adds	r3, #4
     e84:	3508      	adds	r5, #8
/home/yin/imx-optee/imx-optee-os/lib/libutee/tee_api.c:24 (discriminator 2)
     e86:	2b10      	cmp	r3, #16
     e88:	f100 0010 	add.w	r0, r0, #16
     e8c:	d1e5      	bne.n	e5a <__utee_from_param+0x12>
/home/yin/imx-optee/imx-optee-os/lib/libutee/tee_api.c:44
     e8e:	bdf0      	pop	{r4, r5, r6, r7, pc}
/home/yin/imx-optee/imx-optee-os/lib/libutee/tee_api.c:39
     e90:	e9c0 6702 	strd	r6, r7, [r0, #8]
/home/yin/imx-optee/imx-optee-os/lib/libutee/tee_api.c:40
     e94:	e9c0 6704 	strd	r6, r7, [r0, #16]
/home/yin/imx-optee/imx-optee-os/lib/libutee/tee_api.c:41
     e98:	e7f3      	b.n	e82 <__utee_from_param+0x3a>

00000e9a <__utee_to_param>:
__utee_to_param():
/home/yin/imx-optee/imx-optee-os/lib/libutee/tee_api.c:48
     e9a:	b5f0      	push	{r4, r5, r6, r7, lr}
/home/yin/imx-optee/imx-optee-os/lib/libutee/tee_api.c:50
     e9c:	2300      	movs	r3, #0
     e9e:	6816      	ldr	r6, [r2, #0]
     ea0:	4605      	mov	r5, r0
/home/yin/imx-optee/imx-optee-os/lib/libutee/tee_api.c:56
     ea2:	fa26 f403 	lsr.w	r4, r6, r3
/home/yin/imx-optee/imx-optee-os/lib/libutee/tee_api.c:53
     ea6:	f8d2 c008 	ldr.w	ip, [r2, #8]
/home/yin/imx-optee/imx-optee-os/lib/libutee/tee_api.c:56
     eaa:	f004 040f 	and.w	r4, r4, #15
/home/yin/imx-optee/imx-optee-os/lib/libutee/tee_api.c:54
     eae:	6917      	ldr	r7, [r2, #16]
/home/yin/imx-optee/imx-optee-os/lib/libutee/tee_api.c:56
     eb0:	3c01      	subs	r4, #1
     eb2:	2c06      	cmp	r4, #6
     eb4:	d808      	bhi.n	ec8 <__utee_to_param+0x2e>
     eb6:	e8df f004 	tbb	[pc, r4]
     eba:	0404      	.short	0x0404
     ebc:	04040704 	.word	0x04040704
     ec0:	04          	.byte	0x04
     ec1:	00          	.byte	0x00
/home/yin/imx-optee/imx-optee-os/lib/libutee/tee_api.c:66
     ec2:	f840 c013 	str.w	ip, [r0, r3, lsl #1]
/home/yin/imx-optee/imx-optee-os/lib/libutee/tee_api.c:67
     ec6:	606f      	str	r7, [r5, #4]
     ec8:	3304      	adds	r3, #4
     eca:	3210      	adds	r2, #16
/home/yin/imx-optee/imx-optee-os/lib/libutee/tee_api.c:52 (discriminator 2)
     ecc:	2b10      	cmp	r3, #16
     ece:	f105 0508 	add.w	r5, r5, #8
     ed2:	d1e6      	bne.n	ea2 <__utee_to_param+0x8>
/home/yin/imx-optee/imx-optee-os/lib/libutee/tee_api.c:74
     ed4:	b101      	cbz	r1, ed8 <__utee_to_param+0x3e>
/home/yin/imx-optee/imx-optee-os/lib/libutee/tee_api.c:75
     ed6:	600e      	str	r6, [r1, #0]
     ed8:	bdf0      	pop	{r4, r5, r6, r7, pc}

00000eda <TEE_OpenTASession>:
TEE_OpenTASession():
/home/yin/imx-optee/imx-optee-os/lib/libutee/tee_api.c:84
     eda:	b5f0      	push	{r4, r5, r6, r7, lr}
     edc:	b097      	sub	sp, #92	; 0x5c
/home/yin/imx-optee/imx-optee-os/lib/libutee/tee_api.c:89
     ede:	ac04      	add	r4, sp, #16
/home/yin/imx-optee/imx-optee-os/lib/libutee/tee_api.c:84
     ee0:	4605      	mov	r5, r0
     ee2:	460f      	mov	r7, r1
/home/yin/imx-optee/imx-optee-os/lib/libutee/tee_api.c:89
     ee4:	4620      	mov	r0, r4
/home/yin/imx-optee/imx-optee-os/lib/libutee/tee_api.c:84
     ee6:	4611      	mov	r1, r2
/home/yin/imx-optee/imx-optee-os/lib/libutee/tee_api.c:89
     ee8:	461a      	mov	r2, r3
/home/yin/imx-optee/imx-optee-os/lib/libutee/tee_api.c:84
     eea:	461e      	mov	r6, r3
/home/yin/imx-optee/imx-optee-os/lib/libutee/tee_api.c:89
     eec:	f7ff ffac 	bl	e48 <__utee_from_param>
/home/yin/imx-optee/imx-optee-os/lib/libutee/tee_api.c:90
     ef0:	9b1d      	ldr	r3, [sp, #116]	; 0x74
     ef2:	4622      	mov	r2, r4
     ef4:	4639      	mov	r1, r7
     ef6:	4628      	mov	r0, r5
     ef8:	9300      	str	r3, [sp, #0]
     efa:	ab03      	add	r3, sp, #12
     efc:	f7ff eaa0 	blx	440 <utee_open_ta_session>
     f00:	4605      	mov	r5, r0
/home/yin/imx-optee/imx-optee-os/lib/libutee/tee_api.c:92
     f02:	4622      	mov	r2, r4
     f04:	2100      	movs	r1, #0
     f06:	4630      	mov	r0, r6
     f08:	f7ff ffc7 	bl	e9a <__utee_to_param>
/home/yin/imx-optee/imx-optee-os/lib/libutee/tee_api.c:98
     f0c:	b10d      	cbz	r5, f12 <TEE_OpenTASession+0x38>
/home/yin/imx-optee/imx-optee-os/lib/libutee/tee_api.c:99
     f0e:	2300      	movs	r3, #0
     f10:	9303      	str	r3, [sp, #12]
/home/yin/imx-optee/imx-optee-os/lib/libutee/tee_api.c:101
     f12:	9a03      	ldr	r2, [sp, #12]
/home/yin/imx-optee/imx-optee-os/lib/libutee/tee_api.c:103
     f14:	4628      	mov	r0, r5
/home/yin/imx-optee/imx-optee-os/lib/libutee/tee_api.c:101
     f16:	9b1c      	ldr	r3, [sp, #112]	; 0x70
     f18:	601a      	str	r2, [r3, #0]
/home/yin/imx-optee/imx-optee-os/lib/libutee/tee_api.c:103
     f1a:	b017      	add	sp, #92	; 0x5c
     f1c:	bdf0      	pop	{r4, r5, r6, r7, pc}

00000f1e <TEE_CloseTASession>:
TEE_CloseTASession():
/home/yin/imx-optee/imx-optee-os/lib/libutee/tee_api.c:106
     f1e:	b508      	push	{r3, lr}
/home/yin/imx-optee/imx-optee-os/lib/libutee/tee_api.c:107
     f20:	b130      	cbz	r0, f30 <TEE_CloseTASession+0x12>
/home/yin/imx-optee/imx-optee-os/lib/libutee/tee_api.c:108
     f22:	f7ff ea9a 	blx	458 <utee_close_ta_session>
/home/yin/imx-optee/imx-optee-os/lib/libutee/tee_api.c:110
     f26:	b118      	cbz	r0, f30 <TEE_CloseTASession+0x12>
/home/yin/imx-optee/imx-optee-os/lib/libutee/tee_api.c:113
     f28:	e8bd 4008 	ldmia.w	sp!, {r3, lr}
/home/yin/imx-optee/imx-optee-os/lib/libutee/tee_api.c:111
     f2c:	f002 b990 	b.w	3250 <TEE_Panic>
     f30:	bd08      	pop	{r3, pc}

00000f32 <TEE_InvokeTACommand>:
TEE_InvokeTACommand():
/home/yin/imx-optee/imx-optee-os/lib/libutee/tee_api.c:120
     f32:	e92d 41f0 	stmdb	sp!, {r4, r5, r6, r7, r8, lr}
     f36:	b096      	sub	sp, #88	; 0x58
/home/yin/imx-optee/imx-optee-os/lib/libutee/tee_api.c:125
     f38:	ad04      	add	r5, sp, #16
/home/yin/imx-optee/imx-optee-os/lib/libutee/tee_api.c:120
     f3a:	4604      	mov	r4, r0
     f3c:	460f      	mov	r7, r1
     f3e:	4690      	mov	r8, r2
/home/yin/imx-optee/imx-optee-os/lib/libutee/tee_api.c:125
     f40:	4619      	mov	r1, r3
     f42:	9a1c      	ldr	r2, [sp, #112]	; 0x70
     f44:	4628      	mov	r0, r5
/home/yin/imx-optee/imx-optee-os/lib/libutee/tee_api.c:120
     f46:	9e1d      	ldr	r6, [sp, #116]	; 0x74
/home/yin/imx-optee/imx-optee-os/lib/libutee/tee_api.c:125
     f48:	f7ff ff7e 	bl	e48 <__utee_from_param>
/home/yin/imx-optee/imx-optee-os/lib/libutee/tee_api.c:126
     f4c:	ab03      	add	r3, sp, #12
     f4e:	4642      	mov	r2, r8
     f50:	9300      	str	r3, [sp, #0]
     f52:	4639      	mov	r1, r7
     f54:	462b      	mov	r3, r5
     f56:	4620      	mov	r0, r4
     f58:	f7ff ea88 	blx	46c <utee_invoke_ta_command>
/home/yin/imx-optee/imx-optee-os/lib/libutee/tee_api.c:129
     f5c:	462a      	mov	r2, r5
/home/yin/imx-optee/imx-optee-os/lib/libutee/tee_api.c:126
     f5e:	4604      	mov	r4, r0
/home/yin/imx-optee/imx-optee-os/lib/libutee/tee_api.c:129
     f60:	2100      	movs	r1, #0
     f62:	981c      	ldr	r0, [sp, #112]	; 0x70
     f64:	f7ff ff99 	bl	e9a <__utee_to_param>
     f68:	9b03      	ldr	r3, [sp, #12]
/home/yin/imx-optee/imx-optee-os/lib/libutee/tee_api.c:131
     f6a:	b106      	cbz	r6, f6e <TEE_InvokeTACommand+0x3c>
/home/yin/imx-optee/imx-optee-os/lib/libutee/tee_api.c:132
     f6c:	6033      	str	r3, [r6, #0]
/home/yin/imx-optee/imx-optee-os/lib/libutee/tee_api.c:134
     f6e:	2b04      	cmp	r3, #4
     f70:	d009      	beq.n	f86 <TEE_InvokeTACommand+0x54>
/home/yin/imx-optee/imx-optee-os/lib/libutee/tee_api.c:137
     f72:	b144      	cbz	r4, f86 <TEE_InvokeTACommand+0x54>
/home/yin/imx-optee/imx-optee-os/lib/libutee/tee_api.c:137 (discriminator 1)
     f74:	4b06      	ldr	r3, [pc, #24]	; (f90 <TEE_InvokeTACommand+0x5e>)
     f76:	429c      	cmp	r4, r3
     f78:	d005      	beq.n	f86 <TEE_InvokeTACommand+0x54>
/home/yin/imx-optee/imx-optee-os/lib/libutee/tee_api.c:138
     f7a:	4b06      	ldr	r3, [pc, #24]	; (f94 <TEE_InvokeTACommand+0x62>)
     f7c:	429c      	cmp	r4, r3
     f7e:	d002      	beq.n	f86 <TEE_InvokeTACommand+0x54>
/home/yin/imx-optee/imx-optee-os/lib/libutee/tee_api.c:140
     f80:	4620      	mov	r0, r4
     f82:	f002 f965 	bl	3250 <TEE_Panic>
/home/yin/imx-optee/imx-optee-os/lib/libutee/tee_api.c:143
     f86:	4620      	mov	r0, r4
     f88:	b016      	add	sp, #88	; 0x58
     f8a:	e8bd 81f0 	ldmia.w	sp!, {r4, r5, r6, r7, r8, pc}
     f8e:	bf00      	nop
     f90:	ffff000c 	.word	0xffff000c
     f94:	ffff3024 	.word	0xffff3024

00000f98 <TEE_GetCancellationFlag>:
TEE_GetCancellationFlag():
/home/yin/imx-optee/imx-optee-os/lib/libutee/tee_api.c:148
     f98:	b507      	push	{r0, r1, r2, lr}
/home/yin/imx-optee/imx-optee-os/lib/libutee/tee_api.c:150
     f9a:	a801      	add	r0, sp, #4
     f9c:	f7ff ea72 	blx	484 <utee_get_cancellation_flag>
/home/yin/imx-optee/imx-optee-os/lib/libutee/tee_api.c:152
     fa0:	b108      	cbz	r0, fa6 <TEE_GetCancellationFlag+0xe>
/home/yin/imx-optee/imx-optee-os/lib/libutee/tee_api.c:153
     fa2:	2300      	movs	r3, #0
     fa4:	9301      	str	r3, [sp, #4]
/home/yin/imx-optee/imx-optee-os/lib/libutee/tee_api.c:155
     fa6:	9801      	ldr	r0, [sp, #4]
     fa8:	3000      	adds	r0, #0
     faa:	bf18      	it	ne
     fac:	2001      	movne	r0, #1
     fae:	b003      	add	sp, #12
     fb0:	f85d fb04 	ldr.w	pc, [sp], #4

00000fb4 <TEE_UnmaskCancellation>:
TEE_UnmaskCancellation():
/home/yin/imx-optee/imx-optee-os/lib/libutee/tee_api.c:158
     fb4:	b507      	push	{r0, r1, r2, lr}
/home/yin/imx-optee/imx-optee-os/lib/libutee/tee_api.c:160
     fb6:	a801      	add	r0, sp, #4
     fb8:	f7ff ea78 	blx	4ac <utee_unmask_cancellation>
/home/yin/imx-optee/imx-optee-os/lib/libutee/tee_api.c:162
     fbc:	b108      	cbz	r0, fc2 <TEE_UnmaskCancellation+0xe>
/home/yin/imx-optee/imx-optee-os/lib/libutee/tee_api.c:163
     fbe:	f002 f947 	bl	3250 <TEE_Panic>
/home/yin/imx-optee/imx-optee-os/lib/libutee/tee_api.c:165
     fc2:	9801      	ldr	r0, [sp, #4]
     fc4:	3000      	adds	r0, #0
     fc6:	bf18      	it	ne
     fc8:	2001      	movne	r0, #1
     fca:	b003      	add	sp, #12
     fcc:	f85d fb04 	ldr.w	pc, [sp], #4

00000fd0 <TEE_MaskCancellation>:
TEE_MaskCancellation():
/home/yin/imx-optee/imx-optee-os/lib/libutee/tee_api.c:168
     fd0:	b507      	push	{r0, r1, r2, lr}
/home/yin/imx-optee/imx-optee-os/lib/libutee/tee_api.c:170
     fd2:	a801      	add	r0, sp, #4
     fd4:	f7ff ea74 	blx	4c0 <utee_mask_cancellation>
/home/yin/imx-optee/imx-optee-os/lib/libutee/tee_api.c:172
     fd8:	b108      	cbz	r0, fde <TEE_MaskCancellation+0xe>
/home/yin/imx-optee/imx-optee-os/lib/libutee/tee_api.c:173
     fda:	f002 f939 	bl	3250 <TEE_Panic>
/home/yin/imx-optee/imx-optee-os/lib/libutee/tee_api.c:175
     fde:	9801      	ldr	r0, [sp, #4]
     fe0:	3000      	adds	r0, #0
     fe2:	bf18      	it	ne
     fe4:	2001      	movne	r0, #1
     fe6:	b003      	add	sp, #12
     fe8:	f85d fb04 	ldr.w	pc, [sp], #4

00000fec <TEE_CheckMemoryAccessRights>:
TEE_CheckMemoryAccessRights():
/home/yin/imx-optee/imx-optee-os/lib/libutee/tee_api.c:184
     fec:	b10a      	cbz	r2, ff2 <TEE_CheckMemoryAccessRights+0x6>
/home/yin/imx-optee/imx-optee-os/lib/libutee/tee_api.c:188
     fee:	f003 bfaf 	b.w	4f50 <__utee_check_access_rights_from_thumb>
/home/yin/imx-optee/imx-optee-os/lib/libutee/tee_api.c:200
     ff2:	4610      	mov	r0, r2
     ff4:	4770      	bx	lr

00000ff6 <TEE_SetInstanceData>:
TEE_SetInstanceData():
/home/yin/imx-optee/imx-optee-os/lib/libutee/tee_api.c:204
     ff6:	4b02      	ldr	r3, [pc, #8]	; (1000 <TEE_SetInstanceData+0xa>)
     ff8:	447b      	add	r3, pc
     ffa:	6018      	str	r0, [r3, #0]
     ffc:	4770      	bx	lr
     ffe:	bf00      	nop
    1000:	000079b4 	.word	0x000079b4

00001004 <TEE_GetInstanceData>:
TEE_GetInstanceData():
/home/yin/imx-optee/imx-optee-os/lib/libutee/tee_api.c:210
    1004:	4b01      	ldr	r3, [pc, #4]	; (100c <TEE_GetInstanceData+0x8>)
    1006:	447b      	add	r3, pc
    1008:	6818      	ldr	r0, [r3, #0]
    100a:	4770      	bx	lr
    100c:	000079a6 	.word	0x000079a6

00001010 <TEE_MemMove>:
TEE_MemMove():
/home/yin/imx-optee/imx-optee-os/lib/libutee/tee_api.c:214
    1010:	f002 b950 	b.w	32b4 <memmove>

00001014 <TEE_MemCompare>:
TEE_MemCompare():
/home/yin/imx-optee/imx-optee-os/lib/libutee/tee_api.c:219
    1014:	f002 b934 	b.w	3280 <memcmp>

00001018 <TEE_MemFill>:
TEE_MemFill():
/home/yin/imx-optee/imx-optee-os/lib/libutee/tee_api.c:224
    1018:	f002 b966 	b.w	32e8 <memset>

0000101c <TEE_GetSystemTime>:
TEE_GetSystemTime():
/home/yin/imx-optee/imx-optee-os/lib/libutee/tee_api.c:230
    101c:	b508      	push	{r3, lr}
/home/yin/imx-optee/imx-optee-os/lib/libutee/tee_api.c:231
    101e:	4601      	mov	r1, r0
    1020:	2000      	movs	r0, #0
    1022:	f7ff ea62 	blx	4e8 <utee_get_time>
/home/yin/imx-optee/imx-optee-os/lib/libutee/tee_api.c:233
    1026:	b118      	cbz	r0, 1030 <TEE_GetSystemTime+0x14>
/home/yin/imx-optee/imx-optee-os/lib/libutee/tee_api.c:235
    1028:	e8bd 4008 	ldmia.w	sp!, {r3, lr}
/home/yin/imx-optee/imx-optee-os/lib/libutee/tee_api.c:234
    102c:	f002 b910 	b.w	3250 <TEE_Panic>
    1030:	bd08      	pop	{r3, pc}

00001032 <TEE_Wait>:
TEE_Wait():
/home/yin/imx-optee/imx-optee-os/lib/libutee/tee_api.c:238
    1032:	b510      	push	{r4, lr}
/home/yin/imx-optee/imx-optee-os/lib/libutee/tee_api.c:239
    1034:	f7ff ea4e 	blx	4d4 <utee_wait>
/home/yin/imx-optee/imx-optee-os/lib/libutee/tee_api.c:241
    1038:	4604      	mov	r4, r0
    103a:	b120      	cbz	r0, 1046 <TEE_Wait+0x14>
/home/yin/imx-optee/imx-optee-os/lib/libutee/tee_api.c:241 (discriminator 1)
    103c:	4b03      	ldr	r3, [pc, #12]	; (104c <TEE_Wait+0x1a>)
    103e:	4298      	cmp	r0, r3
    1040:	d001      	beq.n	1046 <TEE_Wait+0x14>
/home/yin/imx-optee/imx-optee-os/lib/libutee/tee_api.c:242
    1042:	f002 f905 	bl	3250 <TEE_Panic>
/home/yin/imx-optee/imx-optee-os/lib/libutee/tee_api.c:245
    1046:	4620      	mov	r0, r4
    1048:	bd10      	pop	{r4, pc}
    104a:	bf00      	nop
    104c:	ffff0002 	.word	0xffff0002

00001050 <TEE_GetTAPersistentTime>:
TEE_GetTAPersistentTime():
/home/yin/imx-optee/imx-optee-os/lib/libutee/tee_api.c:248
    1050:	b538      	push	{r3, r4, r5, lr}
/home/yin/imx-optee/imx-optee-os/lib/libutee/tee_api.c:251
    1052:	4601      	mov	r1, r0
/home/yin/imx-optee/imx-optee-os/lib/libutee/tee_api.c:248
    1054:	4605      	mov	r5, r0
/home/yin/imx-optee/imx-optee-os/lib/libutee/tee_api.c:251
    1056:	2001      	movs	r0, #1
    1058:	f7ff ea46 	blx	4e8 <utee_get_time>
/home/yin/imx-optee/imx-optee-os/lib/libutee/tee_api.c:253
    105c:	4604      	mov	r4, r0
    105e:	b170      	cbz	r0, 107e <TEE_GetTAPersistentTime+0x2e>
/home/yin/imx-optee/imx-optee-os/lib/libutee/tee_api.c:253 (discriminator 1)
    1060:	4b08      	ldr	r3, [pc, #32]	; (1084 <TEE_GetTAPersistentTime+0x34>)
    1062:	4298      	cmp	r0, r3
    1064:	d00b      	beq.n	107e <TEE_GetTAPersistentTime+0x2e>
/home/yin/imx-optee/imx-optee-os/lib/libutee/tee_api.c:254
    1066:	2300      	movs	r3, #0
    1068:	602b      	str	r3, [r5, #0]
/home/yin/imx-optee/imx-optee-os/lib/libutee/tee_api.c:255
    106a:	606b      	str	r3, [r5, #4]
/home/yin/imx-optee/imx-optee-os/lib/libutee/tee_api.c:258
    106c:	f500 4330 	add.w	r3, r0, #45056	; 0xb000
    1070:	2b01      	cmp	r3, #1
    1072:	d904      	bls.n	107e <TEE_GetTAPersistentTime+0x2e>
/home/yin/imx-optee/imx-optee-os/lib/libutee/tee_api.c:261
    1074:	4b04      	ldr	r3, [pc, #16]	; (1088 <TEE_GetTAPersistentTime+0x38>)
    1076:	4298      	cmp	r0, r3
    1078:	d001      	beq.n	107e <TEE_GetTAPersistentTime+0x2e>
/home/yin/imx-optee/imx-optee-os/lib/libutee/tee_api.c:263
    107a:	f002 f8e9 	bl	3250 <TEE_Panic>
/home/yin/imx-optee/imx-optee-os/lib/libutee/tee_api.c:266
    107e:	4620      	mov	r0, r4
    1080:	bd38      	pop	{r3, r4, r5, pc}
    1082:	bf00      	nop
    1084:	ffff300f 	.word	0xffff300f
    1088:	ffff000c 	.word	0xffff000c

0000108c <TEE_SetTAPersistentTime>:
TEE_SetTAPersistentTime():
/home/yin/imx-optee/imx-optee-os/lib/libutee/tee_api.c:269
    108c:	b510      	push	{r4, lr}
/home/yin/imx-optee/imx-optee-os/lib/libutee/tee_api.c:272
    108e:	f7ff ea36 	blx	4fc <utee_set_ta_time>
/home/yin/imx-optee/imx-optee-os/lib/libutee/tee_api.c:274
    1092:	4604      	mov	r4, r0
    1094:	b138      	cbz	r0, 10a6 <TEE_SetTAPersistentTime+0x1a>
/home/yin/imx-optee/imx-optee-os/lib/libutee/tee_api.c:274 (discriminator 1)
    1096:	4b05      	ldr	r3, [pc, #20]	; (10ac <TEE_SetTAPersistentTime+0x20>)
    1098:	4298      	cmp	r0, r3
    109a:	d004      	beq.n	10a6 <TEE_SetTAPersistentTime+0x1a>
/home/yin/imx-optee/imx-optee-os/lib/libutee/tee_api.c:275
    109c:	4b04      	ldr	r3, [pc, #16]	; (10b0 <TEE_SetTAPersistentTime+0x24>)
    109e:	4298      	cmp	r0, r3
    10a0:	d001      	beq.n	10a6 <TEE_SetTAPersistentTime+0x1a>
/home/yin/imx-optee/imx-optee-os/lib/libutee/tee_api.c:277
    10a2:	f002 f8d5 	bl	3250 <TEE_Panic>
/home/yin/imx-optee/imx-optee-os/lib/libutee/tee_api.c:280
    10a6:	4620      	mov	r0, r4
    10a8:	bd10      	pop	{r4, pc}
    10aa:	bf00      	nop
    10ac:	ffff000c 	.word	0xffff000c
    10b0:	ffff3041 	.word	0xffff3041

000010b4 <TEE_GetREETime>:
TEE_GetREETime():
/home/yin/imx-optee/imx-optee-os/lib/libutee/tee_api.c:283
    10b4:	b508      	push	{r3, lr}
/home/yin/imx-optee/imx-optee-os/lib/libutee/tee_api.c:284
    10b6:	4601      	mov	r1, r0
    10b8:	2002      	movs	r0, #2
    10ba:	f7ff ea16 	blx	4e8 <utee_get_time>
/home/yin/imx-optee/imx-optee-os/lib/libutee/tee_api.c:286
    10be:	b118      	cbz	r0, 10c8 <TEE_GetREETime+0x14>
/home/yin/imx-optee/imx-optee-os/lib/libutee/tee_api.c:288
    10c0:	e8bd 4008 	ldmia.w	sp!, {r3, lr}
/home/yin/imx-optee/imx-optee-os/lib/libutee/tee_api.c:287
    10c4:	f002 b8c4 	b.w	3250 <TEE_Panic>
    10c8:	bd08      	pop	{r3, pc}

000010ca <TEE_Malloc>:
TEE_Malloc():
/home/yin/imx-optee/imx-optee-os/lib/libutee/tee_api.c:291
    10ca:	b507      	push	{r0, r1, r2, lr}
/home/yin/imx-optee/imx-optee-os/lib/libutee/tee_api.c:292
    10cc:	b931      	cbnz	r1, 10dc <TEE_Malloc+0x12>
/home/yin/imx-optee/imx-optee-os/lib/libutee/tee_api.c:293
    10ce:	4601      	mov	r1, r0
    10d0:	2001      	movs	r0, #1
/home/yin/imx-optee/imx-optee-os/lib/libutee/tee_api.c:300
    10d2:	b003      	add	sp, #12
    10d4:	f85d eb04 	ldr.w	lr, [sp], #4
/home/yin/imx-optee/imx-optee-os/lib/libutee/tee_api.c:293
    10d8:	f000 bb24 	b.w	1724 <calloc>
/home/yin/imx-optee/imx-optee-os/lib/libutee/tee_api.c:294
    10dc:	f1b1 4f00 	cmp.w	r1, #2147483648	; 0x80000000
    10e0:	d104      	bne.n	10ec <TEE_Malloc+0x22>
/home/yin/imx-optee/imx-optee-os/lib/libutee/tee_api.c:300
    10e2:	b003      	add	sp, #12
    10e4:	f85d eb04 	ldr.w	lr, [sp], #4
/home/yin/imx-optee/imx-optee-os/lib/libutee/tee_api.c:295
    10e8:	f000 bb08 	b.w	16fc <malloc>
/home/yin/imx-optee/imx-optee-os/lib/libutee/tee_api.c:297
    10ec:	4b07      	ldr	r3, [pc, #28]	; (110c <TEE_Malloc+0x42>)
    10ee:	4808      	ldr	r0, [pc, #32]	; (1110 <TEE_Malloc+0x46>)
    10f0:	9101      	str	r1, [sp, #4]
    10f2:	f240 1129 	movw	r1, #297	; 0x129
    10f6:	447b      	add	r3, pc
    10f8:	9300      	str	r3, [sp, #0]
    10fa:	2301      	movs	r3, #1
    10fc:	461a      	mov	r2, r3
    10fe:	4478      	add	r0, pc
    1100:	f001 f93c 	bl	237c <trace_printf>
/home/yin/imx-optee/imx-optee-os/lib/libutee/tee_api.c:300
    1104:	2000      	movs	r0, #0
    1106:	b003      	add	sp, #12
    1108:	f85d fb04 	ldr.w	pc, [sp], #4
    110c:	00004e3a 	.word	0x00004e3a
    1110:	00004e27 	.word	0x00004e27

00001114 <TEE_Realloc>:
TEE_Realloc():
/home/yin/imx-optee/imx-optee-os/lib/libutee/tee_api.c:304
    1114:	f000 bb1a 	b.w	174c <realloc>

00001118 <TEE_Free>:
TEE_Free():
/home/yin/imx-optee/imx-optee-os/lib/libutee/tee_api.c:309
    1118:	f000 bafc 	b.w	1714 <free>

0000111c <TEE_CacheClean>:
TEE_CacheClean():
/home/yin/imx-optee/imx-optee-os/lib/libutee/tee_api.c:315
    111c:	2200      	movs	r2, #0
    111e:	f003 bf27 	b.w	4f70 <__utee_cache_operation_from_thumb>

00001122 <TEE_CacheFlush>:
TEE_CacheFlush():
/home/yin/imx-optee/imx-optee-os/lib/libutee/tee_api.c:319
    1122:	2201      	movs	r2, #1
    1124:	f003 bf24 	b.w	4f70 <__utee_cache_operation_from_thumb>

00001128 <TEE_CacheInvalidate>:
TEE_CacheInvalidate():
/home/yin/imx-optee/imx-optee-os/lib/libutee/tee_api.c:324
    1128:	2202      	movs	r2, #2
    112a:	f003 bf21 	b.w	4f70 <__utee_cache_operation_from_thumb>
    112e:	bf00      	nop

00001130 <trace_ext_puts>:
trace_ext_puts():
/home/yin/imx-optee/imx-optee-os/lib/libutee/trace_ext.c:17
    1130:	b510      	push	{r4, lr}
    1132:	4604      	mov	r4, r0
/home/yin/imx-optee/imx-optee-os/lib/libutee/trace_ext.c:18
    1134:	f002 f8e0 	bl	32f8 <strlen>
    1138:	4601      	mov	r1, r0
    113a:	4620      	mov	r0, r4
/home/yin/imx-optee/imx-optee-os/lib/libutee/trace_ext.c:19
    113c:	e8bd 4010 	ldmia.w	sp!, {r4, lr}
/home/yin/imx-optee/imx-optee-os/lib/libutee/trace_ext.c:18
    1140:	f003 bf0e 	b.w	4f60 <__utee_log_from_thumb>

00001144 <trace_ext_get_thread_id>:
trace_ext_get_thread_id():
/home/yin/imx-optee/imx-optee-os/lib/libutee/trace_ext.c:24
    1144:	f04f 30ff 	mov.w	r0, #4294967295	; 0xffffffff
    1148:	4770      	bx	lr

0000114a <printf>:
printf():
/home/yin/imx-optee/imx-optee-os/lib/libutee/trace_ext.c:32
    114a:	b40f      	push	{r0, r1, r2, r3}
    114c:	b530      	push	{r4, r5, lr}
    114e:	b0c3      	sub	sp, #268	; 0x10c
/home/yin/imx-optee/imx-optee-os/lib/libutee/trace_ext.c:37
    1150:	f001 f90a 	bl	2368 <trace_get_level>
    1154:	2800      	cmp	r0, #0
    1156:	dd13      	ble.n	1180 <printf+0x36>
/home/yin/imx-optee/imx-optee-os/lib/libutee/trace_ext.c:41
    1158:	ad02      	add	r5, sp, #8
/home/yin/imx-optee/imx-optee-os/lib/libutee/trace_ext.c:40
    115a:	ab47      	add	r3, sp, #284	; 0x11c
/home/yin/imx-optee/imx-optee-os/lib/libutee/trace_ext.c:41
    115c:	9a46      	ldr	r2, [sp, #280]	; 0x118
    115e:	f44f 7180 	mov.w	r1, #256	; 0x100
    1162:	4628      	mov	r0, r5
/home/yin/imx-optee/imx-optee-os/lib/libutee/trace_ext.c:40
    1164:	9301      	str	r3, [sp, #4]
/home/yin/imx-optee/imx-optee-os/lib/libutee/trace_ext.c:41
    1166:	f002 f884 	bl	3272 <vsnprintf>
/home/yin/imx-optee/imx-optee-os/lib/libutee/trace_ext.c:44
    116a:	1e04      	subs	r4, r0, #0
    116c:	db02      	blt.n	1174 <printf+0x2a>
/home/yin/imx-optee/imx-optee-os/lib/libutee/trace_ext.c:47
    116e:	4628      	mov	r0, r5
    1170:	f7ff ffde 	bl	1130 <trace_ext_puts>
/home/yin/imx-optee/imx-optee-os/lib/libutee/trace_ext.c:50
    1174:	4620      	mov	r0, r4
    1176:	b043      	add	sp, #268	; 0x10c
    1178:	e8bd 4030 	ldmia.w	sp!, {r4, r5, lr}
    117c:	b004      	add	sp, #16
    117e:	4770      	bx	lr
/home/yin/imx-optee/imx-optee-os/lib/libutee/trace_ext.c:38
    1180:	2400      	movs	r4, #0
    1182:	e7f7      	b.n	1174 <printf+0x2a>

00001184 <puts>:
puts():
/home/yin/imx-optee/imx-optee-os/lib/libutee/trace_ext.c:53
    1184:	b510      	push	{r4, lr}
    1186:	4604      	mov	r4, r0
/home/yin/imx-optee/imx-optee-os/lib/libutee/trace_ext.c:54
    1188:	f001 f8ee 	bl	2368 <trace_get_level>
    118c:	2800      	cmp	r0, #0
    118e:	dd06      	ble.n	119e <puts+0x1a>
/home/yin/imx-optee/imx-optee-os/lib/libutee/trace_ext.c:55
    1190:	4620      	mov	r0, r4
    1192:	f7ff ffcd 	bl	1130 <trace_ext_puts>
/home/yin/imx-optee/imx-optee-os/lib/libutee/trace_ext.c:56
    1196:	4803      	ldr	r0, [pc, #12]	; (11a4 <puts+0x20>)
    1198:	4478      	add	r0, pc
    119a:	f7ff ffc9 	bl	1130 <trace_ext_puts>
/home/yin/imx-optee/imx-optee-os/lib/libutee/trace_ext.c:59
    119e:	2001      	movs	r0, #1
    11a0:	bd10      	pop	{r4, pc}
    11a2:	bf00      	nop
    11a4:	00004be4 	.word	0x00004be4

000011a8 <putchar>:
putchar():
/home/yin/imx-optee/imx-optee-os/lib/libutee/trace_ext.c:62
    11a8:	b513      	push	{r0, r1, r4, lr}
/home/yin/imx-optee/imx-optee-os/lib/libutee/trace_ext.c:63
    11aa:	2300      	movs	r3, #0
/home/yin/imx-optee/imx-optee-os/lib/libutee/trace_ext.c:62
    11ac:	4604      	mov	r4, r0
/home/yin/imx-optee/imx-optee-os/lib/libutee/trace_ext.c:63
    11ae:	f88d 0004 	strb.w	r0, [sp, #4]
    11b2:	f88d 3005 	strb.w	r3, [sp, #5]
/home/yin/imx-optee/imx-optee-os/lib/libutee/trace_ext.c:65
    11b6:	f001 f8d7 	bl	2368 <trace_get_level>
    11ba:	2800      	cmp	r0, #0
    11bc:	dd02      	ble.n	11c4 <putchar+0x1c>
/home/yin/imx-optee/imx-optee-os/lib/libutee/trace_ext.c:66
    11be:	a801      	add	r0, sp, #4
    11c0:	f7ff ffb6 	bl	1130 <trace_ext_puts>
/home/yin/imx-optee/imx-optee-os/lib/libutee/trace_ext.c:73
    11c4:	b2e0      	uxtb	r0, r4
    11c6:	b002      	add	sp, #8
    11c8:	bd10      	pop	{r4, pc}
    11ca:	bf00      	nop

000011cc <create_free_block.constprop.11>:
create_free_block():
/home/yin/imx-optee/imx-optee-os/lib/libutils/isoc/bget_malloc.c:380
    11cc:	b508      	push	{r3, lr}
/home/yin/imx-optee/imx-optee-os/lib/libutils/isoc/bget_malloc.c:383
    11ce:	1843      	adds	r3, r0, r1
    11d0:	4293      	cmp	r3, r2
    11d2:	d00b      	beq.n	11ec <create_free_block.constprop.11+0x20>
    11d4:	4b23      	ldr	r3, [pc, #140]	; (1264 <create_free_block.constprop.11+0x98>)
    11d6:	f240 127f 	movw	r2, #383	; 0x17f
    11da:	4923      	ldr	r1, [pc, #140]	; (1268 <create_free_block.constprop.11+0x9c>)
    11dc:	4823      	ldr	r0, [pc, #140]	; (126c <create_free_block.constprop.11+0xa0>)
    11de:	447b      	add	r3, pc
    11e0:	4479      	add	r1, pc
    11e2:	4478      	add	r0, pc
/home/yin/imx-optee/imx-optee-os/lib/libutils/isoc/bget_malloc.c:384
    11e4:	f002 f812 	bl	320c <_assert_log>
    11e8:	f002 f824 	bl	3234 <_assert_break>
    11ec:	685b      	ldr	r3, [r3, #4]
    11ee:	2b00      	cmp	r3, #0
    11f0:	db08      	blt.n	1204 <create_free_block.constprop.11+0x38>
    11f2:	4b1f      	ldr	r3, [pc, #124]	; (1270 <create_free_block.constprop.11+0xa4>)
    11f4:	f44f 72c0 	mov.w	r2, #384	; 0x180
    11f8:	491e      	ldr	r1, [pc, #120]	; (1274 <create_free_block.constprop.11+0xa8>)
    11fa:	481f      	ldr	r0, [pc, #124]	; (1278 <create_free_block.constprop.11+0xac>)
    11fc:	447b      	add	r3, pc
    11fe:	4479      	add	r1, pc
    1200:	4478      	add	r0, pc
    1202:	e7ef      	b.n	11e4 <create_free_block.constprop.11+0x18>
/home/yin/imx-optee/imx-optee-os/lib/libutils/isoc/bget_malloc.c:386
    1204:	5843      	ldr	r3, [r0, r1]
    1206:	b143      	cbz	r3, 121a <create_free_block.constprop.11+0x4e>
    1208:	4b1c      	ldr	r3, [pc, #112]	; (127c <create_free_block.constprop.11+0xb0>)
    120a:	f44f 72c1 	mov.w	r2, #386	; 0x182
    120e:	491c      	ldr	r1, [pc, #112]	; (1280 <create_free_block.constprop.11+0xb4>)
    1210:	481c      	ldr	r0, [pc, #112]	; (1284 <create_free_block.constprop.11+0xb8>)
    1212:	447b      	add	r3, pc
    1214:	4479      	add	r1, pc
    1216:	4478      	add	r0, pc
    1218:	e7e4      	b.n	11e4 <create_free_block.constprop.11+0x18>
/home/yin/imx-optee/imx-optee-os/lib/libutils/isoc/bget_malloc.c:390
    121a:	6003      	str	r3, [r0, #0]
/home/yin/imx-optee/imx-optee-os/lib/libutils/isoc/bget_malloc.c:396
    121c:	4b1a      	ldr	r3, [pc, #104]	; (1288 <create_free_block.constprop.11+0xbc>)
/home/yin/imx-optee/imx-optee-os/lib/libutils/isoc/bget_malloc.c:389
    121e:	6041      	str	r1, [r0, #4]
/home/yin/imx-optee/imx-optee-os/lib/libutils/isoc/bget_malloc.c:393
    1220:	5041      	str	r1, [r0, r1]
/home/yin/imx-optee/imx-optee-os/lib/libutils/isoc/bget_malloc.c:396
    1222:	447b      	add	r3, pc
    1224:	68d9      	ldr	r1, [r3, #12]
    1226:	688a      	ldr	r2, [r1, #8]
    1228:	429a      	cmp	r2, r3
    122a:	d008      	beq.n	123e <create_free_block.constprop.11+0x72>
    122c:	4b17      	ldr	r3, [pc, #92]	; (128c <create_free_block.constprop.11+0xc0>)
    122e:	f44f 72c6 	mov.w	r2, #396	; 0x18c
    1232:	4917      	ldr	r1, [pc, #92]	; (1290 <create_free_block.constprop.11+0xc4>)
    1234:	4817      	ldr	r0, [pc, #92]	; (1294 <create_free_block.constprop.11+0xc8>)
    1236:	447b      	add	r3, pc
    1238:	4479      	add	r1, pc
    123a:	4478      	add	r0, pc
    123c:	e7d2      	b.n	11e4 <create_free_block.constprop.11+0x18>
/home/yin/imx-optee/imx-optee-os/lib/libutils/isoc/bget_malloc.c:397
    123e:	6893      	ldr	r3, [r2, #8]
    1240:	68db      	ldr	r3, [r3, #12]
    1242:	4293      	cmp	r3, r2
    1244:	d008      	beq.n	1258 <create_free_block.constprop.11+0x8c>
    1246:	4b14      	ldr	r3, [pc, #80]	; (1298 <create_free_block.constprop.11+0xcc>)
    1248:	f240 128d 	movw	r2, #397	; 0x18d
    124c:	4913      	ldr	r1, [pc, #76]	; (129c <create_free_block.constprop.11+0xd0>)
    124e:	4814      	ldr	r0, [pc, #80]	; (12a0 <create_free_block.constprop.11+0xd4>)
    1250:	447b      	add	r3, pc
    1252:	4479      	add	r1, pc
    1254:	4478      	add	r0, pc
    1256:	e7c5      	b.n	11e4 <create_free_block.constprop.11+0x18>
/home/yin/imx-optee/imx-optee-os/lib/libutils/isoc/bget_malloc.c:398
    1258:	6083      	str	r3, [r0, #8]
/home/yin/imx-optee/imx-optee-os/lib/libutils/isoc/bget_malloc.c:399
    125a:	60c1      	str	r1, [r0, #12]
/home/yin/imx-optee/imx-optee-os/lib/libutils/isoc/bget_malloc.c:400
    125c:	60d8      	str	r0, [r3, #12]
/home/yin/imx-optee/imx-optee-os/lib/libutils/isoc/bget_malloc.c:401
    125e:	68c3      	ldr	r3, [r0, #12]
    1260:	6098      	str	r0, [r3, #8]
    1262:	bd08      	pop	{r3, pc}
    1264:	00004d63 	.word	0x00004d63
    1268:	00004de4 	.word	0x00004de4
    126c:	00004e02 	.word	0x00004e02
    1270:	00004d45 	.word	0x00004d45
    1274:	00004dc6 	.word	0x00004dc6
    1278:	00004e00 	.word	0x00004e00
    127c:	00004d2f 	.word	0x00004d2f
    1280:	00004db0 	.word	0x00004db0
    1284:	00004df8 	.word	0x00004df8
    1288:	00005e56 	.word	0x00005e56
    128c:	00004d0b 	.word	0x00004d0b
    1290:	00004d8c 	.word	0x00004d8c
    1294:	00004de6 	.word	0x00004de6
    1298:	00004cf1 	.word	0x00004cf1
    129c:	00004d72 	.word	0x00004d72
    12a0:	00004e07 	.word	0x00004e07

000012a4 <bget>:
bget():
/home/yin/imx-optee/imx-optee-os/lib/libutils/isoc/bget.c:576
    12a4:	b538      	push	{r3, r4, r5, lr}
/home/yin/imx-optee/imx-optee-os/lib/libutils/isoc/bget.c:587
    12a6:	1e03      	subs	r3, r0, #0
    12a8:	dc0c      	bgt.n	12c4 <bget+0x20>
/home/yin/imx-optee/imx-optee-os/lib/libutils/isoc/bget.c:587 (discriminator 1)
    12aa:	4b36      	ldr	r3, [pc, #216]	; (1384 <bget+0xe0>)
    12ac:	f240 224b 	movw	r2, #587	; 0x24b
    12b0:	4935      	ldr	r1, [pc, #212]	; (1388 <bget+0xe4>)
    12b2:	4836      	ldr	r0, [pc, #216]	; (138c <bget+0xe8>)
    12b4:	447b      	add	r3, pc
    12b6:	3312      	adds	r3, #18
    12b8:	4479      	add	r1, pc
    12ba:	4478      	add	r0, pc
/home/yin/imx-optee/imx-optee-os/lib/libutils/isoc/bget.c:647 (discriminator 1)
    12bc:	f001 ffa6 	bl	320c <_assert_log>
    12c0:	f001 ffb8 	bl	3234 <_assert_break>
/home/yin/imx-optee/imx-optee-os/lib/libutils/isoc/bget.c:594
    12c4:	2b08      	cmp	r3, #8
/home/yin/imx-optee/imx-optee-os/lib/libutils/isoc/bget.c:608
    12c6:	6888      	ldr	r0, [r1, #8]
/home/yin/imx-optee/imx-optee-os/lib/libutils/isoc/bget.c:594
    12c8:	bfb8      	it	lt
    12ca:	2308      	movlt	r3, #8
    12cc:	3307      	adds	r3, #7
    12ce:	f023 0307 	bic.w	r3, r3, #7
/home/yin/imx-optee/imx-optee-os/lib/libutils/isoc/bget.c:598
    12d2:	3308      	adds	r3, #8
/home/yin/imx-optee/imx-optee-os/lib/libutils/isoc/bget.c:630
    12d4:	4288      	cmp	r0, r1
    12d6:	d101      	bne.n	12dc <bget+0x38>
/home/yin/imx-optee/imx-optee-os/lib/libutils/isoc/bget.c:758
    12d8:	2000      	movs	r0, #0
/home/yin/imx-optee/imx-optee-os/lib/libutils/isoc/bget.c:759
    12da:	bd38      	pop	{r3, r4, r5, pc}
/home/yin/imx-optee/imx-optee-os/lib/libutils/isoc/bget.c:631
    12dc:	6842      	ldr	r2, [r0, #4]
    12de:	4293      	cmp	r3, r2
    12e0:	dc4d      	bgt.n	137e <bget+0xda>
/home/yin/imx-optee/imx-optee-os/lib/libutils/isoc/bget.c:642
    12e2:	1ad1      	subs	r1, r2, r3
    12e4:	2910      	cmp	r1, #16
    12e6:	dd16      	ble.n	1316 <bget+0x72>
/home/yin/imx-optee/imx-optee-os/lib/libutils/isoc/bget.c:645
    12e8:	1844      	adds	r4, r0, r1
/home/yin/imx-optee/imx-optee-os/lib/libutils/isoc/bget.c:647
    12ea:	58e5      	ldr	r5, [r4, r3]
    12ec:	42aa      	cmp	r2, r5
    12ee:	d009      	beq.n	1304 <bget+0x60>
/home/yin/imx-optee/imx-optee-os/lib/libutils/isoc/bget.c:647 (discriminator 1)
    12f0:	4b27      	ldr	r3, [pc, #156]	; (1390 <bget+0xec>)
    12f2:	f240 2287 	movw	r2, #647	; 0x287
    12f6:	4927      	ldr	r1, [pc, #156]	; (1394 <bget+0xf0>)
    12f8:	4827      	ldr	r0, [pc, #156]	; (1398 <bget+0xf4>)
    12fa:	447b      	add	r3, pc
    12fc:	3312      	adds	r3, #18
    12fe:	4479      	add	r1, pc
    1300:	4478      	add	r0, pc
    1302:	e7db      	b.n	12bc <bget+0x18>
/home/yin/imx-optee/imx-optee-os/lib/libutils/isoc/bget.c:653
    1304:	425a      	negs	r2, r3
/home/yin/imx-optee/imx-optee-os/lib/libutils/isoc/bget.c:649
    1306:	6041      	str	r1, [r0, #4]
/home/yin/imx-optee/imx-optee-os/lib/libutils/isoc/bget.c:651
    1308:	5041      	str	r1, [r0, r1]
/home/yin/imx-optee/imx-optee-os/lib/libutils/isoc/bget.c:661
    130a:	f104 0008 	add.w	r0, r4, #8
/home/yin/imx-optee/imx-optee-os/lib/libutils/isoc/bget.c:653
    130e:	6062      	str	r2, [r4, #4]
/home/yin/imx-optee/imx-optee-os/lib/libutils/isoc/bget.c:655
    1310:	2200      	movs	r2, #0
    1312:	50e2      	str	r2, [r4, r3]
/home/yin/imx-optee/imx-optee-os/lib/libutils/isoc/bget.c:663
    1314:	bd38      	pop	{r3, r4, r5, pc}
/home/yin/imx-optee/imx-optee-os/lib/libutils/isoc/bget.c:668
    1316:	5883      	ldr	r3, [r0, r2]
/home/yin/imx-optee/imx-optee-os/lib/libutils/isoc/bget.c:667
    1318:	1884      	adds	r4, r0, r2
/home/yin/imx-optee/imx-optee-os/lib/libutils/isoc/bget.c:668
    131a:	429a      	cmp	r2, r3
    131c:	d009      	beq.n	1332 <bget+0x8e>
/home/yin/imx-optee/imx-optee-os/lib/libutils/isoc/bget.c:668 (discriminator 1)
    131e:	4b1f      	ldr	r3, [pc, #124]	; (139c <bget+0xf8>)
    1320:	f44f 7227 	mov.w	r2, #668	; 0x29c
    1324:	491e      	ldr	r1, [pc, #120]	; (13a0 <bget+0xfc>)
    1326:	481f      	ldr	r0, [pc, #124]	; (13a4 <bget+0x100>)
    1328:	447b      	add	r3, pc
    132a:	3312      	adds	r3, #18
    132c:	4479      	add	r1, pc
    132e:	4478      	add	r0, pc
    1330:	e7c4      	b.n	12bc <bget+0x18>
/home/yin/imx-optee/imx-optee-os/lib/libutils/isoc/bget.c:673
    1332:	68c3      	ldr	r3, [r0, #12]
    1334:	6899      	ldr	r1, [r3, #8]
    1336:	4288      	cmp	r0, r1
    1338:	d009      	beq.n	134e <bget+0xaa>
/home/yin/imx-optee/imx-optee-os/lib/libutils/isoc/bget.c:673 (discriminator 1)
    133a:	4b1b      	ldr	r3, [pc, #108]	; (13a8 <bget+0x104>)
    133c:	f240 22a1 	movw	r2, #673	; 0x2a1
    1340:	491a      	ldr	r1, [pc, #104]	; (13ac <bget+0x108>)
    1342:	481b      	ldr	r0, [pc, #108]	; (13b0 <bget+0x10c>)
    1344:	447b      	add	r3, pc
    1346:	3312      	adds	r3, #18
    1348:	4479      	add	r1, pc
    134a:	4478      	add	r0, pc
    134c:	e7b6      	b.n	12bc <bget+0x18>
/home/yin/imx-optee/imx-optee-os/lib/libutils/isoc/bget.c:674
    134e:	6881      	ldr	r1, [r0, #8]
    1350:	68cd      	ldr	r5, [r1, #12]
    1352:	42a8      	cmp	r0, r5
    1354:	d009      	beq.n	136a <bget+0xc6>
/home/yin/imx-optee/imx-optee-os/lib/libutils/isoc/bget.c:674 (discriminator 1)
    1356:	4b17      	ldr	r3, [pc, #92]	; (13b4 <bget+0x110>)
    1358:	f240 22a2 	movw	r2, #674	; 0x2a2
    135c:	4916      	ldr	r1, [pc, #88]	; (13b8 <bget+0x114>)
    135e:	4817      	ldr	r0, [pc, #92]	; (13bc <bget+0x118>)
    1360:	447b      	add	r3, pc
    1362:	3312      	adds	r3, #18
    1364:	4479      	add	r1, pc
    1366:	4478      	add	r0, pc
    1368:	e7a8      	b.n	12bc <bget+0x18>
/home/yin/imx-optee/imx-optee-os/lib/libutils/isoc/bget.c:675
    136a:	6099      	str	r1, [r3, #8]
/home/yin/imx-optee/imx-optee-os/lib/libutils/isoc/bget.c:683
    136c:	4252      	negs	r2, r2
/home/yin/imx-optee/imx-optee-os/lib/libutils/isoc/bget.c:676
    136e:	6881      	ldr	r1, [r0, #8]
/home/yin/imx-optee/imx-optee-os/lib/libutils/isoc/bget.c:690
    1370:	3008      	adds	r0, #8
/home/yin/imx-optee/imx-optee-os/lib/libutils/isoc/bget.c:676
    1372:	60cb      	str	r3, [r1, #12]
/home/yin/imx-optee/imx-optee-os/lib/libutils/isoc/bget.c:687
    1374:	2300      	movs	r3, #0
/home/yin/imx-optee/imx-optee-os/lib/libutils/isoc/bget.c:683
    1376:	f840 2c04 	str.w	r2, [r0, #-4]
/home/yin/imx-optee/imx-optee-os/lib/libutils/isoc/bget.c:687
    137a:	6023      	str	r3, [r4, #0]
/home/yin/imx-optee/imx-optee-os/lib/libutils/isoc/bget.c:692
    137c:	bd38      	pop	{r3, r4, r5, pc}
/home/yin/imx-optee/imx-optee-os/lib/libutils/isoc/bget.c:695
    137e:	6880      	ldr	r0, [r0, #8]
    1380:	e7a8      	b.n	12d4 <bget+0x30>
    1382:	bf00      	nop
    1384:	00004c8d 	.word	0x00004c8d
    1388:	00004dde 	.word	0x00004dde
    138c:	00004f77 	.word	0x00004f77
    1390:	00004c47 	.word	0x00004c47
    1394:	00004d98 	.word	0x00004d98
    1398:	00004daf 	.word	0x00004daf
    139c:	00004c19 	.word	0x00004c19
    13a0:	00004d6a 	.word	0x00004d6a
    13a4:	00004d9d 	.word	0x00004d9d
    13a8:	00004bfd 	.word	0x00004bfd
    13ac:	00004d4e 	.word	0x00004d4e
    13b0:	00004d9d 	.word	0x00004d9d
    13b4:	00004be1 	.word	0x00004be1
    13b8:	00004d32 	.word	0x00004d32
    13bc:	00004d9c 	.word	0x00004d9c

000013c0 <bgetz>:
bgetz():
/home/yin/imx-optee/imx-optee-os/lib/libutils/isoc/bget.c:768
    13c0:	b538      	push	{r3, r4, r5, lr}
    13c2:	4605      	mov	r5, r0
/home/yin/imx-optee/imx-optee-os/lib/libutils/isoc/bget.c:769
    13c4:	f7ff ff6e 	bl	12a4 <bget>
/home/yin/imx-optee/imx-optee-os/lib/libutils/isoc/bget.c:771
    13c8:	4604      	mov	r4, r0
    13ca:	b1f0      	cbz	r0, 140a <bgetz+0x4a>
/home/yin/imx-optee/imx-optee-os/lib/libutils/isoc/bget.c:776
    13cc:	f850 2c04 	ldr.w	r2, [r0, #-4]
/home/yin/imx-optee/imx-optee-os/lib/libutils/isoc/bget.c:777
    13d0:	b98a      	cbnz	r2, 13f6 <bgetz+0x36>
/home/yin/imx-optee/imx-optee-os/lib/libutils/isoc/bget.c:781
    13d2:	f850 2c0c 	ldr.w	r2, [r0, #-12]
    13d6:	3a0c      	subs	r2, #12
/home/yin/imx-optee/imx-optee-os/lib/libutils/isoc/bget.c:785
    13d8:	42aa      	cmp	r2, r5
    13da:	da12      	bge.n	1402 <bgetz+0x42>
    13dc:	4b0c      	ldr	r3, [pc, #48]	; (1410 <bgetz+0x50>)
    13de:	f240 3211 	movw	r2, #785	; 0x311
    13e2:	490c      	ldr	r1, [pc, #48]	; (1414 <bgetz+0x54>)
    13e4:	480c      	ldr	r0, [pc, #48]	; (1418 <bgetz+0x58>)
    13e6:	447b      	add	r3, pc
    13e8:	3317      	adds	r3, #23
    13ea:	4479      	add	r1, pc
    13ec:	4478      	add	r0, pc
    13ee:	f001 ff0d 	bl	320c <_assert_log>
    13f2:	f001 ff1f 	bl	3234 <_assert_break>
/home/yin/imx-optee/imx-optee-os/lib/libutils/isoc/bget.c:783
    13f6:	f1c2 22ff 	rsb	r2, r2, #4278255360	; 0xff00ff00
    13fa:	f502 027f 	add.w	r2, r2, #16711680	; 0xff0000
    13fe:	32f8      	adds	r2, #248	; 0xf8
    1400:	e7ea      	b.n	13d8 <bgetz+0x18>
memset_unchecked():
/home/yin/imx-optee/imx-optee-os/lib/libutils/isoc/bget_malloc.c:141
    1402:	2100      	movs	r1, #0
    1404:	4620      	mov	r0, r4
    1406:	f001 ff6f 	bl	32e8 <memset>
bgetz():
/home/yin/imx-optee/imx-optee-os/lib/libutils/isoc/bget.c:789
    140a:	4620      	mov	r0, r4
    140c:	bd38      	pop	{r3, r4, r5, pc}
    140e:	bf00      	nop
    1410:	00004b5b 	.word	0x00004b5b
    1414:	00004cac 	.word	0x00004cac
    1418:	00004d31 	.word	0x00004d31

0000141c <brel>:
brel():
/home/yin/imx-optee/imx-optee-os/lib/libutils/isoc/bget.c:840
    141c:	b570      	push	{r4, r5, r6, lr}
/home/yin/imx-optee/imx-optee-os/lib/libutils/isoc/bget.c:844
    141e:	f1a0 0308 	sub.w	r3, r0, #8
/home/yin/imx-optee/imx-optee-os/lib/libutils/isoc/bget.c:848
    1422:	b960      	cbnz	r0, 143e <brel+0x22>
/home/yin/imx-optee/imx-optee-os/lib/libutils/isoc/bget.c:848 (discriminator 1)
    1424:	4b51      	ldr	r3, [pc, #324]	; (156c <brel+0x150>)
    1426:	f44f 7254 	mov.w	r2, #848	; 0x350
    142a:	4951      	ldr	r1, [pc, #324]	; (1570 <brel+0x154>)
    142c:	4851      	ldr	r0, [pc, #324]	; (1574 <brel+0x158>)
    142e:	447b      	add	r3, pc
    1430:	331d      	adds	r3, #29
    1432:	4479      	add	r1, pc
    1434:	4478      	add	r0, pc
/home/yin/imx-optee/imx-optee-os/lib/libutils/isoc/bget.c:879 (discriminator 1)
    1436:	f001 fee9 	bl	320c <_assert_log>
    143a:	f001 fefb 	bl	3234 <_assert_break>
/home/yin/imx-optee/imx-optee-os/lib/libutils/isoc/bget.c:876
    143e:	f850 2c04 	ldr.w	r2, [r0, #-4]
/home/yin/imx-optee/imx-optee-os/lib/libutils/isoc/bget.c:879
    1442:	2a00      	cmp	r2, #0
    1444:	db09      	blt.n	145a <brel+0x3e>
/home/yin/imx-optee/imx-optee-os/lib/libutils/isoc/bget.c:879 (discriminator 1)
    1446:	4b4c      	ldr	r3, [pc, #304]	; (1578 <brel+0x15c>)
    1448:	f240 326f 	movw	r2, #879	; 0x36f
    144c:	494b      	ldr	r1, [pc, #300]	; (157c <brel+0x160>)
    144e:	484c      	ldr	r0, [pc, #304]	; (1580 <brel+0x164>)
    1450:	447b      	add	r3, pc
    1452:	331d      	adds	r3, #29
    1454:	4479      	add	r1, pc
    1456:	4478      	add	r0, pc
    1458:	e7ed      	b.n	1436 <brel+0x1a>
/home/yin/imx-optee/imx-optee-os/lib/libutils/isoc/bget.c:885
    145a:	1a9c      	subs	r4, r3, r2
    145c:	6824      	ldr	r4, [r4, #0]
    145e:	b14c      	cbz	r4, 1474 <brel+0x58>
/home/yin/imx-optee/imx-optee-os/lib/libutils/isoc/bget.c:885 (discriminator 1)
    1460:	4b48      	ldr	r3, [pc, #288]	; (1584 <brel+0x168>)
    1462:	f240 3275 	movw	r2, #885	; 0x375
    1466:	4948      	ldr	r1, [pc, #288]	; (1588 <brel+0x16c>)
    1468:	4848      	ldr	r0, [pc, #288]	; (158c <brel+0x170>)
    146a:	447b      	add	r3, pc
    146c:	331d      	adds	r3, #29
    146e:	4479      	add	r1, pc
    1470:	4478      	add	r0, pc
    1472:	e7e0      	b.n	1436 <brel+0x1a>
/home/yin/imx-optee/imx-optee-os/lib/libutils/isoc/bget.c:894
    1474:	f850 4c08 	ldr.w	r4, [r0, #-8]
    1478:	b30c      	cbz	r4, 14be <brel+0xa2>
/home/yin/imx-optee/imx-optee-os/lib/libutils/isoc/bget.c:905
    147a:	1b1b      	subs	r3, r3, r4
    147c:	6859      	ldr	r1, [r3, #4]
    147e:	428c      	cmp	r4, r1
    1480:	d009      	beq.n	1496 <brel+0x7a>
/home/yin/imx-optee/imx-optee-os/lib/libutils/isoc/bget.c:905 (discriminator 1)
    1482:	4b43      	ldr	r3, [pc, #268]	; (1590 <brel+0x174>)
    1484:	f240 3289 	movw	r2, #905	; 0x389
    1488:	4942      	ldr	r1, [pc, #264]	; (1594 <brel+0x178>)
    148a:	4843      	ldr	r0, [pc, #268]	; (1598 <brel+0x17c>)
    148c:	447b      	add	r3, pc
    148e:	331d      	adds	r3, #29
    1490:	4479      	add	r1, pc
    1492:	4478      	add	r0, pc
    1494:	e7cf      	b.n	1436 <brel+0x1a>
/home/yin/imx-optee/imx-optee-os/lib/libutils/isoc/bget.c:907
    1496:	1aa2      	subs	r2, r4, r2
    1498:	605a      	str	r2, [r3, #4]
/home/yin/imx-optee/imx-optee-os/lib/libutils/isoc/bget.c:927
    149a:	6859      	ldr	r1, [r3, #4]
    149c:	185a      	adds	r2, r3, r1
/home/yin/imx-optee/imx-optee-os/lib/libutils/isoc/bget.c:928
    149e:	6850      	ldr	r0, [r2, #4]
    14a0:	2800      	cmp	r0, #0
    14a2:	dd53      	ble.n	154c <brel+0x130>
/home/yin/imx-optee/imx-optee-os/lib/libutils/isoc/bget.c:933
    14a4:	5814      	ldr	r4, [r2, r0]
    14a6:	42a0      	cmp	r0, r4
    14a8:	d02e      	beq.n	1508 <brel+0xec>
/home/yin/imx-optee/imx-optee-os/lib/libutils/isoc/bget.c:933 (discriminator 1)
    14aa:	4b3c      	ldr	r3, [pc, #240]	; (159c <brel+0x180>)
    14ac:	f240 32a5 	movw	r2, #933	; 0x3a5
    14b0:	493b      	ldr	r1, [pc, #236]	; (15a0 <brel+0x184>)
    14b2:	483c      	ldr	r0, [pc, #240]	; (15a4 <brel+0x188>)
    14b4:	447b      	add	r3, pc
    14b6:	331d      	adds	r3, #29
    14b8:	4479      	add	r1, pc
    14ba:	4478      	add	r0, pc
    14bc:	e7bb      	b.n	1436 <brel+0x1a>
/home/yin/imx-optee/imx-optee-os/lib/libutils/isoc/bget.c:913
    14be:	68cd      	ldr	r5, [r1, #12]
    14c0:	68ac      	ldr	r4, [r5, #8]
    14c2:	428c      	cmp	r4, r1
    14c4:	d009      	beq.n	14da <brel+0xbe>
/home/yin/imx-optee/imx-optee-os/lib/libutils/isoc/bget.c:913 (discriminator 1)
    14c6:	4b38      	ldr	r3, [pc, #224]	; (15a8 <brel+0x18c>)
    14c8:	f240 3291 	movw	r2, #913	; 0x391
    14cc:	4937      	ldr	r1, [pc, #220]	; (15ac <brel+0x190>)
    14ce:	4838      	ldr	r0, [pc, #224]	; (15b0 <brel+0x194>)
    14d0:	447b      	add	r3, pc
    14d2:	331d      	adds	r3, #29
    14d4:	4479      	add	r1, pc
    14d6:	4478      	add	r0, pc
    14d8:	e7ad      	b.n	1436 <brel+0x1a>
/home/yin/imx-optee/imx-optee-os/lib/libutils/isoc/bget.c:914
    14da:	68a1      	ldr	r1, [r4, #8]
    14dc:	68c9      	ldr	r1, [r1, #12]
    14de:	428c      	cmp	r4, r1
    14e0:	d009      	beq.n	14f6 <brel+0xda>
/home/yin/imx-optee/imx-optee-os/lib/libutils/isoc/bget.c:914 (discriminator 1)
    14e2:	4b34      	ldr	r3, [pc, #208]	; (15b4 <brel+0x198>)
    14e4:	f240 3292 	movw	r2, #914	; 0x392
    14e8:	4933      	ldr	r1, [pc, #204]	; (15b8 <brel+0x19c>)
    14ea:	4834      	ldr	r0, [pc, #208]	; (15bc <brel+0x1a0>)
    14ec:	447b      	add	r3, pc
    14ee:	331d      	adds	r3, #29
    14f0:	4479      	add	r1, pc
    14f2:	4478      	add	r0, pc
    14f4:	e79f      	b.n	1436 <brel+0x1a>
/home/yin/imx-optee/imx-optee-os/lib/libutils/isoc/bget.c:916
    14f6:	e880 0030 	stmia.w	r0, {r4, r5}
/home/yin/imx-optee/imx-optee-os/lib/libutils/isoc/bget.c:880
    14fa:	4252      	negs	r2, r2
/home/yin/imx-optee/imx-optee-os/lib/libutils/isoc/bget.c:917
    14fc:	60e3      	str	r3, [r4, #12]
/home/yin/imx-optee/imx-optee-os/lib/libutils/isoc/bget.c:918
    14fe:	6841      	ldr	r1, [r0, #4]
    1500:	608b      	str	r3, [r1, #8]
/home/yin/imx-optee/imx-optee-os/lib/libutils/isoc/bget.c:919
    1502:	f840 2c04 	str.w	r2, [r0, #-4]
    1506:	e7c8      	b.n	149a <brel+0x7e>
/home/yin/imx-optee/imx-optee-os/lib/libutils/isoc/bget.c:934
    1508:	68d4      	ldr	r4, [r2, #12]
    150a:	68a5      	ldr	r5, [r4, #8]
    150c:	42aa      	cmp	r2, r5
    150e:	d009      	beq.n	1524 <brel+0x108>
/home/yin/imx-optee/imx-optee-os/lib/libutils/isoc/bget.c:934 (discriminator 1)
    1510:	4b2b      	ldr	r3, [pc, #172]	; (15c0 <brel+0x1a4>)
    1512:	f240 32a6 	movw	r2, #934	; 0x3a6
    1516:	492b      	ldr	r1, [pc, #172]	; (15c4 <brel+0x1a8>)
    1518:	482b      	ldr	r0, [pc, #172]	; (15c8 <brel+0x1ac>)
    151a:	447b      	add	r3, pc
    151c:	331d      	adds	r3, #29
    151e:	4479      	add	r1, pc
    1520:	4478      	add	r0, pc
    1522:	e788      	b.n	1436 <brel+0x1a>
/home/yin/imx-optee/imx-optee-os/lib/libutils/isoc/bget.c:935
    1524:	6895      	ldr	r5, [r2, #8]
    1526:	68ee      	ldr	r6, [r5, #12]
    1528:	42b2      	cmp	r2, r6
    152a:	d009      	beq.n	1540 <brel+0x124>
/home/yin/imx-optee/imx-optee-os/lib/libutils/isoc/bget.c:935 (discriminator 1)
    152c:	4b27      	ldr	r3, [pc, #156]	; (15cc <brel+0x1b0>)
    152e:	f240 32a7 	movw	r2, #935	; 0x3a7
    1532:	4927      	ldr	r1, [pc, #156]	; (15d0 <brel+0x1b4>)
    1534:	4827      	ldr	r0, [pc, #156]	; (15d4 <brel+0x1b8>)
    1536:	447b      	add	r3, pc
    1538:	331d      	adds	r3, #29
    153a:	4479      	add	r1, pc
    153c:	4478      	add	r0, pc
    153e:	e77a      	b.n	1436 <brel+0x1a>
/home/yin/imx-optee/imx-optee-os/lib/libutils/isoc/bget.c:936
    1540:	60a5      	str	r5, [r4, #8]
/home/yin/imx-optee/imx-optee-os/lib/libutils/isoc/bget.c:937
    1542:	6892      	ldr	r2, [r2, #8]
    1544:	60d4      	str	r4, [r2, #12]
/home/yin/imx-optee/imx-optee-os/lib/libutils/isoc/bget.c:938
    1546:	180a      	adds	r2, r1, r0
    1548:	605a      	str	r2, [r3, #4]
/home/yin/imx-optee/imx-optee-os/lib/libutils/isoc/bget.c:947
    154a:	441a      	add	r2, r3
/home/yin/imx-optee/imx-optee-os/lib/libutils/isoc/bget.c:953
    154c:	6851      	ldr	r1, [r2, #4]
    154e:	2900      	cmp	r1, #0
    1550:	db09      	blt.n	1566 <brel+0x14a>
/home/yin/imx-optee/imx-optee-os/lib/libutils/isoc/bget.c:953 (discriminator 1)
    1552:	4b21      	ldr	r3, [pc, #132]	; (15d8 <brel+0x1bc>)
    1554:	f240 32b9 	movw	r2, #953	; 0x3b9
    1558:	4920      	ldr	r1, [pc, #128]	; (15dc <brel+0x1c0>)
    155a:	4821      	ldr	r0, [pc, #132]	; (15e0 <brel+0x1c4>)
    155c:	447b      	add	r3, pc
    155e:	331d      	adds	r3, #29
    1560:	4479      	add	r1, pc
    1562:	4478      	add	r0, pc
    1564:	e767      	b.n	1436 <brel+0x1a>
/home/yin/imx-optee/imx-optee-os/lib/libutils/isoc/bget.c:958
    1566:	685b      	ldr	r3, [r3, #4]
    1568:	6013      	str	r3, [r2, #0]
    156a:	bd70      	pop	{r4, r5, r6, pc}
    156c:	00004b13 	.word	0x00004b13
    1570:	00004c64 	.word	0x00004c64
    1574:	00004cf7 	.word	0x00004cf7
    1578:	00004af1 	.word	0x00004af1
    157c:	00004c42 	.word	0x00004c42
    1580:	00004ce1 	.word	0x00004ce1
    1584:	00004ad7 	.word	0x00004ad7
    1588:	00004c28 	.word	0x00004c28
    158c:	00004cd7 	.word	0x00004cd7
    1590:	00004ab5 	.word	0x00004ab5
    1594:	00004c06 	.word	0x00004c06
    1598:	00004ce1 	.word	0x00004ce1
    159c:	00004a8d 	.word	0x00004a8d
    15a0:	00004bde 	.word	0x00004bde
    15a4:	00004cf2 	.word	0x00004cf2
    15a8:	00004a71 	.word	0x00004a71
    15ac:	00004bc2 	.word	0x00004bc2
    15b0:	00004b4a 	.word	0x00004b4a
    15b4:	00004a55 	.word	0x00004a55
    15b8:	00004ba6 	.word	0x00004ba6
    15bc:	00004b69 	.word	0x00004b69
    15c0:	00004a27 	.word	0x00004a27
    15c4:	00004b78 	.word	0x00004b78
    15c8:	00004cc5 	.word	0x00004cc5
    15cc:	00004a0b 	.word	0x00004a0b
    15d0:	00004b5c 	.word	0x00004b5c
    15d4:	00004cc6 	.word	0x00004cc6
    15d8:	000049e5 	.word	0x000049e5
    15dc:	00004b36 	.word	0x00004b36
    15e0:	00004cbd 	.word	0x00004cbd

000015e4 <bgetr>:
bgetr():
/home/yin/imx-optee/imx-optee-os/lib/libutils/isoc/bget.c:800
    15e4:	e92d 41f0 	stmdb	sp!, {r4, r5, r6, r7, r8, lr}
    15e8:	460e      	mov	r6, r1
    15ea:	4605      	mov	r5, r0
/home/yin/imx-optee/imx-optee-os/lib/libutils/isoc/bget.c:805
    15ec:	4611      	mov	r1, r2
    15ee:	4630      	mov	r0, r6
/home/yin/imx-optee/imx-optee-os/lib/libutils/isoc/bget.c:800
    15f0:	4690      	mov	r8, r2
/home/yin/imx-optee/imx-optee-os/lib/libutils/isoc/bget.c:805
    15f2:	f7ff fe57 	bl	12a4 <bget>
    15f6:	4607      	mov	r7, r0
    15f8:	b340      	cbz	r0, 164c <bgetr+0x68>
/home/yin/imx-optee/imx-optee-os/lib/libutils/isoc/bget.c:808
    15fa:	b33d      	cbz	r5, 164c <bgetr+0x68>
    15fc:	f855 4c04 	ldr.w	r4, [r5, #-4]
    1600:	f1c4 24ff 	rsb	r4, r4, #4278255360	; 0xff00ff00
    1604:	f504 047f 	add.w	r4, r4, #16711680	; 0xff0000
    1608:	34f8      	adds	r4, #248	; 0xf8
/home/yin/imx-optee/imx-optee-os/lib/libutils/isoc/bget.c:823
    160a:	2c00      	cmp	r4, #0
    160c:	dc0c      	bgt.n	1628 <bgetr+0x44>
    160e:	4b11      	ldr	r3, [pc, #68]	; (1654 <bgetr+0x70>)
    1610:	f240 3237 	movw	r2, #823	; 0x337
    1614:	4910      	ldr	r1, [pc, #64]	; (1658 <bgetr+0x74>)
    1616:	4811      	ldr	r0, [pc, #68]	; (165c <bgetr+0x78>)
    1618:	447b      	add	r3, pc
    161a:	3322      	adds	r3, #34	; 0x22
    161c:	4479      	add	r1, pc
    161e:	4478      	add	r0, pc
    1620:	f001 fdf4 	bl	320c <_assert_log>
    1624:	f001 fe06 	bl	3234 <_assert_break>
/home/yin/imx-optee/imx-optee-os/lib/libutils/isoc/bget.c:824
    1628:	42a6      	cmp	r6, r4
    162a:	4632      	mov	r2, r6
    162c:	4629      	mov	r1, r5
    162e:	bfa8      	it	ge
    1630:	4622      	movge	r2, r4
    1632:	f001 fe34 	bl	329e <memcpy>
/home/yin/imx-optee/imx-optee-os/lib/libutils/isoc/bget.c:828
    1636:	42a6      	cmp	r6, r4
    1638:	dd04      	ble.n	1644 <bgetr+0x60>
/home/yin/imx-optee/imx-optee-os/lib/libutils/isoc/bget.c:829
    163a:	1b32      	subs	r2, r6, r4
    163c:	2100      	movs	r1, #0
    163e:	1938      	adds	r0, r7, r4
    1640:	f001 fe52 	bl	32e8 <memset>
/home/yin/imx-optee/imx-optee-os/lib/libutils/isoc/bget.c:831
    1644:	4641      	mov	r1, r8
    1646:	4628      	mov	r0, r5
    1648:	f7ff fee8 	bl	141c <brel>
/home/yin/imx-optee/imx-optee-os/lib/libutils/isoc/bget.c:833
    164c:	4638      	mov	r0, r7
    164e:	e8bd 81f0 	ldmia.w	sp!, {r4, r5, r6, r7, r8, pc}
    1652:	bf00      	nop
    1654:	00004929 	.word	0x00004929
    1658:	00004a7a 	.word	0x00004a7a
    165c:	00004c12 	.word	0x00004c12

00001660 <bpool>:
bpool():
/home/yin/imx-optee/imx-optee-os/lib/libutils/isoc/bget.c:1017
    1660:	f021 0107 	bic.w	r1, r1, #7
/home/yin/imx-optee/imx-optee-os/lib/libutils/isoc/bget.c:1012
    1664:	b510      	push	{r4, lr}
/home/yin/imx-optee/imx-optee-os/lib/libutils/isoc/bget.c:1036
    1666:	3908      	subs	r1, #8
    1668:	d50c      	bpl.n	1684 <bpool+0x24>
    166a:	4b1b      	ldr	r3, [pc, #108]	; (16d8 <bpool+0x78>)
    166c:	f240 420c 	movw	r2, #1036	; 0x40c
    1670:	491a      	ldr	r1, [pc, #104]	; (16dc <bpool+0x7c>)
    1672:	481b      	ldr	r0, [pc, #108]	; (16e0 <bpool+0x80>)
    1674:	447b      	add	r3, pc
    1676:	3328      	adds	r3, #40	; 0x28
    1678:	4479      	add	r1, pc
    167a:	4478      	add	r0, pc
/home/yin/imx-optee/imx-optee-os/lib/libutils/isoc/bget.c:1046 (discriminator 1)
    167c:	f001 fdc6 	bl	320c <_assert_log>
    1680:	f001 fdd8 	bl	3234 <_assert_break>
/home/yin/imx-optee/imx-optee-os/lib/libutils/isoc/bget.c:1046
    1684:	68d4      	ldr	r4, [r2, #12]
/home/yin/imx-optee/imx-optee-os/lib/libutils/isoc/bget.c:1042
    1686:	2300      	movs	r3, #0
    1688:	6003      	str	r3, [r0, #0]
/home/yin/imx-optee/imx-optee-os/lib/libutils/isoc/bget.c:1046
    168a:	68a3      	ldr	r3, [r4, #8]
    168c:	4293      	cmp	r3, r2
    168e:	d009      	beq.n	16a4 <bpool+0x44>
/home/yin/imx-optee/imx-optee-os/lib/libutils/isoc/bget.c:1046 (discriminator 1)
    1690:	4b14      	ldr	r3, [pc, #80]	; (16e4 <bpool+0x84>)
    1692:	f240 4216 	movw	r2, #1046	; 0x416
    1696:	4914      	ldr	r1, [pc, #80]	; (16e8 <bpool+0x88>)
    1698:	4814      	ldr	r0, [pc, #80]	; (16ec <bpool+0x8c>)
    169a:	447b      	add	r3, pc
    169c:	3328      	adds	r3, #40	; 0x28
    169e:	4479      	add	r1, pc
    16a0:	4478      	add	r0, pc
    16a2:	e7eb      	b.n	167c <bpool+0x1c>
/home/yin/imx-optee/imx-optee-os/lib/libutils/isoc/bget.c:1047
    16a4:	689a      	ldr	r2, [r3, #8]
    16a6:	68d2      	ldr	r2, [r2, #12]
    16a8:	4293      	cmp	r3, r2
    16aa:	d009      	beq.n	16c0 <bpool+0x60>
/home/yin/imx-optee/imx-optee-os/lib/libutils/isoc/bget.c:1047 (discriminator 1)
    16ac:	4b10      	ldr	r3, [pc, #64]	; (16f0 <bpool+0x90>)
    16ae:	f240 4217 	movw	r2, #1047	; 0x417
    16b2:	4910      	ldr	r1, [pc, #64]	; (16f4 <bpool+0x94>)
    16b4:	4810      	ldr	r0, [pc, #64]	; (16f8 <bpool+0x98>)
    16b6:	447b      	add	r3, pc
    16b8:	3328      	adds	r3, #40	; 0x28
    16ba:	4479      	add	r1, pc
    16bc:	4478      	add	r0, pc
    16be:	e7dd      	b.n	167c <bpool+0x1c>
/home/yin/imx-optee/imx-optee-os/lib/libutils/isoc/bget.c:1048
    16c0:	6083      	str	r3, [r0, #8]
/home/yin/imx-optee/imx-optee-os/lib/libutils/isoc/bget.c:1071
    16c2:	f04f 4200 	mov.w	r2, #2147483648	; 0x80000000
/home/yin/imx-optee/imx-optee-os/lib/libutils/isoc/bget.c:1049
    16c6:	60c4      	str	r4, [r0, #12]
/home/yin/imx-optee/imx-optee-os/lib/libutils/isoc/bget.c:1050
    16c8:	60d8      	str	r0, [r3, #12]
/home/yin/imx-optee/imx-optee-os/lib/libutils/isoc/bget.c:1051
    16ca:	68c3      	ldr	r3, [r0, #12]
    16cc:	6098      	str	r0, [r3, #8]
/home/yin/imx-optee/imx-optee-os/lib/libutils/isoc/bget.c:1067
    16ce:	1843      	adds	r3, r0, r1
/home/yin/imx-optee/imx-optee-os/lib/libutils/isoc/bget.c:1062
    16d0:	6041      	str	r1, [r0, #4]
/home/yin/imx-optee/imx-optee-os/lib/libutils/isoc/bget.c:1068
    16d2:	5041      	str	r1, [r0, r1]
/home/yin/imx-optee/imx-optee-os/lib/libutils/isoc/bget.c:1071
    16d4:	605a      	str	r2, [r3, #4]
    16d6:	bd10      	pop	{r4, pc}
    16d8:	000048cd 	.word	0x000048cd
    16dc:	00004a1e 	.word	0x00004a1e
    16e0:	00004bc0 	.word	0x00004bc0
    16e4:	000048a7 	.word	0x000048a7
    16e8:	000049f8 	.word	0x000049f8
    16ec:	00004980 	.word	0x00004980
    16f0:	0000488b 	.word	0x0000488b
    16f4:	000049dc 	.word	0x000049dc
    16f8:	0000499f 	.word	0x0000499f

000016fc <malloc>:
raw_malloc():
/home/yin/imx-optee/imx-optee-os/lib/libutils/isoc/bget_malloc.c:304
    16fc:	2800      	cmp	r0, #0
    16fe:	db05      	blt.n	170c <malloc+0x10>
/home/yin/imx-optee/imx-optee-os/lib/libutils/isoc/bget_malloc.c:313
    1700:	4903      	ldr	r1, [pc, #12]	; (1710 <malloc+0x14>)
    1702:	bf08      	it	eq
    1704:	2001      	moveq	r0, #1
    1706:	4479      	add	r1, pc
    1708:	f7ff bdcc 	b.w	12a4 <bget>
malloc():
/home/yin/imx-optee/imx-optee-os/lib/libutils/isoc/bget_malloc.c:825
    170c:	2000      	movs	r0, #0
    170e:	4770      	bx	lr
    1710:	00005972 	.word	0x00005972

00001714 <free>:
raw_free():
/home/yin/imx-optee/imx-optee-os/lib/libutils/isoc/bget_malloc.c:324
    1714:	b118      	cbz	r0, 171e <free+0xa>
/home/yin/imx-optee/imx-optee-os/lib/libutils/isoc/bget_malloc.c:325
    1716:	4902      	ldr	r1, [pc, #8]	; (1720 <free+0xc>)
    1718:	4479      	add	r1, pc
    171a:	f7ff be7f 	b.w	141c <brel>
    171e:	4770      	bx	lr
    1720:	00005960 	.word	0x00005960

00001724 <calloc>:
raw_calloc():
/home/yin/imx-optee/imx-optee-os/lib/libutils/isoc/bget_malloc.c:337
    1724:	fba0 2301 	umull	r2, r3, r0, r1
    1728:	2a00      	cmp	r2, #0
    172a:	bfa8      	it	ge
    172c:	2b00      	cmpge	r3, #0
    172e:	4610      	mov	r0, r2
    1730:	d107      	bne.n	1742 <calloc+0x1e>
/home/yin/imx-optee/imx-optee-os/lib/libutils/isoc/bget_malloc.c:348
    1732:	4905      	ldr	r1, [pc, #20]	; (1748 <calloc+0x24>)
/home/yin/imx-optee/imx-optee-os/lib/libutils/isoc/bget_malloc.c:345
    1734:	2a00      	cmp	r2, #0
/home/yin/imx-optee/imx-optee-os/lib/libutils/isoc/bget_malloc.c:348
    1736:	bf14      	ite	ne
    1738:	4610      	movne	r0, r2
    173a:	2001      	moveq	r0, #1
    173c:	4479      	add	r1, pc
    173e:	f7ff be3f 	b.w	13c0 <bgetz>
calloc():
/home/yin/imx-optee/imx-optee-os/lib/libutils/isoc/bget_malloc.c:843
    1742:	2000      	movs	r0, #0
    1744:	4770      	bx	lr
    1746:	bf00      	nop
    1748:	0000593c 	.word	0x0000593c

0000174c <realloc>:
raw_realloc():
/home/yin/imx-optee/imx-optee-os/lib/libutils/isoc/bget_malloc.c:362
    174c:	2900      	cmp	r1, #0
    174e:	db05      	blt.n	175c <realloc+0x10>
/home/yin/imx-optee/imx-optee-os/lib/libutils/isoc/bget_malloc.c:373
    1750:	4a03      	ldr	r2, [pc, #12]	; (1760 <realloc+0x14>)
    1752:	bf08      	it	eq
    1754:	2101      	moveq	r1, #1
    1756:	447a      	add	r2, pc
    1758:	f7ff bf44 	b.w	15e4 <bgetr>
realloc():
/home/yin/imx-optee/imx-optee-os/lib/libutils/isoc/bget_malloc.c:858
    175c:	2000      	movs	r0, #0
    175e:	4770      	bx	lr
    1760:	00005922 	.word	0x00005922

00001764 <memalign>:
memalign():
/home/yin/imx-optee/imx-optee-os/lib/libutils/isoc/bget_malloc.c:861
    1764:	b5f8      	push	{r3, r4, r5, r6, r7, lr}
    1766:	460c      	mov	r4, r1
raw_memalign():
/home/yin/imx-optee/imx-optee-os/lib/libutils/isoc/bget_malloc.c:536
    1768:	4605      	mov	r5, r0
    176a:	b1b0      	cbz	r0, 179a <memalign+0x36>
    176c:	4246      	negs	r6, r0
    176e:	ea30 0306 	bics.w	r3, r0, r6
    1772:	d112      	bne.n	179a <memalign+0x36>
/home/yin/imx-optee/imx-optee-os/lib/libutils/isoc/bget_malloc.c:543
    1774:	2808      	cmp	r0, #8
    1776:	d80a      	bhi.n	178e <memalign+0x2a>
raw_malloc():
/home/yin/imx-optee/imx-optee-os/lib/libutils/isoc/bget_malloc.c:304
    1778:	2900      	cmp	r1, #0
    177a:	db0e      	blt.n	179a <memalign+0x36>
/home/yin/imx-optee/imx-optee-os/lib/libutils/isoc/bget_malloc.c:313
    177c:	496f      	ldr	r1, [pc, #444]	; (193c <memalign+0x1d8>)
    177e:	bf14      	ite	ne
    1780:	4620      	movne	r0, r4
    1782:	2001      	moveq	r0, #1
memalign():
/home/yin/imx-optee/imx-optee-os/lib/libutils/isoc/bget_malloc.c:868
    1784:	e8bd 40f8 	ldmia.w	sp!, {r3, r4, r5, r6, r7, lr}
raw_malloc():
/home/yin/imx-optee/imx-optee-os/lib/libutils/isoc/bget_malloc.c:313
    1788:	4479      	add	r1, pc
    178a:	f7ff bd8b 	b.w	12a4 <bget>
    178e:	f101 0710 	add.w	r7, r1, #16
    1792:	19c7      	adds	r7, r0, r7
    1794:	d201      	bcs.n	179a <memalign+0x36>
raw_memalign():
/home/yin/imx-optee/imx-optee-os/lib/libutils/isoc/bget_malloc.c:550
    1796:	42b9      	cmp	r1, r7
    1798:	d901      	bls.n	179e <memalign+0x3a>
/home/yin/imx-optee/imx-optee-os/lib/libutils/isoc/bget_malloc.c:537
    179a:	2000      	movs	r0, #0
memalign():
/home/yin/imx-optee/imx-optee-os/lib/libutils/isoc/bget_malloc.c:868
    179c:	bdf8      	pop	{r3, r4, r5, r6, r7, pc}
raw_memalign():
/home/yin/imx-optee/imx-optee-os/lib/libutils/isoc/bget_malloc.c:553
    179e:	4968      	ldr	r1, [pc, #416]	; (1940 <memalign+0x1dc>)
    17a0:	4638      	mov	r0, r7
    17a2:	4479      	add	r1, pc
    17a4:	f7ff fd7e 	bl	12a4 <bget>
/home/yin/imx-optee/imx-optee-os/lib/libutils/isoc/bget_malloc.c:554
    17a8:	4603      	mov	r3, r0
    17aa:	2800      	cmp	r0, #0
    17ac:	f000 80c3 	beq.w	1936 <memalign+0x1d2>
/home/yin/imx-optee/imx-optee-os/lib/libutils/isoc/bget_malloc.c:557
    17b0:	1e6a      	subs	r2, r5, #1
    17b2:	4210      	tst	r0, r2
    17b4:	d068      	beq.n	1888 <memalign+0x124>
/home/yin/imx-optee/imx-optee-os/lib/libutils/isoc/bget_malloc.c:570
    17b6:	1828      	adds	r0, r5, r0
/home/yin/imx-optee/imx-optee-os/lib/libutils/isoc/bget_malloc.c:575
    17b8:	441f      	add	r7, r3
/home/yin/imx-optee/imx-optee-os/lib/libutils/isoc/bget_malloc.c:571
    17ba:	4006      	ands	r6, r0
/home/yin/imx-optee/imx-optee-os/lib/libutils/isoc/bget_malloc.c:573
    17bc:	1af2      	subs	r2, r6, r3
    17be:	2a0f      	cmp	r2, #15
/home/yin/imx-optee/imx-optee-os/lib/libutils/isoc/bget_malloc.c:574
    17c0:	bf98      	it	ls
    17c2:	1976      	addls	r6, r6, r5
/home/yin/imx-optee/imx-optee-os/lib/libutils/isoc/bget_malloc.c:575
    17c4:	19a2      	adds	r2, r4, r6
    17c6:	42ba      	cmp	r2, r7
    17c8:	d90c      	bls.n	17e4 <memalign+0x80>
    17ca:	4b5e      	ldr	r3, [pc, #376]	; (1944 <memalign+0x1e0>)
    17cc:	f240 223f 	movw	r2, #575	; 0x23f
    17d0:	495d      	ldr	r1, [pc, #372]	; (1948 <memalign+0x1e4>)
    17d2:	485e      	ldr	r0, [pc, #376]	; (194c <memalign+0x1e8>)
    17d4:	447b      	add	r3, pc
    17d6:	332e      	adds	r3, #46	; 0x2e
    17d8:	4479      	add	r1, pc
    17da:	4478      	add	r0, pc
brel_after():
/home/yin/imx-optee/imx-optee-os/lib/libutils/isoc/bget_malloc.c:507
    17dc:	f001 fd16 	bl	320c <_assert_log>
    17e0:	f001 fd28 	bl	3234 <_assert_break>
brel_before():
/home/yin/imx-optee/imx-optee-os/lib/libutils/isoc/bget_malloc.c:411
    17e4:	42b3      	cmp	r3, r6
    17e6:	d309      	bcc.n	17fc <memalign+0x98>
    17e8:	4b59      	ldr	r3, [pc, #356]	; (1950 <memalign+0x1ec>)
    17ea:	f240 129b 	movw	r2, #411	; 0x19b
    17ee:	4959      	ldr	r1, [pc, #356]	; (1954 <memalign+0x1f0>)
    17f0:	4859      	ldr	r0, [pc, #356]	; (1958 <memalign+0x1f4>)
    17f2:	447b      	add	r3, pc
    17f4:	333b      	adds	r3, #59	; 0x3b
    17f6:	4479      	add	r1, pc
    17f8:	4478      	add	r0, pc
    17fa:	e7ef      	b.n	17dc <memalign+0x78>
/home/yin/imx-optee/imx-optee-os/lib/libutils/isoc/bget_malloc.c:413
    17fc:	1af1      	subs	r1, r6, r3
/home/yin/imx-optee/imx-optee-os/lib/libutils/isoc/bget_malloc.c:414
    17fe:	290f      	cmp	r1, #15
    1800:	d809      	bhi.n	1816 <memalign+0xb2>
    1802:	4b56      	ldr	r3, [pc, #344]	; (195c <memalign+0x1f8>)
    1804:	f44f 72cf 	mov.w	r2, #414	; 0x19e
    1808:	4955      	ldr	r1, [pc, #340]	; (1960 <memalign+0x1fc>)
    180a:	4856      	ldr	r0, [pc, #344]	; (1964 <memalign+0x200>)
    180c:	447b      	add	r3, pc
    180e:	333b      	adds	r3, #59	; 0x3b
    1810:	4479      	add	r1, pc
    1812:	4478      	add	r0, pc
    1814:	e7e2      	b.n	17dc <memalign+0x78>
/home/yin/imx-optee/imx-optee-os/lib/libutils/isoc/bget_malloc.c:418
    1816:	f853 2c04 	ldr.w	r2, [r3, #-4]
/home/yin/imx-optee/imx-optee-os/lib/libutils/isoc/bget_malloc.c:417
    181a:	f1a3 0008 	sub.w	r0, r3, #8
/home/yin/imx-optee/imx-optee-os/lib/libutils/isoc/bget_malloc.c:423
    181e:	f853 3c08 	ldr.w	r3, [r3, #-8]
    1822:	440a      	add	r2, r1
    1824:	b343      	cbz	r3, 1878 <memalign+0x114>
/home/yin/imx-optee/imx-optee-os/lib/libutils/isoc/bget_malloc.c:428
    1826:	1ac0      	subs	r0, r0, r3
/home/yin/imx-optee/imx-optee-os/lib/libutils/isoc/bget_malloc.c:429
    1828:	6845      	ldr	r5, [r0, #4]
    182a:	42ab      	cmp	r3, r5
    182c:	d009      	beq.n	1842 <memalign+0xde>
    182e:	4b4e      	ldr	r3, [pc, #312]	; (1968 <memalign+0x204>)
    1830:	f240 12ad 	movw	r2, #429	; 0x1ad
    1834:	494d      	ldr	r1, [pc, #308]	; (196c <memalign+0x208>)
    1836:	484e      	ldr	r0, [pc, #312]	; (1970 <memalign+0x20c>)
    1838:	447b      	add	r3, pc
    183a:	333b      	adds	r3, #59	; 0x3b
    183c:	4479      	add	r1, pc
    183e:	4478      	add	r0, pc
    1840:	e7cc      	b.n	17dc <memalign+0x78>
/home/yin/imx-optee/imx-optee-os/lib/libutils/isoc/bget_malloc.c:430
    1842:	4419      	add	r1, r3
    1844:	6041      	str	r1, [r0, #4]
/home/yin/imx-optee/imx-optee-os/lib/libutils/isoc/bget_malloc.c:435
    1846:	e906 0006 	stmdb	r6, {r1, r2}
brel_after():
/home/yin/imx-optee/imx-optee-os/lib/libutils/isoc/bget_malloc.c:467
    184a:	2c08      	cmp	r4, #8
    184c:	bf38      	it	cc
    184e:	2408      	movcc	r4, #8
    1850:	1de0      	adds	r0, r4, #7
/home/yin/imx-optee/imx-optee-os/lib/libutils/isoc/bget_malloc.c:471
    1852:	f856 4c04 	ldr.w	r4, [r6, #-4]
/home/yin/imx-optee/imx-optee-os/lib/libutils/isoc/bget_malloc.c:467
    1856:	f020 0007 	bic.w	r0, r0, #7
/home/yin/imx-optee/imx-optee-os/lib/libutils/isoc/bget_malloc.c:470
    185a:	f100 0308 	add.w	r3, r0, #8
/home/yin/imx-optee/imx-optee-os/lib/libutils/isoc/bget_malloc.c:471
    185e:	4261      	negs	r1, r4
    1860:	428b      	cmp	r3, r1
    1862:	dd13      	ble.n	188c <memalign+0x128>
    1864:	4b43      	ldr	r3, [pc, #268]	; (1974 <memalign+0x210>)
    1866:	f240 12d7 	movw	r2, #471	; 0x1d7
    186a:	4943      	ldr	r1, [pc, #268]	; (1978 <memalign+0x214>)
    186c:	4843      	ldr	r0, [pc, #268]	; (197c <memalign+0x218>)
    186e:	447b      	add	r3, pc
    1870:	3347      	adds	r3, #71	; 0x47
    1872:	4479      	add	r1, pc
    1874:	4478      	add	r0, pc
    1876:	e7b1      	b.n	17dc <memalign+0x78>
brel_before():
/home/yin/imx-optee/imx-optee-os/lib/libutils/isoc/bget_malloc.c:443
    1878:	f846 2c04 	str.w	r2, [r6, #-4]
/home/yin/imx-optee/imx-optee-os/lib/libutils/isoc/bget_malloc.c:444
    187c:	4632      	mov	r2, r6
    187e:	f842 3d08 	str.w	r3, [r2, #-8]!
/home/yin/imx-optee/imx-optee-os/lib/libutils/isoc/bget_malloc.c:446
    1882:	f7ff fca3 	bl	11cc <create_free_block.constprop.11>
    1886:	e7e0      	b.n	184a <memalign+0xe6>
raw_memalign():
/home/yin/imx-optee/imx-optee-os/lib/libutils/isoc/bget_malloc.c:557
    1888:	4606      	mov	r6, r0
    188a:	e7de      	b.n	184a <memalign+0xe6>
brel_after():
/home/yin/imx-optee/imx-optee-os/lib/libutils/isoc/bget_malloc.c:477
    188c:	1ac9      	subs	r1, r1, r3
/home/yin/imx-optee/imx-optee-os/lib/libutils/isoc/bget_malloc.c:478
    188e:	290f      	cmp	r1, #15
    1890:	dd4c      	ble.n	192c <memalign+0x1c8>
/home/yin/imx-optee/imx-optee-os/lib/libutils/isoc/bget_malloc.c:481
    1892:	f1c4 24ff 	rsb	r4, r4, #4278255360	; 0xff00ff00
/home/yin/imx-optee/imx-optee-os/lib/libutils/isoc/bget_malloc.c:485
    1896:	425b      	negs	r3, r3
/home/yin/imx-optee/imx-optee-os/lib/libutils/isoc/bget_malloc.c:481
    1898:	f504 047f 	add.w	r4, r4, #16711680	; 0xff0000
/home/yin/imx-optee/imx-optee-os/lib/libutils/isoc/bget_malloc.c:485
    189c:	f846 3c04 	str.w	r3, [r6, #-4]
/home/yin/imx-optee/imx-optee-os/lib/libutils/isoc/bget_malloc.c:481
    18a0:	34f8      	adds	r4, #248	; 0xf8
    18a2:	4430      	add	r0, r6
    18a4:	1932      	adds	r2, r6, r4
/home/yin/imx-optee/imx-optee-os/lib/libutils/isoc/bget_malloc.c:486
    18a6:	6853      	ldr	r3, [r2, #4]
    18a8:	2b00      	cmp	r3, #0
    18aa:	dd41      	ble.n	1930 <memalign+0x1cc>
/home/yin/imx-optee/imx-optee-os/lib/libutils/isoc/bget_malloc.c:492
    18ac:	5934      	ldr	r4, [r6, r4]
    18ae:	b14c      	cbz	r4, 18c4 <memalign+0x160>
    18b0:	4b33      	ldr	r3, [pc, #204]	; (1980 <memalign+0x21c>)
    18b2:	f44f 72f6 	mov.w	r2, #492	; 0x1ec
    18b6:	4933      	ldr	r1, [pc, #204]	; (1984 <memalign+0x220>)
    18b8:	4833      	ldr	r0, [pc, #204]	; (1988 <memalign+0x224>)
    18ba:	447b      	add	r3, pc
    18bc:	3347      	adds	r3, #71	; 0x47
    18be:	4479      	add	r1, pc
    18c0:	4478      	add	r0, pc
    18c2:	e78b      	b.n	17dc <memalign+0x78>
/home/yin/imx-optee/imx-optee-os/lib/libutils/isoc/bget_malloc.c:493
    18c4:	58d5      	ldr	r5, [r2, r3]
    18c6:	42ab      	cmp	r3, r5
    18c8:	d009      	beq.n	18de <memalign+0x17a>
    18ca:	4b30      	ldr	r3, [pc, #192]	; (198c <memalign+0x228>)
    18cc:	f240 12ed 	movw	r2, #493	; 0x1ed
    18d0:	492f      	ldr	r1, [pc, #188]	; (1990 <memalign+0x22c>)
    18d2:	4830      	ldr	r0, [pc, #192]	; (1994 <memalign+0x230>)
    18d4:	447b      	add	r3, pc
    18d6:	3347      	adds	r3, #71	; 0x47
    18d8:	4479      	add	r1, pc
    18da:	4478      	add	r0, pc
    18dc:	e77e      	b.n	17dc <memalign+0x78>
/home/yin/imx-optee/imx-optee-os/lib/libutils/isoc/bget_malloc.c:496
    18de:	6004      	str	r4, [r0, #0]
/home/yin/imx-optee/imx-optee-os/lib/libutils/isoc/bget_malloc.c:497
    18e0:	18cc      	adds	r4, r1, r3
    18e2:	6044      	str	r4, [r0, #4]
/home/yin/imx-optee/imx-optee-os/lib/libutils/isoc/bget_malloc.c:500
    18e4:	58d4      	ldr	r4, [r2, r3]
    18e6:	4421      	add	r1, r4
    18e8:	50d1      	str	r1, [r2, r3]
/home/yin/imx-optee/imx-optee-os/lib/libutils/isoc/bget_malloc.c:506
    18ea:	68d3      	ldr	r3, [r2, #12]
    18ec:	6899      	ldr	r1, [r3, #8]
    18ee:	428a      	cmp	r2, r1
    18f0:	d009      	beq.n	1906 <memalign+0x1a2>
    18f2:	4b29      	ldr	r3, [pc, #164]	; (1998 <memalign+0x234>)
    18f4:	f44f 72fd 	mov.w	r2, #506	; 0x1fa
    18f8:	4928      	ldr	r1, [pc, #160]	; (199c <memalign+0x238>)
    18fa:	4829      	ldr	r0, [pc, #164]	; (19a0 <memalign+0x23c>)
    18fc:	447b      	add	r3, pc
    18fe:	3347      	adds	r3, #71	; 0x47
    1900:	4479      	add	r1, pc
    1902:	4478      	add	r0, pc
    1904:	e76a      	b.n	17dc <memalign+0x78>
/home/yin/imx-optee/imx-optee-os/lib/libutils/isoc/bget_malloc.c:507
    1906:	6891      	ldr	r1, [r2, #8]
    1908:	68cc      	ldr	r4, [r1, #12]
    190a:	42a2      	cmp	r2, r4
    190c:	d009      	beq.n	1922 <memalign+0x1be>
    190e:	4b25      	ldr	r3, [pc, #148]	; (19a4 <memalign+0x240>)
    1910:	f240 12fb 	movw	r2, #507	; 0x1fb
    1914:	4924      	ldr	r1, [pc, #144]	; (19a8 <memalign+0x244>)
    1916:	4825      	ldr	r0, [pc, #148]	; (19ac <memalign+0x248>)
    1918:	447b      	add	r3, pc
    191a:	3347      	adds	r3, #71	; 0x47
    191c:	4479      	add	r1, pc
    191e:	4478      	add	r0, pc
    1920:	e75c      	b.n	17dc <memalign+0x78>
/home/yin/imx-optee/imx-optee-os/lib/libutils/isoc/bget_malloc.c:510
    1922:	60c3      	str	r3, [r0, #12]
/home/yin/imx-optee/imx-optee-os/lib/libutils/isoc/bget_malloc.c:511
    1924:	6081      	str	r1, [r0, #8]
/home/yin/imx-optee/imx-optee-os/lib/libutils/isoc/bget_malloc.c:514
    1926:	6098      	str	r0, [r3, #8]
/home/yin/imx-optee/imx-optee-os/lib/libutils/isoc/bget_malloc.c:515
    1928:	6883      	ldr	r3, [r0, #8]
    192a:	60d8      	str	r0, [r3, #12]
raw_memalign():
/home/yin/imx-optee/imx-optee-os/lib/libutils/isoc/bget_malloc.c:590
    192c:	4630      	mov	r0, r6
    192e:	bdf8      	pop	{r3, r4, r5, r6, r7, pc}
brel_after():
/home/yin/imx-optee/imx-optee-os/lib/libutils/isoc/bget_malloc.c:518
    1930:	f7ff fc4c 	bl	11cc <create_free_block.constprop.11>
    1934:	e7fa      	b.n	192c <memalign+0x1c8>
raw_memalign():
/home/yin/imx-optee/imx-optee-os/lib/libutils/isoc/bget_malloc.c:554
    1936:	4606      	mov	r6, r0
    1938:	e7f8      	b.n	192c <memalign+0x1c8>
    193a:	bf00      	nop
    193c:	000058f0 	.word	0x000058f0
    1940:	000058d6 	.word	0x000058d6
    1944:	0000476d 	.word	0x0000476d
    1948:	000047ec 	.word	0x000047ec
    194c:	00004a95 	.word	0x00004a95
    1950:	0000474f 	.word	0x0000474f
    1954:	000047ce 	.word	0x000047ce
    1958:	00004aa3 	.word	0x00004aa3
    195c:	00004735 	.word	0x00004735
    1960:	000047b4 	.word	0x000047b4
    1964:	00004a9c 	.word	0x00004a9c
    1968:	00004709 	.word	0x00004709
    196c:	00004788 	.word	0x00004788
    1970:	00004a97 	.word	0x00004a97
    1974:	000046d3 	.word	0x000046d3
    1978:	00004752 	.word	0x00004752
    197c:	00004a82 	.word	0x00004a82
    1980:	00004687 	.word	0x00004687
    1984:	00004706 	.word	0x00004706
    1988:	00004a4c 	.word	0x00004a4c
    198c:	0000466d 	.word	0x0000466d
    1990:	000046ec 	.word	0x000046ec
    1994:	00004a48 	.word	0x00004a48
    1998:	00004645 	.word	0x00004645
    199c:	000046c4 	.word	0x000046c4
    19a0:	00004a3f 	.word	0x00004a3f
    19a4:	00004629 	.word	0x00004629
    19a8:	000046a8 	.word	0x000046a8
    19ac:	00004a42 	.word	0x00004a42

000019b0 <malloc_add_pool>:
malloc_add_pool():
/home/yin/imx-optee/imx-optee-os/lib/libutils/isoc/bget_malloc.c:879
    19b0:	e92d 41f3 	stmdb	sp!, {r0, r1, r4, r5, r6, r7, r8, lr}
/home/yin/imx-optee/imx-optee-os/lib/libutils/isoc/bget_malloc.c:884
    19b4:	1845      	adds	r5, r0, r1
/home/yin/imx-optee/imx-optee-os/lib/libutils/isoc/bget_malloc.c:890
    19b6:	3007      	adds	r0, #7
/home/yin/imx-optee/imx-optee-os/lib/libutils/isoc/bget_malloc.c:891
    19b8:	f025 0507 	bic.w	r5, r5, #7
/home/yin/imx-optee/imx-optee-os/lib/libutils/isoc/bget_malloc.c:890
    19bc:	f020 0407 	bic.w	r4, r0, #7
/home/yin/imx-optee/imx-optee-os/lib/libutils/isoc/bget_malloc.c:892
    19c0:	42ac      	cmp	r4, r5
    19c2:	d30c      	bcc.n	19de <malloc_add_pool+0x2e>
/home/yin/imx-optee/imx-optee-os/lib/libutils/isoc/bget_malloc.c:892 (discriminator 1)
    19c4:	4b24      	ldr	r3, [pc, #144]	; (1a58 <malloc_add_pool+0xa8>)
    19c6:	f44f 725f 	mov.w	r2, #892	; 0x37c
    19ca:	4924      	ldr	r1, [pc, #144]	; (1a5c <malloc_add_pool+0xac>)
    19cc:	4824      	ldr	r0, [pc, #144]	; (1a60 <malloc_add_pool+0xb0>)
    19ce:	447b      	add	r3, pc
    19d0:	3352      	adds	r3, #82	; 0x52
    19d2:	4479      	add	r1, pc
    19d4:	4478      	add	r0, pc
/home/yin/imx-optee/imx-optee-os/lib/libutils/isoc/bget_malloc.c:905
    19d6:	f001 fc19 	bl	320c <_assert_log>
    19da:	f001 fc2b 	bl	3234 <_assert_break>
/home/yin/imx-optee/imx-optee-os/lib/libutils/isoc/bget_malloc.c:894
    19de:	1b2d      	subs	r5, r5, r4
    19e0:	2d17      	cmp	r5, #23
    19e2:	d80e      	bhi.n	1a02 <malloc_add_pool+0x52>
/home/yin/imx-optee/imx-optee-os/lib/libutils/isoc/bget_malloc.c:895
    19e4:	4b1f      	ldr	r3, [pc, #124]	; (1a64 <malloc_add_pool+0xb4>)
    19e6:	2203      	movs	r2, #3
    19e8:	481f      	ldr	r0, [pc, #124]	; (1a68 <malloc_add_pool+0xb8>)
    19ea:	f240 317f 	movw	r1, #895	; 0x37f
    19ee:	447b      	add	r3, pc
    19f0:	4478      	add	r0, pc
    19f2:	9300      	str	r3, [sp, #0]
    19f4:	3052      	adds	r0, #82	; 0x52
    19f6:	2301      	movs	r3, #1
    19f8:	f000 fcc0 	bl	237c <trace_printf>
/home/yin/imx-optee/imx-optee-os/lib/libutils/isoc/bget_malloc.c:914
    19fc:	b002      	add	sp, #8
    19fe:	e8bd 81f0 	ldmia.w	sp!, {r4, r5, r6, r7, r8, pc}
/home/yin/imx-optee/imx-optee-os/lib/libutils/isoc/bget_malloc.c:902
    1a02:	f8df 8068 	ldr.w	r8, [pc, #104]	; 1a6c <malloc_add_pool+0xbc>
    1a06:	4629      	mov	r1, r5
/home/yin/imx-optee/imx-optee-os/lib/libutils/isoc/bget_malloc.c:903
    1a08:	4e19      	ldr	r6, [pc, #100]	; (1a70 <malloc_add_pool+0xc0>)
/home/yin/imx-optee/imx-optee-os/lib/libutils/isoc/bget_malloc.c:902
    1a0a:	4620      	mov	r0, r4
    1a0c:	44f8      	add	r8, pc
/home/yin/imx-optee/imx-optee-os/lib/libutils/isoc/bget_malloc.c:903
    1a0e:	447e      	add	r6, pc
/home/yin/imx-optee/imx-optee-os/lib/libutils/isoc/bget_malloc.c:902
    1a10:	4642      	mov	r2, r8
    1a12:	f7ff fe25 	bl	1660 <bpool>
/home/yin/imx-optee/imx-optee-os/lib/libutils/isoc/bget_malloc.c:903
    1a16:	6837      	ldr	r7, [r6, #0]
/home/yin/imx-optee/imx-optee-os/lib/libutils/isoc/bget_malloc.c:904
    1a18:	6870      	ldr	r0, [r6, #4]
/home/yin/imx-optee/imx-optee-os/lib/libutils/isoc/bget_malloc.c:903
    1a1a:	3701      	adds	r7, #1
raw_realloc():
/home/yin/imx-optee/imx-optee-os/lib/libutils/isoc/bget_malloc.c:362
    1a1c:	00f9      	lsls	r1, r7, #3
    1a1e:	d509      	bpl.n	1a34 <malloc_add_pool+0x84>
malloc_add_pool():
/home/yin/imx-optee/imx-optee-os/lib/libutils/isoc/bget_malloc.c:905
    1a20:	4b14      	ldr	r3, [pc, #80]	; (1a74 <malloc_add_pool+0xc4>)
    1a22:	f240 3289 	movw	r2, #905	; 0x389
    1a26:	4914      	ldr	r1, [pc, #80]	; (1a78 <malloc_add_pool+0xc8>)
    1a28:	4814      	ldr	r0, [pc, #80]	; (1a7c <malloc_add_pool+0xcc>)
    1a2a:	447b      	add	r3, pc
    1a2c:	3352      	adds	r3, #82	; 0x52
    1a2e:	4479      	add	r1, pc
    1a30:	4478      	add	r0, pc
    1a32:	e7d0      	b.n	19d6 <malloc_add_pool+0x26>
raw_realloc():
/home/yin/imx-optee/imx-optee-os/lib/libutils/isoc/bget_malloc.c:371
    1a34:	2900      	cmp	r1, #0
/home/yin/imx-optee/imx-optee-os/lib/libutils/isoc/bget_malloc.c:373
    1a36:	4642      	mov	r2, r8
    1a38:	bf08      	it	eq
    1a3a:	2101      	moveq	r1, #1
    1a3c:	f7ff fdd2 	bl	15e4 <bgetr>
malloc_add_pool():
/home/yin/imx-optee/imx-optee-os/lib/libutils/isoc/bget_malloc.c:905
    1a40:	2800      	cmp	r0, #0
    1a42:	d0ed      	beq.n	1a20 <malloc_add_pool+0x70>
/home/yin/imx-optee/imx-optee-os/lib/libutils/isoc/bget_malloc.c:907
    1a44:	6833      	ldr	r3, [r6, #0]
/home/yin/imx-optee/imx-optee-os/lib/libutils/isoc/bget_malloc.c:906
    1a46:	6070      	str	r0, [r6, #4]
/home/yin/imx-optee/imx-optee-os/lib/libutils/isoc/bget_malloc.c:912
    1a48:	6037      	str	r7, [r6, #0]
/home/yin/imx-optee/imx-optee-os/lib/libutils/isoc/bget_malloc.c:907
    1a4a:	f840 4033 	str.w	r4, [r0, r3, lsl #3]
    1a4e:	eb00 02c3 	add.w	r2, r0, r3, lsl #3
/home/yin/imx-optee/imx-optee-os/lib/libutils/isoc/bget_malloc.c:908
    1a52:	6055      	str	r5, [r2, #4]
    1a54:	e7d2      	b.n	19fc <malloc_add_pool+0x4c>
    1a56:	bf00      	nop
    1a58:	00004573 	.word	0x00004573
    1a5c:	000045f2 	.word	0x000045f2
    1a60:	000049ab 	.word	0x000049ab
    1a64:	0000499d 	.word	0x0000499d
    1a68:	00004551 	.word	0x00004551
    1a6c:	0000566c 	.word	0x0000566c
    1a70:	00006fa2 	.word	0x00006fa2
    1a74:	00004517 	.word	0x00004517
    1a78:	00004596 	.word	0x00004596
    1a7c:	00004973 	.word	0x00004973

00001a80 <malloc_buffer_is_within_alloced>:
malloc_buffer_is_within_alloced():
/home/yin/imx-optee/imx-optee-os/lib/libutils/isoc/bget_malloc.c:928
    1a80:	1841      	adds	r1, r0, r1
/home/yin/imx-optee/imx-optee-os/lib/libutils/isoc/bget_malloc.c:917
    1a82:	b5f8      	push	{r3, r4, r5, r6, r7, lr}
/home/yin/imx-optee/imx-optee-os/lib/libutils/isoc/bget_malloc.c:928
    1a84:	d253      	bcs.n	1b2e <malloc_buffer_is_within_alloced+0xae>
bpool_foreach_iterator_init():
/home/yin/imx-optee/imx-optee-os/lib/libutils/isoc/bget_malloc.c:230
    1a86:	4b2b      	ldr	r3, [pc, #172]	; (1b34 <malloc_buffer_is_within_alloced+0xb4>)
/home/yin/imx-optee/imx-optee-os/lib/libutils/isoc/bget_malloc.c:229
    1a88:	2500      	movs	r5, #0
    1a8a:	f06f 0707 	mvn.w	r7, #7
/home/yin/imx-optee/imx-optee-os/lib/libutils/isoc/bget_malloc.c:230
    1a8e:	447b      	add	r3, pc
    1a90:	685e      	ldr	r6, [r3, #4]
bpool_foreach():
/home/yin/imx-optee/imx-optee-os/lib/libutils/isoc/bget_malloc.c:275
    1a92:	f8d3 c000 	ldr.w	ip, [r3]
bpool_foreach_iterator_init():
/home/yin/imx-optee/imx-optee-os/lib/libutils/isoc/bget_malloc.c:230
    1a96:	6833      	ldr	r3, [r6, #0]
bpool_foreach_pool():
/home/yin/imx-optee/imx-optee-os/lib/libutils/isoc/bget_malloc.c:237
    1a98:	685a      	ldr	r2, [r3, #4]
/home/yin/imx-optee/imx-optee-os/lib/libutils/isoc/bget_malloc.c:239
    1a9a:	f1b2 4f00 	cmp.w	r2, #2147483648	; 0x80000000
    1a9e:	d043      	beq.n	1b28 <malloc_buffer_is_within_alloced+0xa8>
/home/yin/imx-optee/imx-optee-os/lib/libutils/isoc/bget_malloc.c:242
    1aa0:	2a00      	cmp	r2, #0
    1aa2:	da1e      	bge.n	1ae2 <malloc_buffer_is_within_alloced+0x62>
/home/yin/imx-optee/imx-optee-os/lib/libutils/isoc/bget_malloc.c:244
    1aa4:	4254      	negs	r4, r2
/home/yin/imx-optee/imx-optee-os/lib/libutils/isoc/bget_malloc.c:246
    1aa6:	f04f 0e00 	mov.w	lr, #0
/home/yin/imx-optee/imx-optee-os/lib/libutils/isoc/bget_malloc.c:259
    1aaa:	441c      	add	r4, r3
bpool_foreach():
/home/yin/imx-optee/imx-optee-os/lib/libutils/isoc/bget_malloc.c:270
    1aac:	f1be 0f00 	cmp.w	lr, #0
    1ab0:	d115      	bne.n	1ade <malloc_buffer_is_within_alloced+0x5e>
    1ab2:	1aba      	subs	r2, r7, r2
bget_buf_size():
/home/yin/imx-optee/imx-optee-os/lib/libutils/isoc/bget_malloc.c:613
    1ab4:	2a00      	cmp	r2, #0
    1ab6:	dc0c      	bgt.n	1ad2 <malloc_buffer_is_within_alloced+0x52>
    1ab8:	4b1f      	ldr	r3, [pc, #124]	; (1b38 <malloc_buffer_is_within_alloced+0xb8>)
    1aba:	f240 2265 	movw	r2, #613	; 0x265
    1abe:	491f      	ldr	r1, [pc, #124]	; (1b3c <malloc_buffer_is_within_alloced+0xbc>)
    1ac0:	481f      	ldr	r0, [pc, #124]	; (1b40 <malloc_buffer_is_within_alloced+0xc0>)
    1ac2:	447b      	add	r3, pc
    1ac4:	3362      	adds	r3, #98	; 0x62
    1ac6:	4479      	add	r1, pc
    1ac8:	4478      	add	r0, pc
bpool_foreach_pool():
/home/yin/imx-optee/imx-optee-os/lib/libutils/isoc/bget_malloc.c:252
    1aca:	f001 fb9f 	bl	320c <_assert_log>
    1ace:	f001 fbb1 	bl	3234 <_assert_break>
/home/yin/imx-optee/imx-optee-os/lib/libutils/isoc/bget_malloc.c:256
    1ad2:	3308      	adds	r3, #8
malloc_buffer_is_within_alloced():
/home/yin/imx-optee/imx-optee-os/lib/libutils/isoc/bget_malloc.c:939
    1ad4:	4298      	cmp	r0, r3
    1ad6:	d302      	bcc.n	1ade <malloc_buffer_is_within_alloced+0x5e>
/home/yin/imx-optee/imx-optee-os/lib/libutils/isoc/bget_malloc.c:937 (discriminator 1)
    1ad8:	441a      	add	r2, r3
/home/yin/imx-optee/imx-optee-os/lib/libutils/isoc/bget_malloc.c:939 (discriminator 1)
    1ada:	4291      	cmp	r1, r2
    1adc:	d922      	bls.n	1b24 <malloc_buffer_is_within_alloced+0xa4>
bpool_foreach():
/home/yin/imx-optee/imx-optee-os/lib/libutils/isoc/bget_malloc.c:279
    1ade:	4623      	mov	r3, r4
    1ae0:	e7da      	b.n	1a98 <malloc_buffer_is_within_alloced+0x18>
bpool_foreach_pool():
/home/yin/imx-optee/imx-optee-os/lib/libutils/isoc/bget_malloc.c:252
    1ae2:	68dc      	ldr	r4, [r3, #12]
    1ae4:	68a4      	ldr	r4, [r4, #8]
    1ae6:	429c      	cmp	r4, r3
    1ae8:	d008      	beq.n	1afc <malloc_buffer_is_within_alloced+0x7c>
    1aea:	4b16      	ldr	r3, [pc, #88]	; (1b44 <malloc_buffer_is_within_alloced+0xc4>)
    1aec:	22fc      	movs	r2, #252	; 0xfc
    1aee:	4916      	ldr	r1, [pc, #88]	; (1b48 <malloc_buffer_is_within_alloced+0xc8>)
    1af0:	4816      	ldr	r0, [pc, #88]	; (1b4c <malloc_buffer_is_within_alloced+0xcc>)
    1af2:	447b      	add	r3, pc
    1af4:	3370      	adds	r3, #112	; 0x70
    1af6:	4479      	add	r1, pc
    1af8:	4478      	add	r0, pc
    1afa:	e7e6      	b.n	1aca <malloc_buffer_is_within_alloced+0x4a>
/home/yin/imx-optee/imx-optee-os/lib/libutils/isoc/bget_malloc.c:253
    1afc:	689c      	ldr	r4, [r3, #8]
    1afe:	68e4      	ldr	r4, [r4, #12]
    1b00:	429c      	cmp	r4, r3
    1b02:	d008      	beq.n	1b16 <malloc_buffer_is_within_alloced+0x96>
    1b04:	4b12      	ldr	r3, [pc, #72]	; (1b50 <malloc_buffer_is_within_alloced+0xd0>)
    1b06:	22fd      	movs	r2, #253	; 0xfd
    1b08:	4912      	ldr	r1, [pc, #72]	; (1b54 <malloc_buffer_is_within_alloced+0xd4>)
    1b0a:	4813      	ldr	r0, [pc, #76]	; (1b58 <malloc_buffer_is_within_alloced+0xd8>)
    1b0c:	447b      	add	r3, pc
    1b0e:	3370      	adds	r3, #112	; 0x70
    1b10:	4479      	add	r1, pc
    1b12:	4478      	add	r0, pc
    1b14:	e7d9      	b.n	1aca <malloc_buffer_is_within_alloced+0x4a>
    1b16:	4614      	mov	r4, r2
/home/yin/imx-optee/imx-optee-os/lib/libutils/isoc/bget_malloc.c:249
    1b18:	f04f 0e01 	mov.w	lr, #1
    1b1c:	e7c5      	b.n	1aaa <malloc_buffer_is_within_alloced+0x2a>
bpool_foreach():
/home/yin/imx-optee/imx-optee-os/lib/libutils/isoc/bget_malloc.c:279
    1b1e:	f856 4035 	ldr.w	r4, [r6, r5, lsl #3]
    1b22:	e7dc      	b.n	1ade <malloc_buffer_is_within_alloced+0x5e>
malloc_buffer_is_within_alloced():
/home/yin/imx-optee/imx-optee-os/lib/libutils/isoc/bget_malloc.c:940
    1b24:	2001      	movs	r0, #1
/home/yin/imx-optee/imx-optee-os/lib/libutils/isoc/bget_malloc.c:948
    1b26:	bdf8      	pop	{r3, r4, r5, r6, r7, pc}
bpool_foreach():
/home/yin/imx-optee/imx-optee-os/lib/libutils/isoc/bget_malloc.c:275
    1b28:	3501      	adds	r5, #1
    1b2a:	4565      	cmp	r5, ip
    1b2c:	d3f7      	bcc.n	1b1e <malloc_buffer_is_within_alloced+0x9e>
malloc_buffer_is_within_alloced():
/home/yin/imx-optee/imx-optee-os/lib/libutils/isoc/bget_malloc.c:922
    1b2e:	2000      	movs	r0, #0
    1b30:	bdf8      	pop	{r3, r4, r5, r6, r7, pc}
    1b32:	bf00      	nop
    1b34:	00006f22 	.word	0x00006f22
    1b38:	0000447f 	.word	0x0000447f
    1b3c:	000044fe 	.word	0x000044fe
    1b40:	00004768 	.word	0x00004768
    1b44:	0000444f 	.word	0x0000444f
    1b48:	000044ce 	.word	0x000044ce
    1b4c:	000045ef 	.word	0x000045ef
    1b50:	00004435 	.word	0x00004435
    1b54:	000044b4 	.word	0x000044b4
    1b58:	000045f0 	.word	0x000045f0

00001b5c <malloc_buffer_overlaps_heap>:
malloc_buffer_overlaps_heap():
/home/yin/imx-optee/imx-optee-os/lib/libutils/isoc/bget_malloc.c:961
    1b5c:	4b10      	ldr	r3, [pc, #64]	; (1ba0 <malloc_buffer_overlaps_heap+0x44>)
    1b5e:	eb10 0c01 	adds.w	ip, r0, r1
/home/yin/imx-optee/imx-optee-os/lib/libutils/isoc/bget_malloc.c:952
    1b62:	b5f0      	push	{r4, r5, r6, r7, lr}
    1b64:	bf2c      	ite	cs
    1b66:	2101      	movcs	r1, #1
    1b68:	2100      	movcc	r1, #0
/home/yin/imx-optee/imx-optee-os/lib/libutils/isoc/bget_malloc.c:961
    1b6a:	447b      	add	r3, pc
    1b6c:	681f      	ldr	r7, [r3, #0]
/home/yin/imx-optee/imx-optee-os/lib/libutils/isoc/bget_malloc.c:962
    1b6e:	685d      	ldr	r5, [r3, #4]
/home/yin/imx-optee/imx-optee-os/lib/libutils/isoc/bget_malloc.c:961
    1b70:	2300      	movs	r3, #0
/home/yin/imx-optee/imx-optee-os/lib/libutils/isoc/bget_malloc.c:961 (discriminator 1)
    1b72:	42bb      	cmp	r3, r7
    1b74:	d101      	bne.n	1b7a <malloc_buffer_overlaps_heap+0x1e>
/home/yin/imx-optee/imx-optee-os/lib/libutils/isoc/bget_malloc.c:956
    1b76:	2000      	movs	r0, #0
    1b78:	bdf0      	pop	{r4, r5, r6, r7, pc}
/home/yin/imx-optee/imx-optee-os/lib/libutils/isoc/bget_malloc.c:963
    1b7a:	eb05 02c3 	add.w	r2, r5, r3, lsl #3
/home/yin/imx-optee/imx-optee-os/lib/libutils/isoc/bget_malloc.c:962
    1b7e:	f855 4033 	ldr.w	r4, [r5, r3, lsl #3]
    1b82:	2600      	movs	r6, #0
    1b84:	6852      	ldr	r2, [r2, #4]
    1b86:	18a2      	adds	r2, r4, r2
    1b88:	bf28      	it	cs
    1b8a:	2601      	movcs	r6, #1
/home/yin/imx-optee/imx-optee-os/lib/libutils/isoc/bget_malloc.c:965
    1b8c:	b931      	cbnz	r1, 1b9c <malloc_buffer_overlaps_heap+0x40>
/home/yin/imx-optee/imx-optee-os/lib/libutils/isoc/bget_malloc.c:965 (discriminator 1)
    1b8e:	b92e      	cbnz	r6, 1b9c <malloc_buffer_overlaps_heap+0x40>
/home/yin/imx-optee/imx-optee-os/lib/libutils/isoc/bget_malloc.c:970
    1b90:	45a4      	cmp	ip, r4
    1b92:	d803      	bhi.n	1b9c <malloc_buffer_overlaps_heap+0x40>
/home/yin/imx-optee/imx-optee-os/lib/libutils/isoc/bget_malloc.c:970 (discriminator 1)
    1b94:	4290      	cmp	r0, r2
    1b96:	d301      	bcc.n	1b9c <malloc_buffer_overlaps_heap+0x40>
/home/yin/imx-optee/imx-optee-os/lib/libutils/isoc/bget_malloc.c:961 (discriminator 2)
    1b98:	3301      	adds	r3, #1
    1b9a:	e7ea      	b.n	1b72 <malloc_buffer_overlaps_heap+0x16>
/home/yin/imx-optee/imx-optee-os/lib/libutils/isoc/bget_malloc.c:966
    1b9c:	2001      	movs	r0, #1
/home/yin/imx-optee/imx-optee-os/lib/libutils/isoc/bget_malloc.c:979
    1b9e:	bdf0      	pop	{r4, r5, r6, r7, pc}
    1ba0:	00006e46 	.word	0x00006e46

00001ba4 <__vsnprintf>:
__vsnprintf():
/home/yin/imx-optee/imx-optee-os/lib/libutils/ext/snprintk.c:137
    1ba4:	e92d 4ff0 	stmdb	sp!, {r4, r5, r6, r7, r8, r9, sl, fp, lr}
    1ba8:	b09f      	sub	sp, #124	; 0x7c
    1baa:	920b      	str	r2, [sp, #44]	; 0x2c
/home/yin/imx-optee/imx-optee-os/lib/libutils/ext/snprintk.c:141
    1bac:	4680      	mov	r8, r0
    1bae:	461f      	mov	r7, r3
kprintf():
/home/yin/imx-optee/imx-optee-os/lib/libutils/ext/snprintk.c:269
    1bb0:	2300      	movs	r3, #0
__vsnprintf():
/home/yin/imx-optee/imx-optee-os/lib/libutils/ext/snprintk.c:137
    1bb2:	f89d 20a0 	ldrb.w	r2, [sp, #160]	; 0xa0
    1bb6:	9010      	str	r0, [sp, #64]	; 0x40
    1bb8:	9112      	str	r1, [sp, #72]	; 0x48
    1bba:	9213      	str	r2, [sp, #76]	; 0x4c
/home/yin/imx-optee/imx-optee-os/lib/libutils/ext/snprintk.c:141
    1bbc:	4602      	mov	r2, r0
    1bbe:	440a      	add	r2, r1
kprintf():
/home/yin/imx-optee/imx-optee-os/lib/libutils/ext/snprintk.c:269
    1bc0:	930f      	str	r3, [sp, #60]	; 0x3c
__vsnprintf():
/home/yin/imx-optee/imx-optee-os/lib/libutils/ext/snprintk.c:141
    1bc2:	920e      	str	r2, [sp, #56]	; 0x38
kprintf():
/home/yin/imx-optee/imx-optee-os/lib/libutils/ext/snprintk.c:267
    1bc4:	930c      	str	r3, [sp, #48]	; 0x30
/home/yin/imx-optee/imx-optee-os/lib/libutils/ext/snprintk.c:275
    1bc6:	9b0b      	ldr	r3, [sp, #44]	; 0x2c
    1bc8:	781b      	ldrb	r3, [r3, #0]
    1bca:	2b25      	cmp	r3, #37	; 0x25
    1bcc:	d026      	beq.n	1c1c <__vsnprintf+0x78>
    1bce:	b9a3      	cbnz	r3, 1bfa <__vsnprintf+0x56>
__vsnprintf():
/home/yin/imx-optee/imx-optee-os/lib/libutils/ext/snprintk.c:143
    1bd0:	9b10      	ldr	r3, [sp, #64]	; 0x40
    1bd2:	b173      	cbz	r3, 1bf2 <__vsnprintf+0x4e>
/home/yin/imx-optee/imx-optee-os/lib/libutils/ext/snprintk.c:143 (discriminator 1)
    1bd4:	9b12      	ldr	r3, [sp, #72]	; 0x48
    1bd6:	b163      	cbz	r3, 1bf2 <__vsnprintf+0x4e>
/home/yin/imx-optee/imx-optee-os/lib/libutils/ext/snprintk.c:145
    1bd8:	9a0c      	ldr	r2, [sp, #48]	; 0x30
    1bda:	4293      	cmp	r3, r2
/home/yin/imx-optee/imx-optee-os/lib/libutils/ext/snprintk.c:146
    1bdc:	9a10      	ldr	r2, [sp, #64]	; 0x40
    1bde:	bf98      	it	ls
    1be0:	9912      	ldrls	r1, [sp, #72]	; 0x48
    1be2:	f04f 0300 	mov.w	r3, #0
/home/yin/imx-optee/imx-optee-os/lib/libutils/ext/snprintk.c:148
    1be6:	bf8d      	iteet	hi
    1be8:	990c      	ldrhi	r1, [sp, #48]	; 0x30
/home/yin/imx-optee/imx-optee-os/lib/libutils/ext/snprintk.c:146
    1bea:	1852      	addls	r2, r2, r1
    1bec:	f802 3c01 	strbls.w	r3, [r2, #-1]
/home/yin/imx-optee/imx-optee-os/lib/libutils/ext/snprintk.c:148
    1bf0:	5453      	strbhi	r3, [r2, r1]
/home/yin/imx-optee/imx-optee-os/lib/libutils/ext/snprintk.c:151
    1bf2:	980c      	ldr	r0, [sp, #48]	; 0x30
    1bf4:	b01f      	add	sp, #124	; 0x7c
    1bf6:	e8bd 8ff0 	ldmia.w	sp!, {r4, r5, r6, r7, r8, r9, sl, fp, pc}
kprintf():
/home/yin/imx-optee/imx-optee-os/lib/libutils/ext/snprintk.c:276
    1bfa:	9a0c      	ldr	r2, [sp, #48]	; 0x30
    1bfc:	3201      	adds	r2, #1
    1bfe:	920c      	str	r2, [sp, #48]	; 0x30
/home/yin/imx-optee/imx-optee-os/lib/libutils/ext/snprintk.c:277
    1c00:	f1b8 0f00 	cmp.w	r8, #0
    1c04:	d006      	beq.n	1c14 <__vsnprintf+0x70>
    1c06:	9a0e      	ldr	r2, [sp, #56]	; 0x38
    1c08:	4542      	cmp	r2, r8
    1c0a:	bf84      	itt	hi
    1c0c:	f888 3000 	strbhi.w	r3, [r8]
    1c10:	f108 0801 	addhi.w	r8, r8, #1
/home/yin/imx-optee/imx-optee-os/lib/libutils/ext/snprintk.c:275
    1c14:	9b0b      	ldr	r3, [sp, #44]	; 0x2c
    1c16:	3301      	adds	r3, #1
    1c18:	930b      	str	r3, [sp, #44]	; 0x2c
    1c1a:	e7d4      	b.n	1bc6 <__vsnprintf+0x22>
/home/yin/imx-optee/imx-optee-os/lib/libutils/ext/snprintk.c:282
    1c1c:	9b0b      	ldr	r3, [sp, #44]	; 0x2c
/home/yin/imx-optee/imx-optee-os/lib/libutils/ext/snprintk.c:288
    1c1e:	f04f 0a00 	mov.w	sl, #0
/home/yin/imx-optee/imx-optee-os/lib/libutils/ext/snprintk.c:282
    1c22:	463a      	mov	r2, r7
/home/yin/imx-optee/imx-optee-os/lib/libutils/ext/snprintk.c:287
    1c24:	f04f 3bff 	mov.w	fp, #4294967295	; 0xffffffff
/home/yin/imx-optee/imx-optee-os/lib/libutils/ext/snprintk.c:284
    1c28:	4656      	mov	r6, sl
/home/yin/imx-optee/imx-optee-os/lib/libutils/ext/snprintk.c:286
    1c2a:	f8cd a034 	str.w	sl, [sp, #52]	; 0x34
/home/yin/imx-optee/imx-optee-os/lib/libutils/ext/snprintk.c:282
    1c2e:	3301      	adds	r3, #1
/home/yin/imx-optee/imx-optee-os/lib/libutils/ext/snprintk.c:290
    1c30:	f893 9000 	ldrb.w	r9, [r3]
    1c34:	1c59      	adds	r1, r3, #1
    1c36:	910b      	str	r1, [sp, #44]	; 0x2c
/home/yin/imx-optee/imx-optee-os/lib/libutils/ext/snprintk.c:291
    1c38:	f1b9 0f63 	cmp.w	r9, #99	; 0x63
    1c3c:	f000 8163 	beq.w	1f06 <__vsnprintf+0x362>
    1c40:	f300 8096 	bgt.w	1d70 <__vsnprintf+0x1cc>
    1c44:	f1b9 0f30 	cmp.w	r9, #48	; 0x30
    1c48:	f000 8147 	beq.w	1eda <__vsnprintf+0x336>
    1c4c:	dc26      	bgt.n	1c9c <__vsnprintf+0xf8>
    1c4e:	f1b9 0f2a 	cmp.w	r9, #42	; 0x2a
    1c52:	f000 8119 	beq.w	1e88 <__vsnprintf+0x2e4>
    1c56:	dc13      	bgt.n	1c80 <__vsnprintf+0xdc>
    1c58:	f1b9 0f20 	cmp.w	r9, #32
    1c5c:	f000 810b 	beq.w	1e76 <__vsnprintf+0x2d2>
    1c60:	f1b9 0f23 	cmp.w	r9, #35	; 0x23
    1c64:	f000 810d 	beq.w	1e82 <__vsnprintf+0x2de>
/home/yin/imx-optee/imx-optee-os/lib/libutils/ext/snprintk.c:541
    1c68:	f1b9 0f00 	cmp.w	r9, #0
    1c6c:	d0b0      	beq.n	1bd0 <__vsnprintf+0x2c>
/home/yin/imx-optee/imx-optee-os/lib/libutils/ext/snprintk.c:545
    1c6e:	ab1e      	add	r3, sp, #120	; 0x78
    1c70:	4617      	mov	r7, r2
    1c72:	f803 9d28 	strb.w	r9, [r3, #-40]!
/home/yin/imx-optee/imx-optee-os/lib/libutils/ext/snprintk.c:546
    1c76:	f04f 0b01 	mov.w	fp, #1
    1c7a:	e0c1      	b.n	1e00 <__vsnprintf+0x25c>
/home/yin/imx-optee/imx-optee-os/lib/libutils/ext/snprintk.c:311
    1c7c:	461a      	mov	r2, r3
    1c7e:	e00b      	b.n	1c98 <__vsnprintf+0xf4>
/home/yin/imx-optee/imx-optee-os/lib/libutils/ext/snprintk.c:291
    1c80:	f1b9 0f2d 	cmp.w	r9, #45	; 0x2d
    1c84:	f000 8109 	beq.w	1e9a <__vsnprintf+0x2f6>
    1c88:	f1b9 0f2e 	cmp.w	r9, #46	; 0x2e
    1c8c:	f000 8108 	beq.w	1ea0 <__vsnprintf+0x2fc>
    1c90:	f1b9 0f2b 	cmp.w	r9, #43	; 0x2b
    1c94:	d1e8      	bne.n	1c68 <__vsnprintf+0xc4>
/home/yin/imx-optee/imx-optee-os/lib/libutils/ext/snprintk.c:319
    1c96:	46ca      	mov	sl, r9
/home/yin/imx-optee/imx-optee-os/lib/libutils/ext/snprintk.c:322
    1c98:	9b0b      	ldr	r3, [sp, #44]	; 0x2c
    1c9a:	e7c9      	b.n	1c30 <__vsnprintf+0x8c>
/home/yin/imx-optee/imx-optee-os/lib/libutils/ext/snprintk.c:291
    1c9c:	f1b9 0f44 	cmp.w	r9, #68	; 0x44
    1ca0:	f000 818a 	beq.w	1fb8 <__vsnprintf+0x414>
    1ca4:	dc14      	bgt.n	1cd0 <__vsnprintf+0x12c>
    1ca6:	f1b9 0f39 	cmp.w	r9, #57	; 0x39
    1caa:	dcdd      	bgt.n	1c68 <__vsnprintf+0xc4>
    1cac:	2300      	movs	r3, #0
    1cae:	930d      	str	r3, [sp, #52]	; 0x34
/home/yin/imx-optee/imx-optee-os/lib/libutils/ext/snprintk.c:346
    1cb0:	9b0d      	ldr	r3, [sp, #52]	; 0x34
    1cb2:	f1a9 0930 	sub.w	r9, r9, #48	; 0x30
    1cb6:	210a      	movs	r1, #10
    1cb8:	fb01 9303 	mla	r3, r1, r3, r9
    1cbc:	930d      	str	r3, [sp, #52]	; 0x34
/home/yin/imx-optee/imx-optee-os/lib/libutils/ext/snprintk.c:347
    1cbe:	9b0b      	ldr	r3, [sp, #44]	; 0x2c
    1cc0:	f813 9b01 	ldrb.w	r9, [r3], #1
    1cc4:	930b      	str	r3, [sp, #44]	; 0x2c
/home/yin/imx-optee/imx-optee-os/lib/libutils/ext/snprintk.c:348
    1cc6:	f1a9 0330 	sub.w	r3, r9, #48	; 0x30
    1cca:	2b09      	cmp	r3, #9
    1ccc:	d9f0      	bls.n	1cb0 <__vsnprintf+0x10c>
    1cce:	e7b3      	b.n	1c38 <__vsnprintf+0x94>
/home/yin/imx-optee/imx-optee-os/lib/libutils/ext/snprintk.c:291
    1cd0:	f1b9 0f55 	cmp.w	r9, #85	; 0x55
    1cd4:	f000 823d 	beq.w	2152 <__vsnprintf+0x5ae>
    1cd8:	f1b9 0f58 	cmp.w	r9, #88	; 0x58
    1cdc:	f000 80ac 	beq.w	1e38 <__vsnprintf+0x294>
    1ce0:	f1b9 0f4f 	cmp.w	r9, #79	; 0x4f
    1ce4:	d1c0      	bne.n	1c68 <__vsnprintf+0xc4>
/home/yin/imx-optee/imx-optee-os/lib/libutils/ext/snprintk.c:408
    1ce6:	f046 0610 	orr.w	r6, r6, #16
/home/yin/imx-optee/imx-optee-os/lib/libutils/ext/snprintk.c:411
    1cea:	0635      	lsls	r5, r6, #24
    1cec:	f140 81c0 	bpl.w	2070 <__vsnprintf+0x4cc>
    1cf0:	3207      	adds	r2, #7
    1cf2:	f022 0207 	bic.w	r2, r2, #7
    1cf6:	e9d2 4500 	ldrd	r4, r5, [r2]
    1cfa:	f102 0708 	add.w	r7, r2, #8
/home/yin/imx-optee/imx-optee-os/lib/libutils/ext/snprintk.c:488
    1cfe:	f1bb 3fff 	cmp.w	fp, #4294967295	; 0xffffffff
    1d02:	f04f 0a00 	mov.w	sl, #0
    1d06:	d011      	beq.n	1d2c <__vsnprintf+0x188>
    1d08:	4653      	mov	r3, sl
/home/yin/imx-optee/imx-optee-os/lib/libutils/ext/snprintk.c:497
    1d0a:	ea54 0205 	orrs.w	r2, r4, r5
/home/yin/imx-optee/imx-optee-os/lib/libutils/ext/snprintk.c:489
    1d0e:	f426 6680 	bic.w	r6, r6, #1024	; 0x400
/home/yin/imx-optee/imx-optee-os/lib/libutils/ext/snprintk.c:497
    1d12:	d105      	bne.n	1d20 <__vsnprintf+0x17c>
    1d14:	f1bb 0f00 	cmp.w	fp, #0
    1d18:	f000 8269 	beq.w	21ee <__vsnprintf+0x64a>
    1d1c:	2400      	movs	r4, #0
    1d1e:	2500      	movs	r5, #0
/home/yin/imx-optee/imx-optee-os/lib/libutils/ext/snprintk.c:503
    1d20:	2b01      	cmp	r3, #1
    1d22:	f000 8161 	beq.w	1fe8 <__vsnprintf+0x444>
    1d26:	2b02      	cmp	r3, #2
    1d28:	f000 81f8 	beq.w	211c <__vsnprintf+0x578>
/home/yin/imx-optee/imx-optee-os/lib/libutils/ext/snprintk.c:488
    1d2c:	f10d 0275 	add.w	r2, sp, #117	; 0x75
/home/yin/imx-optee/imx-optee-os/lib/libutils/ext/snprintk.c:507
    1d30:	08e0      	lsrs	r0, r4, #3
    1d32:	ea4f 0cd5 	mov.w	ip, r5, lsr #3
    1d36:	ea40 7045 	orr.w	r0, r0, r5, lsl #29
/home/yin/imx-optee/imx-optee-os/lib/libutils/ext/snprintk.c:506
    1d3a:	f004 0107 	and.w	r1, r4, #7
/home/yin/imx-optee/imx-optee-os/lib/libutils/ext/snprintk.c:507
    1d3e:	4665      	mov	r5, ip
    1d40:	4604      	mov	r4, r0
/home/yin/imx-optee/imx-optee-os/lib/libutils/ext/snprintk.c:506
    1d42:	3130      	adds	r1, #48	; 0x30
/home/yin/imx-optee/imx-optee-os/lib/libutils/ext/snprintk.c:508
    1d44:	ea54 0005 	orrs.w	r0, r4, r5
/home/yin/imx-optee/imx-optee-os/lib/libutils/ext/snprintk.c:506
    1d48:	f102 33ff 	add.w	r3, r2, #4294967295	; 0xffffffff
    1d4c:	f802 1c01 	strb.w	r1, [r2, #-1]
/home/yin/imx-optee/imx-optee-os/lib/libutils/ext/snprintk.c:508
    1d50:	f040 8238 	bne.w	21c4 <__vsnprintf+0x620>
/home/yin/imx-optee/imx-optee-os/lib/libutils/ext/snprintk.c:510
    1d54:	07f5      	lsls	r5, r6, #31
    1d56:	d505      	bpl.n	1d64 <__vsnprintf+0x1c0>
    1d58:	2930      	cmp	r1, #48	; 0x30
    1d5a:	d003      	beq.n	1d64 <__vsnprintf+0x1c0>
/home/yin/imx-optee/imx-optee-os/lib/libutils/ext/snprintk.c:511
    1d5c:	2130      	movs	r1, #48	; 0x30
    1d5e:	f803 1c01 	strb.w	r1, [r3, #-1]
    1d62:	1e93      	subs	r3, r2, #2
/home/yin/imx-optee/imx-optee-os/lib/libutils/ext/snprintk.c:537
    1d64:	f10d 0275 	add.w	r2, sp, #117	; 0x75
    1d68:	4658      	mov	r0, fp
    1d6a:	eba2 0b03 	sub.w	fp, r2, r3
    1d6e:	e0d4      	b.n	1f1a <__vsnprintf+0x376>
/home/yin/imx-optee/imx-optee-os/lib/libutils/ext/snprintk.c:291
    1d70:	f1b9 0f6f 	cmp.w	r9, #111	; 0x6f
    1d74:	d0b9      	beq.n	1cea <__vsnprintf+0x146>
    1d76:	dc1e      	bgt.n	1db6 <__vsnprintf+0x212>
    1d78:	f1b9 0f69 	cmp.w	r9, #105	; 0x69
    1d7c:	f000 811e 	beq.w	1fbc <__vsnprintf+0x418>
    1d80:	dc0a      	bgt.n	1d98 <__vsnprintf+0x1f4>
    1d82:	f1b9 0f64 	cmp.w	r9, #100	; 0x64
    1d86:	f000 8119 	beq.w	1fbc <__vsnprintf+0x418>
    1d8a:	f1b9 0f68 	cmp.w	r9, #104	; 0x68
    1d8e:	f47f af6b 	bne.w	1c68 <__vsnprintf+0xc4>
/home/yin/imx-optee/imx-optee-os/lib/libutils/ext/snprintk.c:352
    1d92:	f046 0640 	orr.w	r6, r6, #64	; 0x40
    1d96:	e77f      	b.n	1c98 <__vsnprintf+0xf4>
/home/yin/imx-optee/imx-optee-os/lib/libutils/ext/snprintk.c:291
    1d98:	f1b9 0f6c 	cmp.w	r9, #108	; 0x6c
    1d9c:	f000 80a0 	beq.w	1ee0 <__vsnprintf+0x33c>
    1da0:	f1b9 0f6e 	cmp.w	r9, #110	; 0x6e
    1da4:	f000 8145 	beq.w	2032 <__vsnprintf+0x48e>
    1da8:	f1b9 0f6a 	cmp.w	r9, #106	; 0x6a
    1dac:	f47f af5c 	bne.w	1c68 <__vsnprintf+0xc4>
/home/yin/imx-optee/imx-optee-os/lib/libutils/ext/snprintk.c:355
    1db0:	f046 0680 	orr.w	r6, r6, #128	; 0x80
    1db4:	e770      	b.n	1c98 <__vsnprintf+0xf4>
/home/yin/imx-optee/imx-optee-os/lib/libutils/ext/snprintk.c:291
    1db6:	f1b9 0f74 	cmp.w	r9, #116	; 0x74
    1dba:	f000 809e 	beq.w	1efa <__vsnprintf+0x356>
    1dbe:	dc22      	bgt.n	1e06 <__vsnprintf+0x262>
    1dc0:	f1b9 0f71 	cmp.w	r9, #113	; 0x71
    1dc4:	f000 8093 	beq.w	1eee <__vsnprintf+0x34a>
    1dc8:	f2c0 8166 	blt.w	2098 <__vsnprintf+0x4f4>
    1dcc:	f1b9 0f73 	cmp.w	r9, #115	; 0x73
    1dd0:	f47f af4a 	bne.w	1c68 <__vsnprintf+0xc4>
/home/yin/imx-optee/imx-optee-os/lib/libutils/ext/snprintk.c:442
    1dd4:	6813      	ldr	r3, [r2, #0]
    1dd6:	1d17      	adds	r7, r2, #4
    1dd8:	b913      	cbnz	r3, 1de0 <__vsnprintf+0x23c>
/home/yin/imx-optee/imx-optee-os/lib/libutils/ext/snprintk.c:444
    1dda:	f8df 34e4 	ldr.w	r3, [pc, #1252]	; 22c0 <__vsnprintf+0x71c>
    1dde:	447b      	add	r3, pc
/home/yin/imx-optee/imx-optee-os/lib/libutils/ext/snprintk.c:445
    1de0:	f1bb 3fff 	cmp.w	fp, #4294967295	; 0xffffffff
    1de4:	f000 81ac 	beq.w	2140 <__vsnprintf+0x59c>
/home/yin/imx-optee/imx-optee-os/lib/libutils/ext/snprintk.c:451
    1de8:	4618      	mov	r0, r3
    1dea:	465a      	mov	r2, fp
    1dec:	2100      	movs	r1, #0
    1dee:	9311      	str	r3, [sp, #68]	; 0x44
    1df0:	f001 fa8d 	bl	330e <memchr>
/home/yin/imx-optee/imx-optee-os/lib/libutils/ext/snprintk.c:453
    1df4:	9b11      	ldr	r3, [sp, #68]	; 0x44
    1df6:	b120      	cbz	r0, 1e02 <__vsnprintf+0x25e>
/home/yin/imx-optee/imx-optee-os/lib/libutils/ext/snprintk.c:454
    1df8:	1ac0      	subs	r0, r0, r3
    1dfa:	4583      	cmp	fp, r0
    1dfc:	bfa8      	it	ge
    1dfe:	4683      	movge	fp, r0
/home/yin/imx-optee/imx-optee-os/lib/libutils/ext/snprintk.c:285
    1e00:	2000      	movs	r0, #0
/home/yin/imx-optee/imx-optee-os/lib/libutils/ext/snprintk.c:461
    1e02:	4682      	mov	sl, r0
    1e04:	e089      	b.n	1f1a <__vsnprintf+0x376>
/home/yin/imx-optee/imx-optee-os/lib/libutils/ext/snprintk.c:291
    1e06:	f1b9 0f78 	cmp.w	r9, #120	; 0x78
    1e0a:	f000 81c1 	beq.w	2190 <__vsnprintf+0x5ec>
    1e0e:	f1b9 0f7a 	cmp.w	r9, #122	; 0x7a
    1e12:	d075      	beq.n	1f00 <__vsnprintf+0x35c>
    1e14:	f1b9 0f75 	cmp.w	r9, #117	; 0x75
    1e18:	f47f af26 	bne.w	1c68 <__vsnprintf+0xc4>
/home/yin/imx-optee/imx-optee-os/lib/libutils/ext/snprintk.c:467
    1e1c:	f016 0380 	ands.w	r3, r6, #128	; 0x80
    1e20:	f000 819a 	beq.w	2158 <__vsnprintf+0x5b4>
    1e24:	3207      	adds	r2, #7
    1e26:	f022 0207 	bic.w	r2, r2, #7
    1e2a:	e9d2 4500 	ldrd	r4, r5, [r2]
    1e2e:	f102 0708 	add.w	r7, r2, #8
/home/yin/imx-optee/imx-optee-os/lib/libutils/ext/snprintk.c:482
    1e32:	f04f 0a00 	mov.w	sl, #0
    1e36:	e0d3      	b.n	1fe0 <__vsnprintf+0x43c>
/home/yin/imx-optee/imx-optee-os/lib/libutils/ext/snprintk.c:471
    1e38:	f8df 3488 	ldr.w	r3, [pc, #1160]	; 22c4 <__vsnprintf+0x720>
    1e3c:	447b      	add	r3, pc
/home/yin/imx-optee/imx-optee-os/lib/libutils/ext/snprintk.c:475
    1e3e:	0637      	lsls	r7, r6, #24
/home/yin/imx-optee/imx-optee-os/lib/libutils/ext/snprintk.c:474
    1e40:	930f      	str	r3, [sp, #60]	; 0x3c
/home/yin/imx-optee/imx-optee-os/lib/libutils/ext/snprintk.c:475
    1e42:	f140 81a9 	bpl.w	2198 <__vsnprintf+0x5f4>
    1e46:	3207      	adds	r2, #7
    1e48:	f022 0207 	bic.w	r2, r2, #7
    1e4c:	e9d2 4500 	ldrd	r4, r5, [r2]
    1e50:	f102 0708 	add.w	r7, r2, #8
/home/yin/imx-optee/imx-optee-os/lib/libutils/ext/snprintk.c:478
    1e54:	07f3      	lsls	r3, r6, #31
    1e56:	f140 815b 	bpl.w	2110 <__vsnprintf+0x56c>
    1e5a:	ea54 0305 	orrs.w	r3, r4, r5
    1e5e:	f000 8228 	beq.w	22b2 <__vsnprintf+0x70e>
/home/yin/imx-optee/imx-optee-os/lib/libutils/ext/snprintk.c:488
    1e62:	f1bb 3fff 	cmp.w	fp, #4294967295	; 0xffffffff
/home/yin/imx-optee/imx-optee-os/lib/libutils/ext/snprintk.c:479
    1e66:	f046 0602 	orr.w	r6, r6, #2
/home/yin/imx-optee/imx-optee-os/lib/libutils/ext/snprintk.c:488
    1e6a:	f000 8225 	beq.w	22b8 <__vsnprintf+0x714>
    1e6e:	f04f 0a00 	mov.w	sl, #0
    1e72:	2302      	movs	r3, #2
    1e74:	e749      	b.n	1d0a <__vsnprintf+0x166>
/home/yin/imx-optee/imx-optee-os/lib/libutils/ext/snprintk.c:299
    1e76:	f1ba 0f00 	cmp.w	sl, #0
    1e7a:	bf08      	it	eq
    1e7c:	f04f 0a20 	moveq.w	sl, #32
    1e80:	e70a      	b.n	1c98 <__vsnprintf+0xf4>
/home/yin/imx-optee/imx-optee-os/lib/libutils/ext/snprintk.c:302
    1e82:	f046 0601 	orr.w	r6, r6, #1
    1e86:	e707      	b.n	1c98 <__vsnprintf+0xf4>
/home/yin/imx-optee/imx-optee-os/lib/libutils/ext/snprintk.c:311
    1e88:	1d13      	adds	r3, r2, #4
    1e8a:	6812      	ldr	r2, [r2, #0]
    1e8c:	2a00      	cmp	r2, #0
    1e8e:	920d      	str	r2, [sp, #52]	; 0x34
    1e90:	f6bf aef4 	bge.w	1c7c <__vsnprintf+0xd8>
/home/yin/imx-optee/imx-optee-os/lib/libutils/ext/snprintk.c:313
    1e94:	4252      	negs	r2, r2
    1e96:	920d      	str	r2, [sp, #52]	; 0x34
/home/yin/imx-optee/imx-optee-os/lib/libutils/ext/snprintk.c:311
    1e98:	461a      	mov	r2, r3
/home/yin/imx-optee/imx-optee-os/lib/libutils/ext/snprintk.c:316
    1e9a:	f046 0604 	orr.w	r6, r6, #4
    1e9e:	e6fb      	b.n	1c98 <__vsnprintf+0xf4>
/home/yin/imx-optee/imx-optee-os/lib/libutils/ext/snprintk.c:322
    1ea0:	990b      	ldr	r1, [sp, #44]	; 0x2c
    1ea2:	9b0b      	ldr	r3, [sp, #44]	; 0x2c
    1ea4:	f891 9000 	ldrb.w	r9, [r1]
    1ea8:	3301      	adds	r3, #1
    1eaa:	f1b9 0f2a 	cmp.w	r9, #42	; 0x2a
    1eae:	d00e      	beq.n	1ece <__vsnprintf+0x32a>
    1eb0:	f04f 0b00 	mov.w	fp, #0
/home/yin/imx-optee/imx-optee-os/lib/libutils/ext/snprintk.c:330
    1eb4:	930b      	str	r3, [sp, #44]	; 0x2c
/home/yin/imx-optee/imx-optee-os/lib/libutils/ext/snprintk.c:328
    1eb6:	f1a9 0330 	sub.w	r3, r9, #48	; 0x30
    1eba:	2b09      	cmp	r3, #9
    1ebc:	f63f aebc 	bhi.w	1c38 <__vsnprintf+0x94>
/home/yin/imx-optee/imx-optee-os/lib/libutils/ext/snprintk.c:329
    1ec0:	210a      	movs	r1, #10
    1ec2:	fb01 3b0b 	mla	fp, r1, fp, r3
/home/yin/imx-optee/imx-optee-os/lib/libutils/ext/snprintk.c:330
    1ec6:	9b0b      	ldr	r3, [sp, #44]	; 0x2c
    1ec8:	f813 9b01 	ldrb.w	r9, [r3], #1
    1ecc:	e7f2      	b.n	1eb4 <__vsnprintf+0x310>
/home/yin/imx-optee/imx-optee-os/lib/libutils/ext/snprintk.c:324
    1ece:	6811      	ldr	r1, [r2, #0]
/home/yin/imx-optee/imx-optee-os/lib/libutils/ext/snprintk.c:323
    1ed0:	3204      	adds	r2, #4
/home/yin/imx-optee/imx-optee-os/lib/libutils/ext/snprintk.c:322
    1ed2:	930b      	str	r3, [sp, #44]	; 0x2c
/home/yin/imx-optee/imx-optee-os/lib/libutils/ext/snprintk.c:324
    1ed4:	ea41 7be1 	orr.w	fp, r1, r1, asr #31
    1ed8:	e6de      	b.n	1c98 <__vsnprintf+0xf4>
/home/yin/imx-optee/imx-optee-os/lib/libutils/ext/snprintk.c:340
    1eda:	f446 6680 	orr.w	r6, r6, #1024	; 0x400
    1ede:	e6db      	b.n	1c98 <__vsnprintf+0xf4>
/home/yin/imx-optee/imx-optee-os/lib/libutils/ext/snprintk.c:358
    1ee0:	9b0b      	ldr	r3, [sp, #44]	; 0x2c
    1ee2:	781b      	ldrb	r3, [r3, #0]
    1ee4:	2b6c      	cmp	r3, #108	; 0x6c
    1ee6:	d105      	bne.n	1ef4 <__vsnprintf+0x350>
/home/yin/imx-optee/imx-optee-os/lib/libutils/ext/snprintk.c:359
    1ee8:	9b0b      	ldr	r3, [sp, #44]	; 0x2c
    1eea:	3301      	adds	r3, #1
    1eec:	930b      	str	r3, [sp, #44]	; 0x2c
/home/yin/imx-optee/imx-optee-os/lib/libutils/ext/snprintk.c:366
    1eee:	f046 0620 	orr.w	r6, r6, #32
    1ef2:	e6d1      	b.n	1c98 <__vsnprintf+0xf4>
/home/yin/imx-optee/imx-optee-os/lib/libutils/ext/snprintk.c:362
    1ef4:	f046 0610 	orr.w	r6, r6, #16
    1ef8:	e6ce      	b.n	1c98 <__vsnprintf+0xf4>
/home/yin/imx-optee/imx-optee-os/lib/libutils/ext/snprintk.c:369
    1efa:	f446 7680 	orr.w	r6, r6, #256	; 0x100
    1efe:	e6cb      	b.n	1c98 <__vsnprintf+0xf4>
/home/yin/imx-optee/imx-optee-os/lib/libutils/ext/snprintk.c:372
    1f00:	f446 7600 	orr.w	r6, r6, #512	; 0x200
    1f04:	e6c8      	b.n	1c98 <__vsnprintf+0xf4>
/home/yin/imx-optee/imx-optee-os/lib/libutils/ext/snprintk.c:375
    1f06:	1d17      	adds	r7, r2, #4
/home/yin/imx-optee/imx-optee-os/lib/libutils/ext/snprintk.c:285
    1f08:	f04f 0a00 	mov.w	sl, #0
/home/yin/imx-optee/imx-optee-os/lib/libutils/ext/snprintk.c:375
    1f0c:	6812      	ldr	r2, [r2, #0]
/home/yin/imx-optee/imx-optee-os/lib/libutils/ext/snprintk.c:376
    1f0e:	f04f 0b01 	mov.w	fp, #1
/home/yin/imx-optee/imx-optee-os/lib/libutils/ext/snprintk.c:377
    1f12:	4650      	mov	r0, sl
/home/yin/imx-optee/imx-optee-os/lib/libutils/ext/snprintk.c:375
    1f14:	ab1e      	add	r3, sp, #120	; 0x78
    1f16:	f803 2d28 	strb.w	r2, [r3, #-40]!
/home/yin/imx-optee/imx-optee-os/lib/libutils/ext/snprintk.c:565
    1f1a:	4558      	cmp	r0, fp
    1f1c:	4602      	mov	r2, r0
    1f1e:	bfb8      	it	lt
    1f20:	465a      	movlt	r2, fp
/home/yin/imx-optee/imx-optee-os/lib/libutils/ext/snprintk.c:566
    1f22:	f1ba 0f00 	cmp.w	sl, #0
    1f26:	f000 8165 	beq.w	21f4 <__vsnprintf+0x650>
/home/yin/imx-optee/imx-optee-os/lib/libutils/ext/snprintk.c:567
    1f2a:	3201      	adds	r2, #1
/home/yin/imx-optee/imx-optee-os/lib/libutils/ext/snprintk.c:572
    1f2c:	990c      	ldr	r1, [sp, #48]	; 0x30
    1f2e:	9c0d      	ldr	r4, [sp, #52]	; 0x34
    1f30:	4294      	cmp	r4, r2
    1f32:	bfac      	ite	ge
    1f34:	1909      	addge	r1, r1, r4
    1f36:	1889      	addlt	r1, r1, r2
    1f38:	910c      	str	r1, [sp, #48]	; 0x30
/home/yin/imx-optee/imx-optee-os/lib/libutils/ext/snprintk.c:575
    1f3a:	f240 4104 	movw	r1, #1028	; 0x404
    1f3e:	ea16 0401 	ands.w	r4, r6, r1
    1f42:	d106      	bne.n	1f52 <__vsnprintf+0x3ae>
/home/yin/imx-optee/imx-optee-os/lib/libutils/ext/snprintk.c:576
    1f44:	990d      	ldr	r1, [sp, #52]	; 0x34
/home/yin/imx-optee/imx-optee-os/lib/libutils/ext/snprintk.c:578
    1f46:	f04f 0c20 	mov.w	ip, #32
/home/yin/imx-optee/imx-optee-os/lib/libutils/ext/snprintk.c:576
    1f4a:	1a89      	subs	r1, r1, r2
/home/yin/imx-optee/imx-optee-os/lib/libutils/ext/snprintk.c:577
    1f4c:	2900      	cmp	r1, #0
    1f4e:	f300 8155 	bgt.w	21fc <__vsnprintf+0x658>
/home/yin/imx-optee/imx-optee-os/lib/libutils/ext/snprintk.c:582
    1f52:	f1ba 0f00 	cmp.w	sl, #0
    1f56:	f000 8166 	beq.w	2226 <__vsnprintf+0x682>
/home/yin/imx-optee/imx-optee-os/lib/libutils/ext/snprintk.c:583
    1f5a:	f1b8 0f00 	cmp.w	r8, #0
    1f5e:	f040 8159 	bne.w	2214 <__vsnprintf+0x670>
/home/yin/imx-optee/imx-optee-os/lib/libutils/ext/snprintk.c:586
    1f62:	f04f 0800 	mov.w	r8, #0
/home/yin/imx-optee/imx-optee-os/lib/libutils/ext/snprintk.c:590
    1f66:	f5b4 6f80 	cmp.w	r4, #1024	; 0x400
    1f6a:	d105      	bne.n	1f78 <__vsnprintf+0x3d4>
/home/yin/imx-optee/imx-optee-os/lib/libutils/ext/snprintk.c:591
    1f6c:	990d      	ldr	r1, [sp, #52]	; 0x34
/home/yin/imx-optee/imx-optee-os/lib/libutils/ext/snprintk.c:593
    1f6e:	2430      	movs	r4, #48	; 0x30
/home/yin/imx-optee/imx-optee-os/lib/libutils/ext/snprintk.c:591
    1f70:	1a89      	subs	r1, r1, r2
/home/yin/imx-optee/imx-optee-os/lib/libutils/ext/snprintk.c:592
    1f72:	2900      	cmp	r1, #0
    1f74:	f300 8172 	bgt.w	225c <__vsnprintf+0x6b8>
/home/yin/imx-optee/imx-optee-os/lib/libutils/ext/snprintk.c:597
    1f78:	eba0 000b 	sub.w	r0, r0, fp
/home/yin/imx-optee/imx-optee-os/lib/libutils/ext/snprintk.c:599
    1f7c:	2130      	movs	r1, #48	; 0x30
/home/yin/imx-optee/imx-optee-os/lib/libutils/ext/snprintk.c:598
    1f7e:	2800      	cmp	r0, #0
    1f80:	f300 8178 	bgt.w	2274 <__vsnprintf+0x6d0>
    1f84:	eb03 010b 	add.w	r1, r3, fp
/home/yin/imx-optee/imx-optee-os/lib/libutils/ext/snprintk.c:602
    1f88:	428b      	cmp	r3, r1
    1f8a:	f040 817f 	bne.w	228c <__vsnprintf+0x6e8>
/home/yin/imx-optee/imx-optee-os/lib/libutils/ext/snprintk.c:605
    1f8e:	0773      	lsls	r3, r6, #29
    1f90:	f57f ae19 	bpl.w	1bc6 <__vsnprintf+0x22>
/home/yin/imx-optee/imx-optee-os/lib/libutils/ext/snprintk.c:606
    1f94:	9b0d      	ldr	r3, [sp, #52]	; 0x34
    1f96:	1a9b      	subs	r3, r3, r2
/home/yin/imx-optee/imx-optee-os/lib/libutils/ext/snprintk.c:608
    1f98:	2220      	movs	r2, #32
/home/yin/imx-optee/imx-optee-os/lib/libutils/ext/snprintk.c:607
    1f9a:	2b00      	cmp	r3, #0
    1f9c:	f77f ae13 	ble.w	1bc6 <__vsnprintf+0x22>
/home/yin/imx-optee/imx-optee-os/lib/libutils/ext/snprintk.c:608
    1fa0:	f1b8 0f00 	cmp.w	r8, #0
    1fa4:	d006      	beq.n	1fb4 <__vsnprintf+0x410>
    1fa6:	990e      	ldr	r1, [sp, #56]	; 0x38
    1fa8:	4541      	cmp	r1, r8
    1faa:	bf84      	itt	hi
    1fac:	f888 2000 	strbhi.w	r2, [r8]
    1fb0:	f108 0801 	addhi.w	r8, r8, #1
    1fb4:	3b01      	subs	r3, #1
    1fb6:	e7f0      	b.n	1f9a <__vsnprintf+0x3f6>
/home/yin/imx-optee/imx-optee-os/lib/libutils/ext/snprintk.c:380
    1fb8:	f046 0610 	orr.w	r6, r6, #16
/home/yin/imx-optee/imx-optee-os/lib/libutils/ext/snprintk.c:384
    1fbc:	0631      	lsls	r1, r6, #24
    1fbe:	d523      	bpl.n	2008 <__vsnprintf+0x464>
    1fc0:	3207      	adds	r2, #7
    1fc2:	f022 0207 	bic.w	r2, r2, #7
    1fc6:	e9d2 4500 	ldrd	r4, r5, [r2]
    1fca:	f102 0708 	add.w	r7, r2, #8
/home/yin/imx-optee/imx-optee-os/lib/libutils/ext/snprintk.c:385
    1fce:	2c00      	cmp	r4, #0
    1fd0:	f175 0300 	sbcs.w	r3, r5, #0
    1fd4:	da04      	bge.n	1fe0 <__vsnprintf+0x43c>
/home/yin/imx-optee/imx-optee-os/lib/libutils/ext/snprintk.c:386
    1fd6:	4264      	negs	r4, r4
/home/yin/imx-optee/imx-optee-os/lib/libutils/ext/snprintk.c:387
    1fd8:	f04f 0a2d 	mov.w	sl, #45	; 0x2d
/home/yin/imx-optee/imx-optee-os/lib/libutils/ext/snprintk.c:386
    1fdc:	eb65 0545 	sbc.w	r5, r5, r5, lsl #1
/home/yin/imx-optee/imx-optee-os/lib/libutils/ext/snprintk.c:488
    1fe0:	f1bb 3fff 	cmp.w	fp, #4294967295	; 0xffffffff
    1fe4:	f040 80ec 	bne.w	21c0 <__vsnprintf+0x61c>
/home/yin/imx-optee/imx-optee-os/lib/libutils/ext/snprintk.c:508
    1fe8:	f10d 0375 	add.w	r3, sp, #117	; 0x75
    1fec:	9311      	str	r3, [sp, #68]	; 0x44
/home/yin/imx-optee/imx-optee-os/lib/libutils/ext/snprintk.c:516
    1fee:	2d00      	cmp	r5, #0
    1ff0:	9b11      	ldr	r3, [sp, #68]	; 0x44
    1ff2:	bf08      	it	eq
    1ff4:	2c0a      	cmpeq	r4, #10
    1ff6:	f103 33ff 	add.w	r3, r3, #4294967295	; 0xffffffff
    1ffa:	f080 80e5 	bcs.w	21c8 <__vsnprintf+0x624>
/home/yin/imx-optee/imx-optee-os/lib/libutils/ext/snprintk.c:520
    1ffe:	9a11      	ldr	r2, [sp, #68]	; 0x44
    2000:	3430      	adds	r4, #48	; 0x30
    2002:	f802 4c01 	strb.w	r4, [r2, #-1]
    2006:	e6ad      	b.n	1d64 <__vsnprintf+0x1c0>
/home/yin/imx-optee/imx-optee-os/lib/libutils/ext/snprintk.c:384
    2008:	05f3      	lsls	r3, r6, #23
    200a:	d503      	bpl.n	2014 <__vsnprintf+0x470>
    200c:	1d17      	adds	r7, r2, #4
    200e:	6814      	ldr	r4, [r2, #0]
    2010:	17e5      	asrs	r5, r4, #31
    2012:	e7dc      	b.n	1fce <__vsnprintf+0x42a>
    2014:	05b7      	lsls	r7, r6, #22
    2016:	d4f9      	bmi.n	200c <__vsnprintf+0x468>
    2018:	06b5      	lsls	r5, r6, #26
    201a:	d4d1      	bmi.n	1fc0 <__vsnprintf+0x41c>
    201c:	f016 0f10 	tst.w	r6, #16
    2020:	f102 0704 	add.w	r7, r2, #4
    2024:	d1f3      	bne.n	200e <__vsnprintf+0x46a>
    2026:	6814      	ldr	r4, [r2, #0]
    2028:	f016 0f40 	tst.w	r6, #64	; 0x40
    202c:	bf18      	it	ne
    202e:	b224      	sxthne	r4, r4
    2030:	e7ee      	b.n	2010 <__vsnprintf+0x46c>
/home/yin/imx-optee/imx-optee-os/lib/libutils/ext/snprintk.c:392
    2032:	f016 0f80 	tst.w	r6, #128	; 0x80
    2036:	f102 0704 	add.w	r7, r2, #4
    203a:	d006      	beq.n	204a <__vsnprintf+0x4a6>
/home/yin/imx-optee/imx-optee-os/lib/libutils/ext/snprintk.c:399
    203c:	6813      	ldr	r3, [r2, #0]
    203e:	9a0c      	ldr	r2, [sp, #48]	; 0x30
    2040:	4610      	mov	r0, r2
    2042:	17d1      	asrs	r1, r2, #31
    2044:	e9c3 0100 	strd	r0, r1, [r3]
    2048:	e5bd      	b.n	1bc6 <__vsnprintf+0x22>
/home/yin/imx-optee/imx-optee-os/lib/libutils/ext/snprintk.c:394
    204a:	05f4      	lsls	r4, r6, #23
    204c:	d503      	bpl.n	2056 <__vsnprintf+0x4b2>
/home/yin/imx-optee/imx-optee-os/lib/libutils/ext/snprintk.c:405
    204e:	6813      	ldr	r3, [r2, #0]
    2050:	9a0c      	ldr	r2, [sp, #48]	; 0x30
    2052:	601a      	str	r2, [r3, #0]
    2054:	e5b7      	b.n	1bc6 <__vsnprintf+0x22>
/home/yin/imx-optee/imx-optee-os/lib/libutils/ext/snprintk.c:396
    2056:	05b0      	lsls	r0, r6, #22
    2058:	d4f9      	bmi.n	204e <__vsnprintf+0x4aa>
/home/yin/imx-optee/imx-optee-os/lib/libutils/ext/snprintk.c:398
    205a:	06b1      	lsls	r1, r6, #26
    205c:	d4ee      	bmi.n	203c <__vsnprintf+0x498>
/home/yin/imx-optee/imx-optee-os/lib/libutils/ext/snprintk.c:400
    205e:	06f3      	lsls	r3, r6, #27
    2060:	d4f5      	bmi.n	204e <__vsnprintf+0x4aa>
/home/yin/imx-optee/imx-optee-os/lib/libutils/ext/snprintk.c:402
    2062:	0676      	lsls	r6, r6, #25
    2064:	d5f3      	bpl.n	204e <__vsnprintf+0x4aa>
/home/yin/imx-optee/imx-optee-os/lib/libutils/ext/snprintk.c:403
    2066:	6813      	ldr	r3, [r2, #0]
    2068:	f8bd 2030 	ldrh.w	r2, [sp, #48]	; 0x30
    206c:	801a      	strh	r2, [r3, #0]
    206e:	e5aa      	b.n	1bc6 <__vsnprintf+0x22>
/home/yin/imx-optee/imx-optee-os/lib/libutils/ext/snprintk.c:411
    2070:	05f4      	lsls	r4, r6, #23
    2072:	d502      	bpl.n	207a <__vsnprintf+0x4d6>
    2074:	1d17      	adds	r7, r2, #4
    2076:	6814      	ldr	r4, [r2, #0]
    2078:	e00c      	b.n	2094 <__vsnprintf+0x4f0>
    207a:	05b0      	lsls	r0, r6, #22
    207c:	d4fa      	bmi.n	2074 <__vsnprintf+0x4d0>
    207e:	06b1      	lsls	r1, r6, #26
    2080:	f53f ae36 	bmi.w	1cf0 <__vsnprintf+0x14c>
    2084:	f016 0f10 	tst.w	r6, #16
    2088:	f102 0704 	add.w	r7, r2, #4
    208c:	d1f3      	bne.n	2076 <__vsnprintf+0x4d2>
    208e:	0673      	lsls	r3, r6, #25
    2090:	d5f1      	bpl.n	2076 <__vsnprintf+0x4d2>
    2092:	8814      	ldrh	r4, [r2, #0]
    2094:	2500      	movs	r5, #0
    2096:	e632      	b.n	1cfe <__vsnprintf+0x15a>
/home/yin/imx-optee/imx-optee-os/lib/libutils/ext/snprintk.c:415
    2098:	9b13      	ldr	r3, [sp, #76]	; 0x4c
    209a:	2b00      	cmp	r3, #0
    209c:	d02d      	beq.n	20fa <__vsnprintf+0x556>
    209e:	9b0b      	ldr	r3, [sp, #44]	; 0x2c
    20a0:	781b      	ldrb	r3, [r3, #0]
    20a2:	2b55      	cmp	r3, #85	; 0x55
    20a4:	d129      	bne.n	20fa <__vsnprintf+0x556>
    20a6:	9b0b      	ldr	r3, [sp, #44]	; 0x2c
    20a8:	785b      	ldrb	r3, [r3, #1]
    20aa:	2b6c      	cmp	r3, #108	; 0x6c
    20ac:	d125      	bne.n	20fa <__vsnprintf+0x556>
/home/yin/imx-optee/imx-optee-os/lib/libutils/ext/snprintk.c:420
    20ae:	9b0b      	ldr	r3, [sp, #44]	; 0x2c
/home/yin/imx-optee/imx-optee-os/lib/libutils/ext/snprintk.c:421
    20b0:	1d17      	adds	r7, r2, #4
uuid2str():
/home/yin/imx-optee/imx-optee-os/lib/libutils/ext/snprintk.c:223
    20b2:	ac14      	add	r4, sp, #80	; 0x50
    20b4:	2125      	movs	r1, #37	; 0x25
    20b6:	4620      	mov	r0, r4
kprintf():
/home/yin/imx-optee/imx-optee-os/lib/libutils/ext/snprintk.c:420
    20b8:	3302      	adds	r3, #2
    20ba:	930b      	str	r3, [sp, #44]	; 0x2c
/home/yin/imx-optee/imx-optee-os/lib/libutils/ext/snprintk.c:421
    20bc:	6813      	ldr	r3, [r2, #0]
uuid2str():
/home/yin/imx-optee/imx-optee-os/lib/libutils/ext/snprintk.c:223
    20be:	7bda      	ldrb	r2, [r3, #15]
    20c0:	9209      	str	r2, [sp, #36]	; 0x24
    20c2:	7b9a      	ldrb	r2, [r3, #14]
    20c4:	9208      	str	r2, [sp, #32]
    20c6:	7b5a      	ldrb	r2, [r3, #13]
    20c8:	9207      	str	r2, [sp, #28]
    20ca:	7b1a      	ldrb	r2, [r3, #12]
    20cc:	9206      	str	r2, [sp, #24]
    20ce:	7ada      	ldrb	r2, [r3, #11]
    20d0:	9205      	str	r2, [sp, #20]
    20d2:	7a9a      	ldrb	r2, [r3, #10]
    20d4:	9204      	str	r2, [sp, #16]
    20d6:	7a5a      	ldrb	r2, [r3, #9]
    20d8:	9203      	str	r2, [sp, #12]
    20da:	7a1a      	ldrb	r2, [r3, #8]
    20dc:	9202      	str	r2, [sp, #8]
    20de:	88da      	ldrh	r2, [r3, #6]
    20e0:	9201      	str	r2, [sp, #4]
    20e2:	889a      	ldrh	r2, [r3, #4]
    20e4:	9200      	str	r2, [sp, #0]
    20e6:	4a78      	ldr	r2, [pc, #480]	; (22c8 <__vsnprintf+0x724>)
    20e8:	681b      	ldr	r3, [r3, #0]
    20ea:	447a      	add	r2, pc
    20ec:	f000 f8f9 	bl	22e2 <snprintk>
    20f0:	4683      	mov	fp, r0
kprintf():
/home/yin/imx-optee/imx-optee-os/lib/libutils/ext/snprintk.c:285
    20f2:	2000      	movs	r0, #0
/home/yin/imx-optee/imx-optee-os/lib/libutils/ext/snprintk.c:424
    20f4:	4682      	mov	sl, r0
/home/yin/imx-optee/imx-optee-os/lib/libutils/ext/snprintk.c:423
    20f6:	4623      	mov	r3, r4
    20f8:	e70f      	b.n	1f1a <__vsnprintf+0x376>
/home/yin/imx-optee/imx-optee-os/lib/libutils/ext/snprintk.c:437
    20fa:	4b74      	ldr	r3, [pc, #464]	; (22cc <__vsnprintf+0x728>)
/home/yin/imx-optee/imx-optee-os/lib/libutils/ext/snprintk.c:435
    20fc:	1d17      	adds	r7, r2, #4
    20fe:	6814      	ldr	r4, [r2, #0]
    2100:	2500      	movs	r5, #0
/home/yin/imx-optee/imx-optee-os/lib/libutils/ext/snprintk.c:438
    2102:	f046 0602 	orr.w	r6, r6, #2
/home/yin/imx-optee/imx-optee-os/lib/libutils/ext/snprintk.c:439
    2106:	f04f 0978 	mov.w	r9, #120	; 0x78
/home/yin/imx-optee/imx-optee-os/lib/libutils/ext/snprintk.c:437
    210a:	447b      	add	r3, pc
    210c:	3311      	adds	r3, #17
    210e:	930f      	str	r3, [sp, #60]	; 0x3c
/home/yin/imx-optee/imx-optee-os/lib/libutils/ext/snprintk.c:488
    2110:	f1bb 3fff 	cmp.w	fp, #4294967295	; 0xffffffff
    2114:	f47f aeab 	bne.w	1e6e <__vsnprintf+0x2ca>
    2118:	f04f 0a00 	mov.w	sl, #0
    211c:	f10d 0375 	add.w	r3, sp, #117	; 0x75
/home/yin/imx-optee/imx-optee-os/lib/libutils/ext/snprintk.c:525
    2120:	990f      	ldr	r1, [sp, #60]	; 0x3c
    2122:	f004 020f 	and.w	r2, r4, #15
    2126:	5c8a      	ldrb	r2, [r1, r2]
/home/yin/imx-optee/imx-optee-os/lib/libutils/ext/snprintk.c:526
    2128:	0929      	lsrs	r1, r5, #4
/home/yin/imx-optee/imx-optee-os/lib/libutils/ext/snprintk.c:525
    212a:	f803 2d01 	strb.w	r2, [r3, #-1]!
/home/yin/imx-optee/imx-optee-os/lib/libutils/ext/snprintk.c:526
    212e:	0922      	lsrs	r2, r4, #4
    2130:	ea42 7205 	orr.w	r2, r2, r5, lsl #28
    2134:	460d      	mov	r5, r1
    2136:	4614      	mov	r4, r2
/home/yin/imx-optee/imx-optee-os/lib/libutils/ext/snprintk.c:527
    2138:	ea54 0205 	orrs.w	r2, r4, r5
    213c:	d1f0      	bne.n	2120 <__vsnprintf+0x57c>
    213e:	e611      	b.n	1d64 <__vsnprintf+0x1c0>
/home/yin/imx-optee/imx-optee-os/lib/libutils/ext/snprintk.c:460
    2140:	4618      	mov	r0, r3
    2142:	9311      	str	r3, [sp, #68]	; 0x44
    2144:	f001 f8d8 	bl	32f8 <strlen>
    2148:	4683      	mov	fp, r0
/home/yin/imx-optee/imx-optee-os/lib/libutils/ext/snprintk.c:285
    214a:	2000      	movs	r0, #0
/home/yin/imx-optee/imx-optee-os/lib/libutils/ext/snprintk.c:461
    214c:	4682      	mov	sl, r0
    214e:	9b11      	ldr	r3, [sp, #68]	; 0x44
    2150:	e6e3      	b.n	1f1a <__vsnprintf+0x376>
/home/yin/imx-optee/imx-optee-os/lib/libutils/ext/snprintk.c:464
    2152:	f046 0610 	orr.w	r6, r6, #16
    2156:	e661      	b.n	1e1c <__vsnprintf+0x278>
/home/yin/imx-optee/imx-optee-os/lib/libutils/ext/snprintk.c:467
    2158:	f416 7a80 	ands.w	sl, r6, #256	; 0x100
    215c:	d003      	beq.n	2166 <__vsnprintf+0x5c2>
    215e:	6814      	ldr	r4, [r2, #0]
    2160:	1d17      	adds	r7, r2, #4
    2162:	2500      	movs	r5, #0
    2164:	e665      	b.n	1e32 <__vsnprintf+0x28e>
    2166:	f416 7300 	ands.w	r3, r6, #512	; 0x200
    216a:	d003      	beq.n	2174 <__vsnprintf+0x5d0>
    216c:	1d17      	adds	r7, r2, #4
    216e:	6814      	ldr	r4, [r2, #0]
    2170:	2500      	movs	r5, #0
    2172:	e735      	b.n	1fe0 <__vsnprintf+0x43c>
    2174:	f016 0a20 	ands.w	sl, r6, #32
    2178:	f47f ae54 	bne.w	1e24 <__vsnprintf+0x280>
    217c:	f016 0310 	ands.w	r3, r6, #16
    2180:	f102 0704 	add.w	r7, r2, #4
    2184:	d1f3      	bne.n	216e <__vsnprintf+0x5ca>
    2186:	f016 0a40 	ands.w	sl, r6, #64	; 0x40
    218a:	d0f0      	beq.n	216e <__vsnprintf+0x5ca>
    218c:	8814      	ldrh	r4, [r2, #0]
    218e:	e7e8      	b.n	2162 <__vsnprintf+0x5be>
/home/yin/imx-optee/imx-optee-os/lib/libutils/ext/snprintk.c:474
    2190:	4b4f      	ldr	r3, [pc, #316]	; (22d0 <__vsnprintf+0x72c>)
    2192:	447b      	add	r3, pc
    2194:	3311      	adds	r3, #17
    2196:	e652      	b.n	1e3e <__vsnprintf+0x29a>
/home/yin/imx-optee/imx-optee-os/lib/libutils/ext/snprintk.c:475
    2198:	05f5      	lsls	r5, r6, #23
    219a:	d502      	bpl.n	21a2 <__vsnprintf+0x5fe>
    219c:	1d17      	adds	r7, r2, #4
    219e:	6814      	ldr	r4, [r2, #0]
    21a0:	e00c      	b.n	21bc <__vsnprintf+0x618>
    21a2:	05b4      	lsls	r4, r6, #22
    21a4:	d4fa      	bmi.n	219c <__vsnprintf+0x5f8>
    21a6:	06b0      	lsls	r0, r6, #26
    21a8:	f53f ae4d 	bmi.w	1e46 <__vsnprintf+0x2a2>
    21ac:	f016 0f10 	tst.w	r6, #16
    21b0:	f102 0704 	add.w	r7, r2, #4
    21b4:	d1f3      	bne.n	219e <__vsnprintf+0x5fa>
    21b6:	0671      	lsls	r1, r6, #25
    21b8:	d5f1      	bpl.n	219e <__vsnprintf+0x5fa>
    21ba:	8814      	ldrh	r4, [r2, #0]
    21bc:	2500      	movs	r5, #0
    21be:	e649      	b.n	1e54 <__vsnprintf+0x2b0>
/home/yin/imx-optee/imx-optee-os/lib/libutils/ext/snprintk.c:488
    21c0:	2301      	movs	r3, #1
    21c2:	e5a2      	b.n	1d0a <__vsnprintf+0x166>
/home/yin/imx-optee/imx-optee-os/lib/libutils/ext/snprintk.c:508
    21c4:	461a      	mov	r2, r3
    21c6:	e5b3      	b.n	1d30 <__vsnprintf+0x18c>
/home/yin/imx-optee/imx-optee-os/lib/libutils/ext/snprintk.c:517
    21c8:	9311      	str	r3, [sp, #68]	; 0x44
    21ca:	4620      	mov	r0, r4
    21cc:	4629      	mov	r1, r5
    21ce:	220a      	movs	r2, #10
    21d0:	2300      	movs	r3, #0
    21d2:	f000 ea5e 	blx	2690 <__aeabi_uldivmod>
    21d6:	9b11      	ldr	r3, [sp, #68]	; 0x44
    21d8:	3230      	adds	r2, #48	; 0x30
/home/yin/imx-optee/imx-optee-os/lib/libutils/ext/snprintk.c:518
    21da:	4620      	mov	r0, r4
    21dc:	4629      	mov	r1, r5
/home/yin/imx-optee/imx-optee-os/lib/libutils/ext/snprintk.c:517
    21de:	701a      	strb	r2, [r3, #0]
/home/yin/imx-optee/imx-optee-os/lib/libutils/ext/snprintk.c:518
    21e0:	220a      	movs	r2, #10
    21e2:	2300      	movs	r3, #0
    21e4:	f000 ea54 	blx	2690 <__aeabi_uldivmod>
    21e8:	4604      	mov	r4, r0
    21ea:	460d      	mov	r5, r1
    21ec:	e6ff      	b.n	1fee <__vsnprintf+0x44a>
/home/yin/imx-optee/imx-optee-os/lib/libutils/ext/snprintk.c:496
    21ee:	f10d 0375 	add.w	r3, sp, #117	; 0x75
    21f2:	e5b7      	b.n	1d64 <__vsnprintf+0x1c0>
/home/yin/imx-optee/imx-optee-os/lib/libutils/ext/snprintk.c:568
    21f4:	07b4      	lsls	r4, r6, #30
/home/yin/imx-optee/imx-optee-os/lib/libutils/ext/snprintk.c:569
    21f6:	bf48      	it	mi
    21f8:	3202      	addmi	r2, #2
    21fa:	e697      	b.n	1f2c <__vsnprintf+0x388>
/home/yin/imx-optee/imx-optee-os/lib/libutils/ext/snprintk.c:578
    21fc:	f1b8 0f00 	cmp.w	r8, #0
    2200:	d006      	beq.n	2210 <__vsnprintf+0x66c>
    2202:	9d0e      	ldr	r5, [sp, #56]	; 0x38
    2204:	4545      	cmp	r5, r8
    2206:	bf84      	itt	hi
    2208:	f888 c000 	strbhi.w	ip, [r8]
    220c:	f108 0801 	addhi.w	r8, r8, #1
    2210:	3901      	subs	r1, #1
    2212:	e69b      	b.n	1f4c <__vsnprintf+0x3a8>
/home/yin/imx-optee/imx-optee-os/lib/libutils/ext/snprintk.c:583
    2214:	990e      	ldr	r1, [sp, #56]	; 0x38
    2216:	4541      	cmp	r1, r8
    2218:	f67f aea5 	bls.w	1f66 <__vsnprintf+0x3c2>
    221c:	f888 a000 	strb.w	sl, [r8]
    2220:	f108 0801 	add.w	r8, r8, #1
    2224:	e69f      	b.n	1f66 <__vsnprintf+0x3c2>
/home/yin/imx-optee/imx-optee-os/lib/libutils/ext/snprintk.c:584
    2226:	07b1      	lsls	r1, r6, #30
    2228:	f57f ae9d 	bpl.w	1f66 <__vsnprintf+0x3c2>
/home/yin/imx-optee/imx-optee-os/lib/libutils/ext/snprintk.c:585
    222c:	f1b8 0f00 	cmp.w	r8, #0
    2230:	f43f ae97 	beq.w	1f62 <__vsnprintf+0x3be>
    2234:	990e      	ldr	r1, [sp, #56]	; 0x38
    2236:	4541      	cmp	r1, r8
    2238:	f67f ae95 	bls.w	1f66 <__vsnprintf+0x3c2>
    223c:	2130      	movs	r1, #48	; 0x30
    223e:	f888 1000 	strb.w	r1, [r8]
/home/yin/imx-optee/imx-optee-os/lib/libutils/ext/snprintk.c:586
    2242:	f118 0101 	adds.w	r1, r8, #1
    2246:	f43f ae8c 	beq.w	1f62 <__vsnprintf+0x3be>
    224a:	9d0e      	ldr	r5, [sp, #56]	; 0x38
    224c:	428d      	cmp	r5, r1
    224e:	bf8a      	itet	hi
    2250:	f888 9001 	strbhi.w	r9, [r8, #1]
    2254:	4688      	movls	r8, r1
    2256:	f108 0802 	addhi.w	r8, r8, #2
    225a:	e684      	b.n	1f66 <__vsnprintf+0x3c2>
/home/yin/imx-optee/imx-optee-os/lib/libutils/ext/snprintk.c:593
    225c:	f1b8 0f00 	cmp.w	r8, #0
    2260:	d006      	beq.n	2270 <__vsnprintf+0x6cc>
    2262:	9d0e      	ldr	r5, [sp, #56]	; 0x38
    2264:	4545      	cmp	r5, r8
    2266:	bf84      	itt	hi
    2268:	f888 4000 	strbhi.w	r4, [r8]
    226c:	f108 0801 	addhi.w	r8, r8, #1
    2270:	3901      	subs	r1, #1
    2272:	e67e      	b.n	1f72 <__vsnprintf+0x3ce>
/home/yin/imx-optee/imx-optee-os/lib/libutils/ext/snprintk.c:599
    2274:	f1b8 0f00 	cmp.w	r8, #0
    2278:	d006      	beq.n	2288 <__vsnprintf+0x6e4>
    227a:	9c0e      	ldr	r4, [sp, #56]	; 0x38
    227c:	4544      	cmp	r4, r8
    227e:	bf84      	itt	hi
    2280:	f888 1000 	strbhi.w	r1, [r8]
    2284:	f108 0801 	addhi.w	r8, r8, #1
    2288:	3801      	subs	r0, #1
    228a:	e678      	b.n	1f7e <__vsnprintf+0x3da>
/home/yin/imx-optee/imx-optee-os/lib/libutils/ext/snprintk.c:603
    228c:	f1b8 0f00 	cmp.w	r8, #0
    2290:	d007      	beq.n	22a2 <__vsnprintf+0x6fe>
    2292:	980e      	ldr	r0, [sp, #56]	; 0x38
    2294:	4540      	cmp	r0, r8
    2296:	bf82      	ittt	hi
    2298:	7818      	ldrbhi	r0, [r3, #0]
    229a:	f888 0000 	strbhi.w	r0, [r8]
    229e:	f108 0801 	addhi.w	r8, r8, #1
/home/yin/imx-optee/imx-optee-os/lib/libutils/ext/snprintk.c:602
    22a2:	3301      	adds	r3, #1
    22a4:	e670      	b.n	1f88 <__vsnprintf+0x3e4>
/home/yin/imx-optee/imx-optee-os/lib/libutils/ext/snprintk.c:489
    22a6:	f426 6680 	bic.w	r6, r6, #1024	; 0x400
/home/yin/imx-optee/imx-optee-os/lib/libutils/ext/snprintk.c:482
    22aa:	f04f 0a00 	mov.w	sl, #0
/home/yin/imx-optee/imx-optee-os/lib/libutils/ext/snprintk.c:476
    22ae:	2302      	movs	r3, #2
    22b0:	e530      	b.n	1d14 <__vsnprintf+0x170>
/home/yin/imx-optee/imx-optee-os/lib/libutils/ext/snprintk.c:488
    22b2:	f1bb 3fff 	cmp.w	fp, #4294967295	; 0xffffffff
    22b6:	d1f6      	bne.n	22a6 <__vsnprintf+0x702>
    22b8:	f04f 3bff 	mov.w	fp, #4294967295	; 0xffffffff
    22bc:	e72c      	b.n	2118 <__vsnprintf+0x574>
    22be:	bf00      	nop
    22c0:	000045e9 	.word	0x000045e9
    22c4:	00004569 	.word	0x00004569
    22c8:	000042e4 	.word	0x000042e4
    22cc:	0000429b 	.word	0x0000429b
    22d0:	00004213 	.word	0x00004213

000022d4 <vsnprintk>:
vsnprintk():
/home/yin/imx-optee/imx-optee-os/lib/libutils/ext/snprintk.c:129
    22d4:	b513      	push	{r0, r1, r4, lr}
/home/yin/imx-optee/imx-optee-os/lib/libutils/ext/snprintk.c:130
    22d6:	2401      	movs	r4, #1
    22d8:	9400      	str	r4, [sp, #0]
    22da:	f7ff fc63 	bl	1ba4 <__vsnprintf>
/home/yin/imx-optee/imx-optee-os/lib/libutils/ext/snprintk.c:131
    22de:	b002      	add	sp, #8
    22e0:	bd10      	pop	{r4, pc}

000022e2 <snprintk>:
snprintk():
/home/yin/imx-optee/imx-optee-os/lib/libutils/ext/snprintk.c:112
    22e2:	b40c      	push	{r2, r3}
    22e4:	b507      	push	{r0, r1, r2, lr}
    22e6:	ab04      	add	r3, sp, #16
    22e8:	f853 2b04 	ldr.w	r2, [r3], #4
/home/yin/imx-optee/imx-optee-os/lib/libutils/ext/snprintk.c:116
    22ec:	9301      	str	r3, [sp, #4]
/home/yin/imx-optee/imx-optee-os/lib/libutils/ext/snprintk.c:117
    22ee:	f7ff fff1 	bl	22d4 <vsnprintk>
/home/yin/imx-optee/imx-optee-os/lib/libutils/ext/snprintk.c:121
    22f2:	b003      	add	sp, #12
    22f4:	f85d eb04 	ldr.w	lr, [sp], #4
    22f8:	b002      	add	sp, #8
    22fa:	4770      	bx	lr

000022fc <append>:
append():
/home/yin/imx-optee/imx-optee-os/lib/libutils/ext/trace.c:168
    22fc:	b40e      	push	{r1, r2, r3}
/home/yin/imx-optee/imx-optee-os/lib/libutils/ext/trace.c:173
    22fe:	f8d0 3100 	ldr.w	r3, [r0, #256]	; 0x100
/home/yin/imx-optee/imx-optee-os/lib/libutils/ext/trace.c:168
    2302:	b533      	push	{r0, r1, r4, r5, lr}
    2304:	4604      	mov	r4, r0
/home/yin/imx-optee/imx-optee-os/lib/libutils/ext/trace.c:173
    2306:	b90b      	cbnz	r3, 230c <append+0x10>
/home/yin/imx-optee/imx-optee-os/lib/libutils/ext/trace.c:174
    2308:	f8c4 0100 	str.w	r0, [r4, #256]	; 0x100
/home/yin/imx-optee/imx-optee-os/lib/libutils/ext/trace.c:175
    230c:	f8d4 0100 	ldr.w	r0, [r4, #256]	; 0x100
/home/yin/imx-optee/imx-optee-os/lib/libutils/ext/trace.c:176
    2310:	ab06      	add	r3, sp, #24
/home/yin/imx-optee/imx-optee-os/lib/libutils/ext/trace.c:177
    2312:	9a05      	ldr	r2, [sp, #20]
/home/yin/imx-optee/imx-optee-os/lib/libutils/ext/trace.c:176
    2314:	9301      	str	r3, [sp, #4]
/home/yin/imx-optee/imx-optee-os/lib/libutils/ext/trace.c:175
    2316:	1b05      	subs	r5, r0, r4
    2318:	f5c5 7580 	rsb	r5, r5, #256	; 0x100
/home/yin/imx-optee/imx-optee-os/lib/libutils/ext/trace.c:177
    231c:	4629      	mov	r1, r5
    231e:	f7ff ffd9 	bl	22d4 <vsnprintk>
/home/yin/imx-optee/imx-optee-os/lib/libutils/ext/trace.c:179
    2322:	2800      	cmp	r0, #0
    2324:	db0f      	blt.n	2346 <append+0x4a>
/home/yin/imx-optee/imx-optee-os/lib/libutils/ext/trace.c:183
    2326:	4285      	cmp	r5, r0
    2328:	dd0d      	ble.n	2346 <append+0x4a>
/home/yin/imx-optee/imx-optee-os/lib/libutils/ext/trace.c:187
    232a:	f8d4 3100 	ldr.w	r3, [r4, #256]	; 0x100
    232e:	4285      	cmp	r5, r0
    2330:	bfd4      	ite	le
    2332:	195d      	addle	r5, r3, r5
    2334:	181d      	addgt	r5, r3, r0
/home/yin/imx-optee/imx-optee-os/lib/libutils/ext/trace.c:188
    2336:	2001      	movs	r0, #1
/home/yin/imx-optee/imx-optee-os/lib/libutils/ext/trace.c:187
    2338:	f8c4 5100 	str.w	r5, [r4, #256]	; 0x100
/home/yin/imx-optee/imx-optee-os/lib/libutils/ext/trace.c:189
    233c:	b002      	add	sp, #8
    233e:	e8bd 4030 	ldmia.w	sp!, {r4, r5, lr}
    2342:	b003      	add	sp, #12
    2344:	4770      	bx	lr
/home/yin/imx-optee/imx-optee-os/lib/libutils/ext/trace.c:181
    2346:	2000      	movs	r0, #0
    2348:	e7f8      	b.n	233c <append+0x40>

0000234a <trace_set_level>:
trace_set_level():
/home/yin/imx-optee/imx-optee-os/lib/libutils/ext/trace.c:21
    234a:	1e42      	subs	r2, r0, #1
/home/yin/imx-optee/imx-optee-os/lib/libutils/ext/trace.c:20
    234c:	4b04      	ldr	r3, [pc, #16]	; (2360 <trace_set_level+0x16>)
/home/yin/imx-optee/imx-optee-os/lib/libutils/ext/trace.c:21
    234e:	2a03      	cmp	r2, #3
    2350:	4a04      	ldr	r2, [pc, #16]	; (2364 <trace_set_level+0x1a>)
/home/yin/imx-optee/imx-optee-os/lib/libutils/ext/trace.c:20
    2352:	447b      	add	r3, pc
    2354:	589b      	ldr	r3, [r3, r2]
/home/yin/imx-optee/imx-optee-os/lib/libutils/ext/trace.c:24
    2356:	bf8a      	itet	hi
    2358:	2204      	movhi	r2, #4
/home/yin/imx-optee/imx-optee-os/lib/libutils/ext/trace.c:22
    235a:	6018      	strls	r0, [r3, #0]
/home/yin/imx-optee/imx-optee-os/lib/libutils/ext/trace.c:24
    235c:	601a      	strhi	r2, [r3, #0]
    235e:	4770      	bx	lr
    2360:	0000476e 	.word	0x0000476e
    2364:	00000014 	.word	0x00000014

00002368 <trace_get_level>:
trace_get_level():
/home/yin/imx-optee/imx-optee-os/lib/libutils/ext/trace.c:28
    2368:	4b02      	ldr	r3, [pc, #8]	; (2374 <trace_get_level+0xc>)
/home/yin/imx-optee/imx-optee-os/lib/libutils/ext/trace.c:29
    236a:	4a03      	ldr	r2, [pc, #12]	; (2378 <trace_get_level+0x10>)
/home/yin/imx-optee/imx-optee-os/lib/libutils/ext/trace.c:28
    236c:	447b      	add	r3, pc
/home/yin/imx-optee/imx-optee-os/lib/libutils/ext/trace.c:29
    236e:	589b      	ldr	r3, [r3, r2]
/home/yin/imx-optee/imx-optee-os/lib/libutils/ext/trace.c:30
    2370:	6818      	ldr	r0, [r3, #0]
    2372:	4770      	bx	lr
    2374:	00004754 	.word	0x00004754
    2378:	00000014 	.word	0x00000014

0000237c <trace_printf>:
trace_printf():
/home/yin/imx-optee/imx-optee-os/lib/libutils/ext/trace.c:70
    237c:	e92d 47f0 	stmdb	sp!, {r4, r5, r6, r7, r8, r9, sl, lr}
    2380:	4607      	mov	r7, r0
    2382:	f8df a114 	ldr.w	sl, [pc, #276]	; 2498 <trace_printf+0x11c>
    2386:	b0c6      	sub	sp, #280	; 0x118
    2388:	4688      	mov	r8, r1
    238a:	4616      	mov	r6, r2
/home/yin/imx-optee/imx-optee-os/lib/libutils/ext/trace.c:77
    238c:	4699      	mov	r9, r3
/home/yin/imx-optee/imx-optee-os/lib/libutils/ext/trace.c:70
    238e:	44fa      	add	sl, pc
/home/yin/imx-optee/imx-optee-os/lib/libutils/ext/trace.c:77
    2390:	2b00      	cmp	r3, #0
    2392:	d072      	beq.n	247a <trace_printf+0xfe>
/home/yin/imx-optee/imx-optee-os/lib/libutils/ext/trace.c:77 (discriminator 1)
    2394:	4b41      	ldr	r3, [pc, #260]	; (249c <trace_printf+0x120>)
    2396:	f85a 3003 	ldr.w	r3, [sl, r3]
    239a:	681b      	ldr	r3, [r3, #0]
    239c:	4293      	cmp	r3, r2
    239e:	db69      	blt.n	2474 <trace_printf+0xf8>
trace_level_to_string():
/home/yin/imx-optee/imx-optee-os/lib/libutils/ext/trace.c:47
    23a0:	1e53      	subs	r3, r2, #1
    23a2:	2b03      	cmp	r3, #3
    23a4:	bf98      	it	ls
    23a6:	4613      	movls	r3, r2
/home/yin/imx-optee/imx-optee-os/lib/libutils/ext/trace.c:50
    23a8:	4a3d      	ldr	r2, [pc, #244]	; (24a0 <trace_printf+0x124>)
/home/yin/imx-optee/imx-optee-os/lib/libutils/ext/trace.c:47
    23aa:	bf88      	it	hi
    23ac:	2300      	movhi	r3, #0
/home/yin/imx-optee/imx-optee-os/lib/libutils/ext/trace.c:50
    23ae:	447a      	add	r2, pc
    23b0:	5cd3      	ldrb	r3, [r2, r3]
trace_printf():
/home/yin/imx-optee/imx-optee-os/lib/libutils/ext/trace.c:81
    23b2:	4a3c      	ldr	r2, [pc, #240]	; (24a4 <trace_printf+0x128>)
    23b4:	ad06      	add	r5, sp, #24
    23b6:	f44f 7180 	mov.w	r1, #256	; 0x100
    23ba:	4628      	mov	r0, r5
    23bc:	447a      	add	r2, pc
    23be:	f7ff ff90 	bl	22e2 <snprintk>
/home/yin/imx-optee/imx-optee-os/lib/libutils/ext/trace.c:83
    23c2:	1e04      	subs	r4, r0, #0
    23c4:	db56      	blt.n	2474 <trace_printf+0xf8>
/home/yin/imx-optee/imx-optee-os/lib/libutils/ext/trace.c:88
    23c6:	4b38      	ldr	r3, [pc, #224]	; (24a8 <trace_printf+0x12c>)
    23c8:	f5c4 7180 	rsb	r1, r4, #256	; 0x100
    23cc:	4a37      	ldr	r2, [pc, #220]	; (24ac <trace_printf+0x130>)
    23ce:	1928      	adds	r0, r5, r4
    23d0:	f85a 3003 	ldr.w	r3, [sl, r3]
    23d4:	447a      	add	r2, pc
    23d6:	9303      	str	r3, [sp, #12]
    23d8:	f7ff ff83 	bl	22e2 <snprintk>
/home/yin/imx-optee/imx-optee-os/lib/libutils/ext/trace.c:90
    23dc:	2800      	cmp	r0, #0
    23de:	db49      	blt.n	2474 <trace_printf+0xf8>
/home/yin/imx-optee/imx-optee-os/lib/libutils/ext/trace.c:92
    23e0:	4404      	add	r4, r0
/home/yin/imx-optee/imx-optee-os/lib/libutils/ext/trace.c:95
    23e2:	f1b9 0f00 	cmp.w	r9, #0
    23e6:	d003      	beq.n	23f0 <trace_printf+0x74>
/home/yin/imx-optee/imx-optee-os/lib/libutils/ext/trace.c:95 (discriminator 1)
    23e8:	231a      	movs	r3, #26
    23ea:	40f3      	lsrs	r3, r6
    23ec:	07da      	lsls	r2, r3, #31
    23ee:	d546      	bpl.n	247e <trace_printf+0x102>
/home/yin/imx-optee/imx-optee-os/lib/libutils/ext/trace.c:98
    23f0:	f7fe fea8 	bl	1144 <trace_ext_get_thread_id>
    23f4:	4603      	mov	r3, r0
print_thread_id():
/home/yin/imx-optee/imx-optee-os/lib/libutils/ext/trace.c:61
    23f6:	2b00      	cmp	r3, #0
trace_printf():
/home/yin/imx-optee/imx-optee-os/lib/libutils/ext/trace.c:100
    23f8:	eb05 0004 	add.w	r0, r5, r4
    23fc:	f5c4 7180 	rsb	r1, r4, #256	; 0x100
print_thread_id():
/home/yin/imx-optee/imx-optee-os/lib/libutils/ext/trace.c:61
    2400:	db40      	blt.n	2484 <trace_printf+0x108>
/home/yin/imx-optee/imx-optee-os/lib/libutils/ext/trace.c:62
    2402:	4a2b      	ldr	r2, [pc, #172]	; (24b0 <trace_printf+0x134>)
    2404:	9300      	str	r3, [sp, #0]
    2406:	2301      	movs	r3, #1
    2408:	447a      	add	r2, pc
/home/yin/imx-optee/imx-optee-os/lib/libutils/ext/trace.c:64
    240a:	f7ff ff6a 	bl	22e2 <snprintk>
trace_printf():
/home/yin/imx-optee/imx-optee-os/lib/libutils/ext/trace.c:102
    240e:	2800      	cmp	r0, #0
    2410:	db30      	blt.n	2474 <trace_printf+0xf8>
/home/yin/imx-optee/imx-optee-os/lib/libutils/ext/trace.c:104
    2412:	4404      	add	r4, r0
/home/yin/imx-optee/imx-optee-os/lib/libutils/ext/trace.c:107
    2414:	f1b9 0f00 	cmp.w	r9, #0
    2418:	d003      	beq.n	2422 <trace_printf+0xa6>
/home/yin/imx-optee/imx-optee-os/lib/libutils/ext/trace.c:107 (discriminator 1)
    241a:	221a      	movs	r2, #26
    241c:	40f2      	lsrs	r2, r6
    241e:	07d3      	lsls	r3, r2, #31
    2420:	d50d      	bpl.n	243e <trace_printf+0xc2>
/home/yin/imx-optee/imx-optee-os/lib/libutils/ext/trace.c:110
    2422:	b167      	cbz	r7, 243e <trace_printf+0xc2>
/home/yin/imx-optee/imx-optee-os/lib/libutils/ext/trace.c:111
    2424:	4a23      	ldr	r2, [pc, #140]	; (24b4 <trace_printf+0x138>)
    2426:	463b      	mov	r3, r7
    2428:	f8cd 8000 	str.w	r8, [sp]
    242c:	f5c4 7180 	rsb	r1, r4, #256	; 0x100
    2430:	1928      	adds	r0, r5, r4
    2432:	447a      	add	r2, pc
    2434:	f7ff ff55 	bl	22e2 <snprintk>
/home/yin/imx-optee/imx-optee-os/lib/libutils/ext/trace.c:113
    2438:	2800      	cmp	r0, #0
    243a:	db1b      	blt.n	2474 <trace_printf+0xf8>
/home/yin/imx-optee/imx-optee-os/lib/libutils/ext/trace.c:115
    243c:	4404      	add	r4, r0
/home/yin/imx-optee/imx-optee-os/lib/libutils/ext/trace.c:118
    243e:	ab4f      	add	r3, sp, #316	; 0x13c
/home/yin/imx-optee/imx-optee-os/lib/libutils/ext/trace.c:119
    2440:	f5c4 7180 	rsb	r1, r4, #256	; 0x100
    2444:	1928      	adds	r0, r5, r4
    2446:	9a4e      	ldr	r2, [sp, #312]	; 0x138
/home/yin/imx-optee/imx-optee-os/lib/libutils/ext/trace.c:118
    2448:	9305      	str	r3, [sp, #20]
