
5dbac793-f574-4871-8ad3-04331ec17f24.elf:     file format elf32-littlearm
5dbac793-f574-4871-8ad3-04331ec17f24.elf
architecture: arm, flags 0x00000150:
HAS_SYMS, DYNAMIC, D_PAGED
start address 0x00000020

Program Header:
0x70000001 off    0x00018800 vaddr 0x00008800 paddr 0x00008800 align 2**2
         filesz 0x00000658 memsz 0x00000658 flags r--
    LOAD off    0x00010000 vaddr 0x00000000 paddr 0x00000000 align 2**16
         filesz 0x00006f80 memsz 0x00006f80 flags r-x
    LOAD off    0x00016f80 vaddr 0x00006f80 paddr 0x00006f80 align 2**16
         filesz 0x00002214 memsz 0x00002214 flags r--
    LOAD off    0x0001a000 vaddr 0x0000a000 paddr 0x0000a000 align 2**16
         filesz 0x0000008c memsz 0x0000a9c0 flags rw-
 DYNAMIC off    0x00018f88 vaddr 0x00008f88 paddr 0x00008f88 align 2**2
         filesz 0x00000080 memsz 0x00000080 flags rw-

Dynamic Section:
  HASH                 0x00009150
  STRTAB               0x000090c8
  SYMTAB               0x00009008
  STRSZ                0x00000088
  SYMENT               0x00000010
  DEBUG                0x00000000
  REL                  0x00008e88
  RELSZ                0x00000100
  RELENT               0x00000008
  FLAGS_1              0x08000000
  RELCOUNT             0x00000017
private flags = 5000400: [Version5 EABI] [hard-float ABI]

Sections:
Idx Name          Size      VMA       LMA       File off  Algn
  0 .ta_head      00000020  00000000  00000000  00010000  2**3
                  CONTENTS, ALLOC, LOAD, DATA
  1 .text         00006f60  00000020  00000020  00010020  2**3
                  CONTENTS, ALLOC, LOAD, READONLY, CODE
  2 .rodata       00001753  00006f80  00006f80  00016f80  2**2
                  CONTENTS, ALLOC, LOAD, READONLY, DATA
  3 .ARM.extab    000000fc  000086d4  000086d4  000186d4  2**2
                  CONTENTS, ALLOC, LOAD, READONLY, DATA
  4 .ARM.extab.text.utee_panic 0000000c  000087d0  000087d0  000187d0  2**2
                  CONTENTS, ALLOC, LOAD, READONLY, DATA
  5 .ARM.extab.text.unlikely 0000000c  000087dc  000087dc  000187dc  2**2
                  CONTENTS, ALLOC, LOAD, READONLY, DATA
  6 .ARM.extab.text.__aeabi_ldivmod 0000000c  000087e8  000087e8  000187e8  2**2
                  CONTENTS, ALLOC, LOAD, READONLY, DATA
  7 .ARM.extab.text.__aeabi_uldivmod 0000000c  000087f4  000087f4  000187f4  2**2
                  CONTENTS, ALLOC, LOAD, READONLY, DATA
  8 .ARM.exidx    00000658  00008800  00008800  00018800  2**2
                  CONTENTS, ALLOC, LOAD, READONLY, DATA
  9 .got          00000030  00008e58  00008e58  00018e58  2**2
                  CONTENTS, ALLOC, LOAD, DATA
 10 .dynsym       000000c0  00009008  00009008  00019008  2**2
                  CONTENTS, ALLOC, LOAD, READONLY, DATA
 11 .rel.got      00000048  00008f40  00008f40  00018f40  2**2
                  CONTENTS, ALLOC, LOAD, READONLY, DATA
 12 .dynamic      00000080  00008f88  00008f88  00018f88  2**2
                  CONTENTS, ALLOC, LOAD, DATA
 13 .dynstr       00000088  000090c8  000090c8  000190c8  2**0
                  CONTENTS, ALLOC, LOAD, READONLY, DATA
 14 .hash         00000044  00009150  00009150  00019150  2**2
                  CONTENTS, ALLOC, LOAD, READONLY, DATA
 15 .data         0000008c  0000a000  0000a000  0001a000  2**2
                  CONTENTS, ALLOC, LOAD, DATA
 16 .bss          0000a934  0000a08c  0000a08c  0001a08c  2**2
                  ALLOC
 17 .debug_info   00012295  00000000  00000000  0001a08c  2**0
                  CONTENTS, READONLY, DEBUGGING
 18 .debug_abbrev 0000463c  00000000  00000000  0002c321  2**0
                  CONTENTS, READONLY, DEBUGGING
 19 .debug_loc    0001050c  00000000  00000000  0003095d  2**0
                  CONTENTS, READONLY, DEBUGGING
 20 .debug_aranges 000007f0  00000000  00000000  00040e70  2**3
                  CONTENTS, READONLY, DEBUGGING
 21 .debug_ranges 00000a10  00000000  00000000  00041660  2**3
                  CONTENTS, READONLY, DEBUGGING
 22 .debug_macro  00005c02  00000000  00000000  00042070  2**0
                  CONTENTS, READONLY, DEBUGGING
 23 .debug_line   00006f18  00000000  00000000  00047c72  2**0
                  CONTENTS, READONLY, DEBUGGING
 24 .debug_str    000119b8  00000000  00000000  0004eb8a  2**0
                  CONTENTS, READONLY, DEBUGGING
 25 .comment      00000024  00000000  00000000  00060542  2**0
                  CONTENTS, READONLY
 26 .ARM.attributes 00000035  00000000  00000000  00060566  2**0
                  CONTENTS, READONLY
 27 .debug_frame  00002134  00000000  00000000  0006059c  2**2
                  CONTENTS, READONLY, DEBUGGING
 28 .rel.dyn      000000b8  00008e88  00008e88  00018e88  2**2
                  CONTENTS, ALLOC, LOAD, READONLY, DATA
SYMBOL TABLE:
00000000 l    d  .ta_head	00000000 .ta_head
00000020 l    d  .text	00000000 .text
00006f80 l    d  .rodata	00000000 .rodata
000086d4 l    d  .ARM.extab	00000000 .ARM.extab
000087d0 l    d  .ARM.extab.text.utee_panic	00000000 .ARM.extab.text.utee_panic
000087dc l    d  .ARM.extab.text.unlikely	00000000 .ARM.extab.text.unlikely
000087e8 l    d  .ARM.extab.text.__aeabi_ldivmod	00000000 .ARM.extab.text.__aeabi_ldivmod
000087f4 l    d  .ARM.extab.text.__aeabi_uldivmod	00000000 .ARM.extab.text.__aeabi_uldivmod
00008800 l    d  .ARM.exidx	00000000 .ARM.exidx
00008e58 l    d  .got	00000000 .got
00008f40 l    d  .rel.got	00000000 .rel.got
00008f88 l    d  .dynamic	00000000 .dynamic
00009008 l    d  .dynsym	00000000 .dynsym
000090c8 l    d  .dynstr	00000000 .dynstr
00009150 l    d  .hash	00000000 .hash
0000a000 l    d  .data	00000000 .data
0000a08c l    d  .bss	00000000 .bss
00000000 l    d  .debug_info	00000000 .debug_info
00000000 l    d  .debug_abbrev	00000000 .debug_abbrev
00000000 l    d  .debug_loc	00000000 .debug_loc
00000000 l    d  .debug_aranges	00000000 .debug_aranges
00000000 l    d  .debug_ranges	00000000 .debug_ranges
00000000 l    d  .debug_macro	00000000 .debug_macro
00000000 l    d  .debug_line	00000000 .debug_line
00000000 l    d  .debug_str	00000000 .debug_str
00000000 l    d  .comment	00000000 .comment
00000000 l    d  .ARM.attributes	00000000 .ARM.attributes
00000000 l    d  .debug_frame	00000000 .debug_frame
00008e88 l    d  .rel.dyn	00000000 .rel.dyn
00000000 l    df *ABS*	00000000 user_ta_header.c
00006f84 l     O .rodata	00000004 __compound_literal.5
00006f88 l     O .rodata	00000004 __compound_literal.4
00006f8c l     O .rodata	00000004 __compound_literal.3
00006f90 l     O .rodata	00000001 __compound_literal.2
00006f91 l     O .rodata	00000001 __compound_literal.1
00006f92 l     O .rodata	00000001 __compound_literal.0
00000000 l    df *ABS*	00000000 aes_ta.c
00007cf4 l     O .rodata	00000019 __func__.6212
00007d0d l     O .rodata	0000001a __func__.6217
00007d27 l     O .rodata	00000010 __func__.6168
00007d37 l     O .rodata	0000000f __func__.6141
00007d46 l     O .rodata	00000010 __func__.6149
00007d56 l     O .rodata	0000000f __func__.6157
00007d65 l     O .rodata	0000000c __func__.6181
00007d71 l     O .rodata	0000000d __func__.6191
00007d7e l     O .rodata	0000000e __func__.6199
00007d8c l     O .rodata	0000001b __func__.6229
00000000 l    df *ABS*	00000000 tee_api.c
00008065 l     O .rodata	0000000b __func__.6699
0000a08c l     O .bss	00000004 tee_api_instance_data
00000000 l    df *ABS*	00000000 tee_api_objects.c
00000000 l    df *ABS*	00000000 tee_api_operations.c
00000ea4 l     F .text	0000015c tee_buffer_update
00000000 l    df *ABS*	00000000 user_ta_entry.c
0000246c l     F .text	0000001c ta_header_get_session
00002488 l     F .text	00000068 ta_header_remove_session
0000a090 l     O .bss	00000001 init_done
0000a074 l     O .data	00000008 ta_sessions
00000000 l    df *ABS*	00000000 utee_syscalls_a32.o
00000000 l    df *ABS*	00000000 gprof_a32.o
00000000 l    df *ABS*	00000000 tee_api_arith.c
000030e4 l     F .text	0000001c TEE_BigInt_Panic
0000a0c4 l     O .bss	000018f0 mempool_u32
0000a0b8 l     O .bss	00000008 mem.6436
0000a0c0 l     O .bss	00000004 mempool
00000000 l    df *ABS*	00000000 trace_ext.c
00000000 l    df *ABS*	00000000 bget_malloc.c
0000319c l     F .text	000000d8 create_free_block.constprop.11
000080dc l     O .rodata	00000012 __func__.5801
000080ee l     O .rodata	00000005 __func__.5679
000080f3 l     O .rodata	00000006 __func__.5694
000080f9 l     O .rodata	00000005 __func__.5711
000080fe l     O .rodata	00000006 __func__.5703
00008104 l     O .rodata	00000006 __func__.5720
0000810a l     O .rodata	0000000d __func__.5837
00008117 l     O .rodata	0000000c __func__.5811
00008123 l     O .rodata	0000000b __func__.5822
0000812e l     O .rodata	00000010 __func__.5889
0000813e l     O .rodata	0000000e __func__.5843
0000814c l     O .rodata	00000013 __func__.5749
0000b9b4 l     O .bss	00000004 malloc_pool_len
0000b9b8 l     O .bss	00000004 malloc_pool
0000a07c l     O .data	00000010 malloc_poolset
00000000 l    df *ABS*	00000000 snprintk.c
00008540 l     O .rodata	00000011 HEXDIGITS
00008551 l     O .rodata	00000011 hexdigits
00000000 l    df *ABS*	00000000 trace.c
000042cc l     F .text	0000004e append
0000859a l     O .rodata	00000005 lvl_strs.5552
0000859f l     O .rodata	0000000a __func__.5603
00000000 l    df *ABS*	00000000 mempool.c
000085e3 l     O .rodata	00000013 __func__.5543
00000000 l    df *ABS*	00000000 arm32_aeabi_divmod_a32.o
00000000 l    df *ABS*	00000000 arm32_aeabi_ldivmod_a32.o
00000000 l    df *ABS*	00000000 mpa_misc.c
00000000 l    df *ABS*	00000000 mpa_montgomery.c
00000000 l    df *ABS*	00000000 mpa_primetest.c
00007bfc l     O .rodata	00000010 const_miller_rabin_proof_limit
00007c0c l     O .rodata	0000001c proof_a.5912
00007c28 l     O .rodata	0000000c const_two
00007c34 l     O .rodata	000000b8 const_small_prime_factors
00000000 l    df *ABS*	00000000 mpa_expmod.c
00000000 l    df *ABS*	00000000 mpa_io.c
00004d54 l     F .text	0000002a __mpa_word_to_hexstr
00004d7e l     F .text	0000009c __mpa_mpanum_to_hexstr
00004e1a l     F .text	00000026 __mpa_isspace
000139bc l     O .bss	00001002 buf.5972
00008635 l     O .rodata	0000000c __func__.5986
00008641 l     O .rodata	0000000c __func__.6000
00000000 l    df *ABS*	00000000 assert.c
00000000 l    df *ABS*	00000000 tee_api_panic.c
00000000 l    df *ABS*	00000000 snprintf.c
00000000 l    df *ABS*	00000000 memcmp.c
00000000 l    df *ABS*	00000000 memcpy.c
00000000 l    df *ABS*	00000000 memmove.c
00000000 l    df *ABS*	00000000 memset.c
00000000 l    df *ABS*	00000000 strlen.c
00000000 l    df *ABS*	00000000 arm32_aeabi_divmod.c
000052d8 l     F .text	0000004a uint_div_qr
00000000 l    df *ABS*	00000000 buf_compare_ct.c
00000000 l    df *ABS*	00000000 aeabi_unwind.c
00000000 l    df *ABS*	00000000 memchr.c
00000000 l    df *ABS*	00000000 arm32_aeabi_ldivmod.c
00000000 l    df *ABS*	00000000 mpa_conv.c
00000000 l    df *ABS*	00000000 mpa_div.c
00000000 l    df *ABS*	00000000 mpa_gcd.c
00005c3a l     F .text	0000004c __mpa_divby2
00005c86 l     F .text	000000e4 __mpa_gcd.part.0
00005d6a l     F .text	00000236 __mpa_egcd
00000000 l    df *ABS*	00000000 mpa_mem_static.c
00000000 l    df *ABS*	00000000 mpa_mul.c
00000000 l    df *ABS*	00000000 mpa_random.c
00000000 l    df *ABS*	00000000 mpa_shift.c
00000000 l    df *ABS*	00000000 mpa_addsub.c
00000000 l    df *ABS*	00000000 mpa_cmp.c
00000000 l    df *ABS*	00000000 mpa_init.c
00000000 l    df *ABS*	00000000 mpa_modulus.c
00000000 l    df *ABS*	00000000 
00008f88 l     O *ABS*	00000000 _DYNAMIC
00008e58 l     O *ABS*	00000000 _GLOBAL_OFFSET_TABLE_
00006f40 l     F .text	00000010 __utee_log_from_thumb
00006f50 l     F .text	00000010 __utee_cache_operation_from_thumb
00006f60 l     F .text	00000010 __utee_panic_from_thumb
00006f70 l     F .text	00000010 __utee_check_access_rights_from_thumb
00002c20 g     F .text	00000018 utee_se_channel_transmit
00004648 g     F .text	00000004 ret_idivmod_values
00003178 g     F .text	00000022 putchar
00006d74 g     F .text	00000012 mpa_init_static
00000980 g     F .text	00000070 TEE_PopulateTransientObject
000046b0 g     F .text	00000022 mpa_copy
00003058 g     F .text	00000020 TEE_BigIntConvertToFMM
00002f90 g     F .text	00000008 TEE_BigIntSquareMod
00002d5c g     F .text	00000004 TEE_BigIntShiftRight
00005658 g     F .text	00000042 mpa_get_S32
000046e6 g     F .text	0000002a mpa_highest_bit_index
00002a10 g     F .text	00000018 utee_storage_obj_create
00005550 g     F .text	000000ec __l_divmod
00002be4 g     F .text	00000014 utee_se_session_close
00002690 g     F .text	00000014 utee_return
00001892 g     F .text	00000030 TEE_DigestUpdate
00002b40 g     F .text	00000014 utee_se_service_get_readers
000006fc g     F .text	00000004 TEE_Realloc
0000570c g     F .text	000000be __mpa_div_q_r_internal_word
000016fc g     F .text	000000f4 TEE_SetOperationKey2
000069d4 g     F .text	00000104 mpa_sub
0000311a g     F .text	0000003a printf
000026a4 g     F .text	00000014 utee_log
00007cec g     O .rodata	00000004 NR_STORED_PRIMES
000009f0 g     F .text	00000022 TEE_InitRefAttribute
0000051a g     F .text	00000066 TEE_InvokeTACommand
0000473c g     F .text	00000014 mpa_can_hold
000061ee g     F .text	00000050 __mpa_abs_mul_word
00001e8c g     F .text	00000118 TEE_AEEncryptFinal
0000498c g     F .text	0000003c mpa_montgomery_mul
000042a4 g     F .text	0000000e vsnprintk
00004750 g     F .text	00000008 mpa_parity
00005284 g     F .text	00000034 memmove
0000671a g     F .text	0000001a __mpa_full_adder_ackum
00005224 g     F .text	0000001e snprintf
00002d58 g     F .text	00000004 TEE_BigIntCmpS32
00000a12 g     F .text	00000022 TEE_InitValueAttribute
000054ba g     F .text	00000002 __aeabi_unwind_cpp_pr0
00002d78 g     F .text	00000010 TEE_BigIntAdd
000026e4 g     F .text	00000014 utee_get_property_name_to_index
00005342 g     F .text	00000020 __aeabi_uimod
00006f94 g     O .rodata	00000004 ta_heap_size
00007cf0 g     O .rodata	00000004 MAX_TABULATED_PRIME
00000950 g     F .text	00000030 TEE_ResetTransientObject
000027c8 g     F .text	00000018 utee_cryp_state_alloc
00002998 g     F .text	00000018 utee_authenc_enc_final
000061d6 g     F .text	00000018 __mpa_mul_add_word_cum
00001934 g     F .text	00000056 TEE_CipherInit
00002d98 g     F .text	00000004 TEE_BigIntNeg
00005bac g     F .text	0000008e mpa_div
00000020 g       .text	00000000 __text_start
00000cf0 g     F .text	0000002c TEE_StartPersistentObjectEnumerator
00006f9c g     O .rodata	0000000c const_one
00003b2c g     F .text	00000048 malloc_buffer_overlaps_heap
00006cca g     F .text	0000000a __mpa_abs_less_than
00002eb0 g     F .text	00000060 TEE_BigIntSubMod
00001d08 g     F .text	00000070 TEE_AEInit
000063ba g     F .text	000000a0 mpa_get_random
0000434c g     F .text	00000144 trace_printf
00002b18 g     F .text	00000014 utee_se_service_open
0000526e g     F .text	00000016 memcpy
000027f4 g     F .text	00000014 utee_cryp_state_free
0000469a g     F .text	00000016 mpa_wipe
00003078 g     F .text	00000050 TEE_BigIntConvertFromFMM
00005220 g     F .text	00000004 TEE_Panic
00002c0c g     F .text	00000014 utee_se_channel_get_select_resp
00004668 g     F .text	00000018 __aeabi_uldivmod
000017f0 g     F .text	000000a2 TEE_CopyOperation
00003154 g     F .text	00000024 puts
000030c8 g     F .text	0000001c TEE_BigIntComputeFMM
0000569a g     F .text	0000000c mpa_set_word
00006520 g     F .text	000000f4 mpa_shift_left
00002874 g     F .text	00000018 utee_cipher_final
000062cc g     F .text	00000082 mpa_mul
0000069c g     F .text	00000016 TEE_GetREETime
00000c90 g     F .text	00000038 TEE_AllocatePersistentObjectEnumerator
0000a004 g     O .data	0000006c ta_props
000020ac g     F .text	000000bc TEE_AsymmetricEncrypt
000036cc g     F .text	00000018 malloc
000028dc g     F .text	00000014 utee_cryp_obj_close
00002b7c g     F .text	00000014 utee_se_reader_open_session
0000464c g     F .text	00000004 ret_uidivmod_values
00005242 g     F .text	0000000e vsnprintf
00000acc g     F .text	00000048 TEE_GenerateKey
0000a000 g     O .data	00000004 trace_level
00002d54 g     F .text	00000004 TEE_BigIntCmp
00006f80 g     O .rodata	00000004 ta_num_props
000035b4 g     F .text	0000007c bgetr
00002980 g     F .text	00000018 utee_authenc_update_payload
0000461a g     F .text	0000002e mempool_free
0000198a g     F .text	000000fa TEE_CipherUpdate
00002d08 g     F .text	00000034 TEE_BigIntConvertToOctetString
0000157a g     F .text	000000b6 TEE_GetOperationInfoMultiple
00002c4c g     F .text	00000014 utee_cache_operation
00002954 g     F .text	00000018 utee_authenc_init
00002d60 g     F .text	0000000e TEE_BigIntGetBit
00006f98 g     O .rodata	00000003 trace_ext_prefix
00006734 g     F .text	000000aa __mpa_abs_add
00003390 g     F .text	0000005c bgetz
000005ec g     F .text	0000000c TEE_GetInstanceData
0000061a g     F .text	0000001e TEE_Wait
00002ac8 g     F .text	00000014 utee_storage_obj_write
000061b6 g     F .text	00000010 mpa_free_static_temp_var
000049c8 g     F .text	00000278 mpa_is_prob_prime
000054be g     F .text	00000002 __aeabi_unwind_cpp_pr2
00002c38 g     F .text	00000014 utee_se_channel_close
0000634e g     F .text	0000006c mpa_mul_word
0000070a g     F .text	00000006 TEE_CacheFlush
00000024 g     F .text	00000002 TA_DestroyEntryPoint
000051e4 g     F .text	00000028 _assert_log
00002ce8 g     F .text	0000000a TEE_BigIntFMMContextSizeInU32
00001ca4 g     F .text	00000064 TEE_MACCompareFinal
000053d0 g     F .text	00000070 __aeabi_imod
00000c4a g     F .text	00000046 TEE_RenamePersistentObject
000018c2 g     F .text	00000072 TEE_DigestDoFinal
000057ca g     F .text	000003e2 __mpa_div_q_r
00002c6c g     F .text	00000038 _TEE_MathAPI_Init
00002aa0 g     F .text	00000014 utee_storage_next_enum
0000b9bc g     O .bss	00008000 ta_heap
00002f98 g     F .text	00000044 TEE_BigIntInvMod
0000006c g     F .text	00000044 TA_CloseSessionEntryPoint
00002168 g     F .text	000000c0 TEE_AsymmetricDecrypt
00000b14 g     F .text	00000064 TEE_OpenPersistentObject
000026b8 g     F .text	00000014 __utee_panic
000027e0 g     F .text	00000014 utee_cryp_state_copy
000000b0 g     F .text	00000380 TA_InvokeCommandEntryPoint
00005070 g     F .text	0000009c mpa_set_oct_str
00002bcc g     F .text	00000018 utee_se_session_open_channel
000045d0 g     F .text	0000004a mempool_alloc
00006490 g     F .text	0000004c __mpa_shift_words_left
000028c8 g     F .text	00000014 utee_cryp_obj_alloc
000027b4 g     F .text	00000014 utee_set_ta_time
000028b4 g     F .text	00000014 utee_cryp_obj_get_attr
00000a9c g     F .text	00000030 TEE_CopyObjectAttributes
000047c4 g     F .text	00000060 __mpa_montgomery_sub_ack
000036f4 g     F .text	00000028 calloc
000006b2 g     F .text	0000004a TEE_Malloc
00002778 g     F .text	00000014 utee_mask_cancellation
000028f0 g     F .text	00000014 utee_cryp_obj_reset
000005d4 g     F .text	0000000a TEE_CheckMemoryAccessRights
000149c0 g       .bss	00000000 __gprof_buf_end
000054dc g     F .text	00000074 __ul_divmod
00006ad8 g     F .text	00000010 mpa_neg
00006fc4 g     O .rodata	00000c38 PRIME_TABLE
00000d70 g     F .text	00000040 TEE_ReadObjectData
000007e8 g     F .text	00000070 TEE_GetObjectBufferAttribute
00000026 g     F .text	00000046 TA_OpenSessionEntryPoint
00005fa0 g     F .text	000000aa mpa_gcd
000046d2 g     F .text	00000014 mpa_abs
00002a8c g     F .text	00000014 utee_storage_start_enum
00001000 g     F .text	00000026 TEE_FreeOperation
00004e46 g     F .text	000001d6 mpa_set_str
00002a3c g     F .text	00000014 utee_storage_obj_rename
0000a094 g     O .bss	00000004 ta_param_types
00000718 g     F .text	0000003a __utee_from_attr
00005388 g     F .text	00000048 __aeabi_idiv
00003038 g     F .text	00000020 TEE_BigIntIsProbablePrime
000061ac g     F .text	0000000a mpa_alloc_static_temp_var
00000c10 g     F .text	00000024 TEE_CloseAndDeletePersistentObject1
000026cc g     F .text	00000018 utee_get_property
00001fa4 g     F .text	00000108 TEE_AEDecryptFinal
00002ca4 g     F .text	00000004 TEE_BigIntInit
000005f8 g     F .text	00000004 TEE_MemMove
00002cf2 g     F .text	00000016 TEE_BigIntConvertFromOctetString
0000a070 g     O .data	00000004 _ref__utee_mcount
00001b98 g     F .text	00000056 TEE_MACInit
00002228 g     F .text	000000b4 TEE_AsymmetricSignDigest
000054c0 g     F .text	0000001c memchr
0000059c g     F .text	0000001c TEE_UnmaskCancellation
00000752 g     F .text	0000002a TEE_GetObjectInfo
00006e56 g     F .text	00000042 mpa_mul_mod
00002a28 g     F .text	00000014 utee_storage_obj_del
00001dbe g     F .text	000000ce TEE_AEUpdate
00002af0 g     F .text	00000014 utee_storage_obj_seek
00000920 g     F .text	00000030 TEE_FreeTransientObject
000048bc g     F .text	000000d0 mpa_compute_fmm_context
0000281c g     F .text	00000014 utee_hash_update
00002454 g     F .text	00000018 rand
00002c60  w    F .text	0000000c __utee_mcount
00001558 g     F .text	00000022 TEE_GetOperationInfo
00002df8 g     F .text	00000058 TEE_BigIntMod
00002bf8 g     F .text	00000014 utee_se_channel_select_next
00002710 g     F .text	00000014 utee_close_ta_session
00002dbc g     F .text	0000003c TEE_BigIntDiv
0000285c g     F .text	00000018 utee_cipher_update
0000079c g     F .text	00000020 TEE_RestrictObjectUsage1
00002bb8 g     F .text	00000014 utee_se_session_get_atr
0000371c g     F .text	00000018 realloc
000067de g     F .text	00000074 __mpa_abs_add_ackum
0000458c g     F .text	00000044 mempool_alloc_pool
000029e0 g     F .text	00000018 utee_asymm_verify
00002d9c g     F .text	00000010 TEE_BigIntMul
00001630 g     F .text	00000040 TEE_ResetOperation
000056a6 g     F .text	0000000c mpa_get_word
00000600 g     F .text	00000004 TEE_MemFill
00005250 g     F .text	0000001e memcmp
00003980 g     F .text	000000d0 malloc_add_pool
00001bee g     F .text	0000004e TEE_MACUpdate
00004338 g     F .text	00000014 trace_get_level
00002940 g     F .text	00000014 utee_cryp_random_number_generate
000007bc g     F .text	0000002c TEE_RestrictObjectUsage
00002ce0 g     F .text	00000008 TEE_BigIntFMMSizeInU32
00002ca8 g     F .text	0000000e TEE_BigIntInitFMM
000029c8 g     F .text	00000018 utee_asymm_operate
000008dc g     F .text	00000014 TEE_CloseObject
000024f0 g     F .text	0000018c __utee_entry
00006f80 g       .text	00000000 __text_end
00002fdc g     F .text	00000040 TEE_BigIntRelativePrime
0000645a g     F .text	00000036 mpa_get_random_digits
00003630 g     F .text	0000009c bpool
0000563c g     F .text	0000001c mpa_set_S32
00006d86 g     F .text	00000036 mpa_init_static_fmm_context
00000580 g     F .text	0000001c TEE_GetCancellationFlag
00002b2c g     F .text	00000014 utee_se_service_close
00000674 g     F .text	00000028 TEE_SetTAPersistentTime
00006ae8 g     F .text	000000be mpa_add_word
00002b54 g     F .text	00000014 utee_se_reader_get_prop
000052b8 g     F .text	00000010 memset
00000638 g     F .text	0000003c TEE_GetTAPersistentTime
00004490 g     F .text	000000fc dhex_dump
00000b78 g     F .text	00000098 TEE_CreatePersistentObject
000005b8 g     F .text	0000001c TEE_MaskCancellation
00006702 g     F .text	00000018 __mpa_full_sub
00001d78 g     F .text	00000046 TEE_AEUpdateAAD
00002ab4 g     F .text	00000014 utee_storage_obj_read
00005322 g     F .text	00000020 __aeabi_uidiv
00000df0 g     F .text	00000038 TEE_TruncateObjectData
00002904 g     F .text	00000014 utee_cryp_obj_populate
00006cd4 g     F .text	00000046 mpa_cmp
00006e98 g     F .text	000000a4 mpa_inv_mod
00006ba6 g     F .text	000000c2 mpa_sub_word
000061c6 g     F .text	00000010 __mpa_mul_add_word
000068e6 g     F .text	000000ee mpa_add
00004c40 g     F .text	00000114 mpa_exp_mod
0000077c g     F .text	00000020 TEE_GetObjectInfo1
000064dc g     F .text	00000044 __mpa_shift_words_right
0000431a g     F .text	0000001e trace_set_level
00002ba4 g     F .text	00000014 utee_se_session_is_closed
0000288c g     F .text	00000014 utee_cryp_obj_get_info
00000858 g     F .text	00000084 TEE_GetObjectValueAttribute
00001670 g     F .text	0000008c TEE_SetOperationKey
00002a50 g     F .text	00000014 utee_storage_alloc_enum
00002a78 g     F .text	00000014 utee_storage_reset_enum
00002adc g     F .text	00000014 utee_storage_obj_trunc
00006dbc g     F .text	00000016 mpa_mod
00006cba g     F .text	00000010 __mpa_abs_greater_than
00002d40 g     F .text	00000014 TEE_BigIntConvertToS32
00002d88 g     F .text	00000010 TEE_BigIntSub
0000273c g     F .text	00000014 utee_get_cancellation_flag
00002808 g     F .text	00000014 utee_hash_init
0000521c g     F .text	00000004 tahead_get_trace_level
00000430 g     F .text	00000052 __utee_from_param
00000e28 g     F .text	0000007c TEE_SeekObjectData
00006fa8 g     O .rodata	00000010 Const_1_LShift_Base
00000482 g     F .text	00000040 __utee_to_param
00003734 g     F .text	0000024c memalign
00001a84 g     F .text	00000114 TEE_CipherDoFinal
00002d3c g     F .text	00000004 TEE_BigIntConvertFromS32
00006e14 g     F .text	00000042 mpa_sub_mod
000028a0 g     F .text	00000014 utee_cryp_obj_restrict_usage
00003a50 g     F .text	000000dc malloc_buffer_is_within_alloced
00002918 g     F .text	00000014 utee_cryp_obj_copy
00006614 g     F .text	000000d6 mpa_shift_right
00002cb6 g     F .text	0000002a TEE_BigIntInitFMMContext
0000292c g     F .text	00000014 utee_cryp_derive_key
00004824 g     F .text	00000098 __mpa_montgomery_mul
0000510c g     F .text	000000d6 mpa_get_oct_str
00006d1a g     F .text	0000005a mpa_cmp_short
000029b0 g     F .text	00000018 utee_authenc_dec_final
00000db0 g     F .text	00000040 TEE_WriteObjectData
00000cdc g     F .text	00000014 TEE_ResetPersistentObjectEnumerator
00006c68 g     F .text	00000052 __mpa_abs_cmp
00002dac g     F .text	00000010 TEE_BigIntSquare
00000020 g     F .text	00000004 TA_CreateEntryPoint
000042b2 g     F .text	0000001a snprintk
00002d6e g     F .text	0000000a TEE_BigIntGetBitCount
00002f10 g     F .text	00000080 TEE_BigIntMulMod
00002388 g     F .text	000000ba TEE_DeriveKey
0000a098 g     O .bss	00000020 ta_params
0000623e g     F .text	0000008e __mpa_abs_mul
00003274 g     F .text	0000011c bget
000008f0 g     F .text	00000030 TEE_AllocateTransientObject
00000700 g     F .text	00000004 TEE_Free
00002b68 g     F .text	00000014 utee_se_reader_get_name
00000710 g     F .text	00000006 TEE_CacheInvalidate
00002848 g     F .text	00000014 utee_cipher_init
00005362 g     F .text	00000026 __aeabi_uidivmod
0000520c g     F .text	00000010 _assert_break
00002e50 g     F .text	00000060 TEE_BigIntAddMod
00002a64 g     F .text	00000014 utee_storage_free_enum
0000296c g     F .text	00000014 utee_authenc_update_aad
00004710 g     F .text	0000002c mpa_get_bit
00001026 g     F .text	00000532 TEE_AllocateOperation
00002442 g     F .text	00000012 TEE_GenerateRandom
000005fc g     F .text	00000004 TEE_MemCompare
00003b74 g     F .text	00000730 __vsnprintf
00000cc8 g     F .text	00000014 TEE_FreePersistentObjectEnumerator
0000267c g     F .text	00000014 utee_panic
000004c2 g     F .text	00000044 TEE_OpenTASession
00003100 g     F .text	00000014 trace_ext_puts
00003114 g     F .text	00000006 trace_ext_get_thread_id
00000c34 g     F .text	00000016 TEE_CloseAndDeletePersistentObject
00000704 g     F .text	00000006 TEE_CacheClean
000026f8 g     F .text	00000018 utee_open_ta_session
0000548e g     F .text	0000002c buf_compare_ct
000056b2 g     F .text	0000005a __mpa_div_dword
00004680 g     F .text	0000001a __mpa_set_unused_digits_to_zero
00006fb8 g     O .rodata	0000000c const_largest_deci_base
00004e40 g     F .text	00000006 mpa_get_str_size
00000a34 g     F .text	00000068 TEE_CopyObjectAttributes1
00002830 g     F .text	00000018 utee_hash_final
000052c8 g     F .text	00000010 strlen
0000301c g     F .text	0000001c TEE_BigIntComputeExtendedGcd
000054bc g     F .text	00000002 __aeabi_unwind_cpp_pr1
0000604a g     F .text	0000013a mpa_extended_gcd
00006dd2 g     F .text	00000042 mpa_add_mod
000029f8 g     F .text	00000018 utee_storage_obj_open
00002724 g     F .text	00000018 utee_invoke_ta_command
0000501c g     F .text	00000054 mpa_get_str
0000278c g     F .text	00000014 utee_wait
00000604 g     F .text	00000016 TEE_GetSystemTime
00000000 g     O .ta_head	00000020 ta_head
000033ec g     F .text	000001c8 brel
00006184 g     F .text	00000028 mpa_alloc_static_temp_var_size
000027a0 g     F .text	00000014 utee_get_time
00004764 g     F .text	00000060 __mpa_montgomery_mul_add
000005de g     F .text	0000000e TEE_SetInstanceData
00005440 g     F .text	0000004e __aeabi_idivmod
00002764 g     F .text	00000014 utee_unmask_cancellation
00004650 g     F .text	00000018 __aeabi_ldivmod
00002750 g     F .text	00000014 utee_check_access_rights
00002b90 g     F .text	00000014 utee_se_reader_close_sessions
00000d1c g     F .text	00000054 TEE_GetNextPersistentObject
00002b04 g     F .text	00000014 utee_cryp_obj_generate_key
00004758 g     F .text	0000000c mpa_constant_one
00000506 g     F .text	00000014 TEE_CloseTASession
000022dc g     F .text	000000ac TEE_AsymmetricVerifyDigest
000066ea g     F .text	00000018 __mpa_full_adder
00006852 g     F .text	00000094 __mpa_abs_sub
000149c0 g       .bss	00000000 __gprof_buf_start
000036e4 g     F .text	00000010 free
00001c3c g     F .text	00000068 TEE_MACComputeFinal



Disassembly of section .text:

00000020 <TA_CreateEntryPoint>:
TA_CreateEntryPoint():
/home/yin/imx-optee/optee_examples/aes/ta/aes_ta.c:368
      20:	2000      	movs	r0, #0
      22:	4770      	bx	lr

00000024 <TA_DestroyEntryPoint>:
TA_DestroyEntryPoint():
/home/yin/imx-optee/optee_examples/aes/ta/aes_ta.c:371
      24:	4770      	bx	lr

00000026 <TA_OpenSessionEntryPoint>:
TA_OpenSessionEntryPoint():
/home/yin/imx-optee/optee_examples/aes/ta/aes_ta.c:378
      26:	b537      	push	{r0, r1, r2, r4, r5, lr}
/home/yin/imx-optee/optee_examples/aes/ta/aes_ta.c:386
      28:	2100      	movs	r1, #0
      2a:	2014      	movs	r0, #20
/home/yin/imx-optee/optee_examples/aes/ta/aes_ta.c:378
      2c:	4615      	mov	r5, r2
/home/yin/imx-optee/optee_examples/aes/ta/aes_ta.c:386
      2e:	f000 fb40 	bl	6b2 <TEE_Malloc>
/home/yin/imx-optee/optee_examples/aes/ta/aes_ta.c:387
      32:	b190      	cbz	r0, 5a <TA_OpenSessionEntryPoint+0x34>
/home/yin/imx-optee/optee_examples/aes/ta/aes_ta.c:390
      34:	2400      	movs	r4, #0
/home/yin/imx-optee/optee_examples/aes/ta/aes_ta.c:394
      36:	4b0b      	ldr	r3, [pc, #44]	; (64 <TA_OpenSessionEntryPoint+0x3e>)
/home/yin/imx-optee/optee_examples/aes/ta/aes_ta.c:390
      38:	6104      	str	r4, [r0, #16]
/home/yin/imx-optee/optee_examples/aes/ta/aes_ta.c:394
      3a:	2203      	movs	r2, #3
/home/yin/imx-optee/optee_examples/aes/ta/aes_ta.c:391
      3c:	60c4      	str	r4, [r0, #12]
/home/yin/imx-optee/optee_examples/aes/ta/aes_ta.c:394
      3e:	f44f 71c5 	mov.w	r1, #394	; 0x18a
/home/yin/imx-optee/optee_examples/aes/ta/aes_ta.c:393
      42:	6028      	str	r0, [r5, #0]
/home/yin/imx-optee/optee_examples/aes/ta/aes_ta.c:394
      44:	447b      	add	r3, pc
      46:	9001      	str	r0, [sp, #4]
      48:	4807      	ldr	r0, [pc, #28]	; (68 <TA_OpenSessionEntryPoint+0x42>)
      4a:	9300      	str	r3, [sp, #0]
      4c:	2301      	movs	r3, #1
      4e:	4478      	add	r0, pc
      50:	f004 f97c 	bl	434c <trace_printf>
/home/yin/imx-optee/optee_examples/aes/ta/aes_ta.c:396
      54:	4620      	mov	r0, r4
/home/yin/imx-optee/optee_examples/aes/ta/aes_ta.c:397
      56:	b003      	add	sp, #12
      58:	bd30      	pop	{r4, r5, pc}
/home/yin/imx-optee/optee_examples/aes/ta/aes_ta.c:388
      5a:	4801      	ldr	r0, [pc, #4]	; (60 <TA_OpenSessionEntryPoint+0x3a>)
      5c:	e7fb      	b.n	56 <TA_OpenSessionEntryPoint+0x30>
      5e:	bf00      	nop
      60:	ffff000c 	.word	0xffff000c
      64:	00007d5f 	.word	0x00007d5f
      68:	00007ca2 	.word	0x00007ca2

0000006c <TA_CloseSessionEntryPoint>:
TA_CloseSessionEntryPoint():
/home/yin/imx-optee/optee_examples/aes/ta/aes_ta.c:400
      6c:	b513      	push	{r0, r1, r4, lr}
      6e:	4604      	mov	r4, r0
/home/yin/imx-optee/optee_examples/aes/ta/aes_ta.c:404
      70:	9001      	str	r0, [sp, #4]
      72:	2203      	movs	r2, #3
      74:	f44f 71ca 	mov.w	r1, #404	; 0x194
      78:	4b0b      	ldr	r3, [pc, #44]	; (a8 <TA_CloseSessionEntryPoint+0x3c>)
      7a:	480c      	ldr	r0, [pc, #48]	; (ac <TA_CloseSessionEntryPoint+0x40>)
      7c:	447b      	add	r3, pc
      7e:	4478      	add	r0, pc
      80:	9300      	str	r3, [sp, #0]
      82:	3019      	adds	r0, #25
      84:	2301      	movs	r3, #1
      86:	f004 f961 	bl	434c <trace_printf>
/home/yin/imx-optee/optee_examples/aes/ta/aes_ta.c:408
      8a:	6920      	ldr	r0, [r4, #16]
      8c:	b108      	cbz	r0, 92 <TA_CloseSessionEntryPoint+0x26>
/home/yin/imx-optee/optee_examples/aes/ta/aes_ta.c:409
      8e:	f000 fc47 	bl	920 <TEE_FreeTransientObject>
/home/yin/imx-optee/optee_examples/aes/ta/aes_ta.c:410
      92:	68e0      	ldr	r0, [r4, #12]
      94:	b108      	cbz	r0, 9a <TA_CloseSessionEntryPoint+0x2e>
/home/yin/imx-optee/optee_examples/aes/ta/aes_ta.c:411
      96:	f000 ffb3 	bl	1000 <TEE_FreeOperation>
/home/yin/imx-optee/optee_examples/aes/ta/aes_ta.c:412
      9a:	4620      	mov	r0, r4
/home/yin/imx-optee/optee_examples/aes/ta/aes_ta.c:413
      9c:	b002      	add	sp, #8
      9e:	e8bd 4010 	ldmia.w	sp!, {r4, lr}
/home/yin/imx-optee/optee_examples/aes/ta/aes_ta.c:412
      a2:	f000 bb2d 	b.w	700 <TEE_Free>
      a6:	bf00      	nop
      a8:	00007d43 	.word	0x00007d43
      ac:	00007c72 	.word	0x00007c72

000000b0 <TA_InvokeCommandEntryPoint>:
TA_InvokeCommandEntryPoint():
/home/yin/imx-optee/optee_examples/aes/ta/aes_ta.c:419
      b0:	b5f0      	push	{r4, r5, r6, r7, lr}
      b2:	4604      	mov	r4, r0
      b4:	b089      	sub	sp, #36	; 0x24
      b6:	4617      	mov	r7, r2
      b8:	461d      	mov	r5, r3
/home/yin/imx-optee/optee_examples/aes/ta/aes_ta.c:420
      ba:	2903      	cmp	r1, #3
      bc:	f200 8161 	bhi.w	382 <TA_InvokeCommandEntryPoint+0x2d2>
      c0:	e8df f011 	tbh	[pc, r1, lsl #1]
      c4:	00cd0004 	.word	0x00cd0004
      c8:	0135011e 	.word	0x0135011e
alloc_resources():
/home/yin/imx-optee/optee_examples/aes/ta/aes_ta.c:124
      cc:	4ebd      	ldr	r6, [pc, #756]	; (3c4 <TA_InvokeCommandEntryPoint+0x314>)
      ce:	2203      	movs	r2, #3
      d0:	4bbd      	ldr	r3, [pc, #756]	; (3c8 <TA_InvokeCommandEntryPoint+0x318>)
      d2:	217c      	movs	r1, #124	; 0x7c
      d4:	9001      	str	r0, [sp, #4]
      d6:	447e      	add	r6, pc
      d8:	447b      	add	r3, pc
      da:	f106 0033 	add.w	r0, r6, #51	; 0x33
      de:	9300      	str	r3, [sp, #0]
      e0:	2301      	movs	r3, #1
      e2:	f004 f933 	bl	434c <trace_printf>
/home/yin/imx-optee/optee_examples/aes/ta/aes_ta.c:128
      e6:	f240 1311 	movw	r3, #273	; 0x111
      ea:	429f      	cmp	r7, r3
      ec:	d110      	bne.n	110 <TA_InvokeCommandEntryPoint+0x60>
/home/yin/imx-optee/optee_examples/aes/ta/aes_ta.c:131
      ee:	682b      	ldr	r3, [r5, #0]
ta2tee_algo_id():
/home/yin/imx-optee/optee_examples/aes/ta/aes_ta.c:59
      f0:	2b01      	cmp	r3, #1
      f2:	d029      	beq.n	148 <TA_InvokeCommandEntryPoint+0x98>
      f4:	d310      	bcc.n	118 <TA_InvokeCommandEntryPoint+0x68>
      f6:	2b02      	cmp	r3, #2
      f8:	d028      	beq.n	14c <TA_InvokeCommandEntryPoint+0x9c>
/home/yin/imx-optee/optee_examples/aes/ta/aes_ta.c:70
      fa:	9301      	str	r3, [sp, #4]
      fc:	2146      	movs	r1, #70	; 0x46
      fe:	4bb3      	ldr	r3, [pc, #716]	; (3cc <TA_InvokeCommandEntryPoint+0x31c>)
     100:	f106 0043 	add.w	r0, r6, #67	; 0x43
     104:	447b      	add	r3, pc
     106:	9300      	str	r3, [sp, #0]
     108:	2301      	movs	r3, #1
     10a:	461a      	mov	r2, r3
ta2tee_key_size():
/home/yin/imx-optee/optee_examples/aes/ta/aes_ta.c:82
     10c:	f004 f91e 	bl	434c <trace_printf>
/home/yin/imx-optee/optee_examples/aes/ta/aes_ta.c:83
     110:	4da4      	ldr	r5, [pc, #656]	; (3a4 <TA_InvokeCommandEntryPoint+0x2f4>)
TA_InvokeCommandEntryPoint():
/home/yin/imx-optee/optee_examples/aes/ta/aes_ta.c:433
     112:	4628      	mov	r0, r5
     114:	b009      	add	sp, #36	; 0x24
     116:	bdf0      	pop	{r4, r5, r6, r7, pc}
ta2tee_algo_id():
/home/yin/imx-optee/optee_examples/aes/ta/aes_ta.c:61
     118:	4ba3      	ldr	r3, [pc, #652]	; (3a8 <TA_InvokeCommandEntryPoint+0x2f8>)
/home/yin/imx-optee/optee_examples/aes/ta/aes_ta.c:67
     11a:	6023      	str	r3, [r4, #0]
alloc_resources():
/home/yin/imx-optee/optee_examples/aes/ta/aes_ta.c:135
     11c:	68ab      	ldr	r3, [r5, #8]
ta2tee_key_size():
/home/yin/imx-optee/optee_examples/aes/ta/aes_ta.c:76
     11e:	2b10      	cmp	r3, #16
     120:	d001      	beq.n	126 <TA_InvokeCommandEntryPoint+0x76>
     122:	2b20      	cmp	r3, #32
     124:	d114      	bne.n	150 <TA_InvokeCommandEntryPoint+0xa0>
/home/yin/imx-optee/optee_examples/aes/ta/aes_ta.c:79
     126:	60a3      	str	r3, [r4, #8]
alloc_resources():
/home/yin/imx-optee/optee_examples/aes/ta/aes_ta.c:139
     128:	692b      	ldr	r3, [r5, #16]
ta2tee_mode_id():
/home/yin/imx-optee/optee_examples/aes/ta/aes_ta.c:88
     12a:	2b00      	cmp	r3, #0
     12c:	d042      	beq.n	1b4 <TA_InvokeCommandEntryPoint+0x104>
     12e:	2b01      	cmp	r3, #1
     130:	d019      	beq.n	166 <TA_InvokeCommandEntryPoint+0xb6>
/home/yin/imx-optee/optee_examples/aes/ta/aes_ta.c:96
     132:	9301      	str	r3, [sp, #4]
     134:	2160      	movs	r1, #96	; 0x60
     136:	4ba6      	ldr	r3, [pc, #664]	; (3d0 <TA_InvokeCommandEntryPoint+0x320>)
     138:	48a6      	ldr	r0, [pc, #664]	; (3d4 <TA_InvokeCommandEntryPoint+0x324>)
     13a:	447b      	add	r3, pc
     13c:	9300      	str	r3, [sp, #0]
     13e:	4478      	add	r0, pc
     140:	2301      	movs	r3, #1
     142:	3062      	adds	r0, #98	; 0x62
     144:	461a      	mov	r2, r3
     146:	e7e1      	b.n	10c <TA_InvokeCommandEntryPoint+0x5c>
ta2tee_algo_id():
/home/yin/imx-optee/optee_examples/aes/ta/aes_ta.c:64
     148:	4b98      	ldr	r3, [pc, #608]	; (3ac <TA_InvokeCommandEntryPoint+0x2fc>)
     14a:	e7e6      	b.n	11a <TA_InvokeCommandEntryPoint+0x6a>
/home/yin/imx-optee/optee_examples/aes/ta/aes_ta.c:67
     14c:	4b98      	ldr	r3, [pc, #608]	; (3b0 <TA_InvokeCommandEntryPoint+0x300>)
     14e:	e7e4      	b.n	11a <TA_InvokeCommandEntryPoint+0x6a>
ta2tee_key_size():
/home/yin/imx-optee/optee_examples/aes/ta/aes_ta.c:82
     150:	9301      	str	r3, [sp, #4]
     152:	2152      	movs	r1, #82	; 0x52
     154:	4ba0      	ldr	r3, [pc, #640]	; (3d8 <TA_InvokeCommandEntryPoint+0x328>)
     156:	48a1      	ldr	r0, [pc, #644]	; (3dc <TA_InvokeCommandEntryPoint+0x32c>)
     158:	447b      	add	r3, pc
     15a:	9300      	str	r3, [sp, #0]
     15c:	4478      	add	r0, pc
     15e:	2301      	movs	r3, #1
     160:	4408      	add	r0, r1
     162:	461a      	mov	r2, r3
     164:	e7d2      	b.n	10c <TA_InvokeCommandEntryPoint+0x5c>
ta2tee_mode_id():
/home/yin/imx-optee/optee_examples/aes/ta/aes_ta.c:90
     166:	2300      	movs	r3, #0
alloc_resources():
/home/yin/imx-optee/optee_examples/aes/ta/aes_ta.c:151
     168:	68e0      	ldr	r0, [r4, #12]
ta2tee_mode_id():
/home/yin/imx-optee/optee_examples/aes/ta/aes_ta.c:93
     16a:	6063      	str	r3, [r4, #4]
alloc_resources():
/home/yin/imx-optee/optee_examples/aes/ta/aes_ta.c:151
     16c:	bb20      	cbnz	r0, 1b8 <TA_InvokeCommandEntryPoint+0x108>
/home/yin/imx-optee/optee_examples/aes/ta/aes_ta.c:155
     16e:	68a3      	ldr	r3, [r4, #8]
     170:	f104 000c 	add.w	r0, r4, #12
     174:	e894 0006 	ldmia.w	r4, {r1, r2}
     178:	00db      	lsls	r3, r3, #3
     17a:	f000 ff54 	bl	1026 <TEE_AllocateOperation>
/home/yin/imx-optee/optee_examples/aes/ta/aes_ta.c:159
     17e:	4605      	mov	r5, r0
     180:	b1e8      	cbz	r0, 1be <TA_InvokeCommandEntryPoint+0x10e>
/home/yin/imx-optee/optee_examples/aes/ta/aes_ta.c:160
     182:	4b97      	ldr	r3, [pc, #604]	; (3e0 <TA_InvokeCommandEntryPoint+0x330>)
     184:	21a0      	movs	r1, #160	; 0xa0
     186:	4897      	ldr	r0, [pc, #604]	; (3e4 <TA_InvokeCommandEntryPoint+0x334>)
     188:	447b      	add	r3, pc
     18a:	9300      	str	r3, [sp, #0]
     18c:	4478      	add	r0, pc
     18e:	2301      	movs	r3, #1
     190:	3033      	adds	r0, #51	; 0x33
     192:	461a      	mov	r2, r3
     194:	f004 f8da 	bl	434c <trace_printf>
/home/yin/imx-optee/optee_examples/aes/ta/aes_ta.c:161
     198:	2300      	movs	r3, #0
     19a:	60e3      	str	r3, [r4, #12]
/home/yin/imx-optee/optee_examples/aes/ta/aes_ta.c:211
     19c:	68e0      	ldr	r0, [r4, #12]
     19e:	b108      	cbz	r0, 1a4 <TA_InvokeCommandEntryPoint+0xf4>
/home/yin/imx-optee/optee_examples/aes/ta/aes_ta.c:212
     1a0:	f000 ff2e 	bl	1000 <TEE_FreeOperation>
/home/yin/imx-optee/optee_examples/aes/ta/aes_ta.c:215
     1a4:	6920      	ldr	r0, [r4, #16]
/home/yin/imx-optee/optee_examples/aes/ta/aes_ta.c:213
     1a6:	2600      	movs	r6, #0
     1a8:	60e6      	str	r6, [r4, #12]
/home/yin/imx-optee/optee_examples/aes/ta/aes_ta.c:215
     1aa:	b108      	cbz	r0, 1b0 <TA_InvokeCommandEntryPoint+0x100>
/home/yin/imx-optee/optee_examples/aes/ta/aes_ta.c:216
     1ac:	f000 fbb8 	bl	920 <TEE_FreeTransientObject>
/home/yin/imx-optee/optee_examples/aes/ta/aes_ta.c:217
     1b0:	6126      	str	r6, [r4, #16]
     1b2:	e7ae      	b.n	112 <TA_InvokeCommandEntryPoint+0x62>
ta2tee_mode_id():
/home/yin/imx-optee/optee_examples/aes/ta/aes_ta.c:93
     1b4:	2301      	movs	r3, #1
     1b6:	e7d7      	b.n	168 <TA_InvokeCommandEntryPoint+0xb8>
alloc_resources():
/home/yin/imx-optee/optee_examples/aes/ta/aes_ta.c:152
     1b8:	f000 ff22 	bl	1000 <TEE_FreeOperation>
     1bc:	e7d7      	b.n	16e <TA_InvokeCommandEntryPoint+0xbe>
/home/yin/imx-optee/optee_examples/aes/ta/aes_ta.c:166
     1be:	6920      	ldr	r0, [r4, #16]
     1c0:	b108      	cbz	r0, 1c6 <TA_InvokeCommandEntryPoint+0x116>
/home/yin/imx-optee/optee_examples/aes/ta/aes_ta.c:167
     1c2:	f000 fbad 	bl	920 <TEE_FreeTransientObject>
/home/yin/imx-optee/optee_examples/aes/ta/aes_ta.c:170
     1c6:	68a1      	ldr	r1, [r4, #8]
     1c8:	f104 0210 	add.w	r2, r4, #16
     1cc:	4879      	ldr	r0, [pc, #484]	; (3b4 <TA_InvokeCommandEntryPoint+0x304>)
     1ce:	00c9      	lsls	r1, r1, #3
     1d0:	f000 fb8e 	bl	8f0 <TEE_AllocateTransientObject>
/home/yin/imx-optee/optee_examples/aes/ta/aes_ta.c:173
     1d4:	4605      	mov	r5, r0
     1d6:	b168      	cbz	r0, 1f4 <TA_InvokeCommandEntryPoint+0x144>
/home/yin/imx-optee/optee_examples/aes/ta/aes_ta.c:174
     1d8:	4b83      	ldr	r3, [pc, #524]	; (3e8 <TA_InvokeCommandEntryPoint+0x338>)
     1da:	21ae      	movs	r1, #174	; 0xae
     1dc:	4883      	ldr	r0, [pc, #524]	; (3ec <TA_InvokeCommandEntryPoint+0x33c>)
     1de:	447b      	add	r3, pc
     1e0:	9300      	str	r3, [sp, #0]
     1e2:	4478      	add	r0, pc
     1e4:	2301      	movs	r3, #1
     1e6:	3033      	adds	r0, #51	; 0x33
     1e8:	461a      	mov	r2, r3
     1ea:	f004 f8af 	bl	434c <trace_printf>
/home/yin/imx-optee/optee_examples/aes/ta/aes_ta.c:175
     1ee:	2300      	movs	r3, #0
     1f0:	6123      	str	r3, [r4, #16]
     1f2:	e7d3      	b.n	19c <TA_InvokeCommandEntryPoint+0xec>
/home/yin/imx-optee/optee_examples/aes/ta/aes_ta.c:188
     1f4:	4601      	mov	r1, r0
     1f6:	68a0      	ldr	r0, [r4, #8]
     1f8:	f000 fa5b 	bl	6b2 <TEE_Malloc>
/home/yin/imx-optee/optee_examples/aes/ta/aes_ta.c:189
     1fc:	4602      	mov	r2, r0
     1fe:	b360      	cbz	r0, 25a <TA_InvokeCommandEntryPoint+0x1aa>
/home/yin/imx-optee/optee_examples/aes/ta/aes_ta.c:194
     200:	ad05      	add	r5, sp, #20
     202:	68a3      	ldr	r3, [r4, #8]
     204:	4628      	mov	r0, r5
     206:	f04f 4140 	mov.w	r1, #3221225472	; 0xc0000000
     20a:	f000 fbf1 	bl	9f0 <TEE_InitRefAttribute>
/home/yin/imx-optee/optee_examples/aes/ta/aes_ta.c:196
     20e:	4629      	mov	r1, r5
     210:	2201      	movs	r2, #1
     212:	6920      	ldr	r0, [r4, #16]
     214:	f000 fbb4 	bl	980 <TEE_PopulateTransientObject>
/home/yin/imx-optee/optee_examples/aes/ta/aes_ta.c:197
     218:	4605      	mov	r5, r0
     21a:	b160      	cbz	r0, 236 <TA_InvokeCommandEntryPoint+0x186>
/home/yin/imx-optee/optee_examples/aes/ta/aes_ta.c:198
     21c:	4b74      	ldr	r3, [pc, #464]	; (3f0 <TA_InvokeCommandEntryPoint+0x340>)
     21e:	21c6      	movs	r1, #198	; 0xc6
     220:	9001      	str	r0, [sp, #4]
     222:	4874      	ldr	r0, [pc, #464]	; (3f4 <TA_InvokeCommandEntryPoint+0x344>)
     224:	447b      	add	r3, pc
     226:	9300      	str	r3, [sp, #0]
     228:	2301      	movs	r3, #1
     22a:	461a      	mov	r2, r3
     22c:	4478      	add	r0, pc
/home/yin/imx-optee/optee_examples/aes/ta/aes_ta.c:204
     22e:	3033      	adds	r0, #51	; 0x33
     230:	f004 f88c 	bl	434c <trace_printf>
     234:	e7b2      	b.n	19c <TA_InvokeCommandEntryPoint+0xec>
/home/yin/imx-optee/optee_examples/aes/ta/aes_ta.c:202
     236:	6921      	ldr	r1, [r4, #16]
     238:	68e0      	ldr	r0, [r4, #12]
     23a:	f001 fa19 	bl	1670 <TEE_SetOperationKey>
/home/yin/imx-optee/optee_examples/aes/ta/aes_ta.c:203
     23e:	4605      	mov	r5, r0
     240:	2800      	cmp	r0, #0
     242:	f43f af66 	beq.w	112 <TA_InvokeCommandEntryPoint+0x62>
/home/yin/imx-optee/optee_examples/aes/ta/aes_ta.c:204
     246:	4b6c      	ldr	r3, [pc, #432]	; (3f8 <TA_InvokeCommandEntryPoint+0x348>)
     248:	21cc      	movs	r1, #204	; 0xcc
     24a:	9001      	str	r0, [sp, #4]
     24c:	486b      	ldr	r0, [pc, #428]	; (3fc <TA_InvokeCommandEntryPoint+0x34c>)
     24e:	447b      	add	r3, pc
     250:	9300      	str	r3, [sp, #0]
     252:	2301      	movs	r3, #1
     254:	461a      	mov	r2, r3
     256:	4478      	add	r0, pc
     258:	e7e9      	b.n	22e <TA_InvokeCommandEntryPoint+0x17e>
/home/yin/imx-optee/optee_examples/aes/ta/aes_ta.c:190
     25a:	4d57      	ldr	r5, [pc, #348]	; (3b8 <TA_InvokeCommandEntryPoint+0x308>)
     25c:	e79e      	b.n	19c <TA_InvokeCommandEntryPoint+0xec>
set_aes_key():
/home/yin/imx-optee/optee_examples/aes/ta/aes_ta.c:240
     25e:	4e68      	ldr	r6, [pc, #416]	; (400 <TA_InvokeCommandEntryPoint+0x350>)
     260:	2203      	movs	r2, #3
     262:	4b68      	ldr	r3, [pc, #416]	; (404 <TA_InvokeCommandEntryPoint+0x354>)
     264:	21f0      	movs	r1, #240	; 0xf0
     266:	9001      	str	r0, [sp, #4]
     268:	447e      	add	r6, pc
     26a:	447b      	add	r3, pc
     26c:	3671      	adds	r6, #113	; 0x71
     26e:	9300      	str	r3, [sp, #0]
     270:	4630      	mov	r0, r6
     272:	2301      	movs	r3, #1
     274:	f004 f86a 	bl	434c <trace_printf>
/home/yin/imx-optee/optee_examples/aes/ta/aes_ta.c:244
     278:	2f05      	cmp	r7, #5
     27a:	f47f af49 	bne.w	110 <TA_InvokeCommandEntryPoint+0x60>
/home/yin/imx-optee/optee_examples/aes/ta/aes_ta.c:248
     27e:	686b      	ldr	r3, [r5, #4]
/home/yin/imx-optee/optee_examples/aes/ta/aes_ta.c:250
     280:	68a2      	ldr	r2, [r4, #8]
     282:	4293      	cmp	r3, r2
     284:	d00b      	beq.n	29e <TA_InvokeCommandEntryPoint+0x1ee>
/home/yin/imx-optee/optee_examples/aes/ta/aes_ta.c:251
     286:	9301      	str	r3, [sp, #4]
     288:	21fc      	movs	r1, #252	; 0xfc
     28a:	4b5f      	ldr	r3, [pc, #380]	; (408 <TA_InvokeCommandEntryPoint+0x358>)
     28c:	9202      	str	r2, [sp, #8]
     28e:	447b      	add	r3, pc
     290:	9300      	str	r3, [sp, #0]
     292:	2301      	movs	r3, #1
     294:	461a      	mov	r2, r3
cipher_buffer():
/home/yin/imx-optee/optee_examples/aes/ta/aes_ta.c:348
     296:	4630      	mov	r0, r6
     298:	f004 f858 	bl	434c <trace_printf>
     29c:	e738      	b.n	110 <TA_InvokeCommandEntryPoint+0x60>
set_aes_key():
/home/yin/imx-optee/optee_examples/aes/ta/aes_ta.c:273
     29e:	682a      	ldr	r2, [r5, #0]
     2a0:	ad05      	add	r5, sp, #20
     2a2:	f04f 4140 	mov.w	r1, #3221225472	; 0xc0000000
     2a6:	4628      	mov	r0, r5
     2a8:	f000 fba2 	bl	9f0 <TEE_InitRefAttribute>
/home/yin/imx-optee/optee_examples/aes/ta/aes_ta.c:275
     2ac:	6920      	ldr	r0, [r4, #16]
     2ae:	f000 fb4f 	bl	950 <TEE_ResetTransientObject>
/home/yin/imx-optee/optee_examples/aes/ta/aes_ta.c:276
     2b2:	4629      	mov	r1, r5
     2b4:	2201      	movs	r2, #1
     2b6:	6920      	ldr	r0, [r4, #16]
     2b8:	f000 fb62 	bl	980 <TEE_PopulateTransientObject>
/home/yin/imx-optee/optee_examples/aes/ta/aes_ta.c:277
     2bc:	4605      	mov	r5, r0
     2be:	b158      	cbz	r0, 2d8 <TA_InvokeCommandEntryPoint+0x228>
/home/yin/imx-optee/optee_examples/aes/ta/aes_ta.c:278
     2c0:	4b52      	ldr	r3, [pc, #328]	; (40c <TA_InvokeCommandEntryPoint+0x35c>)
     2c2:	f44f 718b 	mov.w	r1, #278	; 0x116
     2c6:	9001      	str	r0, [sp, #4]
     2c8:	447b      	add	r3, pc
     2ca:	9300      	str	r3, [sp, #0]
     2cc:	2301      	movs	r3, #1
     2ce:	461a      	mov	r2, r3
/home/yin/imx-optee/optee_examples/aes/ta/aes_ta.c:285
     2d0:	4630      	mov	r0, r6
     2d2:	f004 f83b 	bl	434c <trace_printf>
     2d6:	e71c      	b.n	112 <TA_InvokeCommandEntryPoint+0x62>
/home/yin/imx-optee/optee_examples/aes/ta/aes_ta.c:282
     2d8:	68e0      	ldr	r0, [r4, #12]
     2da:	f001 f9a9 	bl	1630 <TEE_ResetOperation>
/home/yin/imx-optee/optee_examples/aes/ta/aes_ta.c:283
     2de:	6921      	ldr	r1, [r4, #16]
     2e0:	68e0      	ldr	r0, [r4, #12]
     2e2:	f001 f9c5 	bl	1670 <TEE_SetOperationKey>
/home/yin/imx-optee/optee_examples/aes/ta/aes_ta.c:284
     2e6:	4605      	mov	r5, r0
     2e8:	2800      	cmp	r0, #0
     2ea:	f43f af12 	beq.w	112 <TA_InvokeCommandEntryPoint+0x62>
/home/yin/imx-optee/optee_examples/aes/ta/aes_ta.c:285
     2ee:	4b48      	ldr	r3, [pc, #288]	; (410 <TA_InvokeCommandEntryPoint+0x360>)
     2f0:	f240 111d 	movw	r1, #285	; 0x11d
     2f4:	9001      	str	r0, [sp, #4]
     2f6:	447b      	add	r3, pc
     2f8:	9300      	str	r3, [sp, #0]
     2fa:	2301      	movs	r3, #1
     2fc:	461a      	mov	r2, r3
     2fe:	e7e7      	b.n	2d0 <TA_InvokeCommandEntryPoint+0x220>
reset_aes_iv():
/home/yin/imx-optee/optee_examples/aes/ta/aes_ta.c:308
     300:	9001      	str	r0, [sp, #4]
     302:	2203      	movs	r2, #3
     304:	4b43      	ldr	r3, [pc, #268]	; (414 <TA_InvokeCommandEntryPoint+0x364>)
     306:	f44f 719a 	mov.w	r1, #308	; 0x134
     30a:	4843      	ldr	r0, [pc, #268]	; (418 <TA_InvokeCommandEntryPoint+0x368>)
     30c:	447b      	add	r3, pc
     30e:	4478      	add	r0, pc
     310:	9300      	str	r3, [sp, #0]
     312:	307d      	adds	r0, #125	; 0x7d
     314:	2301      	movs	r3, #1
     316:	f004 f819 	bl	434c <trace_printf>
/home/yin/imx-optee/optee_examples/aes/ta/aes_ta.c:312
     31a:	2f05      	cmp	r7, #5
     31c:	f47f aef8 	bne.w	110 <TA_InvokeCommandEntryPoint+0x60>
/home/yin/imx-optee/optee_examples/aes/ta/aes_ta.c:321
     320:	e895 0006 	ldmia.w	r5, {r1, r2}
/home/yin/imx-optee/optee_examples/aes/ta/aes_ta.c:323
     324:	2500      	movs	r5, #0
/home/yin/imx-optee/optee_examples/aes/ta/aes_ta.c:321
     326:	68e0      	ldr	r0, [r4, #12]
     328:	f001 fb04 	bl	1934 <TEE_CipherInit>
     32c:	e6f1      	b.n	112 <TA_InvokeCommandEntryPoint+0x62>
cipher_buffer():
/home/yin/imx-optee/optee_examples/aes/ta/aes_ta.c:340
     32e:	4e3b      	ldr	r6, [pc, #236]	; (41c <TA_InvokeCommandEntryPoint+0x36c>)
     330:	2203      	movs	r2, #3
     332:	4b3b      	ldr	r3, [pc, #236]	; (420 <TA_InvokeCommandEntryPoint+0x370>)
     334:	f44f 71aa 	mov.w	r1, #340	; 0x154
     338:	9001      	str	r0, [sp, #4]
     33a:	447e      	add	r6, pc
     33c:	447b      	add	r3, pc
     33e:	368a      	adds	r6, #138	; 0x8a
     340:	9300      	str	r3, [sp, #0]
     342:	4630      	mov	r0, r6
     344:	2301      	movs	r3, #1
     346:	f004 f801 	bl	434c <trace_printf>
/home/yin/imx-optee/optee_examples/aes/ta/aes_ta.c:344
     34a:	2f65      	cmp	r7, #101	; 0x65
     34c:	f47f aee0 	bne.w	110 <TA_InvokeCommandEntryPoint+0x60>
/home/yin/imx-optee/optee_examples/aes/ta/aes_ta.c:347
     350:	68eb      	ldr	r3, [r5, #12]
     352:	686a      	ldr	r2, [r5, #4]
     354:	4293      	cmp	r3, r2
     356:	d209      	bcs.n	36c <TA_InvokeCommandEntryPoint+0x2bc>
/home/yin/imx-optee/optee_examples/aes/ta/aes_ta.c:348
     358:	9302      	str	r3, [sp, #8]
     35a:	f240 115d 	movw	r1, #349	; 0x15d
     35e:	4b31      	ldr	r3, [pc, #196]	; (424 <TA_InvokeCommandEntryPoint+0x374>)
     360:	9201      	str	r2, [sp, #4]
     362:	447b      	add	r3, pc
     364:	9300      	str	r3, [sp, #0]
     366:	2301      	movs	r3, #1
     368:	461a      	mov	r2, r3
     36a:	e794      	b.n	296 <TA_InvokeCommandEntryPoint+0x1e6>
/home/yin/imx-optee/optee_examples/aes/ta/aes_ta.c:353
     36c:	68e0      	ldr	r0, [r4, #12]
     36e:	b1b8      	cbz	r0, 3a0 <TA_InvokeCommandEntryPoint+0x2f0>
/home/yin/imx-optee/optee_examples/aes/ta/aes_ta.c:359
     370:	f105 030c 	add.w	r3, r5, #12
     374:	9300      	str	r3, [sp, #0]
     376:	68ab      	ldr	r3, [r5, #8]
     378:	6829      	ldr	r1, [r5, #0]
     37a:	f001 fb06 	bl	198a <TEE_CipherUpdate>
     37e:	4605      	mov	r5, r0
     380:	e6c7      	b.n	112 <TA_InvokeCommandEntryPoint+0x62>
TA_InvokeCommandEntryPoint():
/home/yin/imx-optee/optee_examples/aes/ta/aes_ta.c:430
     382:	4b29      	ldr	r3, [pc, #164]	; (428 <TA_InvokeCommandEntryPoint+0x378>)
     384:	4829      	ldr	r0, [pc, #164]	; (42c <TA_InvokeCommandEntryPoint+0x37c>)
     386:	9101      	str	r1, [sp, #4]
     388:	f44f 71d7 	mov.w	r1, #430	; 0x1ae
     38c:	447b      	add	r3, pc
/home/yin/imx-optee/optee_examples/aes/ta/aes_ta.c:431
     38e:	4d0b      	ldr	r5, [pc, #44]	; (3bc <TA_InvokeCommandEntryPoint+0x30c>)
/home/yin/imx-optee/optee_examples/aes/ta/aes_ta.c:430
     390:	9300      	str	r3, [sp, #0]
     392:	4478      	add	r0, pc
     394:	2301      	movs	r3, #1
     396:	3098      	adds	r0, #152	; 0x98
     398:	461a      	mov	r2, r3
     39a:	f003 ffd7 	bl	434c <trace_printf>
/home/yin/imx-optee/optee_examples/aes/ta/aes_ta.c:431
     39e:	e6b8      	b.n	112 <TA_InvokeCommandEntryPoint+0x62>
cipher_buffer():
/home/yin/imx-optee/optee_examples/aes/ta/aes_ta.c:354
     3a0:	4d07      	ldr	r5, [pc, #28]	; (3c0 <TA_InvokeCommandEntryPoint+0x310>)
     3a2:	e6b6      	b.n	112 <TA_InvokeCommandEntryPoint+0x62>
     3a4:	ffff0006 	.word	0xffff0006
     3a8:	10000010 	.word	0x10000010
     3ac:	10000110 	.word	0x10000110
     3b0:	10000210 	.word	0x10000210
     3b4:	a0000010 	.word	0xa0000010
     3b8:	ffff000c 	.word	0xffff000c
     3bc:	ffff000a 	.word	0xffff000a
     3c0:	ffff0007 	.word	0xffff0007
     3c4:	00007c1a 	.word	0x00007c1a
     3c8:	00007d03 	.word	0x00007d03
     3cc:	00007cfb 	.word	0x00007cfb
     3d0:	00007ce9 	.word	0x00007ce9
     3d4:	00007bb2 	.word	0x00007bb2
     3d8:	00007cb7 	.word	0x00007cb7
     3dc:	00007b94 	.word	0x00007b94
     3e0:	00007cab 	.word	0x00007cab
     3e4:	00007b64 	.word	0x00007b64
     3e8:	00007c72 	.word	0x00007c72
     3ec:	00007b0e 	.word	0x00007b0e
     3f0:	00007c50 	.word	0x00007c50
     3f4:	00007ac4 	.word	0x00007ac4
     3f8:	00007c4d 	.word	0x00007c4d
     3fc:	00007a9a 	.word	0x00007a9a
     400:	00007a88 	.word	0x00007a88
     404:	00007c4f 	.word	0x00007c4f
     408:	00007c49 	.word	0x00007c49
     40c:	00007bac 	.word	0x00007bac
     410:	00007ba5 	.word	0x00007ba5
     414:	00007bee 	.word	0x00007bee
     418:	000079e2 	.word	0x000079e2
     41c:	000079b6 	.word	0x000079b6
     420:	00007bdf 	.word	0x00007bdf
     424:	00007bd3 	.word	0x00007bd3
     428:	00007bc2 	.word	0x00007bc2
     42c:	0000795e 	.word	0x0000795e

00000430 <__utee_from_param>:
__utee_from_param():
/home/yin/imx-optee/imx-optee-os/lib/libutee/tee_api.c:23
     430:	2300      	movs	r3, #0
/home/yin/imx-optee/imx-optee-os/lib/libutee/tee_api.c:20
     432:	b5f0      	push	{r4, r5, r6, r7, lr}
     434:	4694      	mov	ip, r2
     436:	4615      	mov	r5, r2
/home/yin/imx-optee/imx-optee-os/lib/libutee/tee_api.c:39
     438:	2600      	movs	r6, #0
     43a:	2700      	movs	r7, #0
/home/yin/imx-optee/imx-optee-os/lib/libutee/tee_api.c:35
     43c:	461a      	mov	r2, r3
/home/yin/imx-optee/imx-optee-os/lib/libutee/tee_api.c:23
     43e:	e880 000a 	stmia.w	r0, {r1, r3}
/home/yin/imx-optee/imx-optee-os/lib/libutee/tee_api.c:25
     442:	fa21 f403 	lsr.w	r4, r1, r3
     446:	f004 040f 	and.w	r4, r4, #15
     44a:	3c01      	subs	r4, #1
     44c:	2c06      	cmp	r4, #6
     44e:	d813      	bhi.n	478 <__utee_from_param+0x48>
     450:	e8df f004 	tbb	[pc, r4]
     454:	12040404 	.word	0x12040404
     458:	0404      	.short	0x0404
     45a:	04          	.byte	0x04
     45b:	00          	.byte	0x00
/home/yin/imx-optee/imx-optee-os/lib/libutee/tee_api.c:35
     45c:	f85c 4013 	ldr.w	r4, [ip, r3, lsl #1]
     460:	60c2      	str	r2, [r0, #12]
     462:	6084      	str	r4, [r0, #8]
/home/yin/imx-optee/imx-optee-os/lib/libutee/tee_api.c:36
     464:	686c      	ldr	r4, [r5, #4]
     466:	6142      	str	r2, [r0, #20]
     468:	6104      	str	r4, [r0, #16]
     46a:	3304      	adds	r3, #4
     46c:	3508      	adds	r5, #8
/home/yin/imx-optee/imx-optee-os/lib/libutee/tee_api.c:24 (discriminator 2)
     46e:	2b10      	cmp	r3, #16
     470:	f100 0010 	add.w	r0, r0, #16
     474:	d1e5      	bne.n	442 <__utee_from_param+0x12>
/home/yin/imx-optee/imx-optee-os/lib/libutee/tee_api.c:44
     476:	bdf0      	pop	{r4, r5, r6, r7, pc}
/home/yin/imx-optee/imx-optee-os/lib/libutee/tee_api.c:39
     478:	e9c0 6702 	strd	r6, r7, [r0, #8]
/home/yin/imx-optee/imx-optee-os/lib/libutee/tee_api.c:40
     47c:	e9c0 6704 	strd	r6, r7, [r0, #16]
/home/yin/imx-optee/imx-optee-os/lib/libutee/tee_api.c:41
     480:	e7f3      	b.n	46a <__utee_from_param+0x3a>

00000482 <__utee_to_param>:
__utee_to_param():
/home/yin/imx-optee/imx-optee-os/lib/libutee/tee_api.c:48
     482:	b5f0      	push	{r4, r5, r6, r7, lr}
/home/yin/imx-optee/imx-optee-os/lib/libutee/tee_api.c:50
     484:	2300      	movs	r3, #0
     486:	6816      	ldr	r6, [r2, #0]
     488:	4605      	mov	r5, r0
/home/yin/imx-optee/imx-optee-os/lib/libutee/tee_api.c:56
     48a:	fa26 f403 	lsr.w	r4, r6, r3
/home/yin/imx-optee/imx-optee-os/lib/libutee/tee_api.c:53
     48e:	f8d2 c008 	ldr.w	ip, [r2, #8]
/home/yin/imx-optee/imx-optee-os/lib/libutee/tee_api.c:56
     492:	f004 040f 	and.w	r4, r4, #15
/home/yin/imx-optee/imx-optee-os/lib/libutee/tee_api.c:54
     496:	6917      	ldr	r7, [r2, #16]
/home/yin/imx-optee/imx-optee-os/lib/libutee/tee_api.c:56
     498:	3c01      	subs	r4, #1
     49a:	2c06      	cmp	r4, #6
     49c:	d808      	bhi.n	4b0 <__utee_to_param+0x2e>
     49e:	e8df f004 	tbb	[pc, r4]
     4a2:	0404      	.short	0x0404
     4a4:	04040704 	.word	0x04040704
     4a8:	04          	.byte	0x04
     4a9:	00          	.byte	0x00
/home/yin/imx-optee/imx-optee-os/lib/libutee/tee_api.c:66
     4aa:	f840 c013 	str.w	ip, [r0, r3, lsl #1]
/home/yin/imx-optee/imx-optee-os/lib/libutee/tee_api.c:67
     4ae:	606f      	str	r7, [r5, #4]
     4b0:	3304      	adds	r3, #4
     4b2:	3210      	adds	r2, #16
/home/yin/imx-optee/imx-optee-os/lib/libutee/tee_api.c:52 (discriminator 2)
     4b4:	2b10      	cmp	r3, #16
     4b6:	f105 0508 	add.w	r5, r5, #8
     4ba:	d1e6      	bne.n	48a <__utee_to_param+0x8>
/home/yin/imx-optee/imx-optee-os/lib/libutee/tee_api.c:74
     4bc:	b101      	cbz	r1, 4c0 <__utee_to_param+0x3e>
/home/yin/imx-optee/imx-optee-os/lib/libutee/tee_api.c:75
     4be:	600e      	str	r6, [r1, #0]
     4c0:	bdf0      	pop	{r4, r5, r6, r7, pc}

000004c2 <TEE_OpenTASession>:
TEE_OpenTASession():
/home/yin/imx-optee/imx-optee-os/lib/libutee/tee_api.c:84
     4c2:	b5f0      	push	{r4, r5, r6, r7, lr}
     4c4:	b097      	sub	sp, #92	; 0x5c
/home/yin/imx-optee/imx-optee-os/lib/libutee/tee_api.c:89
     4c6:	ac04      	add	r4, sp, #16
/home/yin/imx-optee/imx-optee-os/lib/libutee/tee_api.c:84
     4c8:	4605      	mov	r5, r0
     4ca:	460f      	mov	r7, r1
/home/yin/imx-optee/imx-optee-os/lib/libutee/tee_api.c:89
     4cc:	4620      	mov	r0, r4
/home/yin/imx-optee/imx-optee-os/lib/libutee/tee_api.c:84
     4ce:	4611      	mov	r1, r2
/home/yin/imx-optee/imx-optee-os/lib/libutee/tee_api.c:89
     4d0:	461a      	mov	r2, r3
/home/yin/imx-optee/imx-optee-os/lib/libutee/tee_api.c:84
     4d2:	461e      	mov	r6, r3
/home/yin/imx-optee/imx-optee-os/lib/libutee/tee_api.c:89
     4d4:	f7ff ffac 	bl	430 <__utee_from_param>
/home/yin/imx-optee/imx-optee-os/lib/libutee/tee_api.c:90
     4d8:	9b1d      	ldr	r3, [sp, #116]	; 0x74
     4da:	4622      	mov	r2, r4
     4dc:	4639      	mov	r1, r7
     4de:	4628      	mov	r0, r5
     4e0:	9300      	str	r3, [sp, #0]
     4e2:	ab03      	add	r3, sp, #12
     4e4:	f002 e908 	blx	26f8 <utee_open_ta_session>
     4e8:	4605      	mov	r5, r0
/home/yin/imx-optee/imx-optee-os/lib/libutee/tee_api.c:92
     4ea:	4622      	mov	r2, r4
     4ec:	2100      	movs	r1, #0
     4ee:	4630      	mov	r0, r6
     4f0:	f7ff ffc7 	bl	482 <__utee_to_param>
/home/yin/imx-optee/imx-optee-os/lib/libutee/tee_api.c:98
     4f4:	b10d      	cbz	r5, 4fa <TEE_OpenTASession+0x38>
/home/yin/imx-optee/imx-optee-os/lib/libutee/tee_api.c:99
     4f6:	2300      	movs	r3, #0
     4f8:	9303      	str	r3, [sp, #12]
/home/yin/imx-optee/imx-optee-os/lib/libutee/tee_api.c:101
     4fa:	9a03      	ldr	r2, [sp, #12]
/home/yin/imx-optee/imx-optee-os/lib/libutee/tee_api.c:103
     4fc:	4628      	mov	r0, r5
/home/yin/imx-optee/imx-optee-os/lib/libutee/tee_api.c:101
     4fe:	9b1c      	ldr	r3, [sp, #112]	; 0x70
     500:	601a      	str	r2, [r3, #0]
/home/yin/imx-optee/imx-optee-os/lib/libutee/tee_api.c:103
     502:	b017      	add	sp, #92	; 0x5c
     504:	bdf0      	pop	{r4, r5, r6, r7, pc}

00000506 <TEE_CloseTASession>:
TEE_CloseTASession():
/home/yin/imx-optee/imx-optee-os/lib/libutee/tee_api.c:106
     506:	b508      	push	{r3, lr}
/home/yin/imx-optee/imx-optee-os/lib/libutee/tee_api.c:107
     508:	b130      	cbz	r0, 518 <TEE_CloseTASession+0x12>
/home/yin/imx-optee/imx-optee-os/lib/libutee/tee_api.c:108
     50a:	f002 e902 	blx	2710 <utee_close_ta_session>
/home/yin/imx-optee/imx-optee-os/lib/libutee/tee_api.c:110
     50e:	b118      	cbz	r0, 518 <TEE_CloseTASession+0x12>
/home/yin/imx-optee/imx-optee-os/lib/libutee/tee_api.c:113
     510:	e8bd 4008 	ldmia.w	sp!, {r3, lr}
/home/yin/imx-optee/imx-optee-os/lib/libutee/tee_api.c:111
     514:	f004 be84 	b.w	5220 <TEE_Panic>
     518:	bd08      	pop	{r3, pc}

0000051a <TEE_InvokeTACommand>:
TEE_InvokeTACommand():
/home/yin/imx-optee/imx-optee-os/lib/libutee/tee_api.c:120
     51a:	e92d 41f0 	stmdb	sp!, {r4, r5, r6, r7, r8, lr}
     51e:	b096      	sub	sp, #88	; 0x58
/home/yin/imx-optee/imx-optee-os/lib/libutee/tee_api.c:125
     520:	ad04      	add	r5, sp, #16
/home/yin/imx-optee/imx-optee-os/lib/libutee/tee_api.c:120
     522:	4604      	mov	r4, r0
     524:	460f      	mov	r7, r1
     526:	4690      	mov	r8, r2
/home/yin/imx-optee/imx-optee-os/lib/libutee/tee_api.c:125
     528:	4619      	mov	r1, r3
     52a:	9a1c      	ldr	r2, [sp, #112]	; 0x70
     52c:	4628      	mov	r0, r5
/home/yin/imx-optee/imx-optee-os/lib/libutee/tee_api.c:120
     52e:	9e1d      	ldr	r6, [sp, #116]	; 0x74
/home/yin/imx-optee/imx-optee-os/lib/libutee/tee_api.c:125
     530:	f7ff ff7e 	bl	430 <__utee_from_param>
/home/yin/imx-optee/imx-optee-os/lib/libutee/tee_api.c:126
     534:	ab03      	add	r3, sp, #12
     536:	4642      	mov	r2, r8
     538:	9300      	str	r3, [sp, #0]
     53a:	4639      	mov	r1, r7
     53c:	462b      	mov	r3, r5
     53e:	4620      	mov	r0, r4
     540:	f002 e8f0 	blx	2724 <utee_invoke_ta_command>
/home/yin/imx-optee/imx-optee-os/lib/libutee/tee_api.c:129
     544:	462a      	mov	r2, r5
/home/yin/imx-optee/imx-optee-os/lib/libutee/tee_api.c:126
     546:	4604      	mov	r4, r0
/home/yin/imx-optee/imx-optee-os/lib/libutee/tee_api.c:129
     548:	2100      	movs	r1, #0
     54a:	981c      	ldr	r0, [sp, #112]	; 0x70
     54c:	f7ff ff99 	bl	482 <__utee_to_param>
     550:	9b03      	ldr	r3, [sp, #12]
/home/yin/imx-optee/imx-optee-os/lib/libutee/tee_api.c:131
     552:	b106      	cbz	r6, 556 <TEE_InvokeTACommand+0x3c>
/home/yin/imx-optee/imx-optee-os/lib/libutee/tee_api.c:132
     554:	6033      	str	r3, [r6, #0]
/home/yin/imx-optee/imx-optee-os/lib/libutee/tee_api.c:134
     556:	2b04      	cmp	r3, #4
     558:	d009      	beq.n	56e <TEE_InvokeTACommand+0x54>
/home/yin/imx-optee/imx-optee-os/lib/libutee/tee_api.c:137
     55a:	b144      	cbz	r4, 56e <TEE_InvokeTACommand+0x54>
/home/yin/imx-optee/imx-optee-os/lib/libutee/tee_api.c:137 (discriminator 1)
     55c:	4b06      	ldr	r3, [pc, #24]	; (578 <TEE_InvokeTACommand+0x5e>)
     55e:	429c      	cmp	r4, r3
     560:	d005      	beq.n	56e <TEE_InvokeTACommand+0x54>
/home/yin/imx-optee/imx-optee-os/lib/libutee/tee_api.c:138
     562:	4b06      	ldr	r3, [pc, #24]	; (57c <TEE_InvokeTACommand+0x62>)
     564:	429c      	cmp	r4, r3
     566:	d002      	beq.n	56e <TEE_InvokeTACommand+0x54>
/home/yin/imx-optee/imx-optee-os/lib/libutee/tee_api.c:140
     568:	4620      	mov	r0, r4
     56a:	f004 fe59 	bl	5220 <TEE_Panic>
/home/yin/imx-optee/imx-optee-os/lib/libutee/tee_api.c:143
     56e:	4620      	mov	r0, r4
     570:	b016      	add	sp, #88	; 0x58
     572:	e8bd 81f0 	ldmia.w	sp!, {r4, r5, r6, r7, r8, pc}
     576:	bf00      	nop
     578:	ffff000c 	.word	0xffff000c
     57c:	ffff3024 	.word	0xffff3024

00000580 <TEE_GetCancellationFlag>:
TEE_GetCancellationFlag():
/home/yin/imx-optee/imx-optee-os/lib/libutee/tee_api.c:148
     580:	b507      	push	{r0, r1, r2, lr}
/home/yin/imx-optee/imx-optee-os/lib/libutee/tee_api.c:150
     582:	a801      	add	r0, sp, #4
     584:	f002 e8da 	blx	273c <utee_get_cancellation_flag>
/home/yin/imx-optee/imx-optee-os/lib/libutee/tee_api.c:152
     588:	b108      	cbz	r0, 58e <TEE_GetCancellationFlag+0xe>
/home/yin/imx-optee/imx-optee-os/lib/libutee/tee_api.c:153
     58a:	2300      	movs	r3, #0
     58c:	9301      	str	r3, [sp, #4]
/home/yin/imx-optee/imx-optee-os/lib/libutee/tee_api.c:155
     58e:	9801      	ldr	r0, [sp, #4]
     590:	3000      	adds	r0, #0
     592:	bf18      	it	ne
     594:	2001      	movne	r0, #1
     596:	b003      	add	sp, #12
     598:	f85d fb04 	ldr.w	pc, [sp], #4

0000059c <TEE_UnmaskCancellation>:
TEE_UnmaskCancellation():
/home/yin/imx-optee/imx-optee-os/lib/libutee/tee_api.c:158
     59c:	b507      	push	{r0, r1, r2, lr}
/home/yin/imx-optee/imx-optee-os/lib/libutee/tee_api.c:160
     59e:	a801      	add	r0, sp, #4
     5a0:	f002 e8e0 	blx	2764 <utee_unmask_cancellation>
/home/yin/imx-optee/imx-optee-os/lib/libutee/tee_api.c:162
     5a4:	b108      	cbz	r0, 5aa <TEE_UnmaskCancellation+0xe>
/home/yin/imx-optee/imx-optee-os/lib/libutee/tee_api.c:163
     5a6:	f004 fe3b 	bl	5220 <TEE_Panic>
/home/yin/imx-optee/imx-optee-os/lib/libutee/tee_api.c:165
     5aa:	9801      	ldr	r0, [sp, #4]
     5ac:	3000      	adds	r0, #0
     5ae:	bf18      	it	ne
     5b0:	2001      	movne	r0, #1
     5b2:	b003      	add	sp, #12
     5b4:	f85d fb04 	ldr.w	pc, [sp], #4

000005b8 <TEE_MaskCancellation>:
TEE_MaskCancellation():
/home/yin/imx-optee/imx-optee-os/lib/libutee/tee_api.c:168
     5b8:	b507      	push	{r0, r1, r2, lr}
/home/yin/imx-optee/imx-optee-os/lib/libutee/tee_api.c:170
     5ba:	a801      	add	r0, sp, #4
     5bc:	f002 e8dc 	blx	2778 <utee_mask_cancellation>
/home/yin/imx-optee/imx-optee-os/lib/libutee/tee_api.c:172
     5c0:	b108      	cbz	r0, 5c6 <TEE_MaskCancellation+0xe>
/home/yin/imx-optee/imx-optee-os/lib/libutee/tee_api.c:173
     5c2:	f004 fe2d 	bl	5220 <TEE_Panic>
/home/yin/imx-optee/imx-optee-os/lib/libutee/tee_api.c:175
     5c6:	9801      	ldr	r0, [sp, #4]
     5c8:	3000      	adds	r0, #0
     5ca:	bf18      	it	ne
     5cc:	2001      	movne	r0, #1
     5ce:	b003      	add	sp, #12
     5d0:	f85d fb04 	ldr.w	pc, [sp], #4

000005d4 <TEE_CheckMemoryAccessRights>:
TEE_CheckMemoryAccessRights():
/home/yin/imx-optee/imx-optee-os/lib/libutee/tee_api.c:184
     5d4:	b10a      	cbz	r2, 5da <TEE_CheckMemoryAccessRights+0x6>
/home/yin/imx-optee/imx-optee-os/lib/libutee/tee_api.c:188
     5d6:	f006 bccb 	b.w	6f70 <__utee_check_access_rights_from_thumb>
/home/yin/imx-optee/imx-optee-os/lib/libutee/tee_api.c:200
     5da:	4610      	mov	r0, r2
     5dc:	4770      	bx	lr

000005de <TEE_SetInstanceData>:
TEE_SetInstanceData():
/home/yin/imx-optee/imx-optee-os/lib/libutee/tee_api.c:204
     5de:	4b02      	ldr	r3, [pc, #8]	; (5e8 <TEE_SetInstanceData+0xa>)
     5e0:	447b      	add	r3, pc
     5e2:	6018      	str	r0, [r3, #0]
     5e4:	4770      	bx	lr
     5e6:	bf00      	nop
     5e8:	00009aa8 	.word	0x00009aa8

000005ec <TEE_GetInstanceData>:
TEE_GetInstanceData():
/home/yin/imx-optee/imx-optee-os/lib/libutee/tee_api.c:210
     5ec:	4b01      	ldr	r3, [pc, #4]	; (5f4 <TEE_GetInstanceData+0x8>)
     5ee:	447b      	add	r3, pc
     5f0:	6818      	ldr	r0, [r3, #0]
     5f2:	4770      	bx	lr
     5f4:	00009a9a 	.word	0x00009a9a

000005f8 <TEE_MemMove>:
TEE_MemMove():
/home/yin/imx-optee/imx-optee-os/lib/libutee/tee_api.c:214
     5f8:	f004 be44 	b.w	5284 <memmove>

000005fc <TEE_MemCompare>:
TEE_MemCompare():
/home/yin/imx-optee/imx-optee-os/lib/libutee/tee_api.c:219
     5fc:	f004 be28 	b.w	5250 <memcmp>

00000600 <TEE_MemFill>:
TEE_MemFill():
/home/yin/imx-optee/imx-optee-os/lib/libutee/tee_api.c:224
     600:	f004 be5a 	b.w	52b8 <memset>

00000604 <TEE_GetSystemTime>:
TEE_GetSystemTime():
/home/yin/imx-optee/imx-optee-os/lib/libutee/tee_api.c:230
     604:	b508      	push	{r3, lr}
/home/yin/imx-optee/imx-optee-os/lib/libutee/tee_api.c:231
     606:	4601      	mov	r1, r0
     608:	2000      	movs	r0, #0
     60a:	f002 e8ca 	blx	27a0 <utee_get_time>
/home/yin/imx-optee/imx-optee-os/lib/libutee/tee_api.c:233
     60e:	b118      	cbz	r0, 618 <TEE_GetSystemTime+0x14>
/home/yin/imx-optee/imx-optee-os/lib/libutee/tee_api.c:235
     610:	e8bd 4008 	ldmia.w	sp!, {r3, lr}
/home/yin/imx-optee/imx-optee-os/lib/libutee/tee_api.c:234
     614:	f004 be04 	b.w	5220 <TEE_Panic>
     618:	bd08      	pop	{r3, pc}

0000061a <TEE_Wait>:
TEE_Wait():
/home/yin/imx-optee/imx-optee-os/lib/libutee/tee_api.c:238
     61a:	b510      	push	{r4, lr}
/home/yin/imx-optee/imx-optee-os/lib/libutee/tee_api.c:239
     61c:	f002 e8b6 	blx	278c <utee_wait>
/home/yin/imx-optee/imx-optee-os/lib/libutee/tee_api.c:241
     620:	4604      	mov	r4, r0
     622:	b120      	cbz	r0, 62e <TEE_Wait+0x14>
/home/yin/imx-optee/imx-optee-os/lib/libutee/tee_api.c:241 (discriminator 1)
     624:	4b03      	ldr	r3, [pc, #12]	; (634 <TEE_Wait+0x1a>)
     626:	4298      	cmp	r0, r3
     628:	d001      	beq.n	62e <TEE_Wait+0x14>
/home/yin/imx-optee/imx-optee-os/lib/libutee/tee_api.c:242
     62a:	f004 fdf9 	bl	5220 <TEE_Panic>
/home/yin/imx-optee/imx-optee-os/lib/libutee/tee_api.c:245
     62e:	4620      	mov	r0, r4
     630:	bd10      	pop	{r4, pc}
     632:	bf00      	nop
     634:	ffff0002 	.word	0xffff0002

00000638 <TEE_GetTAPersistentTime>:
TEE_GetTAPersistentTime():
/home/yin/imx-optee/imx-optee-os/lib/libutee/tee_api.c:248
     638:	b538      	push	{r3, r4, r5, lr}
/home/yin/imx-optee/imx-optee-os/lib/libutee/tee_api.c:251
     63a:	4601      	mov	r1, r0
/home/yin/imx-optee/imx-optee-os/lib/libutee/tee_api.c:248
     63c:	4605      	mov	r5, r0
/home/yin/imx-optee/imx-optee-os/lib/libutee/tee_api.c:251
     63e:	2001      	movs	r0, #1
     640:	f002 e8ae 	blx	27a0 <utee_get_time>
/home/yin/imx-optee/imx-optee-os/lib/libutee/tee_api.c:253
     644:	4604      	mov	r4, r0
     646:	b170      	cbz	r0, 666 <TEE_GetTAPersistentTime+0x2e>
/home/yin/imx-optee/imx-optee-os/lib/libutee/tee_api.c:253 (discriminator 1)
     648:	4b08      	ldr	r3, [pc, #32]	; (66c <TEE_GetTAPersistentTime+0x34>)
     64a:	4298      	cmp	r0, r3
     64c:	d00b      	beq.n	666 <TEE_GetTAPersistentTime+0x2e>
/home/yin/imx-optee/imx-optee-os/lib/libutee/tee_api.c:254
     64e:	2300      	movs	r3, #0
     650:	602b      	str	r3, [r5, #0]
/home/yin/imx-optee/imx-optee-os/lib/libutee/tee_api.c:255
     652:	606b      	str	r3, [r5, #4]
/home/yin/imx-optee/imx-optee-os/lib/libutee/tee_api.c:258
     654:	f500 4330 	add.w	r3, r0, #45056	; 0xb000
     658:	2b01      	cmp	r3, #1
     65a:	d904      	bls.n	666 <TEE_GetTAPersistentTime+0x2e>
/home/yin/imx-optee/imx-optee-os/lib/libutee/tee_api.c:261
     65c:	4b04      	ldr	r3, [pc, #16]	; (670 <TEE_GetTAPersistentTime+0x38>)
     65e:	4298      	cmp	r0, r3
     660:	d001      	beq.n	666 <TEE_GetTAPersistentTime+0x2e>
/home/yin/imx-optee/imx-optee-os/lib/libutee/tee_api.c:263
     662:	f004 fddd 	bl	5220 <TEE_Panic>
/home/yin/imx-optee/imx-optee-os/lib/libutee/tee_api.c:266
     666:	4620      	mov	r0, r4
     668:	bd38      	pop	{r3, r4, r5, pc}
     66a:	bf00      	nop
     66c:	ffff300f 	.word	0xffff300f
     670:	ffff000c 	.word	0xffff000c

00000674 <TEE_SetTAPersistentTime>:
TEE_SetTAPersistentTime():
/home/yin/imx-optee/imx-optee-os/lib/libutee/tee_api.c:269
     674:	b510      	push	{r4, lr}
/home/yin/imx-optee/imx-optee-os/lib/libutee/tee_api.c:272
     676:	f002 e89e 	blx	27b4 <utee_set_ta_time>
/home/yin/imx-optee/imx-optee-os/lib/libutee/tee_api.c:274
     67a:	4604      	mov	r4, r0
     67c:	b138      	cbz	r0, 68e <TEE_SetTAPersistentTime+0x1a>
/home/yin/imx-optee/imx-optee-os/lib/libutee/tee_api.c:274 (discriminator 1)
     67e:	4b05      	ldr	r3, [pc, #20]	; (694 <TEE_SetTAPersistentTime+0x20>)
     680:	4298      	cmp	r0, r3
     682:	d004      	beq.n	68e <TEE_SetTAPersistentTime+0x1a>
/home/yin/imx-optee/imx-optee-os/lib/libutee/tee_api.c:275
     684:	4b04      	ldr	r3, [pc, #16]	; (698 <TEE_SetTAPersistentTime+0x24>)
     686:	4298      	cmp	r0, r3
     688:	d001      	beq.n	68e <TEE_SetTAPersistentTime+0x1a>
/home/yin/imx-optee/imx-optee-os/lib/libutee/tee_api.c:277
     68a:	f004 fdc9 	bl	5220 <TEE_Panic>
/home/yin/imx-optee/imx-optee-os/lib/libutee/tee_api.c:280
     68e:	4620      	mov	r0, r4
     690:	bd10      	pop	{r4, pc}
     692:	bf00      	nop
     694:	ffff000c 	.word	0xffff000c
     698:	ffff3041 	.word	0xffff3041

0000069c <TEE_GetREETime>:
TEE_GetREETime():
/home/yin/imx-optee/imx-optee-os/lib/libutee/tee_api.c:283
     69c:	b508      	push	{r3, lr}
/home/yin/imx-optee/imx-optee-os/lib/libutee/tee_api.c:284
     69e:	4601      	mov	r1, r0
     6a0:	2002      	movs	r0, #2
     6a2:	f002 e87e 	blx	27a0 <utee_get_time>
/home/yin/imx-optee/imx-optee-os/lib/libutee/tee_api.c:286
     6a6:	b118      	cbz	r0, 6b0 <TEE_GetREETime+0x14>
/home/yin/imx-optee/imx-optee-os/lib/libutee/tee_api.c:288
     6a8:	e8bd 4008 	ldmia.w	sp!, {r3, lr}
/home/yin/imx-optee/imx-optee-os/lib/libutee/tee_api.c:287
     6ac:	f004 bdb8 	b.w	5220 <TEE_Panic>
     6b0:	bd08      	pop	{r3, pc}

000006b2 <TEE_Malloc>:
TEE_Malloc():
/home/yin/imx-optee/imx-optee-os/lib/libutee/tee_api.c:291
     6b2:	b507      	push	{r0, r1, r2, lr}
/home/yin/imx-optee/imx-optee-os/lib/libutee/tee_api.c:292
     6b4:	b931      	cbnz	r1, 6c4 <TEE_Malloc+0x12>
/home/yin/imx-optee/imx-optee-os/lib/libutee/tee_api.c:293
     6b6:	4601      	mov	r1, r0
     6b8:	2001      	movs	r0, #1
/home/yin/imx-optee/imx-optee-os/lib/libutee/tee_api.c:300
     6ba:	b003      	add	sp, #12
     6bc:	f85d eb04 	ldr.w	lr, [sp], #4
/home/yin/imx-optee/imx-optee-os/lib/libutee/tee_api.c:293
     6c0:	f003 b818 	b.w	36f4 <calloc>
/home/yin/imx-optee/imx-optee-os/lib/libutee/tee_api.c:294
     6c4:	f1b1 4f00 	cmp.w	r1, #2147483648	; 0x80000000
     6c8:	d104      	bne.n	6d4 <TEE_Malloc+0x22>
/home/yin/imx-optee/imx-optee-os/lib/libutee/tee_api.c:300
     6ca:	b003      	add	sp, #12
     6cc:	f85d eb04 	ldr.w	lr, [sp], #4
/home/yin/imx-optee/imx-optee-os/lib/libutee/tee_api.c:295
     6d0:	f002 bffc 	b.w	36cc <malloc>
/home/yin/imx-optee/imx-optee-os/lib/libutee/tee_api.c:297
     6d4:	4b07      	ldr	r3, [pc, #28]	; (6f4 <TEE_Malloc+0x42>)
     6d6:	4808      	ldr	r0, [pc, #32]	; (6f8 <TEE_Malloc+0x46>)
     6d8:	9101      	str	r1, [sp, #4]
     6da:	f240 1129 	movw	r1, #297	; 0x129
     6de:	447b      	add	r3, pc
     6e0:	9300      	str	r3, [sp, #0]
     6e2:	2301      	movs	r3, #1
     6e4:	461a      	mov	r2, r3
     6e6:	4478      	add	r0, pc
     6e8:	f003 fe30 	bl	434c <trace_printf>
/home/yin/imx-optee/imx-optee-os/lib/libutee/tee_api.c:300
     6ec:	2000      	movs	r0, #0
     6ee:	b003      	add	sp, #12
     6f0:	f85d fb04 	ldr.w	pc, [sp], #4
     6f4:	0000798e 	.word	0x0000798e
     6f8:	0000797b 	.word	0x0000797b

000006fc <TEE_Realloc>:
TEE_Realloc():
/home/yin/imx-optee/imx-optee-os/lib/libutee/tee_api.c:304
     6fc:	f003 b80e 	b.w	371c <realloc>

00000700 <TEE_Free>:
TEE_Free():
/home/yin/imx-optee/imx-optee-os/lib/libutee/tee_api.c:309
     700:	f002 bff0 	b.w	36e4 <free>

00000704 <TEE_CacheClean>:
TEE_CacheClean():
/home/yin/imx-optee/imx-optee-os/lib/libutee/tee_api.c:315
     704:	2200      	movs	r2, #0
     706:	f006 bc23 	b.w	6f50 <__utee_cache_operation_from_thumb>

0000070a <TEE_CacheFlush>:
TEE_CacheFlush():
/home/yin/imx-optee/imx-optee-os/lib/libutee/tee_api.c:319
     70a:	2201      	movs	r2, #1
     70c:	f006 bc20 	b.w	6f50 <__utee_cache_operation_from_thumb>

00000710 <TEE_CacheInvalidate>:
TEE_CacheInvalidate():
/home/yin/imx-optee/imx-optee-os/lib/libutee/tee_api.c:324
     710:	2202      	movs	r2, #2
     712:	f006 bc1d 	b.w	6f50 <__utee_cache_operation_from_thumb>
     716:	bf00      	nop

00000718 <__utee_from_attr>:
__utee_from_attr():
/home/yin/imx-optee/imx-optee-os/lib/libutee/tee_api_objects.c:19
     718:	2318      	movs	r3, #24
     71a:	b530      	push	{r4, r5, lr}
     71c:	fb03 0202 	mla	r2, r3, r2, r0
/home/yin/imx-optee/imx-optee-os/lib/libutee/tee_api_objects.c:25
     720:	2400      	movs	r4, #0
/home/yin/imx-optee/imx-optee-os/lib/libutee/tee_api_objects.c:22 (discriminator 1)
     722:	4290      	cmp	r0, r2
     724:	d100      	bne.n	728 <__utee_from_attr+0x10>
/home/yin/imx-optee/imx-optee-os/lib/libutee/tee_api_objects.c:32
     726:	bd30      	pop	{r4, r5, pc}
/home/yin/imx-optee/imx-optee-os/lib/libutee/tee_api_objects.c:23
     728:	680b      	ldr	r3, [r1, #0]
     72a:	6103      	str	r3, [r0, #16]
/home/yin/imx-optee/imx-optee-os/lib/libutee/tee_api_objects.c:24
     72c:	f013 5300 	ands.w	r3, r3, #536870912	; 0x20000000
     730:	d008      	beq.n	744 <__utee_from_attr+0x2c>
/home/yin/imx-optee/imx-optee-os/lib/libutee/tee_api_objects.c:25
     732:	684b      	ldr	r3, [r1, #4]
     734:	e880 0018 	stmia.w	r0, {r3, r4}
/home/yin/imx-optee/imx-optee-os/lib/libutee/tee_api_objects.c:26
     738:	688b      	ldr	r3, [r1, #8]
     73a:	60c4      	str	r4, [r0, #12]
     73c:	6083      	str	r3, [r0, #8]
     73e:	310c      	adds	r1, #12
     740:	3018      	adds	r0, #24
     742:	e7ee      	b.n	722 <__utee_from_attr+0xa>
/home/yin/imx-optee/imx-optee-os/lib/libutee/tee_api_objects.c:28
     744:	684d      	ldr	r5, [r1, #4]
     746:	6043      	str	r3, [r0, #4]
     748:	6005      	str	r5, [r0, #0]
/home/yin/imx-optee/imx-optee-os/lib/libutee/tee_api_objects.c:29
     74a:	688d      	ldr	r5, [r1, #8]
     74c:	60c3      	str	r3, [r0, #12]
     74e:	6085      	str	r5, [r0, #8]
     750:	e7f5      	b.n	73e <__utee_from_attr+0x26>

00000752 <TEE_GetObjectInfo>:
TEE_GetObjectInfo():
/home/yin/imx-optee/imx-optee-os/lib/libutee/tee_api_objects.c:42
     752:	b510      	push	{r4, lr}
     754:	460c      	mov	r4, r1
/home/yin/imx-optee/imx-optee-os/lib/libutee/tee_api_objects.c:45
     756:	f002 e89a 	blx	288c <utee_cryp_obj_get_info>
/home/yin/imx-optee/imx-optee-os/lib/libutee/tee_api_objects.c:47
     75a:	b108      	cbz	r0, 760 <TEE_GetObjectInfo+0xe>
/home/yin/imx-optee/imx-optee-os/lib/libutee/tee_api_objects.c:48
     75c:	f004 fd60 	bl	5220 <TEE_Panic>
/home/yin/imx-optee/imx-optee-os/lib/libutee/tee_api_objects.c:50
     760:	6822      	ldr	r2, [r4, #0]
     762:	4b05      	ldr	r3, [pc, #20]	; (778 <TEE_GetObjectInfo+0x26>)
     764:	429a      	cmp	r2, r3
     766:	d106      	bne.n	776 <TEE_GetObjectInfo+0x24>
/home/yin/imx-optee/imx-optee-os/lib/libutee/tee_api_objects.c:51
     768:	2300      	movs	r3, #0
     76a:	6063      	str	r3, [r4, #4]
/home/yin/imx-optee/imx-optee-os/lib/libutee/tee_api_objects.c:52
     76c:	60a3      	str	r3, [r4, #8]
/home/yin/imx-optee/imx-optee-os/lib/libutee/tee_api_objects.c:53
     76e:	60e3      	str	r3, [r4, #12]
/home/yin/imx-optee/imx-optee-os/lib/libutee/tee_api_objects.c:54
     770:	6123      	str	r3, [r4, #16]
/home/yin/imx-optee/imx-optee-os/lib/libutee/tee_api_objects.c:55
     772:	6163      	str	r3, [r4, #20]
/home/yin/imx-optee/imx-optee-os/lib/libutee/tee_api_objects.c:56
     774:	61a3      	str	r3, [r4, #24]
     776:	bd10      	pop	{r4, pc}
     778:	a00000be 	.word	0xa00000be

0000077c <TEE_GetObjectInfo1>:
TEE_GetObjectInfo1():
/home/yin/imx-optee/imx-optee-os/lib/libutee/tee_api_objects.c:61
     77c:	b510      	push	{r4, lr}
/home/yin/imx-optee/imx-optee-os/lib/libutee/tee_api_objects.c:64
     77e:	f002 e886 	blx	288c <utee_cryp_obj_get_info>
/home/yin/imx-optee/imx-optee-os/lib/libutee/tee_api_objects.c:66
     782:	4604      	mov	r4, r0
     784:	b130      	cbz	r0, 794 <TEE_GetObjectInfo1+0x18>
/home/yin/imx-optee/imx-optee-os/lib/libutee/tee_api_objects.c:66 (discriminator 1)
     786:	4b04      	ldr	r3, [pc, #16]	; (798 <TEE_GetObjectInfo1+0x1c>)
     788:	f020 0202 	bic.w	r2, r0, #2
     78c:	429a      	cmp	r2, r3
     78e:	d001      	beq.n	794 <TEE_GetObjectInfo1+0x18>
/home/yin/imx-optee/imx-optee-os/lib/libutee/tee_api_objects.c:69
     790:	f004 fd46 	bl	5220 <TEE_Panic>
/home/yin/imx-optee/imx-optee-os/lib/libutee/tee_api_objects.c:72
     794:	4620      	mov	r0, r4
     796:	bd10      	pop	{r4, pc}
     798:	f0100001 	.word	0xf0100001

0000079c <TEE_RestrictObjectUsage1>:
TEE_RestrictObjectUsage1():
/home/yin/imx-optee/imx-optee-os/lib/libutee/tee_api_objects.c:96
     79c:	b510      	push	{r4, lr}
/home/yin/imx-optee/imx-optee-os/lib/libutee/tee_api_objects.c:99
     79e:	f002 e880 	blx	28a0 <utee_cryp_obj_restrict_usage>
/home/yin/imx-optee/imx-optee-os/lib/libutee/tee_api_objects.c:101
     7a2:	4604      	mov	r4, r0
     7a4:	b130      	cbz	r0, 7b4 <TEE_RestrictObjectUsage1+0x18>
/home/yin/imx-optee/imx-optee-os/lib/libutee/tee_api_objects.c:101 (discriminator 1)
     7a6:	4b04      	ldr	r3, [pc, #16]	; (7b8 <TEE_RestrictObjectUsage1+0x1c>)
     7a8:	f020 0202 	bic.w	r2, r0, #2
     7ac:	429a      	cmp	r2, r3
     7ae:	d001      	beq.n	7b4 <TEE_RestrictObjectUsage1+0x18>
/home/yin/imx-optee/imx-optee-os/lib/libutee/tee_api_objects.c:104
     7b0:	f004 fd36 	bl	5220 <TEE_Panic>
/home/yin/imx-optee/imx-optee-os/lib/libutee/tee_api_objects.c:107
     7b4:	4620      	mov	r0, r4
     7b6:	bd10      	pop	{r4, pc}
     7b8:	f0100001 	.word	0xf0100001

000007bc <TEE_RestrictObjectUsage>:
TEE_RestrictObjectUsage():
/home/yin/imx-optee/imx-optee-os/lib/libutee/tee_api_objects.c:81
     7bc:	b530      	push	{r4, r5, lr}
     7be:	b089      	sub	sp, #36	; 0x24
     7c0:	460d      	mov	r5, r1
/home/yin/imx-optee/imx-optee-os/lib/libutee/tee_api_objects.c:85
     7c2:	a901      	add	r1, sp, #4
/home/yin/imx-optee/imx-optee-os/lib/libutee/tee_api_objects.c:81
     7c4:	4604      	mov	r4, r0
/home/yin/imx-optee/imx-optee-os/lib/libutee/tee_api_objects.c:85
     7c6:	f002 e862 	blx	288c <utee_cryp_obj_get_info>
/home/yin/imx-optee/imx-optee-os/lib/libutee/tee_api_objects.c:86
     7ca:	9a01      	ldr	r2, [sp, #4]
     7cc:	4b05      	ldr	r3, [pc, #20]	; (7e4 <TEE_RestrictObjectUsage+0x28>)
     7ce:	429a      	cmp	r2, r3
     7d0:	d006      	beq.n	7e0 <TEE_RestrictObjectUsage+0x24>
/home/yin/imx-optee/imx-optee-os/lib/libutee/tee_api_objects.c:89
     7d2:	4629      	mov	r1, r5
     7d4:	4620      	mov	r0, r4
     7d6:	f7ff ffe1 	bl	79c <TEE_RestrictObjectUsage1>
/home/yin/imx-optee/imx-optee-os/lib/libutee/tee_api_objects.c:91
     7da:	b108      	cbz	r0, 7e0 <TEE_RestrictObjectUsage+0x24>
/home/yin/imx-optee/imx-optee-os/lib/libutee/tee_api_objects.c:92
     7dc:	f004 fd20 	bl	5220 <TEE_Panic>
/home/yin/imx-optee/imx-optee-os/lib/libutee/tee_api_objects.c:93
     7e0:	b009      	add	sp, #36	; 0x24
     7e2:	bd30      	pop	{r4, r5, pc}
     7e4:	a00000be 	.word	0xa00000be

000007e8 <TEE_GetObjectBufferAttribute>:
TEE_GetObjectBufferAttribute():
/home/yin/imx-optee/imx-optee-os/lib/libutee/tee_api_objects.c:112
     7e8:	e92d 41f0 	stmdb	sp!, {r4, r5, r6, r7, r8, lr}
     7ec:	b08a      	sub	sp, #40	; 0x28
     7ee:	460e      	mov	r6, r1
/home/yin/imx-optee/imx-optee-os/lib/libutee/tee_api_objects.c:117
     7f0:	a903      	add	r1, sp, #12
/home/yin/imx-optee/imx-optee-os/lib/libutee/tee_api_objects.c:112
     7f2:	4607      	mov	r7, r0
     7f4:	4690      	mov	r8, r2
     7f6:	461d      	mov	r5, r3
/home/yin/imx-optee/imx-optee-os/lib/libutee/tee_api_objects.c:117
     7f8:	f002 e848 	blx	288c <utee_cryp_obj_get_info>
/home/yin/imx-optee/imx-optee-os/lib/libutee/tee_api_objects.c:118
     7fc:	4604      	mov	r4, r0
     7fe:	b970      	cbnz	r0, 81e <TEE_GetObjectBufferAttribute+0x36>
/home/yin/imx-optee/imx-optee-os/lib/libutee/tee_api_objects.c:122
     800:	00b3      	lsls	r3, r6, #2
     802:	d422      	bmi.n	84a <TEE_GetObjectBufferAttribute+0x62>
/home/yin/imx-optee/imx-optee-os/lib/libutee/tee_api_objects.c:127
     804:	682b      	ldr	r3, [r5, #0]
/home/yin/imx-optee/imx-optee-os/lib/libutee/tee_api_objects.c:128
     806:	4642      	mov	r2, r8
     808:	4631      	mov	r1, r6
     80a:	4638      	mov	r0, r7
/home/yin/imx-optee/imx-optee-os/lib/libutee/tee_api_objects.c:127
     80c:	e88d 0018 	stmia.w	sp, {r3, r4}
/home/yin/imx-optee/imx-optee-os/lib/libutee/tee_api_objects.c:128
     810:	466b      	mov	r3, sp
     812:	f002 e850 	blx	28b4 <utee_cryp_obj_get_attr>
/home/yin/imx-optee/imx-optee-os/lib/libutee/tee_api_objects.c:130
     816:	9b00      	ldr	r3, [sp, #0]
/home/yin/imx-optee/imx-optee-os/lib/libutee/tee_api_objects.c:133
     818:	4604      	mov	r4, r0
/home/yin/imx-optee/imx-optee-os/lib/libutee/tee_api_objects.c:130
     81a:	602b      	str	r3, [r5, #0]
/home/yin/imx-optee/imx-optee-os/lib/libutee/tee_api_objects.c:133
     81c:	b188      	cbz	r0, 842 <TEE_GetObjectBufferAttribute+0x5a>
/home/yin/imx-optee/imx-optee-os/lib/libutee/tee_api_objects.c:133 (discriminator 1)
     81e:	4b0c      	ldr	r3, [pc, #48]	; (850 <TEE_GetObjectBufferAttribute+0x68>)
     820:	429c      	cmp	r4, r3
     822:	d00e      	beq.n	842 <TEE_GetObjectBufferAttribute+0x5a>
/home/yin/imx-optee/imx-optee-os/lib/libutee/tee_api_objects.c:134
     824:	3308      	adds	r3, #8
     826:	429c      	cmp	r4, r3
     828:	d00b      	beq.n	842 <TEE_GetObjectBufferAttribute+0x5a>
/home/yin/imx-optee/imx-optee-os/lib/libutee/tee_api_objects.c:135
     82a:	f1a3 637e 	sub.w	r3, r3, #266338304	; 0xfe00000
     82e:	f1a3 130f 	sub.w	r3, r3, #983055	; 0xf000f
     832:	429c      	cmp	r4, r3
     834:	d005      	beq.n	842 <TEE_GetObjectBufferAttribute+0x5a>
/home/yin/imx-optee/imx-optee-os/lib/libutee/tee_api_objects.c:136
     836:	3302      	adds	r3, #2
     838:	429c      	cmp	r4, r3
     83a:	d002      	beq.n	842 <TEE_GetObjectBufferAttribute+0x5a>
/home/yin/imx-optee/imx-optee-os/lib/libutee/tee_api_objects.c:138
     83c:	4620      	mov	r0, r4
     83e:	f004 fcef 	bl	5220 <TEE_Panic>
/home/yin/imx-optee/imx-optee-os/lib/libutee/tee_api_objects.c:141
     842:	4620      	mov	r0, r4
     844:	b00a      	add	sp, #40	; 0x28
     846:	e8bd 81f0 	ldmia.w	sp!, {r4, r5, r6, r7, r8, pc}
/home/yin/imx-optee/imx-optee-os/lib/libutee/tee_api_objects.c:123
     84a:	4c02      	ldr	r4, [pc, #8]	; (854 <TEE_GetObjectBufferAttribute+0x6c>)
     84c:	e7f6      	b.n	83c <TEE_GetObjectBufferAttribute+0x54>
     84e:	bf00      	nop
     850:	ffff0008 	.word	0xffff0008
     854:	ffff0006 	.word	0xffff0006

00000858 <TEE_GetObjectValueAttribute>:
TEE_GetObjectValueAttribute():
/home/yin/imx-optee/imx-optee-os/lib/libutee/tee_api_objects.c:146
     858:	e92d 41f0 	stmdb	sp!, {r4, r5, r6, r7, r8, lr}
     85c:	b08c      	sub	sp, #48	; 0x30
     85e:	460f      	mov	r7, r1
     860:	4616      	mov	r6, r2
     862:	461d      	mov	r5, r3
/home/yin/imx-optee/imx-optee-os/lib/libutee/tee_api_objects.c:150
     864:	2208      	movs	r2, #8
     866:	2300      	movs	r3, #0
/home/yin/imx-optee/imx-optee-os/lib/libutee/tee_api_objects.c:152
     868:	a905      	add	r1, sp, #20
/home/yin/imx-optee/imx-optee-os/lib/libutee/tee_api_objects.c:146
     86a:	4680      	mov	r8, r0
/home/yin/imx-optee/imx-optee-os/lib/libutee/tee_api_objects.c:150
     86c:	e9cd 2300 	strd	r2, r3, [sp]
/home/yin/imx-optee/imx-optee-os/lib/libutee/tee_api_objects.c:152
     870:	f002 e80c 	blx	288c <utee_cryp_obj_get_info>
/home/yin/imx-optee/imx-optee-os/lib/libutee/tee_api_objects.c:153
     874:	4604      	mov	r4, r0
     876:	b948      	cbnz	r0, 88c <TEE_GetObjectValueAttribute+0x34>
/home/yin/imx-optee/imx-optee-os/lib/libutee/tee_api_objects.c:157
     878:	00bb      	lsls	r3, r7, #2
     87a:	d527      	bpl.n	8cc <TEE_GetObjectValueAttribute+0x74>
/home/yin/imx-optee/imx-optee-os/lib/libutee/tee_api_objects.c:162
     87c:	466b      	mov	r3, sp
     87e:	aa03      	add	r2, sp, #12
     880:	4639      	mov	r1, r7
     882:	4640      	mov	r0, r8
     884:	f002 e816 	blx	28b4 <utee_cryp_obj_get_attr>
/home/yin/imx-optee/imx-optee-os/lib/libutee/tee_api_objects.c:166
     888:	4604      	mov	r4, r0
     88a:	b158      	cbz	r0, 8a4 <TEE_GetObjectValueAttribute+0x4c>
/home/yin/imx-optee/imx-optee-os/lib/libutee/tee_api_objects.c:166 (discriminator 1)
     88c:	4b10      	ldr	r3, [pc, #64]	; (8d0 <TEE_GetObjectValueAttribute+0x78>)
     88e:	429c      	cmp	r4, r3
     890:	d008      	beq.n	8a4 <TEE_GetObjectValueAttribute+0x4c>
/home/yin/imx-optee/imx-optee-os/lib/libutee/tee_api_objects.c:167
     892:	4b10      	ldr	r3, [pc, #64]	; (8d4 <TEE_GetObjectValueAttribute+0x7c>)
     894:	429c      	cmp	r4, r3
     896:	d005      	beq.n	8a4 <TEE_GetObjectValueAttribute+0x4c>
/home/yin/imx-optee/imx-optee-os/lib/libutee/tee_api_objects.c:168
     898:	3302      	adds	r3, #2
     89a:	429c      	cmp	r4, r3
     89c:	d002      	beq.n	8a4 <TEE_GetObjectValueAttribute+0x4c>
/home/yin/imx-optee/imx-optee-os/lib/libutee/tee_api_objects.c:170
     89e:	4620      	mov	r0, r4
     8a0:	f004 fcbe 	bl	5220 <TEE_Panic>
/home/yin/imx-optee/imx-optee-os/lib/libutee/tee_api_objects.c:172
     8a4:	e9dd 2300 	ldrd	r2, r3, [sp]
     8a8:	2b00      	cmp	r3, #0
     8aa:	bf08      	it	eq
     8ac:	2a08      	cmpeq	r2, #8
     8ae:	d002      	beq.n	8b6 <TEE_GetObjectValueAttribute+0x5e>
/home/yin/imx-optee/imx-optee-os/lib/libutee/tee_api_objects.c:173
     8b0:	2000      	movs	r0, #0
     8b2:	f004 fcb5 	bl	5220 <TEE_Panic>
/home/yin/imx-optee/imx-optee-os/lib/libutee/tee_api_objects.c:175
     8b6:	b92c      	cbnz	r4, 8c4 <TEE_GetObjectValueAttribute+0x6c>
/home/yin/imx-optee/imx-optee-os/lib/libutee/tee_api_objects.c:176
     8b8:	b10e      	cbz	r6, 8be <TEE_GetObjectValueAttribute+0x66>
/home/yin/imx-optee/imx-optee-os/lib/libutee/tee_api_objects.c:177
     8ba:	9b03      	ldr	r3, [sp, #12]
     8bc:	6033      	str	r3, [r6, #0]
/home/yin/imx-optee/imx-optee-os/lib/libutee/tee_api_objects.c:178
     8be:	b10d      	cbz	r5, 8c4 <TEE_GetObjectValueAttribute+0x6c>
/home/yin/imx-optee/imx-optee-os/lib/libutee/tee_api_objects.c:179
     8c0:	9b04      	ldr	r3, [sp, #16]
     8c2:	602b      	str	r3, [r5, #0]
/home/yin/imx-optee/imx-optee-os/lib/libutee/tee_api_objects.c:183
     8c4:	4620      	mov	r0, r4
     8c6:	b00c      	add	sp, #48	; 0x30
     8c8:	e8bd 81f0 	ldmia.w	sp!, {r4, r5, r6, r7, r8, pc}
/home/yin/imx-optee/imx-optee-os/lib/libutee/tee_api_objects.c:158
     8cc:	4c02      	ldr	r4, [pc, #8]	; (8d8 <TEE_GetObjectValueAttribute+0x80>)
     8ce:	e7e6      	b.n	89e <TEE_GetObjectValueAttribute+0x46>
     8d0:	ffff0008 	.word	0xffff0008
     8d4:	f0100001 	.word	0xf0100001
     8d8:	ffff0006 	.word	0xffff0006

000008dc <TEE_CloseObject>:
TEE_CloseObject():
/home/yin/imx-optee/imx-optee-os/lib/libutee/tee_api_objects.c:186
     8dc:	b508      	push	{r3, lr}
/home/yin/imx-optee/imx-optee-os/lib/libutee/tee_api_objects.c:189
     8de:	b130      	cbz	r0, 8ee <TEE_CloseObject+0x12>
/home/yin/imx-optee/imx-optee-os/lib/libutee/tee_api_objects.c:192
     8e0:	f001 effc 	blx	28dc <utee_cryp_obj_close>
/home/yin/imx-optee/imx-optee-os/lib/libutee/tee_api_objects.c:193
     8e4:	b118      	cbz	r0, 8ee <TEE_CloseObject+0x12>
/home/yin/imx-optee/imx-optee-os/lib/libutee/tee_api_objects.c:195
     8e6:	e8bd 4008 	ldmia.w	sp!, {r3, lr}
/home/yin/imx-optee/imx-optee-os/lib/libutee/tee_api_objects.c:194
     8ea:	f004 bc99 	b.w	5220 <TEE_Panic>
     8ee:	bd08      	pop	{r3, pc}

000008f0 <TEE_AllocateTransientObject>:
TEE_AllocateTransientObject():
/home/yin/imx-optee/imx-optee-os/lib/libutee/tee_api_objects.c:202
     8f0:	b537      	push	{r0, r1, r2, r4, r5, lr}
     8f2:	4615      	mov	r5, r2
/home/yin/imx-optee/imx-optee-os/lib/libutee/tee_api_objects.c:206
     8f4:	aa01      	add	r2, sp, #4
     8f6:	f001 efe8 	blx	28c8 <utee_cryp_obj_alloc>
/home/yin/imx-optee/imx-optee-os/lib/libutee/tee_api_objects.c:208
     8fa:	4604      	mov	r4, r0
     8fc:	b150      	cbz	r0, 914 <TEE_AllocateTransientObject+0x24>
/home/yin/imx-optee/imx-optee-os/lib/libutee/tee_api_objects.c:208 (discriminator 1)
     8fe:	4b07      	ldr	r3, [pc, #28]	; (91c <TEE_AllocateTransientObject+0x2c>)
     900:	4298      	cmp	r0, r3
     902:	d004      	beq.n	90e <TEE_AllocateTransientObject+0x1e>
/home/yin/imx-optee/imx-optee-os/lib/libutee/tee_api_objects.c:209
     904:	3b02      	subs	r3, #2
     906:	4298      	cmp	r0, r3
     908:	d001      	beq.n	90e <TEE_AllocateTransientObject+0x1e>
/home/yin/imx-optee/imx-optee-os/lib/libutee/tee_api_objects.c:211
     90a:	f004 fc89 	bl	5220 <TEE_Panic>
/home/yin/imx-optee/imx-optee-os/lib/libutee/tee_api_objects.c:217
     90e:	4620      	mov	r0, r4
     910:	b003      	add	sp, #12
     912:	bd30      	pop	{r4, r5, pc}
/home/yin/imx-optee/imx-optee-os/lib/libutee/tee_api_objects.c:214
     914:	9b01      	ldr	r3, [sp, #4]
     916:	602b      	str	r3, [r5, #0]
     918:	e7f9      	b.n	90e <TEE_AllocateTransientObject+0x1e>
     91a:	bf00      	nop
     91c:	ffff000c 	.word	0xffff000c

00000920 <TEE_FreeTransientObject>:
TEE_FreeTransientObject():
/home/yin/imx-optee/imx-optee-os/lib/libutee/tee_api_objects.c:220
     920:	b510      	push	{r4, lr}
/home/yin/imx-optee/imx-optee-os/lib/libutee/tee_api_objects.c:224
     922:	4604      	mov	r4, r0
/home/yin/imx-optee/imx-optee-os/lib/libutee/tee_api_objects.c:220
     924:	b088      	sub	sp, #32
/home/yin/imx-optee/imx-optee-os/lib/libutee/tee_api_objects.c:224
     926:	b188      	cbz	r0, 94c <TEE_FreeTransientObject+0x2c>
/home/yin/imx-optee/imx-optee-os/lib/libutee/tee_api_objects.c:227
     928:	a901      	add	r1, sp, #4
     92a:	f001 efb0 	blx	288c <utee_cryp_obj_get_info>
/home/yin/imx-optee/imx-optee-os/lib/libutee/tee_api_objects.c:228
     92e:	b108      	cbz	r0, 934 <TEE_FreeTransientObject+0x14>
/home/yin/imx-optee/imx-optee-os/lib/libutee/tee_api_objects.c:229
     930:	f004 fc76 	bl	5220 <TEE_Panic>
/home/yin/imx-optee/imx-optee-os/lib/libutee/tee_api_objects.c:231
     934:	9b07      	ldr	r3, [sp, #28]
     936:	03db      	lsls	r3, r3, #15
     938:	d502      	bpl.n	940 <TEE_FreeTransientObject+0x20>
/home/yin/imx-optee/imx-optee-os/lib/libutee/tee_api_objects.c:232
     93a:	2000      	movs	r0, #0
     93c:	f004 fc70 	bl	5220 <TEE_Panic>
/home/yin/imx-optee/imx-optee-os/lib/libutee/tee_api_objects.c:234
     940:	4620      	mov	r0, r4
     942:	f001 efcc 	blx	28dc <utee_cryp_obj_close>
/home/yin/imx-optee/imx-optee-os/lib/libutee/tee_api_objects.c:235
     946:	b108      	cbz	r0, 94c <TEE_FreeTransientObject+0x2c>
/home/yin/imx-optee/imx-optee-os/lib/libutee/tee_api_objects.c:236
     948:	f004 fc6a 	bl	5220 <TEE_Panic>
/home/yin/imx-optee/imx-optee-os/lib/libutee/tee_api_objects.c:237
     94c:	b008      	add	sp, #32
     94e:	bd10      	pop	{r4, pc}

00000950 <TEE_ResetTransientObject>:
TEE_ResetTransientObject():
/home/yin/imx-optee/imx-optee-os/lib/libutee/tee_api_objects.c:240
     950:	b510      	push	{r4, lr}
/home/yin/imx-optee/imx-optee-os/lib/libutee/tee_api_objects.c:244
     952:	4604      	mov	r4, r0
/home/yin/imx-optee/imx-optee-os/lib/libutee/tee_api_objects.c:240
     954:	b088      	sub	sp, #32
/home/yin/imx-optee/imx-optee-os/lib/libutee/tee_api_objects.c:244
     956:	b188      	cbz	r0, 97c <TEE_ResetTransientObject+0x2c>
/home/yin/imx-optee/imx-optee-os/lib/libutee/tee_api_objects.c:247
     958:	a901      	add	r1, sp, #4
     95a:	f001 ef98 	blx	288c <utee_cryp_obj_get_info>
/home/yin/imx-optee/imx-optee-os/lib/libutee/tee_api_objects.c:248
     95e:	b108      	cbz	r0, 964 <TEE_ResetTransientObject+0x14>
/home/yin/imx-optee/imx-optee-os/lib/libutee/tee_api_objects.c:249
     960:	f004 fc5e 	bl	5220 <TEE_Panic>
/home/yin/imx-optee/imx-optee-os/lib/libutee/tee_api_objects.c:251
     964:	9b07      	ldr	r3, [sp, #28]
     966:	03db      	lsls	r3, r3, #15
     968:	d502      	bpl.n	970 <TEE_ResetTransientObject+0x20>
/home/yin/imx-optee/imx-optee-os/lib/libutee/tee_api_objects.c:252
     96a:	2000      	movs	r0, #0
     96c:	f004 fc58 	bl	5220 <TEE_Panic>
/home/yin/imx-optee/imx-optee-os/lib/libutee/tee_api_objects.c:254
     970:	4620      	mov	r0, r4
     972:	f001 efbe 	blx	28f0 <utee_cryp_obj_reset>
/home/yin/imx-optee/imx-optee-os/lib/libutee/tee_api_objects.c:255
     976:	b108      	cbz	r0, 97c <TEE_ResetTransientObject+0x2c>
/home/yin/imx-optee/imx-optee-os/lib/libutee/tee_api_objects.c:256
     978:	f004 fc52 	bl	5220 <TEE_Panic>
/home/yin/imx-optee/imx-optee-os/lib/libutee/tee_api_objects.c:257
     97c:	b008      	add	sp, #32
     97e:	bd10      	pop	{r4, pc}

00000980 <TEE_PopulateTransientObject>:
TEE_PopulateTransientObject():
/home/yin/imx-optee/imx-optee-os/lib/libutee/tee_api_objects.c:265
     980:	2318      	movs	r3, #24
/home/yin/imx-optee/imx-optee-os/lib/libutee/tee_api_objects.c:262
     982:	e92d 41f0 	stmdb	sp!, {r4, r5, r6, r7, r8, lr}
/home/yin/imx-optee/imx-optee-os/lib/libutee/tee_api_objects.c:265
     986:	4353      	muls	r3, r2
/home/yin/imx-optee/imx-optee-os/lib/libutee/tee_api_objects.c:262
     988:	b088      	sub	sp, #32
     98a:	af00      	add	r7, sp, #0
     98c:	4688      	mov	r8, r1
/home/yin/imx-optee/imx-optee-os/lib/libutee/tee_api_objects.c:267
     98e:	1d39      	adds	r1, r7, #4
/home/yin/imx-optee/imx-optee-os/lib/libutee/tee_api_objects.c:262
     990:	4606      	mov	r6, r0
/home/yin/imx-optee/imx-optee-os/lib/libutee/tee_api_objects.c:265
     992:	3308      	adds	r3, #8
/home/yin/imx-optee/imx-optee-os/lib/libutee/tee_api_objects.c:262
     994:	4614      	mov	r4, r2
/home/yin/imx-optee/imx-optee-os/lib/libutee/tee_api_objects.c:265
     996:	ebad 0d03 	sub.w	sp, sp, r3
     99a:	466d      	mov	r5, sp
/home/yin/imx-optee/imx-optee-os/lib/libutee/tee_api_objects.c:267
     99c:	f001 ef76 	blx	288c <utee_cryp_obj_get_info>
/home/yin/imx-optee/imx-optee-os/lib/libutee/tee_api_objects.c:268
     9a0:	b108      	cbz	r0, 9a6 <TEE_PopulateTransientObject+0x26>
/home/yin/imx-optee/imx-optee-os/lib/libutee/tee_api_objects.c:269
     9a2:	f004 fc3d 	bl	5220 <TEE_Panic>
/home/yin/imx-optee/imx-optee-os/lib/libutee/tee_api_objects.c:272
     9a6:	69fb      	ldr	r3, [r7, #28]
     9a8:	03da      	lsls	r2, r3, #15
     9aa:	d502      	bpl.n	9b2 <TEE_PopulateTransientObject+0x32>
/home/yin/imx-optee/imx-optee-os/lib/libutee/tee_api_objects.c:273
     9ac:	2000      	movs	r0, #0
     9ae:	f004 fc37 	bl	5220 <TEE_Panic>
/home/yin/imx-optee/imx-optee-os/lib/libutee/tee_api_objects.c:276
     9b2:	69fb      	ldr	r3, [r7, #28]
     9b4:	039b      	lsls	r3, r3, #14
     9b6:	d502      	bpl.n	9be <TEE_PopulateTransientObject+0x3e>
/home/yin/imx-optee/imx-optee-os/lib/libutee/tee_api_objects.c:277
     9b8:	2000      	movs	r0, #0
     9ba:	f004 fc31 	bl	5220 <TEE_Panic>
/home/yin/imx-optee/imx-optee-os/lib/libutee/tee_api_objects.c:279
     9be:	4622      	mov	r2, r4
     9c0:	4641      	mov	r1, r8
     9c2:	4628      	mov	r0, r5
     9c4:	f7ff fea8 	bl	718 <__utee_from_attr>
/home/yin/imx-optee/imx-optee-os/lib/libutee/tee_api_objects.c:280
     9c8:	4622      	mov	r2, r4
     9ca:	4629      	mov	r1, r5
     9cc:	4630      	mov	r0, r6
     9ce:	f001 ef9a 	blx	2904 <utee_cryp_obj_populate>
/home/yin/imx-optee/imx-optee-os/lib/libutee/tee_api_objects.c:281
     9d2:	4604      	mov	r4, r0
     9d4:	b120      	cbz	r0, 9e0 <TEE_PopulateTransientObject+0x60>
/home/yin/imx-optee/imx-optee-os/lib/libutee/tee_api_objects.c:281 (discriminator 1)
     9d6:	4b05      	ldr	r3, [pc, #20]	; (9ec <TEE_PopulateTransientObject+0x6c>)
     9d8:	4298      	cmp	r0, r3
     9da:	d001      	beq.n	9e0 <TEE_PopulateTransientObject+0x60>
/home/yin/imx-optee/imx-optee-os/lib/libutee/tee_api_objects.c:282
     9dc:	f004 fc20 	bl	5220 <TEE_Panic>
/home/yin/imx-optee/imx-optee-os/lib/libutee/tee_api_objects.c:284
     9e0:	4620      	mov	r0, r4
     9e2:	3720      	adds	r7, #32
     9e4:	46bd      	mov	sp, r7
     9e6:	e8bd 81f0 	ldmia.w	sp!, {r4, r5, r6, r7, r8, pc}
     9ea:	bf00      	nop
     9ec:	ffff0006 	.word	0xffff0006

000009f0 <TEE_InitRefAttribute>:
TEE_InitRefAttribute():
/home/yin/imx-optee/imx-optee-os/lib/libutee/tee_api_objects.c:288
     9f0:	b5f8      	push	{r3, r4, r5, r6, r7, lr}
     9f2:	460d      	mov	r5, r1
     9f4:	4617      	mov	r7, r2
     9f6:	461e      	mov	r6, r3
/home/yin/imx-optee/imx-optee-os/lib/libutee/tee_api_objects.c:289
     9f8:	4604      	mov	r4, r0
     9fa:	b908      	cbnz	r0, a00 <TEE_InitRefAttribute+0x10>
/home/yin/imx-optee/imx-optee-os/lib/libutee/tee_api_objects.c:290
     9fc:	f004 fc10 	bl	5220 <TEE_Panic>
/home/yin/imx-optee/imx-optee-os/lib/libutee/tee_api_objects.c:291
     a00:	00ab      	lsls	r3, r5, #2
     a02:	d502      	bpl.n	a0a <TEE_InitRefAttribute+0x1a>
/home/yin/imx-optee/imx-optee-os/lib/libutee/tee_api_objects.c:292
     a04:	2000      	movs	r0, #0
     a06:	f004 fc0b 	bl	5220 <TEE_Panic>
/home/yin/imx-optee/imx-optee-os/lib/libutee/tee_api_objects.c:294
     a0a:	e884 00a0 	stmia.w	r4, {r5, r7}
/home/yin/imx-optee/imx-optee-os/lib/libutee/tee_api_objects.c:295
     a0e:	60a6      	str	r6, [r4, #8]
     a10:	bdf8      	pop	{r3, r4, r5, r6, r7, pc}

00000a12 <TEE_InitValueAttribute>:
TEE_InitValueAttribute():
/home/yin/imx-optee/imx-optee-os/lib/libutee/tee_api_objects.c:300
     a12:	b5f8      	push	{r3, r4, r5, r6, r7, lr}
     a14:	460d      	mov	r5, r1
     a16:	4617      	mov	r7, r2
     a18:	461e      	mov	r6, r3
/home/yin/imx-optee/imx-optee-os/lib/libutee/tee_api_objects.c:301
     a1a:	4604      	mov	r4, r0
     a1c:	b908      	cbnz	r0, a22 <TEE_InitValueAttribute+0x10>
/home/yin/imx-optee/imx-optee-os/lib/libutee/tee_api_objects.c:302
     a1e:	f004 fbff 	bl	5220 <TEE_Panic>
/home/yin/imx-optee/imx-optee-os/lib/libutee/tee_api_objects.c:303
     a22:	f015 5000 	ands.w	r0, r5, #536870912	; 0x20000000
     a26:	d101      	bne.n	a2c <TEE_InitValueAttribute+0x1a>
/home/yin/imx-optee/imx-optee-os/lib/libutee/tee_api_objects.c:304
     a28:	f004 fbfa 	bl	5220 <TEE_Panic>
/home/yin/imx-optee/imx-optee-os/lib/libutee/tee_api_objects.c:306
     a2c:	e884 00a0 	stmia.w	r4, {r5, r7}
/home/yin/imx-optee/imx-optee-os/lib/libutee/tee_api_objects.c:307
     a30:	60a6      	str	r6, [r4, #8]
     a32:	bdf8      	pop	{r3, r4, r5, r6, r7, pc}

00000a34 <TEE_CopyObjectAttributes1>:
TEE_CopyObjectAttributes1():
/home/yin/imx-optee/imx-optee-os/lib/libutee/tee_api_objects.c:333
     a34:	b570      	push	{r4, r5, r6, lr}
     a36:	b08e      	sub	sp, #56	; 0x38
     a38:	460d      	mov	r5, r1
/home/yin/imx-optee/imx-optee-os/lib/libutee/tee_api_objects.c:338
     a3a:	4669      	mov	r1, sp
/home/yin/imx-optee/imx-optee-os/lib/libutee/tee_api_objects.c:333
     a3c:	4606      	mov	r6, r0
/home/yin/imx-optee/imx-optee-os/lib/libutee/tee_api_objects.c:338
     a3e:	f001 ef26 	blx	288c <utee_cryp_obj_get_info>
/home/yin/imx-optee/imx-optee-os/lib/libutee/tee_api_objects.c:339
     a42:	4604      	mov	r4, r0
     a44:	b9e0      	cbnz	r0, a80 <TEE_CopyObjectAttributes1+0x4c>
/home/yin/imx-optee/imx-optee-os/lib/libutee/tee_api_objects.c:342
     a46:	a907      	add	r1, sp, #28
     a48:	4628      	mov	r0, r5
     a4a:	f001 ef20 	blx	288c <utee_cryp_obj_get_info>
/home/yin/imx-optee/imx-optee-os/lib/libutee/tee_api_objects.c:343
     a4e:	4604      	mov	r4, r0
     a50:	b9b0      	cbnz	r0, a80 <TEE_CopyObjectAttributes1+0x4c>
/home/yin/imx-optee/imx-optee-os/lib/libutee/tee_api_objects.c:346
     a52:	9b0d      	ldr	r3, [sp, #52]	; 0x34
     a54:	0399      	lsls	r1, r3, #14
     a56:	d401      	bmi.n	a5c <TEE_CopyObjectAttributes1+0x28>
/home/yin/imx-optee/imx-optee-os/lib/libutee/tee_api_objects.c:347
     a58:	f004 fbe2 	bl	5220 <TEE_Panic>
/home/yin/imx-optee/imx-optee-os/lib/libutee/tee_api_objects.c:349
     a5c:	9b06      	ldr	r3, [sp, #24]
     a5e:	03da      	lsls	r2, r3, #15
     a60:	d502      	bpl.n	a68 <TEE_CopyObjectAttributes1+0x34>
/home/yin/imx-optee/imx-optee-os/lib/libutee/tee_api_objects.c:350
     a62:	2000      	movs	r0, #0
     a64:	f004 fbdc 	bl	5220 <TEE_Panic>
/home/yin/imx-optee/imx-optee-os/lib/libutee/tee_api_objects.c:352
     a68:	9b06      	ldr	r3, [sp, #24]
     a6a:	039b      	lsls	r3, r3, #14
     a6c:	d502      	bpl.n	a74 <TEE_CopyObjectAttributes1+0x40>
/home/yin/imx-optee/imx-optee-os/lib/libutee/tee_api_objects.c:353
     a6e:	2000      	movs	r0, #0
     a70:	f004 fbd6 	bl	5220 <TEE_Panic>
/home/yin/imx-optee/imx-optee-os/lib/libutee/tee_api_objects.c:355
     a74:	4629      	mov	r1, r5
     a76:	4630      	mov	r0, r6
     a78:	f001 ef4e 	blx	2918 <utee_cryp_obj_copy>
/home/yin/imx-optee/imx-optee-os/lib/libutee/tee_api_objects.c:359
     a7c:	4604      	mov	r4, r0
     a7e:	b140      	cbz	r0, a92 <TEE_CopyObjectAttributes1+0x5e>
/home/yin/imx-optee/imx-optee-os/lib/libutee/tee_api_objects.c:359 (discriminator 1)
     a80:	4b05      	ldr	r3, [pc, #20]	; (a98 <TEE_CopyObjectAttributes1+0x64>)
     a82:	429c      	cmp	r4, r3
     a84:	d005      	beq.n	a92 <TEE_CopyObjectAttributes1+0x5e>
/home/yin/imx-optee/imx-optee-os/lib/libutee/tee_api_objects.c:360
     a86:	3302      	adds	r3, #2
     a88:	429c      	cmp	r4, r3
     a8a:	d002      	beq.n	a92 <TEE_CopyObjectAttributes1+0x5e>
/home/yin/imx-optee/imx-optee-os/lib/libutee/tee_api_objects.c:362
     a8c:	4620      	mov	r0, r4
     a8e:	f004 fbc7 	bl	5220 <TEE_Panic>
/home/yin/imx-optee/imx-optee-os/lib/libutee/tee_api_objects.c:365
     a92:	4620      	mov	r0, r4
     a94:	b00e      	add	sp, #56	; 0x38
     a96:	bd70      	pop	{r4, r5, r6, pc}
     a98:	f0100001 	.word	0xf0100001

00000a9c <TEE_CopyObjectAttributes>:
TEE_CopyObjectAttributes():
/home/yin/imx-optee/imx-optee-os/lib/libutee/tee_api_objects.c:318
     a9c:	b530      	push	{r4, r5, lr}
     a9e:	460c      	mov	r4, r1
     aa0:	b089      	sub	sp, #36	; 0x24
     aa2:	4605      	mov	r5, r0
/home/yin/imx-optee/imx-optee-os/lib/libutee/tee_api_objects.c:322
     aa4:	a901      	add	r1, sp, #4
     aa6:	4620      	mov	r0, r4
     aa8:	f001 eef0 	blx	288c <utee_cryp_obj_get_info>
/home/yin/imx-optee/imx-optee-os/lib/libutee/tee_api_objects.c:323
     aac:	9a01      	ldr	r2, [sp, #4]
     aae:	4b06      	ldr	r3, [pc, #24]	; (ac8 <TEE_CopyObjectAttributes+0x2c>)
     ab0:	429a      	cmp	r2, r3
     ab2:	d006      	beq.n	ac2 <TEE_CopyObjectAttributes+0x26>
/home/yin/imx-optee/imx-optee-os/lib/libutee/tee_api_objects.c:326
     ab4:	4621      	mov	r1, r4
     ab6:	4628      	mov	r0, r5
     ab8:	f7ff ffbc 	bl	a34 <TEE_CopyObjectAttributes1>
/home/yin/imx-optee/imx-optee-os/lib/libutee/tee_api_objects.c:327
     abc:	b108      	cbz	r0, ac2 <TEE_CopyObjectAttributes+0x26>
/home/yin/imx-optee/imx-optee-os/lib/libutee/tee_api_objects.c:328
     abe:	f004 fbaf 	bl	5220 <TEE_Panic>
/home/yin/imx-optee/imx-optee-os/lib/libutee/tee_api_objects.c:329
     ac2:	b009      	add	sp, #36	; 0x24
     ac4:	bd30      	pop	{r4, r5, pc}
     ac6:	bf00      	nop
     ac8:	a00000be 	.word	0xa00000be

00000acc <TEE_GenerateKey>:
TEE_GenerateKey():
/home/yin/imx-optee/imx-optee-os/lib/libutee/tee_api_objects.c:369
     acc:	e92d 41f0 	stmdb	sp!, {r4, r5, r6, r7, r8, lr}
     ad0:	4688      	mov	r8, r1
     ad2:	4611      	mov	r1, r2
/home/yin/imx-optee/imx-optee-os/lib/libutee/tee_api_objects.c:371
     ad4:	2218      	movs	r2, #24
     ad6:	435a      	muls	r2, r3
/home/yin/imx-optee/imx-optee-os/lib/libutee/tee_api_objects.c:369
     ad8:	af00      	add	r7, sp, #0
     ada:	461c      	mov	r4, r3
     adc:	4606      	mov	r6, r0
/home/yin/imx-optee/imx-optee-os/lib/libutee/tee_api_objects.c:371
     ade:	3208      	adds	r2, #8
     ae0:	ebad 0d02 	sub.w	sp, sp, r2
/home/yin/imx-optee/imx-optee-os/lib/libutee/tee_api_objects.c:373
     ae4:	461a      	mov	r2, r3
     ae6:	4668      	mov	r0, sp
     ae8:	f7ff fe16 	bl	718 <__utee_from_attr>
/home/yin/imx-optee/imx-optee-os/lib/libutee/tee_api_objects.c:374
     aec:	4623      	mov	r3, r4
     aee:	466a      	mov	r2, sp
     af0:	4641      	mov	r1, r8
     af2:	4630      	mov	r0, r6
     af4:	f002 e806 	blx	2b04 <utee_cryp_obj_generate_key>
/home/yin/imx-optee/imx-optee-os/lib/libutee/tee_api_objects.c:377
     af8:	4604      	mov	r4, r0
     afa:	b120      	cbz	r0, b06 <TEE_GenerateKey+0x3a>
/home/yin/imx-optee/imx-optee-os/lib/libutee/tee_api_objects.c:377 (discriminator 1)
     afc:	4b04      	ldr	r3, [pc, #16]	; (b10 <TEE_GenerateKey+0x44>)
     afe:	4298      	cmp	r0, r3
     b00:	d001      	beq.n	b06 <TEE_GenerateKey+0x3a>
/home/yin/imx-optee/imx-optee-os/lib/libutee/tee_api_objects.c:378
     b02:	f004 fb8d 	bl	5220 <TEE_Panic>
/home/yin/imx-optee/imx-optee-os/lib/libutee/tee_api_objects.c:381
     b06:	4620      	mov	r0, r4
     b08:	46bd      	mov	sp, r7
     b0a:	e8bd 81f0 	ldmia.w	sp!, {r4, r5, r6, r7, r8, pc}
     b0e:	bf00      	nop
     b10:	ffff0006 	.word	0xffff0006

00000b14 <TEE_OpenPersistentObject>:
TEE_OpenPersistentObject():
/home/yin/imx-optee/imx-optee-os/lib/libutee/tee_api_objects.c:388
     b14:	b530      	push	{r4, r5, lr}
     b16:	b085      	sub	sp, #20
     b18:	9d08      	ldr	r5, [sp, #32]
/home/yin/imx-optee/imx-optee-os/lib/libutee/tee_api_objects.c:392
     b1a:	b919      	cbnz	r1, b24 <TEE_OpenPersistentObject+0x10>
     b1c:	4c12      	ldr	r4, [pc, #72]	; (b68 <TEE_OpenPersistentObject+0x54>)
/home/yin/imx-optee/imx-optee-os/lib/libutee/tee_api_objects.c:422
     b1e:	4620      	mov	r0, r4
     b20:	b005      	add	sp, #20
     b22:	bd30      	pop	{r4, r5, pc}
/home/yin/imx-optee/imx-optee-os/lib/libutee/tee_api_objects.c:397
     b24:	2a40      	cmp	r2, #64	; 0x40
     b26:	d809      	bhi.n	b3c <TEE_OpenPersistentObject+0x28>
/home/yin/imx-optee/imx-optee-os/lib/libutee/tee_api_objects.c:402
     b28:	b145      	cbz	r5, b3c <TEE_OpenPersistentObject+0x28>
/home/yin/imx-optee/imx-optee-os/lib/libutee/tee_api_objects.c:407
     b2a:	ac03      	add	r4, sp, #12
     b2c:	9400      	str	r4, [sp, #0]
     b2e:	f001 ef64 	blx	29f8 <utee_storage_obj_open>
/home/yin/imx-optee/imx-optee-os/lib/libutee/tee_api_objects.c:409
     b32:	4604      	mov	r4, r0
     b34:	b920      	cbnz	r0, b40 <TEE_OpenPersistentObject+0x2c>
/home/yin/imx-optee/imx-optee-os/lib/libutee/tee_api_objects.c:410
     b36:	9b03      	ldr	r3, [sp, #12]
     b38:	602b      	str	r3, [r5, #0]
     b3a:	e7f0      	b.n	b1e <TEE_OpenPersistentObject+0xa>
     b3c:	4c0b      	ldr	r4, [pc, #44]	; (b6c <TEE_OpenPersistentObject+0x58>)
     b3e:	e00e      	b.n	b5e <TEE_OpenPersistentObject+0x4a>
/home/yin/imx-optee/imx-optee-os/lib/libutee/tee_api_objects.c:413
     b40:	4b09      	ldr	r3, [pc, #36]	; (b68 <TEE_OpenPersistentObject+0x54>)
     b42:	4298      	cmp	r0, r3
     b44:	d0ea      	beq.n	b1c <TEE_OpenPersistentObject+0x8>
/home/yin/imx-optee/imx-optee-os/lib/libutee/tee_api_objects.c:414
     b46:	4b0a      	ldr	r3, [pc, #40]	; (b70 <TEE_OpenPersistentObject+0x5c>)
     b48:	429c      	cmp	r4, r3
     b4a:	d0e8      	beq.n	b1e <TEE_OpenPersistentObject+0xa>
/home/yin/imx-optee/imx-optee-os/lib/libutee/tee_api_objects.c:415
     b4c:	3309      	adds	r3, #9
     b4e:	429c      	cmp	r4, r3
     b50:	d0e5      	beq.n	b1e <TEE_OpenPersistentObject+0xa>
/home/yin/imx-optee/imx-optee-os/lib/libutee/tee_api_objects.c:416
     b52:	4b08      	ldr	r3, [pc, #32]	; (b74 <TEE_OpenPersistentObject+0x60>)
     b54:	429c      	cmp	r4, r3
     b56:	d0e2      	beq.n	b1e <TEE_OpenPersistentObject+0xa>
/home/yin/imx-optee/imx-optee-os/lib/libutee/tee_api_objects.c:417
     b58:	3302      	adds	r3, #2
     b5a:	429c      	cmp	r4, r3
     b5c:	d0df      	beq.n	b1e <TEE_OpenPersistentObject+0xa>
/home/yin/imx-optee/imx-optee-os/lib/libutee/tee_api_objects.c:419
     b5e:	4620      	mov	r0, r4
     b60:	f004 fb5e 	bl	5220 <TEE_Panic>
/home/yin/imx-optee/imx-optee-os/lib/libutee/tee_api_objects.c:421
     b64:	e7db      	b.n	b1e <TEE_OpenPersistentObject+0xa>
     b66:	bf00      	nop
     b68:	ffff0008 	.word	0xffff0008
     b6c:	ffff0006 	.word	0xffff0006
     b70:	ffff0003 	.word	0xffff0003
     b74:	f0100001 	.word	0xf0100001

00000b78 <TEE_CreatePersistentObject>:
TEE_CreatePersistentObject():
/home/yin/imx-optee/imx-optee-os/lib/libutee/tee_api_objects.c:430
     b78:	b530      	push	{r4, r5, lr}
     b7a:	b087      	sub	sp, #28
     b7c:	9c0d      	ldr	r4, [sp, #52]	; 0x34
/home/yin/imx-optee/imx-optee-os/lib/libutee/tee_api_objects.c:434
     b7e:	2900      	cmp	r1, #0
     b80:	d033      	beq.n	bea <TEE_CreatePersistentObject+0x72>
/home/yin/imx-optee/imx-optee-os/lib/libutee/tee_api_objects.c:439
     b82:	2a40      	cmp	r2, #64	; 0x40
     b84:	d835      	bhi.n	bf2 <TEE_CreatePersistentObject+0x7a>
/home/yin/imx-optee/imx-optee-os/lib/libutee/tee_api_objects.c:444
     b86:	ad05      	add	r5, sp, #20
     b88:	9503      	str	r5, [sp, #12]
     b8a:	9d0c      	ldr	r5, [sp, #48]	; 0x30
     b8c:	9502      	str	r5, [sp, #8]
     b8e:	9d0b      	ldr	r5, [sp, #44]	; 0x2c
     b90:	9501      	str	r5, [sp, #4]
     b92:	9d0a      	ldr	r5, [sp, #40]	; 0x28
     b94:	9500      	str	r5, [sp, #0]
     b96:	f001 ef3c 	blx	2a10 <utee_storage_obj_create>
/home/yin/imx-optee/imx-optee-os/lib/libutee/tee_api_objects.c:447
     b9a:	b970      	cbnz	r0, bba <TEE_CreatePersistentObject+0x42>
/home/yin/imx-optee/imx-optee-os/lib/libutee/tee_api_objects.c:448
     b9c:	b11c      	cbz	r4, ba6 <TEE_CreatePersistentObject+0x2e>
/home/yin/imx-optee/imx-optee-os/lib/libutee/tee_api_objects.c:449
     b9e:	9b05      	ldr	r3, [sp, #20]
     ba0:	6023      	str	r3, [r4, #0]
/home/yin/imx-optee/imx-optee-os/lib/libutee/tee_api_objects.c:468
     ba2:	b007      	add	sp, #28
     ba4:	bd30      	pop	{r4, r5, pc}
/home/yin/imx-optee/imx-optee-os/lib/libutee/tee_api_objects.c:451
     ba6:	9805      	ldr	r0, [sp, #20]
     ba8:	f001 ee98 	blx	28dc <utee_cryp_obj_close>
/home/yin/imx-optee/imx-optee-os/lib/libutee/tee_api_objects.c:452
     bac:	2800      	cmp	r0, #0
     bae:	d0f8      	beq.n	ba2 <TEE_CreatePersistentObject+0x2a>
/home/yin/imx-optee/imx-optee-os/lib/libutee/tee_api_objects.c:458
     bb0:	4b12      	ldr	r3, [pc, #72]	; (bfc <TEE_CreatePersistentObject+0x84>)
     bb2:	4298      	cmp	r0, r3
     bb4:	d106      	bne.n	bc4 <TEE_CreatePersistentObject+0x4c>
/home/yin/imx-optee/imx-optee-os/lib/libutee/tee_api_objects.c:467
     bb6:	4811      	ldr	r0, [pc, #68]	; (bfc <TEE_CreatePersistentObject+0x84>)
     bb8:	e7f3      	b.n	ba2 <TEE_CreatePersistentObject+0x2a>
/home/yin/imx-optee/imx-optee-os/lib/libutee/tee_api_objects.c:456
     bba:	2c00      	cmp	r4, #0
     bbc:	d0f8      	beq.n	bb0 <TEE_CreatePersistentObject+0x38>
/home/yin/imx-optee/imx-optee-os/lib/libutee/tee_api_objects.c:457
     bbe:	2300      	movs	r3, #0
     bc0:	6023      	str	r3, [r4, #0]
     bc2:	e7f5      	b.n	bb0 <TEE_CreatePersistentObject+0x38>
/home/yin/imx-optee/imx-optee-os/lib/libutee/tee_api_objects.c:458 (discriminator 1)
     bc4:	4b0e      	ldr	r3, [pc, #56]	; (c00 <TEE_CreatePersistentObject+0x88>)
     bc6:	4298      	cmp	r0, r3
     bc8:	d0eb      	beq.n	ba2 <TEE_CreatePersistentObject+0x2a>
/home/yin/imx-optee/imx-optee-os/lib/libutee/tee_api_objects.c:459
     bca:	3309      	adds	r3, #9
     bcc:	4298      	cmp	r0, r3
     bce:	d0e8      	beq.n	ba2 <TEE_CreatePersistentObject+0x2a>
/home/yin/imx-optee/imx-optee-os/lib/libutee/tee_api_objects.c:460
     bd0:	4b0c      	ldr	r3, [pc, #48]	; (c04 <TEE_CreatePersistentObject+0x8c>)
     bd2:	4298      	cmp	r0, r3
     bd4:	d0e5      	beq.n	ba2 <TEE_CreatePersistentObject+0x2a>
/home/yin/imx-optee/imx-optee-os/lib/libutee/tee_api_objects.c:461
     bd6:	4b0c      	ldr	r3, [pc, #48]	; (c08 <TEE_CreatePersistentObject+0x90>)
     bd8:	4298      	cmp	r0, r3
     bda:	d0e2      	beq.n	ba2 <TEE_CreatePersistentObject+0x2a>
/home/yin/imx-optee/imx-optee-os/lib/libutee/tee_api_objects.c:462
     bdc:	3302      	adds	r3, #2
     bde:	4298      	cmp	r0, r3
     be0:	d0df      	beq.n	ba2 <TEE_CreatePersistentObject+0x2a>
/home/yin/imx-optee/imx-optee-os/lib/libutee/tee_api_objects.c:465
     be2:	f004 fb1d 	bl	5220 <TEE_Panic>
/home/yin/imx-optee/imx-optee-os/lib/libutee/tee_api_objects.c:467
     be6:	2000      	movs	r0, #0
     be8:	e7db      	b.n	ba2 <TEE_CreatePersistentObject+0x2a>
/home/yin/imx-optee/imx-optee-os/lib/libutee/tee_api_objects.c:456
     bea:	2c00      	cmp	r4, #0
     bec:	d0e3      	beq.n	bb6 <TEE_CreatePersistentObject+0x3e>
/home/yin/imx-optee/imx-optee-os/lib/libutee/tee_api_objects.c:435
     bee:	4803      	ldr	r0, [pc, #12]	; (bfc <TEE_CreatePersistentObject+0x84>)
     bf0:	e7e5      	b.n	bbe <TEE_CreatePersistentObject+0x46>
/home/yin/imx-optee/imx-optee-os/lib/libutee/tee_api_objects.c:440
     bf2:	4806      	ldr	r0, [pc, #24]	; (c0c <TEE_CreatePersistentObject+0x94>)
/home/yin/imx-optee/imx-optee-os/lib/libutee/tee_api_objects.c:456
     bf4:	2c00      	cmp	r4, #0
     bf6:	d1e2      	bne.n	bbe <TEE_CreatePersistentObject+0x46>
     bf8:	e7f3      	b.n	be2 <TEE_CreatePersistentObject+0x6a>
     bfa:	bf00      	nop
     bfc:	ffff0008 	.word	0xffff0008
     c00:	ffff0003 	.word	0xffff0003
     c04:	ffff3041 	.word	0xffff3041
     c08:	f0100001 	.word	0xf0100001
     c0c:	ffff0006 	.word	0xffff0006

00000c10 <TEE_CloseAndDeletePersistentObject1>:
TEE_CloseAndDeletePersistentObject1():
/home/yin/imx-optee/imx-optee-os/lib/libutee/tee_api_objects.c:490
     c10:	b510      	push	{r4, lr}
/home/yin/imx-optee/imx-optee-os/lib/libutee/tee_api_objects.c:493
     c12:	b150      	cbz	r0, c2a <TEE_CloseAndDeletePersistentObject1+0x1a>
/home/yin/imx-optee/imx-optee-os/lib/libutee/tee_api_objects.c:496
     c14:	f001 ef08 	blx	2a28 <utee_storage_obj_del>
/home/yin/imx-optee/imx-optee-os/lib/libutee/tee_api_objects.c:498
     c18:	4604      	mov	r4, r0
     c1a:	b120      	cbz	r0, c26 <TEE_CloseAndDeletePersistentObject1+0x16>
     c1c:	4b04      	ldr	r3, [pc, #16]	; (c30 <TEE_CloseAndDeletePersistentObject1+0x20>)
     c1e:	4298      	cmp	r0, r3
     c20:	d001      	beq.n	c26 <TEE_CloseAndDeletePersistentObject1+0x16>
/home/yin/imx-optee/imx-optee-os/lib/libutee/tee_api_objects.c:499
     c22:	f004 fafd 	bl	5220 <TEE_Panic>
/home/yin/imx-optee/imx-optee-os/lib/libutee/tee_api_objects.c:502
     c26:	4620      	mov	r0, r4
     c28:	bd10      	pop	{r4, pc}
/home/yin/imx-optee/imx-optee-os/lib/libutee/tee_api_objects.c:494
     c2a:	4c01      	ldr	r4, [pc, #4]	; (c30 <TEE_CloseAndDeletePersistentObject1+0x20>)
     c2c:	e7fb      	b.n	c26 <TEE_CloseAndDeletePersistentObject1+0x16>
     c2e:	bf00      	nop
     c30:	f0100003 	.word	0xf0100003

00000c34 <TEE_CloseAndDeletePersistentObject>:
TEE_CloseAndDeletePersistentObject():
/home/yin/imx-optee/imx-optee-os/lib/libutee/tee_api_objects.c:477
     c34:	b508      	push	{r3, lr}
/home/yin/imx-optee/imx-optee-os/lib/libutee/tee_api_objects.c:480
     c36:	b138      	cbz	r0, c48 <TEE_CloseAndDeletePersistentObject+0x14>
/home/yin/imx-optee/imx-optee-os/lib/libutee/tee_api_objects.c:483
     c38:	f7ff ffea 	bl	c10 <TEE_CloseAndDeletePersistentObject1>
/home/yin/imx-optee/imx-optee-os/lib/libutee/tee_api_objects.c:485
     c3c:	b120      	cbz	r0, c48 <TEE_CloseAndDeletePersistentObject+0x14>
/home/yin/imx-optee/imx-optee-os/lib/libutee/tee_api_objects.c:486
     c3e:	2000      	movs	r0, #0
/home/yin/imx-optee/imx-optee-os/lib/libutee/tee_api_objects.c:487
     c40:	e8bd 4008 	ldmia.w	sp!, {r3, lr}
/home/yin/imx-optee/imx-optee-os/lib/libutee/tee_api_objects.c:486
     c44:	f004 baec 	b.w	5220 <TEE_Panic>
     c48:	bd08      	pop	{r3, pc}

00000c4a <TEE_RenamePersistentObject>:
TEE_RenamePersistentObject():
/home/yin/imx-optee/imx-optee-os/lib/libutee/tee_api_objects.c:508
     c4a:	b510      	push	{r4, lr}
/home/yin/imx-optee/imx-optee-os/lib/libutee/tee_api_objects.c:511
     c4c:	b1a0      	cbz	r0, c78 <TEE_RenamePersistentObject+0x2e>
/home/yin/imx-optee/imx-optee-os/lib/libutee/tee_api_objects.c:516
     c4e:	b1a9      	cbz	r1, c7c <TEE_RenamePersistentObject+0x32>
/home/yin/imx-optee/imx-optee-os/lib/libutee/tee_api_objects.c:521
     c50:	2a40      	cmp	r2, #64	; 0x40
     c52:	d813      	bhi.n	c7c <TEE_RenamePersistentObject+0x32>
/home/yin/imx-optee/imx-optee-os/lib/libutee/tee_api_objects.c:526
     c54:	f001 eef2 	blx	2a3c <utee_storage_obj_rename>
/home/yin/imx-optee/imx-optee-os/lib/libutee/tee_api_objects.c:530
     c58:	4604      	mov	r4, r0
     c5a:	b158      	cbz	r0, c74 <TEE_RenamePersistentObject+0x2a>
/home/yin/imx-optee/imx-optee-os/lib/libutee/tee_api_objects.c:530 (discriminator 1)
     c5c:	4b08      	ldr	r3, [pc, #32]	; (c80 <TEE_RenamePersistentObject+0x36>)
     c5e:	4298      	cmp	r0, r3
     c60:	d008      	beq.n	c74 <TEE_RenamePersistentObject+0x2a>
/home/yin/imx-optee/imx-optee-os/lib/libutee/tee_api_objects.c:531
     c62:	4b08      	ldr	r3, [pc, #32]	; (c84 <TEE_RenamePersistentObject+0x3a>)
     c64:	4298      	cmp	r0, r3
     c66:	d005      	beq.n	c74 <TEE_RenamePersistentObject+0x2a>
/home/yin/imx-optee/imx-optee-os/lib/libutee/tee_api_objects.c:532
     c68:	3302      	adds	r3, #2
     c6a:	4298      	cmp	r0, r3
     c6c:	d002      	beq.n	c74 <TEE_RenamePersistentObject+0x2a>
/home/yin/imx-optee/imx-optee-os/lib/libutee/tee_api_objects.c:534
     c6e:	4620      	mov	r0, r4
     c70:	f004 fad6 	bl	5220 <TEE_Panic>
/home/yin/imx-optee/imx-optee-os/lib/libutee/tee_api_objects.c:537
     c74:	4620      	mov	r0, r4
     c76:	bd10      	pop	{r4, pc}
/home/yin/imx-optee/imx-optee-os/lib/libutee/tee_api_objects.c:512
     c78:	4c03      	ldr	r4, [pc, #12]	; (c88 <TEE_RenamePersistentObject+0x3e>)
     c7a:	e7f8      	b.n	c6e <TEE_RenamePersistentObject+0x24>
/home/yin/imx-optee/imx-optee-os/lib/libutee/tee_api_objects.c:517
     c7c:	4c03      	ldr	r4, [pc, #12]	; (c8c <TEE_RenamePersistentObject+0x42>)
     c7e:	e7f6      	b.n	c6e <TEE_RenamePersistentObject+0x24>
     c80:	ffff0003 	.word	0xffff0003
     c84:	f0100001 	.word	0xf0100001
     c88:	ffff0008 	.word	0xffff0008
     c8c:	ffff0006 	.word	0xffff0006

00000c90 <TEE_AllocatePersistentObjectEnumerator>:
TEE_AllocatePersistentObjectEnumerator():
/home/yin/imx-optee/imx-optee-os/lib/libutee/tee_api_objects.c:541
     c90:	b537      	push	{r0, r1, r2, r4, r5, lr}
/home/yin/imx-optee/imx-optee-os/lib/libutee/tee_api_objects.c:545
     c92:	4605      	mov	r5, r0
     c94:	b190      	cbz	r0, cbc <TEE_AllocatePersistentObjectEnumerator+0x2c>
/home/yin/imx-optee/imx-optee-os/lib/libutee/tee_api_objects.c:548
     c96:	a801      	add	r0, sp, #4
     c98:	f001 eeda 	blx	2a50 <utee_storage_alloc_enum>
/home/yin/imx-optee/imx-optee-os/lib/libutee/tee_api_objects.c:550
     c9c:	4604      	mov	r4, r0
     c9e:	b108      	cbz	r0, ca4 <TEE_AllocatePersistentObjectEnumerator+0x14>
/home/yin/imx-optee/imx-optee-os/lib/libutee/tee_api_objects.c:551
     ca0:	2300      	movs	r3, #0
     ca2:	9301      	str	r3, [sp, #4]
/home/yin/imx-optee/imx-optee-os/lib/libutee/tee_api_objects.c:553
     ca4:	9b01      	ldr	r3, [sp, #4]
     ca6:	602b      	str	r3, [r5, #0]
/home/yin/imx-optee/imx-optee-os/lib/libutee/tee_api_objects.c:555
     ca8:	b12c      	cbz	r4, cb6 <TEE_AllocatePersistentObjectEnumerator+0x26>
/home/yin/imx-optee/imx-optee-os/lib/libutee/tee_api_objects.c:555 (discriminator 1)
     caa:	4b05      	ldr	r3, [pc, #20]	; (cc0 <TEE_AllocatePersistentObjectEnumerator+0x30>)
     cac:	429c      	cmp	r4, r3
     cae:	d002      	beq.n	cb6 <TEE_AllocatePersistentObjectEnumerator+0x26>
/home/yin/imx-optee/imx-optee-os/lib/libutee/tee_api_objects.c:557
     cb0:	4620      	mov	r0, r4
     cb2:	f004 fab5 	bl	5220 <TEE_Panic>
/home/yin/imx-optee/imx-optee-os/lib/libutee/tee_api_objects.c:560
     cb6:	4620      	mov	r0, r4
     cb8:	b003      	add	sp, #12
     cba:	bd30      	pop	{r4, r5, pc}
/home/yin/imx-optee/imx-optee-os/lib/libutee/tee_api_objects.c:546
     cbc:	4c01      	ldr	r4, [pc, #4]	; (cc4 <TEE_AllocatePersistentObjectEnumerator+0x34>)
     cbe:	e7fa      	b.n	cb6 <TEE_AllocatePersistentObjectEnumerator+0x26>
     cc0:	ffff0003 	.word	0xffff0003
     cc4:	ffff0006 	.word	0xffff0006

00000cc8 <TEE_FreePersistentObjectEnumerator>:
TEE_FreePersistentObjectEnumerator():
/home/yin/imx-optee/imx-optee-os/lib/libutee/tee_api_objects.c:563
     cc8:	b508      	push	{r3, lr}
/home/yin/imx-optee/imx-optee-os/lib/libutee/tee_api_objects.c:566
     cca:	b130      	cbz	r0, cda <TEE_FreePersistentObjectEnumerator+0x12>
/home/yin/imx-optee/imx-optee-os/lib/libutee/tee_api_objects.c:569
     ccc:	f001 eeca 	blx	2a64 <utee_storage_free_enum>
/home/yin/imx-optee/imx-optee-os/lib/libutee/tee_api_objects.c:571
     cd0:	b118      	cbz	r0, cda <TEE_FreePersistentObjectEnumerator+0x12>
/home/yin/imx-optee/imx-optee-os/lib/libutee/tee_api_objects.c:573
     cd2:	e8bd 4008 	ldmia.w	sp!, {r3, lr}
/home/yin/imx-optee/imx-optee-os/lib/libutee/tee_api_objects.c:572
     cd6:	f004 baa3 	b.w	5220 <TEE_Panic>
     cda:	bd08      	pop	{r3, pc}

00000cdc <TEE_ResetPersistentObjectEnumerator>:
TEE_ResetPersistentObjectEnumerator():
/home/yin/imx-optee/imx-optee-os/lib/libutee/tee_api_objects.c:576
     cdc:	b508      	push	{r3, lr}
/home/yin/imx-optee/imx-optee-os/lib/libutee/tee_api_objects.c:579
     cde:	b130      	cbz	r0, cee <TEE_ResetPersistentObjectEnumerator+0x12>
/home/yin/imx-optee/imx-optee-os/lib/libutee/tee_api_objects.c:582
     ce0:	f001 eeca 	blx	2a78 <utee_storage_reset_enum>
/home/yin/imx-optee/imx-optee-os/lib/libutee/tee_api_objects.c:584
     ce4:	b118      	cbz	r0, cee <TEE_ResetPersistentObjectEnumerator+0x12>
/home/yin/imx-optee/imx-optee-os/lib/libutee/tee_api_objects.c:586
     ce6:	e8bd 4008 	ldmia.w	sp!, {r3, lr}
/home/yin/imx-optee/imx-optee-os/lib/libutee/tee_api_objects.c:585
     cea:	f004 ba99 	b.w	5220 <TEE_Panic>
     cee:	bd08      	pop	{r3, pc}

00000cf0 <TEE_StartPersistentObjectEnumerator>:
TEE_StartPersistentObjectEnumerator():
/home/yin/imx-optee/imx-optee-os/lib/libutee/tee_api_objects.c:591
     cf0:	b510      	push	{r4, lr}
/home/yin/imx-optee/imx-optee-os/lib/libutee/tee_api_objects.c:594
     cf2:	f001 eecc 	blx	2a8c <utee_storage_start_enum>
/home/yin/imx-optee/imx-optee-os/lib/libutee/tee_api_objects.c:597
     cf6:	4604      	mov	r4, r0
     cf8:	b148      	cbz	r0, d0e <TEE_StartPersistentObjectEnumerator+0x1e>
/home/yin/imx-optee/imx-optee-os/lib/libutee/tee_api_objects.c:597 (discriminator 1)
     cfa:	4b06      	ldr	r3, [pc, #24]	; (d14 <TEE_StartPersistentObjectEnumerator+0x24>)
     cfc:	4298      	cmp	r0, r3
     cfe:	d006      	beq.n	d0e <TEE_StartPersistentObjectEnumerator+0x1e>
/home/yin/imx-optee/imx-optee-os/lib/libutee/tee_api_objects.c:598
     d00:	4b05      	ldr	r3, [pc, #20]	; (d18 <TEE_StartPersistentObjectEnumerator+0x28>)
     d02:	f020 0202 	bic.w	r2, r0, #2
     d06:	429a      	cmp	r2, r3
     d08:	d001      	beq.n	d0e <TEE_StartPersistentObjectEnumerator+0x1e>
/home/yin/imx-optee/imx-optee-os/lib/libutee/tee_api_objects.c:601
     d0a:	f004 fa89 	bl	5220 <TEE_Panic>
/home/yin/imx-optee/imx-optee-os/lib/libutee/tee_api_objects.c:604
     d0e:	4620      	mov	r0, r4
     d10:	bd10      	pop	{r4, pc}
     d12:	bf00      	nop
     d14:	ffff0008 	.word	0xffff0008
     d18:	f0100001 	.word	0xf0100001

00000d1c <TEE_GetNextPersistentObject>:
TEE_GetNextPersistentObject():
/home/yin/imx-optee/imx-optee-os/lib/libutee/tee_api_objects.c:609
     d1c:	b510      	push	{r4, lr}
     d1e:	461c      	mov	r4, r3
     d20:	b08a      	sub	sp, #40	; 0x28
/home/yin/imx-optee/imx-optee-os/lib/libutee/tee_api_objects.c:615
     d22:	b1e2      	cbz	r2, d5e <TEE_GetNextPersistentObject+0x42>
/home/yin/imx-optee/imx-optee-os/lib/libutee/tee_api_objects.c:620
     d24:	b1db      	cbz	r3, d5e <TEE_GetNextPersistentObject+0x42>
/home/yin/imx-optee/imx-optee-os/lib/libutee/tee_api_objects.c:625
     d26:	b901      	cbnz	r1, d2a <TEE_GetNextPersistentObject+0xe>
/home/yin/imx-optee/imx-optee-os/lib/libutee/tee_api_objects.c:628
     d28:	a903      	add	r1, sp, #12
/home/yin/imx-optee/imx-optee-os/lib/libutee/tee_api_objects.c:629
     d2a:	6823      	ldr	r3, [r4, #0]
     d2c:	9300      	str	r3, [sp, #0]
     d2e:	2300      	movs	r3, #0
     d30:	9301      	str	r3, [sp, #4]
/home/yin/imx-optee/imx-optee-os/lib/libutee/tee_api_objects.c:630
     d32:	466b      	mov	r3, sp
     d34:	f001 eeb4 	blx	2aa0 <utee_storage_next_enum>
/home/yin/imx-optee/imx-optee-os/lib/libutee/tee_api_objects.c:632
     d38:	9b00      	ldr	r3, [sp, #0]
     d3a:	6023      	str	r3, [r4, #0]
/home/yin/imx-optee/imx-optee-os/lib/libutee/tee_api_objects.c:635
     d3c:	4604      	mov	r4, r0
     d3e:	b158      	cbz	r0, d58 <TEE_GetNextPersistentObject+0x3c>
/home/yin/imx-optee/imx-optee-os/lib/libutee/tee_api_objects.c:635 (discriminator 1)
     d40:	4b08      	ldr	r3, [pc, #32]	; (d64 <TEE_GetNextPersistentObject+0x48>)
     d42:	4298      	cmp	r0, r3
     d44:	d008      	beq.n	d58 <TEE_GetNextPersistentObject+0x3c>
/home/yin/imx-optee/imx-optee-os/lib/libutee/tee_api_objects.c:636
     d46:	4b08      	ldr	r3, [pc, #32]	; (d68 <TEE_GetNextPersistentObject+0x4c>)
     d48:	4298      	cmp	r0, r3
     d4a:	d005      	beq.n	d58 <TEE_GetNextPersistentObject+0x3c>
/home/yin/imx-optee/imx-optee-os/lib/libutee/tee_api_objects.c:637
     d4c:	3302      	adds	r3, #2
     d4e:	4298      	cmp	r0, r3
     d50:	d002      	beq.n	d58 <TEE_GetNextPersistentObject+0x3c>
/home/yin/imx-optee/imx-optee-os/lib/libutee/tee_api_objects.c:639
     d52:	4620      	mov	r0, r4
     d54:	f004 fa64 	bl	5220 <TEE_Panic>
/home/yin/imx-optee/imx-optee-os/lib/libutee/tee_api_objects.c:642
     d58:	4620      	mov	r0, r4
     d5a:	b00a      	add	sp, #40	; 0x28
     d5c:	bd10      	pop	{r4, pc}
     d5e:	4c03      	ldr	r4, [pc, #12]	; (d6c <TEE_GetNextPersistentObject+0x50>)
     d60:	e7f7      	b.n	d52 <TEE_GetNextPersistentObject+0x36>
     d62:	bf00      	nop
     d64:	ffff0008 	.word	0xffff0008
     d68:	f0100001 	.word	0xf0100001
     d6c:	ffff0006 	.word	0xffff0006

00000d70 <TEE_ReadObjectData>:
TEE_ReadObjectData():
/home/yin/imx-optee/imx-optee-os/lib/libutee/tee_api_objects.c:648
     d70:	b513      	push	{r0, r1, r4, lr}
     d72:	461c      	mov	r4, r3
/home/yin/imx-optee/imx-optee-os/lib/libutee/tee_api_objects.c:652
     d74:	b1b0      	cbz	r0, da4 <TEE_ReadObjectData+0x34>
/home/yin/imx-optee/imx-optee-os/lib/libutee/tee_api_objects.c:657
     d76:	681b      	ldr	r3, [r3, #0]
     d78:	9300      	str	r3, [sp, #0]
     d7a:	2300      	movs	r3, #0
     d7c:	9301      	str	r3, [sp, #4]
/home/yin/imx-optee/imx-optee-os/lib/libutee/tee_api_objects.c:658
     d7e:	466b      	mov	r3, sp
     d80:	f001 ee98 	blx	2ab4 <utee_storage_obj_read>
/home/yin/imx-optee/imx-optee-os/lib/libutee/tee_api_objects.c:660
     d84:	9b00      	ldr	r3, [sp, #0]
     d86:	6023      	str	r3, [r4, #0]
/home/yin/imx-optee/imx-optee-os/lib/libutee/tee_api_objects.c:663
     d88:	4604      	mov	r4, r0
     d8a:	b140      	cbz	r0, d9e <TEE_ReadObjectData+0x2e>
/home/yin/imx-optee/imx-optee-os/lib/libutee/tee_api_objects.c:663 (discriminator 1)
     d8c:	4b06      	ldr	r3, [pc, #24]	; (da8 <TEE_ReadObjectData+0x38>)
     d8e:	4298      	cmp	r0, r3
     d90:	d005      	beq.n	d9e <TEE_ReadObjectData+0x2e>
/home/yin/imx-optee/imx-optee-os/lib/libutee/tee_api_objects.c:664
     d92:	3302      	adds	r3, #2
     d94:	4298      	cmp	r0, r3
     d96:	d002      	beq.n	d9e <TEE_ReadObjectData+0x2e>
/home/yin/imx-optee/imx-optee-os/lib/libutee/tee_api_objects.c:666
     d98:	4620      	mov	r0, r4
     d9a:	f004 fa41 	bl	5220 <TEE_Panic>
/home/yin/imx-optee/imx-optee-os/lib/libutee/tee_api_objects.c:669
     d9e:	4620      	mov	r0, r4
     da0:	b002      	add	sp, #8
     da2:	bd10      	pop	{r4, pc}
/home/yin/imx-optee/imx-optee-os/lib/libutee/tee_api_objects.c:653
     da4:	4c01      	ldr	r4, [pc, #4]	; (dac <TEE_ReadObjectData+0x3c>)
     da6:	e7f7      	b.n	d98 <TEE_ReadObjectData+0x28>
     da8:	f0100001 	.word	0xf0100001
     dac:	ffff0006 	.word	0xffff0006

00000db0 <TEE_WriteObjectData>:
TEE_WriteObjectData():
/home/yin/imx-optee/imx-optee-os/lib/libutee/tee_api_objects.c:673
     db0:	b510      	push	{r4, lr}
/home/yin/imx-optee/imx-optee-os/lib/libutee/tee_api_objects.c:676
     db2:	b1a0      	cbz	r0, dde <TEE_WriteObjectData+0x2e>
/home/yin/imx-optee/imx-optee-os/lib/libutee/tee_api_objects.c:686
     db4:	f001 ee88 	blx	2ac8 <utee_storage_obj_write>
/home/yin/imx-optee/imx-optee-os/lib/libutee/tee_api_objects.c:689
     db8:	4604      	mov	r4, r0
     dba:	b170      	cbz	r0, dda <TEE_WriteObjectData+0x2a>
/home/yin/imx-optee/imx-optee-os/lib/libutee/tee_api_objects.c:689 (discriminator 1)
     dbc:	4b09      	ldr	r3, [pc, #36]	; (de4 <TEE_WriteObjectData+0x34>)
     dbe:	4298      	cmp	r0, r3
     dc0:	d00b      	beq.n	dda <TEE_WriteObjectData+0x2a>
/home/yin/imx-optee/imx-optee-os/lib/libutee/tee_api_objects.c:690
     dc2:	3b32      	subs	r3, #50	; 0x32
     dc4:	4298      	cmp	r0, r3
     dc6:	d008      	beq.n	dda <TEE_WriteObjectData+0x2a>
/home/yin/imx-optee/imx-optee-os/lib/libutee/tee_api_objects.c:691
     dc8:	4b07      	ldr	r3, [pc, #28]	; (de8 <TEE_WriteObjectData+0x38>)
     dca:	4298      	cmp	r0, r3
     dcc:	d005      	beq.n	dda <TEE_WriteObjectData+0x2a>
/home/yin/imx-optee/imx-optee-os/lib/libutee/tee_api_objects.c:692
     dce:	3302      	adds	r3, #2
     dd0:	4298      	cmp	r0, r3
     dd2:	d002      	beq.n	dda <TEE_WriteObjectData+0x2a>
/home/yin/imx-optee/imx-optee-os/lib/libutee/tee_api_objects.c:694
     dd4:	4620      	mov	r0, r4
     dd6:	f004 fa23 	bl	5220 <TEE_Panic>
/home/yin/imx-optee/imx-optee-os/lib/libutee/tee_api_objects.c:697
     dda:	4620      	mov	r0, r4
     ddc:	bd10      	pop	{r4, pc}
/home/yin/imx-optee/imx-optee-os/lib/libutee/tee_api_objects.c:677
     dde:	4c03      	ldr	r4, [pc, #12]	; (dec <TEE_WriteObjectData+0x3c>)
     de0:	e7f8      	b.n	dd4 <TEE_WriteObjectData+0x24>
     de2:	bf00      	nop
     de4:	ffff3041 	.word	0xffff3041
     de8:	f0100001 	.word	0xf0100001
     dec:	ffff0006 	.word	0xffff0006

00000df0 <TEE_TruncateObjectData>:
TEE_TruncateObjectData():
/home/yin/imx-optee/imx-optee-os/lib/libutee/tee_api_objects.c:700
     df0:	b510      	push	{r4, lr}
/home/yin/imx-optee/imx-optee-os/lib/libutee/tee_api_objects.c:703
     df2:	b188      	cbz	r0, e18 <TEE_TruncateObjectData+0x28>
/home/yin/imx-optee/imx-optee-os/lib/libutee/tee_api_objects.c:708
     df4:	f001 ee72 	blx	2adc <utee_storage_obj_trunc>
/home/yin/imx-optee/imx-optee-os/lib/libutee/tee_api_objects.c:711
     df8:	4604      	mov	r4, r0
     dfa:	b158      	cbz	r0, e14 <TEE_TruncateObjectData+0x24>
/home/yin/imx-optee/imx-optee-os/lib/libutee/tee_api_objects.c:711 (discriminator 1)
     dfc:	4b07      	ldr	r3, [pc, #28]	; (e1c <TEE_TruncateObjectData+0x2c>)
     dfe:	4298      	cmp	r0, r3
     e00:	d008      	beq.n	e14 <TEE_TruncateObjectData+0x24>
/home/yin/imx-optee/imx-optee-os/lib/libutee/tee_api_objects.c:712
     e02:	4b07      	ldr	r3, [pc, #28]	; (e20 <TEE_TruncateObjectData+0x30>)
     e04:	4298      	cmp	r0, r3
     e06:	d005      	beq.n	e14 <TEE_TruncateObjectData+0x24>
/home/yin/imx-optee/imx-optee-os/lib/libutee/tee_api_objects.c:713
     e08:	3302      	adds	r3, #2
     e0a:	4298      	cmp	r0, r3
     e0c:	d002      	beq.n	e14 <TEE_TruncateObjectData+0x24>
/home/yin/imx-optee/imx-optee-os/lib/libutee/tee_api_objects.c:715
     e0e:	4620      	mov	r0, r4
     e10:	f004 fa06 	bl	5220 <TEE_Panic>
/home/yin/imx-optee/imx-optee-os/lib/libutee/tee_api_objects.c:718
     e14:	4620      	mov	r0, r4
     e16:	bd10      	pop	{r4, pc}
/home/yin/imx-optee/imx-optee-os/lib/libutee/tee_api_objects.c:704
     e18:	4c02      	ldr	r4, [pc, #8]	; (e24 <TEE_TruncateObjectData+0x34>)
     e1a:	e7f8      	b.n	e0e <TEE_TruncateObjectData+0x1e>
     e1c:	ffff3041 	.word	0xffff3041
     e20:	f0100001 	.word	0xf0100001
     e24:	ffff0006 	.word	0xffff0006

00000e28 <TEE_SeekObjectData>:
TEE_SeekObjectData():
/home/yin/imx-optee/imx-optee-os/lib/libutee/tee_api_objects.c:722
     e28:	b5f0      	push	{r4, r5, r6, r7, lr}
     e2a:	460d      	mov	r5, r1
     e2c:	b089      	sub	sp, #36	; 0x24
     e2e:	4616      	mov	r6, r2
/home/yin/imx-optee/imx-optee-os/lib/libutee/tee_api_objects.c:726
     e30:	4607      	mov	r7, r0
     e32:	b368      	cbz	r0, e90 <TEE_SeekObjectData+0x68>
/home/yin/imx-optee/imx-optee-os/lib/libutee/tee_api_objects.c:731
     e34:	a901      	add	r1, sp, #4
     e36:	f001 ed2a 	blx	288c <utee_cryp_obj_get_info>
/home/yin/imx-optee/imx-optee-os/lib/libutee/tee_api_objects.c:732
     e3a:	4604      	mov	r4, r0
     e3c:	b9d8      	cbnz	r0, e76 <TEE_SeekObjectData+0x4e>
/home/yin/imx-optee/imx-optee-os/lib/libutee/tee_api_objects.c:735
     e3e:	2e01      	cmp	r6, #1
     e40:	d004      	beq.n	e4c <TEE_SeekObjectData+0x24>
     e42:	d310      	bcc.n	e66 <TEE_SeekObjectData+0x3e>
     e44:	2e02      	cmp	r6, #2
     e46:	d00a      	beq.n	e5e <TEE_SeekObjectData+0x36>
/home/yin/imx-optee/imx-optee-os/lib/libutee/tee_api_objects.c:761
     e48:	4c12      	ldr	r4, [pc, #72]	; (e94 <TEE_SeekObjectData+0x6c>)
     e4a:	e017      	b.n	e7c <TEE_SeekObjectData+0x54>
/home/yin/imx-optee/imx-optee-os/lib/libutee/tee_api_objects.c:743
     e4c:	2d00      	cmp	r5, #0
     e4e:	dd0a      	ble.n	e66 <TEE_SeekObjectData+0x3e>
/home/yin/imx-optee/imx-optee-os/lib/libutee/tee_api_objects.c:743 (discriminator 1)
     e50:	9b06      	ldr	r3, [sp, #24]
     e52:	42dd      	cmn	r5, r3
     e54:	d307      	bcc.n	e66 <TEE_SeekObjectData+0x3e>
/home/yin/imx-optee/imx-optee-os/lib/libutee/tee_api_objects.c:727
     e56:	4c10      	ldr	r4, [pc, #64]	; (e98 <TEE_SeekObjectData+0x70>)
/home/yin/imx-optee/imx-optee-os/lib/libutee/tee_api_objects.c:775
     e58:	4620      	mov	r0, r4
     e5a:	b009      	add	sp, #36	; 0x24
     e5c:	bdf0      	pop	{r4, r5, r6, r7, pc}
/home/yin/imx-optee/imx-optee-os/lib/libutee/tee_api_objects.c:753
     e5e:	2d00      	cmp	r5, #0
     e60:	dd01      	ble.n	e66 <TEE_SeekObjectData+0x3e>
/home/yin/imx-optee/imx-optee-os/lib/libutee/tee_api_objects.c:753 (discriminator 1)
     e62:	9b05      	ldr	r3, [sp, #20]
     e64:	e7f5      	b.n	e52 <TEE_SeekObjectData+0x2a>
/home/yin/imx-optee/imx-optee-os/lib/libutee/tee_api_objects.c:765
     e66:	4632      	mov	r2, r6
     e68:	4629      	mov	r1, r5
     e6a:	4638      	mov	r0, r7
     e6c:	f001 ee40 	blx	2af0 <utee_storage_obj_seek>
/home/yin/imx-optee/imx-optee-os/lib/libutee/tee_api_objects.c:768
     e70:	4604      	mov	r4, r0
     e72:	2800      	cmp	r0, #0
     e74:	d0f0      	beq.n	e58 <TEE_SeekObjectData+0x30>
/home/yin/imx-optee/imx-optee-os/lib/libutee/tee_api_objects.c:768 (discriminator 1)
     e76:	4b08      	ldr	r3, [pc, #32]	; (e98 <TEE_SeekObjectData+0x70>)
     e78:	429c      	cmp	r4, r3
     e7a:	d0ec      	beq.n	e56 <TEE_SeekObjectData+0x2e>
/home/yin/imx-optee/imx-optee-os/lib/libutee/tee_api_objects.c:769
     e7c:	4b07      	ldr	r3, [pc, #28]	; (e9c <TEE_SeekObjectData+0x74>)
     e7e:	429c      	cmp	r4, r3
     e80:	d0ea      	beq.n	e58 <TEE_SeekObjectData+0x30>
/home/yin/imx-optee/imx-optee-os/lib/libutee/tee_api_objects.c:770
     e82:	3302      	adds	r3, #2
     e84:	429c      	cmp	r4, r3
     e86:	d0e7      	beq.n	e58 <TEE_SeekObjectData+0x30>
/home/yin/imx-optee/imx-optee-os/lib/libutee/tee_api_objects.c:772
     e88:	4620      	mov	r0, r4
     e8a:	f004 f9c9 	bl	5220 <TEE_Panic>
/home/yin/imx-optee/imx-optee-os/lib/libutee/tee_api_objects.c:774
     e8e:	e7e3      	b.n	e58 <TEE_SeekObjectData+0x30>
/home/yin/imx-optee/imx-optee-os/lib/libutee/tee_api_objects.c:727
     e90:	4c03      	ldr	r4, [pc, #12]	; (ea0 <TEE_SeekObjectData+0x78>)
     e92:	e7f9      	b.n	e88 <TEE_SeekObjectData+0x60>
     e94:	ffff0008 	.word	0xffff0008
     e98:	ffff300f 	.word	0xffff300f
     e9c:	f0100001 	.word	0xf0100001
     ea0:	ffff0006 	.word	0xffff0006

00000ea4 <tee_buffer_update>:
tee_buffer_update():
/home/yin/imx-optee/imx-optee-os/lib/libutee/tee_api_operations.c:845
     ea4:	e92d 4ff0 	stmdb	sp!, {r4, r5, r6, r7, r8, r9, sl, fp, lr}
     ea8:	b087      	sub	sp, #28
     eaa:	461f      	mov	r7, r3
/home/yin/imx-optee/imx-optee-os/lib/libutee/tee_api_operations.c:850
     eac:	9b11      	ldr	r3, [sp, #68]	; 0x44
/home/yin/imx-optee/imx-optee-os/lib/libutee/tee_api_operations.c:845
     eae:	4604      	mov	r4, r0
     eb0:	468b      	mov	fp, r1
     eb2:	f8dd 8040 	ldr.w	r8, [sp, #64]	; 0x40
/home/yin/imx-optee/imx-optee-os/lib/libutee/tee_api_operations.c:857
     eb6:	4692      	mov	sl, r2
/home/yin/imx-optee/imx-optee-os/lib/libutee/tee_api_operations.c:850
     eb8:	e9d3 0100 	ldrd	r0, r1, [r3]
     ebc:	e9cd 0102 	strd	r0, r1, [sp, #8]
/home/yin/imx-optee/imx-optee-os/lib/libutee/tee_api_operations.c:857
     ec0:	b962      	cbnz	r2, edc <tee_buffer_update+0x38>
/home/yin/imx-optee/imx-optee-os/lib/libutee/tee_api_operations.c:858
     ec2:	b93f      	cbnz	r7, ed4 <tee_buffer_update+0x30>
/home/yin/imx-optee/imx-optee-os/lib/libutee/tee_api_operations.c:851
     ec4:	2500      	movs	r5, #0
/home/yin/imx-optee/imx-optee-os/lib/libutee/tee_api_operations.c:933
     ec6:	9b11      	ldr	r3, [sp, #68]	; 0x44
     ec8:	2000      	movs	r0, #0
     eca:	601d      	str	r5, [r3, #0]
     ecc:	6058      	str	r0, [r3, #4]
/home/yin/imx-optee/imx-optee-os/lib/libutee/tee_api_operations.c:935
     ece:	b007      	add	sp, #28
     ed0:	e8bd 8ff0 	ldmia.w	sp!, {r4, r5, r6, r7, r8, r9, sl, fp, pc}
/home/yin/imx-optee/imx-optee-os/lib/libutee/tee_api_operations.c:859
     ed4:	4610      	mov	r0, r2
     ed6:	f004 f9a3 	bl	5220 <TEE_Panic>
     eda:	e7f3      	b.n	ec4 <tee_buffer_update+0x20>
/home/yin/imx-optee/imx-optee-os/lib/libutee/tee_api_operations.c:863
     edc:	f894 3030 	ldrb.w	r3, [r4, #48]	; 0x30
     ee0:	6b65      	ldr	r5, [r4, #52]	; 0x34
     ee2:	2b00      	cmp	r3, #0
     ee4:	d058      	beq.n	f98 <tee_buffer_update+0xf4>
/home/yin/imx-optee/imx-optee-os/lib/libutee/tee_api_operations.c:864
     ee6:	006e      	lsls	r6, r5, #1
/home/yin/imx-optee/imx-optee-os/lib/libutee/tee_api_operations.c:865
     ee8:	f04f 0901 	mov.w	r9, #1
/home/yin/imx-optee/imx-optee-os/lib/libutee/tee_api_operations.c:871
     eec:	6ba0      	ldr	r0, [r4, #56]	; 0x38
     eee:	b1b0      	cbz	r0, f1e <tee_buffer_update+0x7a>
/home/yin/imx-optee/imx-optee-os/lib/libutee/tee_api_operations.c:873
     ef0:	42a8      	cmp	r0, r5
/home/yin/imx-optee/imx-optee-os/lib/libutee/tee_api_operations.c:877
     ef2:	6ae3      	ldr	r3, [r4, #44]	; 0x2c
/home/yin/imx-optee/imx-optee-os/lib/libutee/tee_api_operations.c:876
     ef4:	bf2c      	ite	cs
     ef6:	1a35      	subcs	r5, r6, r0
/home/yin/imx-optee/imx-optee-os/lib/libutee/tee_api_operations.c:874
     ef8:	1a2d      	subcc	r5, r5, r0
/home/yin/imx-optee/imx-optee-os/lib/libutee/tee_api_operations.c:876
     efa:	42bd      	cmp	r5, r7
/home/yin/imx-optee/imx-optee-os/lib/libutee/tee_api_operations.c:877
     efc:	4651      	mov	r1, sl
/home/yin/imx-optee/imx-optee-os/lib/libutee/tee_api_operations.c:876
     efe:	bf28      	it	cs
     f00:	463d      	movcs	r5, r7
/home/yin/imx-optee/imx-optee-os/lib/libutee/tee_api_operations.c:877
     f02:	4418      	add	r0, r3
     f04:	462a      	mov	r2, r5
     f06:	f004 f9b2 	bl	526e <memcpy>
/home/yin/imx-optee/imx-optee-os/lib/libutee/tee_api_operations.c:878
     f0a:	6ba0      	ldr	r0, [r4, #56]	; 0x38
/home/yin/imx-optee/imx-optee-os/lib/libutee/tee_api_operations.c:881
     f0c:	6b61      	ldr	r1, [r4, #52]	; 0x34
/home/yin/imx-optee/imx-optee-os/lib/libutee/tee_api_operations.c:878
     f0e:	4428      	add	r0, r5
     f10:	63a0      	str	r0, [r4, #56]	; 0x38
/home/yin/imx-optee/imx-optee-os/lib/libutee/tee_api_operations.c:881
     f12:	f004 fa26 	bl	5362 <__aeabi_uidivmod>
     f16:	2900      	cmp	r1, #0
     f18:	d1d4      	bne.n	ec4 <tee_buffer_update+0x20>
/home/yin/imx-optee/imx-optee-os/lib/libutee/tee_api_operations.c:879
     f1a:	44aa      	add	sl, r5
/home/yin/imx-optee/imx-optee-os/lib/libutee/tee_api_operations.c:880
     f1c:	1b7f      	subs	r7, r7, r5
/home/yin/imx-optee/imx-optee-os/lib/libutee/tee_api_operations.c:886
     f1e:	6ba5      	ldr	r5, [r4, #56]	; 0x38
/home/yin/imx-optee/imx-optee-os/lib/libutee/tee_api_operations.c:850
     f20:	9902      	ldr	r1, [sp, #8]
/home/yin/imx-optee/imx-optee-os/lib/libutee/tee_api_operations.c:886
     f22:	2d00      	cmp	r5, #0
     f24:	d03c      	beq.n	fa0 <tee_buffer_update+0xfc>
/home/yin/imx-optee/imx-optee-os/lib/libutee/tee_api_operations.c:887 (discriminator 1)
     f26:	1978      	adds	r0, r7, r5
     f28:	eb06 0309 	add.w	r3, r6, r9
/home/yin/imx-optee/imx-optee-os/lib/libutee/tee_api_operations.c:886 (discriminator 1)
     f2c:	4298      	cmp	r0, r3
     f2e:	d336      	bcc.n	f9e <tee_buffer_update+0xfa>
/home/yin/imx-optee/imx-optee-os/lib/libutee/tee_api_operations.c:888
     f30:	6b62      	ldr	r2, [r4, #52]	; 0x34
     f32:	1e53      	subs	r3, r2, #1
     f34:	4252      	negs	r2, r2
     f36:	1b9b      	subs	r3, r3, r6
     f38:	4403      	add	r3, r0
/home/yin/imx-optee/imx-optee-os/lib/libutee/tee_api_operations.c:891
     f3a:	e9dd 0102 	ldrd	r0, r1, [sp, #8]
/home/yin/imx-optee/imx-optee-os/lib/libutee/tee_api_operations.c:888
     f3e:	4013      	ands	r3, r2
/home/yin/imx-optee/imx-optee-os/lib/libutee/tee_api_operations.c:891
     f40:	2100      	movs	r1, #0
/home/yin/imx-optee/imx-optee-os/lib/libutee/tee_api_operations.c:890
     f42:	429d      	cmp	r5, r3
     f44:	bf28      	it	cs
     f46:	461d      	movcs	r5, r3
/home/yin/imx-optee/imx-optee-os/lib/libutee/tee_api_operations.c:891
     f48:	ab06      	add	r3, sp, #24
     f4a:	e963 0102 	strd	r0, r1, [r3, #-8]!
/home/yin/imx-optee/imx-optee-os/lib/libutee/tee_api_operations.c:892
     f4e:	462a      	mov	r2, r5
     f50:	9300      	str	r3, [sp, #0]
     f52:	4643      	mov	r3, r8
     f54:	6ae1      	ldr	r1, [r4, #44]	; 0x2c
     f56:	6be0      	ldr	r0, [r4, #60]	; 0x3c
     f58:	47d8      	blx	fp
/home/yin/imx-optee/imx-optee-os/lib/libutee/tee_api_operations.c:893
     f5a:	b108      	cbz	r0, f60 <tee_buffer_update+0xbc>
/home/yin/imx-optee/imx-optee-os/lib/libutee/tee_api_operations.c:894
     f5c:	f004 f960 	bl	5220 <TEE_Panic>
/home/yin/imx-optee/imx-optee-os/lib/libutee/tee_api_operations.c:895
     f60:	9b04      	ldr	r3, [sp, #16]
/home/yin/imx-optee/imx-optee-os/lib/libutee/tee_api_operations.c:896
     f62:	9a02      	ldr	r2, [sp, #8]
/home/yin/imx-optee/imx-optee-os/lib/libutee/tee_api_operations.c:895
     f64:	4498      	add	r8, r3
/home/yin/imx-optee/imx-optee-os/lib/libutee/tee_api_operations.c:896
     f66:	1ad1      	subs	r1, r2, r3
/home/yin/imx-optee/imx-optee-os/lib/libutee/tee_api_operations.c:898
     f68:	6ba2      	ldr	r2, [r4, #56]	; 0x38
     f6a:	1b52      	subs	r2, r2, r5
     f6c:	63a2      	str	r2, [r4, #56]	; 0x38
/home/yin/imx-optee/imx-optee-os/lib/libutee/tee_api_operations.c:899
     f6e:	2a00      	cmp	r2, #0
     f70:	d041      	beq.n	ff6 <tee_buffer_update+0x152>
/home/yin/imx-optee/imx-optee-os/lib/libutee/tee_api_operations.c:903
     f72:	6ae0      	ldr	r0, [r4, #44]	; 0x2c
     f74:	1b72      	subs	r2, r6, r5
     f76:	9302      	str	r3, [sp, #8]
     f78:	1941      	adds	r1, r0, r5
     f7a:	f004 f978 	bl	526e <memcpy>
/home/yin/imx-optee/imx-optee-os/lib/libutee/tee_api_operations.c:904
     f7e:	6ae5      	ldr	r5, [r4, #44]	; 0x2c
     f80:	463a      	mov	r2, r7
     f82:	6ba0      	ldr	r0, [r4, #56]	; 0x38
     f84:	4651      	mov	r1, sl
     f86:	4428      	add	r0, r5
     f88:	f004 f971 	bl	526e <memcpy>
/home/yin/imx-optee/imx-optee-os/lib/libutee/tee_api_operations.c:905
     f8c:	6ba2      	ldr	r2, [r4, #56]	; 0x38
/home/yin/imx-optee/imx-optee-os/lib/libutee/tee_api_operations.c:897
     f8e:	9b02      	ldr	r3, [sp, #8]
/home/yin/imx-optee/imx-optee-os/lib/libutee/tee_api_operations.c:905
     f90:	4417      	add	r7, r2
     f92:	63a7      	str	r7, [r4, #56]	; 0x38
/home/yin/imx-optee/imx-optee-os/lib/libutee/tee_api_operations.c:897
     f94:	461d      	mov	r5, r3
/home/yin/imx-optee/imx-optee-os/lib/libutee/tee_api_operations.c:906
     f96:	e796      	b.n	ec6 <tee_buffer_update+0x22>
/home/yin/imx-optee/imx-optee-os/lib/libutee/tee_api_operations.c:867
     f98:	462e      	mov	r6, r5
/home/yin/imx-optee/imx-optee-os/lib/libutee/tee_api_operations.c:868
     f9a:	4699      	mov	r9, r3
     f9c:	e7a6      	b.n	eec <tee_buffer_update+0x48>
/home/yin/imx-optee/imx-optee-os/lib/libutee/tee_api_operations.c:851
     f9e:	2500      	movs	r5, #0
/home/yin/imx-optee/imx-optee-os/lib/libutee/tee_api_operations.c:910
     fa0:	44b1      	add	r9, r6
     fa2:	454f      	cmp	r7, r9
     fa4:	d31c      	bcc.n	fe0 <tee_buffer_update+0x13c>
/home/yin/imx-optee/imx-optee-os/lib/libutee/tee_api_operations.c:912
     fa6:	4b15      	ldr	r3, [pc, #84]	; (ffc <tee_buffer_update+0x158>)
     fa8:	6822      	ldr	r2, [r4, #0]
/home/yin/imx-optee/imx-optee-os/lib/libutee/tee_api_operations.c:917
     faa:	9104      	str	r1, [sp, #16]
/home/yin/imx-optee/imx-optee-os/lib/libutee/tee_api_operations.c:918
     fac:	4651      	mov	r1, sl
     fae:	6be0      	ldr	r0, [r4, #60]	; 0x3c
/home/yin/imx-optee/imx-optee-os/lib/libutee/tee_api_operations.c:912
     fb0:	429a      	cmp	r2, r3
     fb2:	6b62      	ldr	r2, [r4, #52]	; 0x34
/home/yin/imx-optee/imx-optee-os/lib/libutee/tee_api_operations.c:913
     fb4:	bf0a      	itet	eq
     fb6:	f102 33ff 	addeq.w	r3, r2, #4294967295	; 0xffffffff
/home/yin/imx-optee/imx-optee-os/lib/libutee/tee_api_operations.c:915
     fba:	1b96      	subne	r6, r2, r6
/home/yin/imx-optee/imx-optee-os/lib/libutee/tee_api_operations.c:913
     fbc:	1b9e      	subeq	r6, r3, r6
/home/yin/imx-optee/imx-optee-os/lib/libutee/tee_api_operations.c:915
     fbe:	4252      	negs	r2, r2
/home/yin/imx-optee/imx-optee-os/lib/libutee/tee_api_operations.c:917
     fc0:	2300      	movs	r3, #0
/home/yin/imx-optee/imx-optee-os/lib/libutee/tee_api_operations.c:915
     fc2:	443e      	add	r6, r7
     fc4:	4016      	ands	r6, r2
/home/yin/imx-optee/imx-optee-os/lib/libutee/tee_api_operations.c:917
     fc6:	9305      	str	r3, [sp, #20]
/home/yin/imx-optee/imx-optee-os/lib/libutee/tee_api_operations.c:918
     fc8:	ab04      	add	r3, sp, #16
     fca:	4632      	mov	r2, r6
     fcc:	9300      	str	r3, [sp, #0]
     fce:	4643      	mov	r3, r8
     fd0:	47d8      	blx	fp
/home/yin/imx-optee/imx-optee-os/lib/libutee/tee_api_operations.c:919
     fd2:	b108      	cbz	r0, fd8 <tee_buffer_update+0x134>
/home/yin/imx-optee/imx-optee-os/lib/libutee/tee_api_operations.c:920
     fd4:	f004 f924 	bl	5220 <TEE_Panic>
/home/yin/imx-optee/imx-optee-os/lib/libutee/tee_api_operations.c:925
     fd8:	9b04      	ldr	r3, [sp, #16]
/home/yin/imx-optee/imx-optee-os/lib/libutee/tee_api_operations.c:921
     fda:	44b2      	add	sl, r6
/home/yin/imx-optee/imx-optee-os/lib/libutee/tee_api_operations.c:922
     fdc:	1bbf      	subs	r7, r7, r6
/home/yin/imx-optee/imx-optee-os/lib/libutee/tee_api_operations.c:925
     fde:	441d      	add	r5, r3
/home/yin/imx-optee/imx-optee-os/lib/libutee/tee_api_operations.c:929
     fe0:	6ba3      	ldr	r3, [r4, #56]	; 0x38
     fe2:	463a      	mov	r2, r7
     fe4:	6ae0      	ldr	r0, [r4, #44]	; 0x2c
     fe6:	4651      	mov	r1, sl
     fe8:	4418      	add	r0, r3
     fea:	f004 f940 	bl	526e <memcpy>
/home/yin/imx-optee/imx-optee-os/lib/libutee/tee_api_operations.c:930
     fee:	6ba3      	ldr	r3, [r4, #56]	; 0x38
     ff0:	441f      	add	r7, r3
     ff2:	63a7      	str	r7, [r4, #56]	; 0x38
     ff4:	e767      	b.n	ec6 <tee_buffer_update+0x22>
/home/yin/imx-optee/imx-optee-os/lib/libutee/tee_api_operations.c:897
     ff6:	461d      	mov	r5, r3
     ff8:	e7d2      	b.n	fa0 <tee_buffer_update+0xfc>
     ffa:	bf00      	nop
     ffc:	10000310 	.word	0x10000310

00001000 <TEE_FreeOperation>:
TEE_FreeOperation():
/home/yin/imx-optee/imx-optee-os/lib/libutee/tee_api_operations.c:344
    1000:	b510      	push	{r4, lr}
/home/yin/imx-optee/imx-optee-os/lib/libutee/tee_api_operations.c:347
    1002:	4604      	mov	r4, r0
    1004:	b908      	cbnz	r0, 100a <TEE_FreeOperation+0xa>
/home/yin/imx-optee/imx-optee-os/lib/libutee/tee_api_operations.c:348
    1006:	f004 f90b 	bl	5220 <TEE_Panic>
/home/yin/imx-optee/imx-optee-os/lib/libutee/tee_api_operations.c:355
    100a:	6be0      	ldr	r0, [r4, #60]	; 0x3c
    100c:	f001 ebf2 	blx	27f4 <utee_cryp_state_free>
/home/yin/imx-optee/imx-optee-os/lib/libutee/tee_api_operations.c:356
    1010:	b108      	cbz	r0, 1016 <TEE_FreeOperation+0x16>
/home/yin/imx-optee/imx-optee-os/lib/libutee/tee_api_operations.c:357
    1012:	f004 f905 	bl	5220 <TEE_Panic>
/home/yin/imx-optee/imx-optee-os/lib/libutee/tee_api_operations.c:359
    1016:	6ae0      	ldr	r0, [r4, #44]	; 0x2c
    1018:	f7ff fb72 	bl	700 <TEE_Free>
/home/yin/imx-optee/imx-optee-os/lib/libutee/tee_api_operations.c:360
    101c:	4620      	mov	r0, r4
/home/yin/imx-optee/imx-optee-os/lib/libutee/tee_api_operations.c:361
    101e:	e8bd 4010 	ldmia.w	sp!, {r4, lr}
/home/yin/imx-optee/imx-optee-os/lib/libutee/tee_api_operations.c:360
    1022:	f7ff bb6d 	b.w	700 <TEE_Free>

00001026 <TEE_AllocateOperation>:
TEE_AllocateOperation():
/home/yin/imx-optee/imx-optee-os/lib/libutee/tee_api_operations.c:37
    1026:	e92d 4ff0 	stmdb	sp!, {r4, r5, r6, r7, r8, r9, sl, fp, lr}
    102a:	b087      	sub	sp, #28
    102c:	460c      	mov	r4, r1
    102e:	4617      	mov	r7, r2
    1030:	4699      	mov	r9, r3
/home/yin/imx-optee/imx-optee-os/lib/libutee/tee_api_operations.c:46
    1032:	9003      	str	r0, [sp, #12]
    1034:	b908      	cbnz	r0, 103a <TEE_AllocateOperation+0x14>
/home/yin/imx-optee/imx-optee-os/lib/libutee/tee_api_operations.c:47
    1036:	f004 f8f3 	bl	5220 <TEE_Panic>
/home/yin/imx-optee/imx-optee-os/lib/libutee/tee_api_operations.c:49
    103a:	4bc0      	ldr	r3, [pc, #768]	; (133c <TEE_AllocateOperation+0x316>)
    103c:	429c      	cmp	r4, r3
    103e:	f000 81b9 	beq.w	13b4 <TEE_AllocateOperation+0x38e>
/home/yin/imx-optee/imx-optee-os/lib/libutee/tee_api_operations.c:53
    1042:	4bbf      	ldr	r3, [pc, #764]	; (1340 <TEE_AllocateOperation+0x31a>)
    1044:	429c      	cmp	r4, r3
    1046:	d06e      	beq.n	1126 <TEE_AllocateOperation+0x100>
    1048:	d83f      	bhi.n	10ca <TEE_AllocateOperation+0xa4>
    104a:	4abe      	ldr	r2, [pc, #760]	; (1344 <TEE_AllocateOperation+0x31e>)
    104c:	4294      	cmp	r4, r2
    104e:	d055      	beq.n	10fc <TEE_AllocateOperation+0xd6>
    1050:	d82d      	bhi.n	10ae <TEE_AllocateOperation+0x88>
    1052:	f5a2 5287 	sub.w	r2, r2, #4320	; 0x10e0
    1056:	3a10      	subs	r2, #16
    1058:	4294      	cmp	r4, r2
    105a:	d040      	beq.n	10de <TEE_AllocateOperation+0xb8>
    105c:	f502 5280 	add.w	r2, r2, #4096	; 0x1000
    1060:	4294      	cmp	r4, r2
    1062:	d065      	beq.n	1130 <TEE_AllocateOperation+0x10a>
/home/yin/imx-optee/imx-optee-os/lib/libutee/tee_api_operations.c:108
    1064:	4ab7      	ldr	r2, [pc, #732]	; (1344 <TEE_AllocateOperation+0x31e>)
    1066:	4294      	cmp	r4, r2
    1068:	d050      	beq.n	110c <TEE_AllocateOperation+0xe6>
    106a:	f200 80d6 	bhi.w	121a <TEE_AllocateOperation+0x1f4>
    106e:	4bb6      	ldr	r3, [pc, #728]	; (1348 <TEE_AllocateOperation+0x322>)
    1070:	429c      	cmp	r4, r3
    1072:	d07d      	beq.n	1170 <TEE_AllocateOperation+0x14a>
    1074:	f200 808e 	bhi.w	1194 <TEE_AllocateOperation+0x16e>
    1078:	4bb4      	ldr	r3, [pc, #720]	; (134c <TEE_AllocateOperation+0x326>)
    107a:	429c      	cmp	r4, r3
    107c:	f000 81ab 	beq.w	13d6 <TEE_AllocateOperation+0x3b0>
    1080:	d86b      	bhi.n	115a <TEE_AllocateOperation+0x134>
    1082:	f46f 70ff 	mvn.w	r0, #510	; 0x1fe
    1086:	4403      	add	r3, r0
    1088:	429c      	cmp	r4, r3
    108a:	d85b      	bhi.n	1144 <TEE_AllocateOperation+0x11e>
    108c:	3b01      	subs	r3, #1
    108e:	429c      	cmp	r4, r3
    1090:	d209      	bcs.n	10a6 <TEE_AllocateOperation+0x80>
    1092:	f5a3 7380 	sub.w	r3, r3, #256	; 0x100
    1096:	429c      	cmp	r4, r3
    1098:	d324      	bcc.n	10e4 <TEE_AllocateOperation+0xbe>
    109a:	3301      	adds	r3, #1
    109c:	429c      	cmp	r4, r3
    109e:	d902      	bls.n	10a6 <TEE_AllocateOperation+0x80>
    10a0:	3302      	adds	r3, #2
    10a2:	429c      	cmp	r4, r3
    10a4:	d11e      	bne.n	10e4 <TEE_AllocateOperation+0xbe>
    10a6:	f04f 0800 	mov.w	r8, #0
/home/yin/imx-optee/imx-optee-os/lib/libutee/tee_api_operations.c:44
    10aa:	4646      	mov	r6, r8
    10ac:	e185      	b.n	13ba <TEE_AllocateOperation+0x394>
/home/yin/imx-optee/imx-optee-os/lib/libutee/tee_api_operations.c:53
    10ae:	4aa8      	ldr	r2, [pc, #672]	; (1350 <TEE_AllocateOperation+0x32a>)
    10b0:	4294      	cmp	r4, r2
    10b2:	d034      	beq.n	111e <TEE_AllocateOperation+0xf8>
    10b4:	f502 6271 	add.w	r2, r2, #3856	; 0xf10
    10b8:	4294      	cmp	r4, r2
    10ba:	d03c      	beq.n	1136 <TEE_AllocateOperation+0x110>
    10bc:	f5a2 5280 	sub.w	r2, r2, #4096	; 0x1000
    10c0:	4294      	cmp	r4, r2
    10c2:	d1cf      	bne.n	1064 <TEE_AllocateOperation+0x3e>
/home/yin/imx-optee/imx-optee-os/lib/libutee/tee_api_operations.c:87
    10c4:	f5b9 7f80 	cmp.w	r9, #256	; 0x100
    10c8:	e00b      	b.n	10e2 <TEE_AllocateOperation+0xbc>
/home/yin/imx-optee/imx-optee-os/lib/libutee/tee_api_operations.c:53
    10ca:	4aa2      	ldr	r2, [pc, #648]	; (1354 <TEE_AllocateOperation+0x32e>)
    10cc:	4294      	cmp	r4, r2
    10ce:	d02f      	beq.n	1130 <TEE_AllocateOperation+0x10a>
    10d0:	d80a      	bhi.n	10e8 <TEE_AllocateOperation+0xc2>
    10d2:	4aa1      	ldr	r2, [pc, #644]	; (1358 <TEE_AllocateOperation+0x332>)
    10d4:	4294      	cmp	r4, r2
    10d6:	d031      	beq.n	113c <TEE_AllocateOperation+0x116>
    10d8:	4aa0      	ldr	r2, [pc, #640]	; (135c <TEE_AllocateOperation+0x336>)
    10da:	4294      	cmp	r4, r2
    10dc:	d1c2      	bne.n	1064 <TEE_AllocateOperation+0x3e>
/home/yin/imx-optee/imx-optee-os/lib/libutee/tee_api_operations.c:75
    10de:	f1b9 0fc0 	cmp.w	r9, #192	; 0xc0
/home/yin/imx-optee/imx-optee-os/lib/libutee/tee_api_operations.c:99
    10e2:	d0bf      	beq.n	1064 <TEE_AllocateOperation+0x3e>
/home/yin/imx-optee/imx-optee-os/lib/libutee/tee_api_operations.c:56
    10e4:	4e9e      	ldr	r6, [pc, #632]	; (1360 <TEE_AllocateOperation+0x33a>)
    10e6:	e1c9      	b.n	147c <TEE_AllocateOperation+0x456>
/home/yin/imx-optee/imx-optee-os/lib/libutee/tee_api_operations.c:53
    10e8:	4a9e      	ldr	r2, [pc, #632]	; (1364 <TEE_AllocateOperation+0x33e>)
    10ea:	4294      	cmp	r4, r2
    10ec:	d023      	beq.n	1136 <TEE_AllocateOperation+0x110>
    10ee:	f502 5280 	add.w	r2, r2, #4096	; 0x1000
    10f2:	4294      	cmp	r4, r2
    10f4:	d022      	beq.n	113c <TEE_AllocateOperation+0x116>
    10f6:	f5a2 5200 	sub.w	r2, r2, #8192	; 0x2000
    10fa:	e7e1      	b.n	10c0 <TEE_AllocateOperation+0x9a>
/home/yin/imx-optee/imx-optee-os/lib/libutee/tee_api_operations.c:55
    10fc:	f5a9 7300 	sub.w	r3, r9, #512	; 0x200
    1100:	f5b3 7f00 	cmp.w	r3, #512	; 0x200
    1104:	d8ee      	bhi.n	10e4 <TEE_AllocateOperation+0xbe>
/home/yin/imx-optee/imx-optee-os/lib/libutee/tee_api_operations.c:59
    1106:	f019 0f3f 	tst.w	r9, #63	; 0x3f
    110a:	d1eb      	bne.n	10e4 <TEE_AllocateOperation+0xbe>
/home/yin/imx-optee/imx-optee-os/lib/libutee/tee_api_operations.c:154
    110c:	2f02      	cmp	r7, #2
    110e:	f000 81bc 	beq.w	148a <TEE_AllocateOperation+0x464>
/home/yin/imx-optee/imx-optee-os/lib/libutee/tee_api_operations.c:157
    1112:	2f03      	cmp	r7, #3
    1114:	d1e6      	bne.n	10e4 <TEE_AllocateOperation+0xbe>
/home/yin/imx-optee/imx-optee-os/lib/libutee/tee_api_operations.c:44
    1116:	2600      	movs	r6, #0
/home/yin/imx-optee/imx-optee-os/lib/libutee/tee_api_operations.c:158
    1118:	2220      	movs	r2, #32
/home/yin/imx-optee/imx-optee-os/lib/libutee/tee_api_operations.c:43
    111a:	46b2      	mov	sl, r6
    111c:	e02d      	b.n	117a <TEE_AllocateOperation+0x154>
/home/yin/imx-optee/imx-optee-os/lib/libutee/tee_api_operations.c:64
    111e:	f5b9 6f00 	cmp.w	r9, #2048	; 0x800
/home/yin/imx-optee/imx-optee-os/lib/libutee/tee_api_operations.c:108
    1122:	d1df      	bne.n	10e4 <TEE_AllocateOperation+0xbe>
    1124:	e7f2      	b.n	110c <TEE_AllocateOperation+0xe6>
/home/yin/imx-optee/imx-optee-os/lib/libutee/tee_api_operations.c:69
    1126:	f429 6380 	bic.w	r3, r9, #1024	; 0x400
    112a:	f5b3 6f00 	cmp.w	r3, #2048	; 0x800
    112e:	e7f8      	b.n	1122 <TEE_AllocateOperation+0xfc>
/home/yin/imx-optee/imx-optee-os/lib/libutee/tee_api_operations.c:81
    1130:	f1b9 0fe0 	cmp.w	r9, #224	; 0xe0
    1134:	e7d5      	b.n	10e2 <TEE_AllocateOperation+0xbc>
/home/yin/imx-optee/imx-optee-os/lib/libutee/tee_api_operations.c:93
    1136:	f5b9 7fc0 	cmp.w	r9, #384	; 0x180
    113a:	e7d2      	b.n	10e2 <TEE_AllocateOperation+0xbc>
/home/yin/imx-optee/imx-optee-os/lib/libutee/tee_api_operations.c:99
    113c:	f240 2209 	movw	r2, #521	; 0x209
    1140:	4591      	cmp	r9, r2
    1142:	e7ce      	b.n	10e2 <TEE_AllocateOperation+0xbc>
/home/yin/imx-optee/imx-optee-os/lib/libutee/tee_api_operations.c:108
    1144:	4b88      	ldr	r3, [pc, #544]	; (1368 <TEE_AllocateOperation+0x342>)
    1146:	429c      	cmp	r4, r3
    1148:	d0ad      	beq.n	10a6 <TEE_AllocateOperation+0x80>
    114a:	33fd      	adds	r3, #253	; 0xfd
    114c:	429c      	cmp	r4, r3
    114e:	d1c9      	bne.n	10e4 <TEE_AllocateOperation+0xbe>
    1150:	f04f 0800 	mov.w	r8, #0
/home/yin/imx-optee/imx-optee-os/lib/libutee/tee_api_operations.c:41
    1154:	2301      	movs	r3, #1
/home/yin/imx-optee/imx-optee-os/lib/libutee/tee_api_operations.c:44
    1156:	4646      	mov	r6, r8
    1158:	e134      	b.n	13c4 <TEE_AllocateOperation+0x39e>
/home/yin/imx-optee/imx-optee-os/lib/libutee/tee_api_operations.c:108
    115a:	4b84      	ldr	r3, [pc, #528]	; (136c <TEE_AllocateOperation+0x346>)
    115c:	429c      	cmp	r4, r3
    115e:	d80f      	bhi.n	1180 <TEE_AllocateOperation+0x15a>
    1160:	3b01      	subs	r3, #1
    1162:	429c      	cmp	r4, r3
    1164:	d204      	bcs.n	1170 <TEE_AllocateOperation+0x14a>
    1166:	f104 4350 	add.w	r3, r4, #3489660928	; 0xd0000000
    116a:	3b01      	subs	r3, #1
    116c:	2b05      	cmp	r3, #5
    116e:	d8b9      	bhi.n	10e4 <TEE_AllocateOperation+0xbe>
/home/yin/imx-optee/imx-optee-os/lib/libutee/tee_api_operations.c:241
    1170:	2f04      	cmp	r7, #4
    1172:	d1b7      	bne.n	10e4 <TEE_AllocateOperation+0xbe>
/home/yin/imx-optee/imx-optee-os/lib/libutee/tee_api_operations.c:44
    1174:	2600      	movs	r6, #0
/home/yin/imx-optee/imx-optee-os/lib/libutee/tee_api_operations.c:243
    1176:	2208      	movs	r2, #8
/home/yin/imx-optee/imx-optee-os/lib/libutee/tee_api_operations.c:43
    1178:	46b2      	mov	sl, r6
/home/yin/imx-optee/imx-optee-os/lib/libutee/tee_api_operations.c:41
    117a:	2301      	movs	r3, #1
    117c:	46b0      	mov	r8, r6
    117e:	e140      	b.n	1402 <TEE_AllocateOperation+0x3dc>
/home/yin/imx-optee/imx-optee-os/lib/libutee/tee_api_operations.c:108
    1180:	4b7b      	ldr	r3, [pc, #492]	; (1370 <TEE_AllocateOperation+0x34a>)
    1182:	429c      	cmp	r4, r3
    1184:	d0f4      	beq.n	1170 <TEE_AllocateOperation+0x14a>
    1186:	d3ad      	bcc.n	10e4 <TEE_AllocateOperation+0xbe>
    1188:	f104 4350 	add.w	r3, r4, #3489660928	; 0xd0000000
    118c:	f5a3 63a2 	sub.w	r3, r3, #1296	; 0x510
    1190:	2b01      	cmp	r3, #1
    1192:	e7ec      	b.n	116e <TEE_AllocateOperation+0x148>
    1194:	4b77      	ldr	r3, [pc, #476]	; (1374 <TEE_AllocateOperation+0x34e>)
    1196:	429c      	cmp	r4, r3
    1198:	d01b      	beq.n	11d2 <TEE_AllocateOperation+0x1ac>
    119a:	d823      	bhi.n	11e4 <TEE_AllocateOperation+0x1be>
    119c:	4b76      	ldr	r3, [pc, #472]	; (1378 <TEE_AllocateOperation+0x352>)
    119e:	429c      	cmp	r4, r3
    11a0:	d80f      	bhi.n	11c2 <TEE_AllocateOperation+0x19c>
    11a2:	f1b4 4fa0 	cmp.w	r4, #1342177280	; 0x50000000
    11a6:	f200 8123 	bhi.w	13f0 <TEE_AllocateOperation+0x3ca>
    11aa:	4b74      	ldr	r3, [pc, #464]	; (137c <TEE_AllocateOperation+0x356>)
    11ac:	429c      	cmp	r4, r3
    11ae:	f43f af7a 	beq.w	10a6 <TEE_AllocateOperation+0x80>
    11b2:	f503 7380 	add.w	r3, r3, #256	; 0x100
    11b6:	429c      	cmp	r4, r3
    11b8:	d0ca      	beq.n	1150 <TEE_AllocateOperation+0x12a>
    11ba:	4b71      	ldr	r3, [pc, #452]	; (1380 <TEE_AllocateOperation+0x35a>)
    11bc:	429c      	cmp	r4, r3
    11be:	d191      	bne.n	10e4 <TEE_AllocateOperation+0xbe>
    11c0:	e7d6      	b.n	1170 <TEE_AllocateOperation+0x14a>
    11c2:	4b70      	ldr	r3, [pc, #448]	; (1384 <TEE_AllocateOperation+0x35e>)
    11c4:	429c      	cmp	r4, r3
    11c6:	f000 8109 	beq.w	13dc <TEE_AllocateOperation+0x3b6>
    11ca:	f503 7380 	add.w	r3, r3, #256	; 0x100
    11ce:	429c      	cmp	r4, r3
    11d0:	d188      	bne.n	10e4 <TEE_AllocateOperation+0xbe>
/home/yin/imx-optee/imx-optee-os/lib/libutee/tee_api_operations.c:170
    11d2:	2f00      	cmp	r7, #0
    11d4:	f000 815e 	beq.w	1494 <TEE_AllocateOperation+0x46e>
/home/yin/imx-optee/imx-optee-os/lib/libutee/tee_api_operations.c:172
    11d8:	2f01      	cmp	r7, #1
    11da:	d183      	bne.n	10e4 <TEE_AllocateOperation+0xbe>
/home/yin/imx-optee/imx-optee-os/lib/libutee/tee_api_operations.c:44
    11dc:	2600      	movs	r6, #0
/home/yin/imx-optee/imx-optee-os/lib/libutee/tee_api_operations.c:173
    11de:	46ba      	mov	sl, r7
/home/yin/imx-optee/imx-optee-os/lib/libutee/tee_api_operations.c:174
    11e0:	2204      	movs	r2, #4
    11e2:	e7ca      	b.n	117a <TEE_AllocateOperation+0x154>
/home/yin/imx-optee/imx-optee-os/lib/libutee/tee_api_operations.c:108
    11e4:	4b68      	ldr	r3, [pc, #416]	; (1388 <TEE_AllocateOperation+0x362>)
    11e6:	429c      	cmp	r4, r3
    11e8:	d0f3      	beq.n	11d2 <TEE_AllocateOperation+0x1ac>
    11ea:	d80a      	bhi.n	1202 <TEE_AllocateOperation+0x1dc>
    11ec:	f5a3 1300 	sub.w	r3, r3, #2097152	; 0x200000
    11f0:	429c      	cmp	r4, r3
    11f2:	d0ee      	beq.n	11d2 <TEE_AllocateOperation+0x1ac>
    11f4:	f503 1380 	add.w	r3, r3, #1048576	; 0x100000
    11f8:	429c      	cmp	r4, r3
    11fa:	d0ea      	beq.n	11d2 <TEE_AllocateOperation+0x1ac>
    11fc:	f5a3 1300 	sub.w	r3, r3, #2097152	; 0x200000
    1200:	e7e5      	b.n	11ce <TEE_AllocateOperation+0x1a8>
    1202:	4b62      	ldr	r3, [pc, #392]	; (138c <TEE_AllocateOperation+0x366>)
    1204:	429c      	cmp	r4, r3
    1206:	d081      	beq.n	110c <TEE_AllocateOperation+0xe6>
    1208:	f603 0311 	addw	r3, r3, #2065	; 0x811
    120c:	429c      	cmp	r4, r3
    120e:	f43f af7d 	beq.w	110c <TEE_AllocateOperation+0xe6>
    1212:	f5a3 5380 	sub.w	r3, r3, #4096	; 0x1000
    1216:	429c      	cmp	r4, r3
    1218:	e783      	b.n	1122 <TEE_AllocateOperation+0xfc>
    121a:	4a5d      	ldr	r2, [pc, #372]	; (1390 <TEE_AllocateOperation+0x36a>)
    121c:	4294      	cmp	r4, r2
    121e:	d05e      	beq.n	12de <TEE_AllocateOperation+0x2b8>
    1220:	d849      	bhi.n	12b6 <TEE_AllocateOperation+0x290>
    1222:	4a4d      	ldr	r2, [pc, #308]	; (1358 <TEE_AllocateOperation+0x332>)
    1224:	4294      	cmp	r4, r2
    1226:	f43f af71 	beq.w	110c <TEE_AllocateOperation+0xe6>
    122a:	d81c      	bhi.n	1266 <TEE_AllocateOperation+0x240>
    122c:	f5a2 52c0 	sub.w	r2, r2, #6144	; 0x1800
    1230:	3a11      	subs	r2, #17
    1232:	4294      	cmp	r4, r2
    1234:	f43f af6a 	beq.w	110c <TEE_AllocateOperation+0xe6>
    1238:	d80b      	bhi.n	1252 <TEE_AllocateOperation+0x22c>
    123a:	4b56      	ldr	r3, [pc, #344]	; (1394 <TEE_AllocateOperation+0x36e>)
    123c:	429c      	cmp	r4, r3
    123e:	f43f af65 	beq.w	110c <TEE_AllocateOperation+0xe6>
    1242:	33f0      	adds	r3, #240	; 0xf0
    1244:	429c      	cmp	r4, r3
    1246:	f43f af61 	beq.w	110c <TEE_AllocateOperation+0xe6>
    124a:	f46f 6110 	mvn.w	r1, #2304	; 0x900
    124e:	440b      	add	r3, r1
    1250:	e7e1      	b.n	1216 <TEE_AllocateOperation+0x1f0>
    1252:	429c      	cmp	r4, r3
    1254:	f43f af5a 	beq.w	110c <TEE_AllocateOperation+0xe6>
    1258:	4b4f      	ldr	r3, [pc, #316]	; (1398 <TEE_AllocateOperation+0x372>)
    125a:	429c      	cmp	r4, r3
    125c:	f43f af56 	beq.w	110c <TEE_AllocateOperation+0xe6>
    1260:	f2a3 73ef 	subw	r3, r3, #2031	; 0x7ef
    1264:	e7d7      	b.n	1216 <TEE_AllocateOperation+0x1f0>
    1266:	4b4d      	ldr	r3, [pc, #308]	; (139c <TEE_AllocateOperation+0x376>)
    1268:	429c      	cmp	r4, r3
    126a:	f43f af4f 	beq.w	110c <TEE_AllocateOperation+0xe6>
    126e:	d812      	bhi.n	1296 <TEE_AllocateOperation+0x270>
    1270:	f5a3 1343 	sub.w	r3, r3, #3194880	; 0x30c000
    1274:	f5a3 5388 	sub.w	r3, r3, #4352	; 0x1100
    1278:	429c      	cmp	r4, r3
    127a:	f43f af47 	beq.w	110c <TEE_AllocateOperation+0xe6>
    127e:	f503 1303 	add.w	r3, r3, #2146304	; 0x20c000
    1282:	f503 7380 	add.w	r3, r3, #256	; 0x100
    1286:	429c      	cmp	r4, r3
    1288:	f43f af40 	beq.w	110c <TEE_AllocateOperation+0xe6>
    128c:	f5a3 1303 	sub.w	r3, r3, #2146304	; 0x20c000
    1290:	f5a3 5388 	sub.w	r3, r3, #4352	; 0x1100
    1294:	e7bf      	b.n	1216 <TEE_AllocateOperation+0x1f0>
    1296:	4b42      	ldr	r3, [pc, #264]	; (13a0 <TEE_AllocateOperation+0x37a>)
    1298:	429c      	cmp	r4, r3
    129a:	f43f af37 	beq.w	110c <TEE_AllocateOperation+0xe6>
    129e:	f503 1380 	add.w	r3, r3, #1048576	; 0x100000
    12a2:	f503 5380 	add.w	r3, r3, #4096	; 0x1000
    12a6:	429c      	cmp	r4, r3
    12a8:	f43f af30 	beq.w	110c <TEE_AllocateOperation+0xe6>
    12ac:	f5a3 1300 	sub.w	r3, r3, #2097152	; 0x200000
    12b0:	f5a3 5300 	sub.w	r3, r3, #8192	; 0x2000
    12b4:	e7af      	b.n	1216 <TEE_AllocateOperation+0x1f0>
    12b6:	4b3b      	ldr	r3, [pc, #236]	; (13a4 <TEE_AllocateOperation+0x37e>)
    12b8:	429c      	cmp	r4, r3
    12ba:	d823      	bhi.n	1304 <TEE_AllocateOperation+0x2de>
    12bc:	3b01      	subs	r3, #1
    12be:	429c      	cmp	r4, r3
    12c0:	d20d      	bcs.n	12de <TEE_AllocateOperation+0x2b8>
    12c2:	f5a3 5383 	sub.w	r3, r3, #4192	; 0x1060
    12c6:	3b1e      	subs	r3, #30
    12c8:	429c      	cmp	r4, r3
    12ca:	d008      	beq.n	12de <TEE_AllocateOperation+0x2b8>
    12cc:	d810      	bhi.n	12f0 <TEE_AllocateOperation+0x2ca>
    12ce:	f5a3 5380 	sub.w	r3, r3, #4096	; 0x1000
    12d2:	429c      	cmp	r4, r3
    12d4:	d003      	beq.n	12de <TEE_AllocateOperation+0x2b8>
    12d6:	337e      	adds	r3, #126	; 0x7e
    12d8:	429c      	cmp	r4, r3
    12da:	f47f af03 	bne.w	10e4 <TEE_AllocateOperation+0xbe>
/home/yin/imx-optee/imx-optee-os/lib/libutee/tee_api_operations.c:209
    12de:	2f06      	cmp	r7, #6
    12e0:	f47f af00 	bne.w	10e4 <TEE_AllocateOperation+0xbe>
/home/yin/imx-optee/imx-optee-os/lib/libutee/tee_api_operations.c:44
    12e4:	2600      	movs	r6, #0
/home/yin/imx-optee/imx-optee-os/lib/libutee/tee_api_operations.c:211
    12e6:	f04f 0a01 	mov.w	sl, #1
/home/yin/imx-optee/imx-optee-os/lib/libutee/tee_api_operations.c:212
    12ea:	2240      	movs	r2, #64	; 0x40
/home/yin/imx-optee/imx-optee-os/lib/libutee/tee_api_operations.c:41
    12ec:	4653      	mov	r3, sl
    12ee:	e745      	b.n	117c <TEE_AllocateOperation+0x156>
/home/yin/imx-optee/imx-optee-os/lib/libutee/tee_api_operations.c:108
    12f0:	4b2d      	ldr	r3, [pc, #180]	; (13a8 <TEE_AllocateOperation+0x382>)
    12f2:	429c      	cmp	r4, r3
    12f4:	f4ff aef6 	bcc.w	10e4 <TEE_AllocateOperation+0xbe>
    12f8:	3302      	adds	r3, #2
    12fa:	429c      	cmp	r4, r3
    12fc:	d9ef      	bls.n	12de <TEE_AllocateOperation+0x2b8>
    12fe:	f503 6378 	add.w	r3, r3, #3968	; 0xf80
    1302:	e7e9      	b.n	12d8 <TEE_AllocateOperation+0x2b2>
    1304:	4b29      	ldr	r3, [pc, #164]	; (13ac <TEE_AllocateOperation+0x386>)
    1306:	429c      	cmp	r4, r3
    1308:	d0e9      	beq.n	12de <TEE_AllocateOperation+0x2b8>
    130a:	d80c      	bhi.n	1326 <TEE_AllocateOperation+0x300>
    130c:	f5a3 5380 	sub.w	r3, r3, #4096	; 0x1000
    1310:	429c      	cmp	r4, r3
    1312:	d0e4      	beq.n	12de <TEE_AllocateOperation+0x2b8>
    1314:	f4ff aee6 	bcc.w	10e4 <TEE_AllocateOperation+0xbe>
    1318:	f5a3 4301 	sub.w	r3, r3, #33024	; 0x8100
    131c:	3b02      	subs	r3, #2
    131e:	4423      	add	r3, r4
    1320:	2b01      	cmp	r3, #1
    1322:	d9dc      	bls.n	12de <TEE_AllocateOperation+0x2b8>
    1324:	e6de      	b.n	10e4 <TEE_AllocateOperation+0xbe>
    1326:	4b22      	ldr	r3, [pc, #136]	; (13b0 <TEE_AllocateOperation+0x38a>)
    1328:	429c      	cmp	r4, r3
    132a:	f4ff aedb 	bcc.w	10e4 <TEE_AllocateOperation+0xbe>
    132e:	3301      	adds	r3, #1
    1330:	429c      	cmp	r4, r3
    1332:	d9d4      	bls.n	12de <TEE_AllocateOperation+0x2b8>
    1334:	f5a3 4331 	sub.w	r3, r3, #45312	; 0xb100
    1338:	3b81      	subs	r3, #129	; 0x81
    133a:	e7f0      	b.n	131e <TEE_AllocateOperation+0x2f8>
    133c:	10000410 	.word	0x10000410
    1340:	70004131 	.word	0x70004131
    1344:	70002131 	.word	0x70002131
    1348:	30000513 	.word	0x30000513
    134c:	10000310 	.word	0x10000310
    1350:	70003131 	.word	0x70003131
    1354:	80002042 	.word	0x80002042
    1358:	70005041 	.word	0x70005041
    135c:	80001042 	.word	0x80001042
    1360:	ffff000a 	.word	0xffff000a
    1364:	80004042 	.word	0x80004042
    1368:	10000113 	.word	0x10000113
    136c:	30000111 	.word	0x30000111
    1370:	30000113 	.word	0x30000113
    1374:	60210230 	.word	0x60210230
    1378:	50000006 	.word	0x50000006
    137c:	40000710 	.word	0x40000710
    1380:	30000610 	.word	0x30000610
    1384:	60000030 	.word	0x60000030
    1388:	60610230 	.word	0x60610230
    138c:	70001830 	.word	0x70001830
    1390:	80000032 	.word	0x80000032
    1394:	70003041 	.word	0x70003041
    1398:	70004830 	.word	0x70004830
    139c:	70313930 	.word	0x70313930
    13a0:	70515930 	.word	0x70515930
    13a4:	800030c1 	.word	0x800030c1
    13a8:	800020c0 	.word	0x800020c0
    13ac:	80005042 	.word	0x80005042
    13b0:	800050c0 	.word	0x800050c0
/home/yin/imx-optee/imx-optee-os/lib/libutee/tee_api_operations.c:50
    13b4:	f44f 2800 	mov.w	r8, #524288	; 0x80000
/home/yin/imx-optee/imx-optee-os/lib/libutee/tee_api_operations.c:111
    13b8:	2601      	movs	r6, #1
/home/yin/imx-optee/imx-optee-os/lib/libutee/tee_api_operations.c:120
    13ba:	b2e3      	uxtb	r3, r4
/home/yin/imx-optee/imx-optee-os/lib/libutee/tee_api_operations.c:123
    13bc:	2b10      	cmp	r3, #16
    13be:	bf0c      	ite	eq
    13c0:	2310      	moveq	r3, #16
    13c2:	2308      	movne	r3, #8
/home/yin/imx-optee/imx-optee-os/lib/libutee/tee_api_operations.c:127
    13c4:	2f00      	cmp	r7, #0
    13c6:	d05d      	beq.n	1484 <TEE_AllocateOperation+0x45e>
/home/yin/imx-optee/imx-optee-os/lib/libutee/tee_api_operations.c:129
    13c8:	2f01      	cmp	r7, #1
    13ca:	f47f ae8b 	bne.w	10e4 <TEE_AllocateOperation+0xbe>
/home/yin/imx-optee/imx-optee-os/lib/libutee/tee_api_operations.c:43
    13ce:	f04f 0a00 	mov.w	sl, #0
/home/yin/imx-optee/imx-optee-os/lib/libutee/tee_api_operations.c:130
    13d2:	2204      	movs	r2, #4
    13d4:	e015      	b.n	1402 <TEE_AllocateOperation+0x3dc>
/home/yin/imx-optee/imx-optee-os/lib/libutee/tee_api_operations.c:108
    13d6:	f04f 0800 	mov.w	r8, #0
    13da:	e7ed      	b.n	13b8 <TEE_AllocateOperation+0x392>
/home/yin/imx-optee/imx-optee-os/lib/libutee/tee_api_operations.c:181
    13dc:	2f00      	cmp	r7, #0
    13de:	d05f      	beq.n	14a0 <TEE_AllocateOperation+0x47a>
/home/yin/imx-optee/imx-optee-os/lib/libutee/tee_api_operations.c:183
    13e0:	2f01      	cmp	r7, #1
    13e2:	f47f ae7f 	bne.w	10e4 <TEE_AllocateOperation+0xbe>
/home/yin/imx-optee/imx-optee-os/lib/libutee/tee_api_operations.c:44
    13e6:	2600      	movs	r6, #0
/home/yin/imx-optee/imx-optee-os/lib/libutee/tee_api_operations.c:184
    13e8:	f04f 0a01 	mov.w	sl, #1
/home/yin/imx-optee/imx-optee-os/lib/libutee/tee_api_operations.c:185
    13ec:	2214      	movs	r2, #20
    13ee:	e77d      	b.n	12ec <TEE_AllocateOperation+0x2c6>
/home/yin/imx-optee/imx-optee-os/lib/libutee/tee_api_operations.c:221
    13f0:	2f05      	cmp	r7, #5
    13f2:	f47f ae77 	bne.w	10e4 <TEE_AllocateOperation+0xbe>
/home/yin/imx-optee/imx-optee-os/lib/libutee/tee_api_operations.c:44
    13f6:	2600      	movs	r6, #0
/home/yin/imx-optee/imx-optee-os/lib/libutee/tee_api_operations.c:41
    13f8:	2301      	movs	r3, #1
/home/yin/imx-optee/imx-optee-os/lib/libutee/tee_api_operations.c:43
    13fa:	46b2      	mov	sl, r6
/home/yin/imx-optee/imx-optee-os/lib/libutee/tee_api_operations.c:225
    13fc:	4632      	mov	r2, r6
/home/yin/imx-optee/imx-optee-os/lib/libutee/tee_api_operations.c:224
    13fe:	f44f 2880 	mov.w	r8, #262144	; 0x40000
/home/yin/imx-optee/imx-optee-os/lib/libutee/tee_api_operations.c:250
    1402:	2100      	movs	r1, #0
    1404:	2044      	movs	r0, #68	; 0x44
    1406:	9205      	str	r2, [sp, #20]
    1408:	9304      	str	r3, [sp, #16]
    140a:	f7ff f952 	bl	6b2 <TEE_Malloc>
/home/yin/imx-optee/imx-optee-os/lib/libutee/tee_api_operations.c:251
    140e:	4605      	mov	r5, r0
    1410:	2800      	cmp	r0, #0
    1412:	f000 8099 	beq.w	1548 <TEE_AllocateOperation+0x522>
/home/yin/imx-optee/imx-optee-os/lib/libutee/tee_api_operations.c:261
    1416:	9b04      	ldr	r3, [sp, #16]
/home/yin/imx-optee/imx-optee-os/lib/libutee/tee_api_operations.c:255
    1418:	ea4f 7b14 	mov.w	fp, r4, lsr #28
/home/yin/imx-optee/imx-optee-os/lib/libutee/tee_api_operations.c:258
    141c:	9a05      	ldr	r2, [sp, #20]
/home/yin/imx-optee/imx-optee-os/lib/libutee/tee_api_operations.c:254
    141e:	6004      	str	r4, [r0, #0]
/home/yin/imx-optee/imx-optee-os/lib/libutee/tee_api_operations.c:261
    1420:	2b01      	cmp	r3, #1
/home/yin/imx-optee/imx-optee-os/lib/libutee/tee_api_operations.c:255
    1422:	f8c0 b004 	str.w	fp, [r0, #4]
/home/yin/imx-optee/imx-optee-os/lib/libutee/tee_api_operations.c:256
    1426:	6087      	str	r7, [r0, #8]
/home/yin/imx-optee/imx-optee-os/lib/libutee/tee_api_operations.c:257
    1428:	f8c0 9010 	str.w	r9, [r0, #16]
/home/yin/imx-optee/imx-optee-os/lib/libutee/tee_api_operations.c:258
    142c:	6182      	str	r2, [r0, #24]
/home/yin/imx-optee/imx-optee-os/lib/libutee/tee_api_operations.c:259
    142e:	f8c0 801c 	str.w	r8, [r0, #28]
/home/yin/imx-optee/imx-optee-os/lib/libutee/tee_api_operations.c:261
    1432:	d13a      	bne.n	14aa <TEE_AllocateOperation+0x484>
/home/yin/imx-optee/imx-optee-os/lib/libutee/tee_api_operations.c:277
    1434:	f1bb 0f05 	cmp.w	fp, #5
/home/yin/imx-optee/imx-optee-os/lib/libutee/tee_api_operations.c:274
    1438:	636b      	str	r3, [r5, #52]	; 0x34
/home/yin/imx-optee/imx-optee-os/lib/libutee/tee_api_operations.c:275
    143a:	f885 6030 	strb.w	r6, [r5, #48]	; 0x30
/home/yin/imx-optee/imx-optee-os/lib/libutee/tee_api_operations.c:277
    143e:	d143      	bne.n	14c8 <TEE_AllocateOperation+0x4a2>
/home/yin/imx-optee/imx-optee-os/lib/libutee/tee_api_operations.c:301
    1440:	f105 033c 	add.w	r3, r5, #60	; 0x3c
    1444:	4639      	mov	r1, r7
    1446:	9300      	str	r3, [sp, #0]
    1448:	4620      	mov	r0, r4
    144a:	6a2a      	ldr	r2, [r5, #32]
    144c:	6a6b      	ldr	r3, [r5, #36]	; 0x24
    144e:	f001 e9bc 	blx	27c8 <utee_cryp_state_alloc>
/home/yin/imx-optee/imx-optee-os/lib/libutee/tee_api_operations.c:303
    1452:	4602      	mov	r2, r0
    1454:	2800      	cmp	r0, #0
    1456:	d179      	bne.n	154c <TEE_AllocateOperation+0x526>
/home/yin/imx-optee/imx-optee-os/lib/libutee/tee_api_operations.c:311
    1458:	f1bb 0f05 	cmp.w	fp, #5
    145c:	d10a      	bne.n	1474 <TEE_AllocateOperation+0x44e>
/home/yin/imx-optee/imx-optee-os/lib/libutee/tee_api_operations.c:312
    145e:	4601      	mov	r1, r0
    1460:	6be8      	ldr	r0, [r5, #60]	; 0x3c
    1462:	f001 e9d2 	blx	2808 <utee_hash_init>
/home/yin/imx-optee/imx-optee-os/lib/libutee/tee_api_operations.c:313
    1466:	4606      	mov	r6, r0
    1468:	2800      	cmp	r0, #0
    146a:	d151      	bne.n	1510 <TEE_AllocateOperation+0x4ea>
/home/yin/imx-optee/imx-optee-os/lib/libutee/tee_api_operations.c:316
    146c:	69eb      	ldr	r3, [r5, #28]
    146e:	f443 3300 	orr.w	r3, r3, #131072	; 0x20000
    1472:	61eb      	str	r3, [r5, #28]
/home/yin/imx-optee/imx-optee-os/lib/libutee/tee_api_operations.c:321
    1474:	9b03      	ldr	r3, [sp, #12]
/home/yin/imx-optee/imx-optee-os/lib/libutee/tee_api_operations.c:319
    1476:	2600      	movs	r6, #0
    1478:	62ae      	str	r6, [r5, #40]	; 0x28
/home/yin/imx-optee/imx-optee-os/lib/libutee/tee_api_operations.c:321
    147a:	601d      	str	r5, [r3, #0]
/home/yin/imx-optee/imx-optee-os/lib/libutee/tee_api_operations.c:341
    147c:	4630      	mov	r0, r6
    147e:	b007      	add	sp, #28
    1480:	e8bd 8ff0 	ldmia.w	sp!, {r4, r5, r6, r7, r8, r9, sl, fp, pc}
/home/yin/imx-optee/imx-optee-os/lib/libutee/tee_api_operations.c:43
    1484:	46ba      	mov	sl, r7
/home/yin/imx-optee/imx-optee-os/lib/libutee/tee_api_operations.c:128
    1486:	2202      	movs	r2, #2
    1488:	e7bb      	b.n	1402 <TEE_AllocateOperation+0x3dc>
/home/yin/imx-optee/imx-optee-os/lib/libutee/tee_api_operations.c:44
    148a:	2600      	movs	r6, #0
/home/yin/imx-optee/imx-optee-os/lib/libutee/tee_api_operations.c:155
    148c:	f04f 0a01 	mov.w	sl, #1
/home/yin/imx-optee/imx-optee-os/lib/libutee/tee_api_operations.c:156
    1490:	2210      	movs	r2, #16
    1492:	e72b      	b.n	12ec <TEE_AllocateOperation+0x2c6>
    1494:	46b8      	mov	r8, r7
/home/yin/imx-optee/imx-optee-os/lib/libutee/tee_api_operations.c:44
    1496:	463e      	mov	r6, r7
/home/yin/imx-optee/imx-optee-os/lib/libutee/tee_api_operations.c:43
    1498:	46ba      	mov	sl, r7
/home/yin/imx-optee/imx-optee-os/lib/libutee/tee_api_operations.c:171
    149a:	2202      	movs	r2, #2
/home/yin/imx-optee/imx-optee-os/lib/libutee/tee_api_operations.c:41
    149c:	2301      	movs	r3, #1
    149e:	e7b0      	b.n	1402 <TEE_AllocateOperation+0x3dc>
    14a0:	46b8      	mov	r8, r7
/home/yin/imx-optee/imx-optee-os/lib/libutee/tee_api_operations.c:44
    14a2:	463e      	mov	r6, r7
/home/yin/imx-optee/imx-optee-os/lib/libutee/tee_api_operations.c:43
    14a4:	46ba      	mov	sl, r7
/home/yin/imx-optee/imx-optee-os/lib/libutee/tee_api_operations.c:182
    14a6:	2222      	movs	r2, #34	; 0x22
    14a8:	e7f8      	b.n	149c <TEE_AllocateOperation+0x476>
/home/yin/imx-optee/imx-optee-os/lib/libutee/tee_api_operations.c:264
    14aa:	b15e      	cbz	r6, 14c4 <TEE_AllocateOperation+0x49e>
/home/yin/imx-optee/imx-optee-os/lib/libutee/tee_api_operations.c:265
    14ac:	0058      	lsls	r0, r3, #1
/home/yin/imx-optee/imx-optee-os/lib/libutee/tee_api_operations.c:267
    14ae:	f04f 4100 	mov.w	r1, #2147483648	; 0x80000000
    14b2:	9304      	str	r3, [sp, #16]
    14b4:	f7ff f8fd 	bl	6b2 <TEE_Malloc>
/home/yin/imx-optee/imx-optee-os/lib/libutee/tee_api_operations.c:269
    14b8:	9b04      	ldr	r3, [sp, #16]
/home/yin/imx-optee/imx-optee-os/lib/libutee/tee_api_operations.c:267
    14ba:	62e8      	str	r0, [r5, #44]	; 0x2c
/home/yin/imx-optee/imx-optee-os/lib/libutee/tee_api_operations.c:269
    14bc:	2800      	cmp	r0, #0
    14be:	d1b9      	bne.n	1434 <TEE_AllocateOperation+0x40e>
/home/yin/imx-optee/imx-optee-os/lib/libutee/tee_api_operations.c:270
    14c0:	4e23      	ldr	r6, [pc, #140]	; (1550 <TEE_AllocateOperation+0x52a>)
    14c2:	e02e      	b.n	1522 <TEE_AllocateOperation+0x4fc>
    14c4:	4618      	mov	r0, r3
    14c6:	e7f2      	b.n	14ae <TEE_AllocateOperation+0x488>
/home/yin/imx-optee/imx-optee-os/lib/libutee/tee_api_operations.c:279
    14c8:	f1ba 0f00 	cmp.w	sl, #0
    14cc:	fa5f f884 	uxtb.w	r8, r4
    14d0:	bf14      	ite	ne
    14d2:	f04f 4321 	movne.w	r3, #2701131776	; 0xa1000000
    14d6:	f04f 4320 	moveq.w	r3, #2684354560	; 0xa0000000
    14da:	ea43 0808 	orr.w	r8, r3, r8
/home/yin/imx-optee/imx-optee-os/lib/libutee/tee_api_operations.c:286
    14de:	69eb      	ldr	r3, [r5, #28]
/home/yin/imx-optee/imx-optee-os/lib/libutee/tee_api_operations.c:289
    14e0:	4640      	mov	r0, r8
/home/yin/imx-optee/imx-optee-os/lib/libutee/tee_api_operations.c:286
    14e2:	031a      	lsls	r2, r3, #12
/home/yin/imx-optee/imx-optee-os/lib/libutee/tee_api_operations.c:289
    14e4:	f105 0220 	add.w	r2, r5, #32
/home/yin/imx-optee/imx-optee-os/lib/libutee/tee_api_operations.c:287
    14e8:	bf48      	it	mi
    14ea:	ea4f 0959 	movmi.w	r9, r9, lsr #1
/home/yin/imx-optee/imx-optee-os/lib/libutee/tee_api_operations.c:289
    14ee:	4649      	mov	r1, r9
    14f0:	f7ff f9fe 	bl	8f0 <TEE_AllocateTransientObject>
/home/yin/imx-optee/imx-optee-os/lib/libutee/tee_api_operations.c:290
    14f4:	4606      	mov	r6, r0
    14f6:	b958      	cbnz	r0, 1510 <TEE_AllocateOperation+0x4ea>
/home/yin/imx-optee/imx-optee-os/lib/libutee/tee_api_operations.c:293
    14f8:	69eb      	ldr	r3, [r5, #28]
    14fa:	031b      	lsls	r3, r3, #12
    14fc:	d5a0      	bpl.n	1440 <TEE_AllocateOperation+0x41a>
/home/yin/imx-optee/imx-optee-os/lib/libutee/tee_api_operations.c:294
    14fe:	f105 0224 	add.w	r2, r5, #36	; 0x24
    1502:	4649      	mov	r1, r9
    1504:	4640      	mov	r0, r8
    1506:	f7ff f9f3 	bl	8f0 <TEE_AllocateTransientObject>
/home/yin/imx-optee/imx-optee-os/lib/libutee/tee_api_operations.c:296
    150a:	4606      	mov	r6, r0
    150c:	2800      	cmp	r0, #0
    150e:	d097      	beq.n	1440 <TEE_AllocateOperation+0x41a>
/home/yin/imx-optee/imx-optee-os/lib/libutee/tee_api_operations.c:325
    1510:	4b0f      	ldr	r3, [pc, #60]	; (1550 <TEE_AllocateOperation+0x52a>)
    1512:	429e      	cmp	r6, r3
    1514:	d005      	beq.n	1522 <TEE_AllocateOperation+0x4fc>
/home/yin/imx-optee/imx-optee-os/lib/libutee/tee_api_operations.c:325 (discriminator 1)
    1516:	4b0f      	ldr	r3, [pc, #60]	; (1554 <TEE_AllocateOperation+0x52e>)
    1518:	429e      	cmp	r6, r3
    151a:	d002      	beq.n	1522 <TEE_AllocateOperation+0x4fc>
/home/yin/imx-optee/imx-optee-os/lib/libutee/tee_api_operations.c:327
    151c:	4630      	mov	r0, r6
    151e:	f003 fe7f 	bl	5220 <TEE_Panic>
/home/yin/imx-optee/imx-optee-os/lib/libutee/tee_api_operations.c:329
    1522:	6beb      	ldr	r3, [r5, #60]	; 0x3c
    1524:	b11b      	cbz	r3, 152e <TEE_AllocateOperation+0x508>
/home/yin/imx-optee/imx-optee-os/lib/libutee/tee_api_operations.c:330
    1526:	4628      	mov	r0, r5
    1528:	f7ff fd6a 	bl	1000 <TEE_FreeOperation>
    152c:	e7a6      	b.n	147c <TEE_AllocateOperation+0x456>
/home/yin/imx-optee/imx-optee-os/lib/libutee/tee_api_operations.c:332
    152e:	6ae8      	ldr	r0, [r5, #44]	; 0x2c
    1530:	f7ff f8e6 	bl	700 <TEE_Free>
/home/yin/imx-optee/imx-optee-os/lib/libutee/tee_api_operations.c:333
    1534:	6a28      	ldr	r0, [r5, #32]
    1536:	f7ff f9f3 	bl	920 <TEE_FreeTransientObject>
/home/yin/imx-optee/imx-optee-os/lib/libutee/tee_api_operations.c:334
    153a:	6a68      	ldr	r0, [r5, #36]	; 0x24
    153c:	f7ff f9f0 	bl	920 <TEE_FreeTransientObject>
/home/yin/imx-optee/imx-optee-os/lib/libutee/tee_api_operations.c:335
    1540:	4628      	mov	r0, r5
    1542:	f7ff f8dd 	bl	700 <TEE_Free>
    1546:	e799      	b.n	147c <TEE_AllocateOperation+0x456>
/home/yin/imx-optee/imx-optee-os/lib/libutee/tee_api_operations.c:252
    1548:	4e01      	ldr	r6, [pc, #4]	; (1550 <TEE_AllocateOperation+0x52a>)
    154a:	e797      	b.n	147c <TEE_AllocateOperation+0x456>
    154c:	4606      	mov	r6, r0
    154e:	e7df      	b.n	1510 <TEE_AllocateOperation+0x4ea>
    1550:	ffff000c 	.word	0xffff000c
    1554:	ffff000a 	.word	0xffff000a

00001558 <TEE_GetOperationInfo>:
TEE_GetOperationInfo():
/home/yin/imx-optee/imx-optee-os/lib/libutee/tee_api_operations.c:365
    1558:	b538      	push	{r3, r4, r5, lr}
    155a:	460c      	mov	r4, r1
/home/yin/imx-optee/imx-optee-os/lib/libutee/tee_api_operations.c:366
    155c:	4605      	mov	r5, r0
    155e:	b908      	cbnz	r0, 1564 <TEE_GetOperationInfo+0xc>
/home/yin/imx-optee/imx-optee-os/lib/libutee/tee_api_operations.c:367
    1560:	f003 fe5e 	bl	5220 <TEE_Panic>
/home/yin/imx-optee/imx-optee-os/lib/libutee/tee_api_operations.c:369
    1564:	b914      	cbnz	r4, 156c <TEE_GetOperationInfo+0x14>
/home/yin/imx-optee/imx-optee-os/lib/libutee/tee_api_operations.c:370
    1566:	4620      	mov	r0, r4
    1568:	f003 fe5a 	bl	5220 <TEE_Panic>
/home/yin/imx-optee/imx-optee-os/lib/libutee/tee_api_operations.c:372
    156c:	cd0f      	ldmia	r5!, {r0, r1, r2, r3}
    156e:	c40f      	stmia	r4!, {r0, r1, r2, r3}
    1570:	e895 000f 	ldmia.w	r5, {r0, r1, r2, r3}
    1574:	e884 000f 	stmia.w	r4, {r0, r1, r2, r3}
    1578:	bd38      	pop	{r3, r4, r5, pc}

0000157a <TEE_GetOperationInfoMultiple>:
TEE_GetOperationInfoMultiple():
/home/yin/imx-optee/imx-optee-os/lib/libutee/tee_api_operations.c:378
    157a:	b5f0      	push	{r4, r5, r6, r7, lr}
    157c:	460c      	mov	r4, r1
    157e:	b08f      	sub	sp, #60	; 0x3c
/home/yin/imx-optee/imx-optee-os/lib/libutee/tee_api_operations.c:385
    1580:	4605      	mov	r5, r0
    1582:	2800      	cmp	r0, #0
    1584:	d04b      	beq.n	161e <TEE_GetOperationInfoMultiple+0xa4>
/home/yin/imx-optee/imx-optee-os/lib/libutee/tee_api_operations.c:390
    1586:	2900      	cmp	r1, #0
    1588:	d049      	beq.n	161e <TEE_GetOperationInfoMultiple+0xa4>
/home/yin/imx-optee/imx-optee-os/lib/libutee/tee_api_operations.c:395
    158a:	2a00      	cmp	r2, #0
    158c:	d047      	beq.n	161e <TEE_GetOperationInfoMultiple+0xa4>
/home/yin/imx-optee/imx-optee-os/lib/libutee/tee_api_operations.c:400
    158e:	6817      	ldr	r7, [r2, #0]
    1590:	3f20      	subs	r7, #32
    1592:	08ff      	lsrs	r7, r7, #3
/home/yin/imx-optee/imx-optee-os/lib/libutee/tee_api_operations.c:403
    1594:	2f02      	cmp	r7, #2
    1596:	d842      	bhi.n	161e <TEE_GetOperationInfoMultiple+0xa4>
/home/yin/imx-optee/imx-optee-os/lib/libutee/tee_api_operations.c:409
    1598:	69c3      	ldr	r3, [r0, #28]
    159a:	031b      	lsls	r3, r3, #12
    159c:	d421      	bmi.n	15e2 <TEE_GetOperationInfoMultiple+0x68>
/home/yin/imx-optee/imx-optee-os/lib/libutee/tee_api_operations.c:417 (discriminator 1)
    159e:	b347      	cbz	r7, 15f2 <TEE_GetOperationInfoMultiple+0x78>
/home/yin/imx-optee/imx-optee-os/lib/libutee/tee_api_operations.c:417
    15a0:	2f02      	cmp	r7, #2
/home/yin/imx-optee/imx-optee-os/lib/libutee/tee_api_operations.c:418
    15a2:	f04f 0300 	mov.w	r3, #0
    15a6:	6223      	str	r3, [r4, #32]
/home/yin/imx-optee/imx-optee-os/lib/libutee/tee_api_operations.c:419
    15a8:	6263      	str	r3, [r4, #36]	; 0x24
/home/yin/imx-optee/imx-optee-os/lib/libutee/tee_api_operations.c:417
    15aa:	d120      	bne.n	15ee <TEE_GetOperationInfoMultiple+0x74>
/home/yin/imx-optee/imx-optee-os/lib/libutee/tee_api_operations.c:418
    15ac:	62a3      	str	r3, [r4, #40]	; 0x28
/home/yin/imx-optee/imx-optee-os/lib/libutee/tee_api_operations.c:423
    15ae:	a907      	add	r1, sp, #28
/home/yin/imx-optee/imx-optee-os/lib/libutee/tee_api_operations.c:419
    15b0:	62e3      	str	r3, [r4, #44]	; 0x2c
/home/yin/imx-optee/imx-optee-os/lib/libutee/tee_api_operations.c:423
    15b2:	6a68      	ldr	r0, [r5, #36]	; 0x24
    15b4:	f7ff f8e2 	bl	77c <TEE_GetObjectInfo1>
/home/yin/imx-optee/imx-optee-os/lib/libutee/tee_api_operations.c:425
    15b8:	4606      	mov	r6, r0
    15ba:	b970      	cbnz	r0, 15da <TEE_GetOperationInfoMultiple+0x60>
/home/yin/imx-optee/imx-optee-os/lib/libutee/tee_api_operations.c:428
    15bc:	9b08      	ldr	r3, [sp, #32]
    15be:	62a3      	str	r3, [r4, #40]	; 0x28
/home/yin/imx-optee/imx-optee-os/lib/libutee/tee_api_operations.c:430
    15c0:	69ab      	ldr	r3, [r5, #24]
    15c2:	62e3      	str	r3, [r4, #44]	; 0x2c
/home/yin/imx-optee/imx-optee-os/lib/libutee/tee_api_operations.c:435
    15c4:	4669      	mov	r1, sp
    15c6:	6a28      	ldr	r0, [r5, #32]
    15c8:	f7ff f8d8 	bl	77c <TEE_GetObjectInfo1>
/home/yin/imx-optee/imx-optee-os/lib/libutee/tee_api_operations.c:437
    15cc:	4606      	mov	r6, r0
    15ce:	b308      	cbz	r0, 1614 <TEE_GetOperationInfoMultiple+0x9a>
/home/yin/imx-optee/imx-optee-os/lib/libutee/tee_api_operations.c:438
    15d0:	2f02      	cmp	r7, #2
    15d2:	d102      	bne.n	15da <TEE_GetOperationInfoMultiple+0x60>
/home/yin/imx-optee/imx-optee-os/lib/libutee/tee_api_operations.c:440
    15d4:	2300      	movs	r3, #0
    15d6:	62a3      	str	r3, [r4, #40]	; 0x28
/home/yin/imx-optee/imx-optee-os/lib/libutee/tee_api_operations.c:442
    15d8:	62e3      	str	r3, [r4, #44]	; 0x2c
/home/yin/imx-optee/imx-optee-os/lib/libutee/tee_api_operations.c:464
    15da:	4b13      	ldr	r3, [pc, #76]	; (1628 <TEE_GetOperationInfoMultiple+0xae>)
    15dc:	429e      	cmp	r6, r3
    15de:	d002      	beq.n	15e6 <TEE_GetOperationInfoMultiple+0x6c>
    15e0:	e01e      	b.n	1620 <TEE_GetOperationInfoMultiple+0xa6>
/home/yin/imx-optee/imx-optee-os/lib/libutee/tee_api_operations.c:410
    15e2:	2f02      	cmp	r7, #2
    15e4:	d0dc      	beq.n	15a0 <TEE_GetOperationInfoMultiple+0x26>
/home/yin/imx-optee/imx-optee-os/lib/libutee/tee_api_operations.c:461
    15e6:	4e10      	ldr	r6, [pc, #64]	; (1628 <TEE_GetOperationInfoMultiple+0xae>)
/home/yin/imx-optee/imx-optee-os/lib/libutee/tee_api_operations.c:469
    15e8:	4630      	mov	r0, r6
    15ea:	b00f      	add	sp, #60	; 0x3c
    15ec:	bdf0      	pop	{r4, r5, r6, r7, pc}
/home/yin/imx-optee/imx-optee-os/lib/libutee/tee_api_operations.c:434
    15ee:	2f00      	cmp	r7, #0
    15f0:	d1e8      	bne.n	15c4 <TEE_GetOperationInfoMultiple+0x4a>
/home/yin/imx-optee/imx-optee-os/lib/libutee/tee_api_operations.c:454
    15f2:	682b      	ldr	r3, [r5, #0]
/home/yin/imx-optee/imx-optee-os/lib/libutee/tee_api_operations.c:461
    15f4:	2600      	movs	r6, #0
/home/yin/imx-optee/imx-optee-os/lib/libutee/tee_api_operations.c:454
    15f6:	6023      	str	r3, [r4, #0]
/home/yin/imx-optee/imx-optee-os/lib/libutee/tee_api_operations.c:455
    15f8:	686b      	ldr	r3, [r5, #4]
    15fa:	6063      	str	r3, [r4, #4]
/home/yin/imx-optee/imx-optee-os/lib/libutee/tee_api_operations.c:456
    15fc:	68ab      	ldr	r3, [r5, #8]
    15fe:	60a3      	str	r3, [r4, #8]
/home/yin/imx-optee/imx-optee-os/lib/libutee/tee_api_operations.c:457
    1600:	68eb      	ldr	r3, [r5, #12]
    1602:	60e3      	str	r3, [r4, #12]
/home/yin/imx-optee/imx-optee-os/lib/libutee/tee_api_operations.c:458
    1604:	692b      	ldr	r3, [r5, #16]
    1606:	6123      	str	r3, [r4, #16]
/home/yin/imx-optee/imx-optee-os/lib/libutee/tee_api_operations.c:459
    1608:	69eb      	ldr	r3, [r5, #28]
    160a:	6163      	str	r3, [r4, #20]
/home/yin/imx-optee/imx-optee-os/lib/libutee/tee_api_operations.c:460
    160c:	6aab      	ldr	r3, [r5, #40]	; 0x28
/home/yin/imx-optee/imx-optee-os/lib/libutee/tee_api_operations.c:461
    160e:	61e7      	str	r7, [r4, #28]
/home/yin/imx-optee/imx-optee-os/lib/libutee/tee_api_operations.c:460
    1610:	61a3      	str	r3, [r4, #24]
    1612:	e7e9      	b.n	15e8 <TEE_GetOperationInfoMultiple+0x6e>
/home/yin/imx-optee/imx-optee-os/lib/libutee/tee_api_operations.c:447
    1614:	9b01      	ldr	r3, [sp, #4]
    1616:	6223      	str	r3, [r4, #32]
/home/yin/imx-optee/imx-optee-os/lib/libutee/tee_api_operations.c:449
    1618:	69ab      	ldr	r3, [r5, #24]
    161a:	6263      	str	r3, [r4, #36]	; 0x24
    161c:	e7e9      	b.n	15f2 <TEE_GetOperationInfoMultiple+0x78>
    161e:	4e03      	ldr	r6, [pc, #12]	; (162c <TEE_GetOperationInfoMultiple+0xb2>)
/home/yin/imx-optee/imx-optee-os/lib/libutee/tee_api_operations.c:466
    1620:	4630      	mov	r0, r6
    1622:	f003 fdfd 	bl	5220 <TEE_Panic>
/home/yin/imx-optee/imx-optee-os/lib/libutee/tee_api_operations.c:468
    1626:	e7df      	b.n	15e8 <TEE_GetOperationInfoMultiple+0x6e>
    1628:	ffff0010 	.word	0xffff0010
    162c:	ffff0006 	.word	0xffff0006

00001630 <TEE_ResetOperation>:
TEE_ResetOperation():
/home/yin/imx-optee/imx-optee-os/lib/libutee/tee_api_operations.c:472
    1630:	b510      	push	{r4, lr}
/home/yin/imx-optee/imx-optee-os/lib/libutee/tee_api_operations.c:475
    1632:	4604      	mov	r4, r0
    1634:	b908      	cbnz	r0, 163a <TEE_ResetOperation+0xa>
/home/yin/imx-optee/imx-optee-os/lib/libutee/tee_api_operations.c:476
    1636:	f003 fdf3 	bl	5220 <TEE_Panic>
/home/yin/imx-optee/imx-optee-os/lib/libutee/tee_api_operations.c:478
    163a:	69e0      	ldr	r0, [r4, #28]
    163c:	f410 2080 	ands.w	r0, r0, #262144	; 0x40000
    1640:	d101      	bne.n	1646 <TEE_ResetOperation+0x16>
/home/yin/imx-optee/imx-optee-os/lib/libutee/tee_api_operations.c:479
    1642:	f003 fded 	bl	5220 <TEE_Panic>
/home/yin/imx-optee/imx-optee-os/lib/libutee/tee_api_operations.c:483
    1646:	6863      	ldr	r3, [r4, #4]
/home/yin/imx-optee/imx-optee-os/lib/libutee/tee_api_operations.c:481
    1648:	2200      	movs	r2, #0
    164a:	62a2      	str	r2, [r4, #40]	; 0x28
/home/yin/imx-optee/imx-optee-os/lib/libutee/tee_api_operations.c:483
    164c:	2b05      	cmp	r3, #5
    164e:	d10b      	bne.n	1668 <TEE_ResetOperation+0x38>
/home/yin/imx-optee/imx-optee-os/lib/libutee/tee_api_operations.c:484
    1650:	4611      	mov	r1, r2
    1652:	6be0      	ldr	r0, [r4, #60]	; 0x3c
    1654:	f001 e8d8 	blx	2808 <utee_hash_init>
/home/yin/imx-optee/imx-optee-os/lib/libutee/tee_api_operations.c:485
    1658:	b108      	cbz	r0, 165e <TEE_ResetOperation+0x2e>
/home/yin/imx-optee/imx-optee-os/lib/libutee/tee_api_operations.c:486
    165a:	f003 fde1 	bl	5220 <TEE_Panic>
/home/yin/imx-optee/imx-optee-os/lib/libutee/tee_api_operations.c:487
    165e:	69e3      	ldr	r3, [r4, #28]
    1660:	f443 3300 	orr.w	r3, r3, #131072	; 0x20000
/home/yin/imx-optee/imx-optee-os/lib/libutee/tee_api_operations.c:489
    1664:	61e3      	str	r3, [r4, #28]
    1666:	bd10      	pop	{r4, pc}
    1668:	69e3      	ldr	r3, [r4, #28]
    166a:	f423 3300 	bic.w	r3, r3, #131072	; 0x20000
    166e:	e7f9      	b.n	1664 <TEE_ResetOperation+0x34>

00001670 <TEE_SetOperationKey>:
TEE_SetOperationKey():
/home/yin/imx-optee/imx-optee-os/lib/libutee/tee_api_operations.c:495
    1670:	b5f0      	push	{r4, r5, r6, r7, lr}
    1672:	460e      	mov	r6, r1
    1674:	b089      	sub	sp, #36	; 0x24
/home/yin/imx-optee/imx-optee-os/lib/libutee/tee_api_operations.c:500
    1676:	4604      	mov	r4, r0
    1678:	b128      	cbz	r0, 1686 <TEE_SetOperationKey+0x16>
/home/yin/imx-optee/imx-optee-os/lib/libutee/tee_api_operations.c:505
    167a:	6a83      	ldr	r3, [r0, #40]	; 0x28
    167c:	b91b      	cbnz	r3, 1686 <TEE_SetOperationKey+0x16>
/home/yin/imx-optee/imx-optee-os/lib/libutee/tee_api_operations.c:510
    167e:	b921      	cbnz	r1, 168a <TEE_SetOperationKey+0x1a>
/home/yin/imx-optee/imx-optee-os/lib/libutee/tee_api_operations.c:512
    1680:	6a00      	ldr	r0, [r0, #32]
    1682:	f7ff f965 	bl	950 <TEE_ResetTransientObject>
/home/yin/imx-optee/imx-optee-os/lib/libutee/tee_api_operations.c:495
    1686:	4d1a      	ldr	r5, [pc, #104]	; (16f0 <TEE_SetOperationKey+0x80>)
    1688:	e02e      	b.n	16e8 <TEE_SetOperationKey+0x78>
/home/yin/imx-optee/imx-optee-os/lib/libutee/tee_api_operations.c:518
    168a:	6843      	ldr	r3, [r0, #4]
    168c:	2b05      	cmp	r3, #5
    168e:	d0fa      	beq.n	1686 <TEE_SetOperationKey+0x16>
/home/yin/imx-optee/imx-optee-os/lib/libutee/tee_api_operations.c:524
    1690:	69c3      	ldr	r3, [r0, #28]
    1692:	031b      	lsls	r3, r3, #12
    1694:	d4f7      	bmi.n	1686 <TEE_SetOperationKey+0x16>
/home/yin/imx-optee/imx-optee-os/lib/libutee/tee_api_operations.c:530
    1696:	a901      	add	r1, sp, #4
    1698:	4630      	mov	r0, r6
    169a:	f7ff f86f 	bl	77c <TEE_GetObjectInfo1>
/home/yin/imx-optee/imx-optee-os/lib/libutee/tee_api_operations.c:532
    169e:	4605      	mov	r5, r0
    16a0:	b9e0      	cbnz	r0, 16dc <TEE_SetOperationKey+0x6c>
/home/yin/imx-optee/imx-optee-os/lib/libutee/tee_api_operations.c:536
    16a2:	69a3      	ldr	r3, [r4, #24]
    16a4:	9a04      	ldr	r2, [sp, #16]
    16a6:	4393      	bics	r3, r2
    16a8:	d1ed      	bne.n	1686 <TEE_SetOperationKey+0x16>
/home/yin/imx-optee/imx-optee-os/lib/libutee/tee_api_operations.c:542
    16aa:	9f02      	ldr	r7, [sp, #8]
    16ac:	6923      	ldr	r3, [r4, #16]
    16ae:	42bb      	cmp	r3, r7
    16b0:	d3e9      	bcc.n	1686 <TEE_SetOperationKey+0x16>
/home/yin/imx-optee/imx-optee-os/lib/libutee/tee_api_operations.c:549
    16b2:	6a20      	ldr	r0, [r4, #32]
    16b4:	f7ff f94c 	bl	950 <TEE_ResetTransientObject>
/home/yin/imx-optee/imx-optee-os/lib/libutee/tee_api_operations.c:550
    16b8:	69e3      	ldr	r3, [r4, #28]
/home/yin/imx-optee/imx-optee-os/lib/libutee/tee_api_operations.c:552
    16ba:	4631      	mov	r1, r6
    16bc:	6a20      	ldr	r0, [r4, #32]
/home/yin/imx-optee/imx-optee-os/lib/libutee/tee_api_operations.c:550
    16be:	f423 2380 	bic.w	r3, r3, #262144	; 0x40000
    16c2:	61e3      	str	r3, [r4, #28]
/home/yin/imx-optee/imx-optee-os/lib/libutee/tee_api_operations.c:552
    16c4:	f7ff f9b6 	bl	a34 <TEE_CopyObjectAttributes1>
/home/yin/imx-optee/imx-optee-os/lib/libutee/tee_api_operations.c:553
    16c8:	4605      	mov	r5, r0
    16ca:	b938      	cbnz	r0, 16dc <TEE_SetOperationKey+0x6c>
/home/yin/imx-optee/imx-optee-os/lib/libutee/tee_api_operations.c:556
    16cc:	69e3      	ldr	r3, [r4, #28]
/home/yin/imx-optee/imx-optee-os/lib/libutee/tee_api_operations.c:558
    16ce:	6167      	str	r7, [r4, #20]
/home/yin/imx-optee/imx-optee-os/lib/libutee/tee_api_operations.c:556
    16d0:	f443 2380 	orr.w	r3, r3, #262144	; 0x40000
    16d4:	61e3      	str	r3, [r4, #28]
/home/yin/imx-optee/imx-optee-os/lib/libutee/tee_api_operations.c:567
    16d6:	4628      	mov	r0, r5
    16d8:	b009      	add	sp, #36	; 0x24
    16da:	bdf0      	pop	{r4, r5, r6, r7, pc}
/home/yin/imx-optee/imx-optee-os/lib/libutee/tee_api_operations.c:561
    16dc:	4b05      	ldr	r3, [pc, #20]	; (16f4 <TEE_SetOperationKey+0x84>)
    16de:	429d      	cmp	r5, r3
    16e0:	d0f9      	beq.n	16d6 <TEE_SetOperationKey+0x66>
/home/yin/imx-optee/imx-optee-os/lib/libutee/tee_api_operations.c:562
    16e2:	4b05      	ldr	r3, [pc, #20]	; (16f8 <TEE_SetOperationKey+0x88>)
    16e4:	429d      	cmp	r5, r3
    16e6:	d0f6      	beq.n	16d6 <TEE_SetOperationKey+0x66>
/home/yin/imx-optee/imx-optee-os/lib/libutee/tee_api_operations.c:564
    16e8:	4628      	mov	r0, r5
    16ea:	f003 fd99 	bl	5220 <TEE_Panic>
/home/yin/imx-optee/imx-optee-os/lib/libutee/tee_api_operations.c:566
    16ee:	e7f2      	b.n	16d6 <TEE_SetOperationKey+0x66>
    16f0:	ffff0006 	.word	0xffff0006
    16f4:	f0100001 	.word	0xf0100001
    16f8:	f0100003 	.word	0xf0100003

000016fc <TEE_SetOperationKey2>:
TEE_SetOperationKey2():
/home/yin/imx-optee/imx-optee-os/lib/libutee/tee_api_operations.c:571
    16fc:	e92d 41f0 	stmdb	sp!, {r4, r5, r6, r7, r8, lr}
    1700:	4688      	mov	r8, r1
    1702:	b08e      	sub	sp, #56	; 0x38
    1704:	4616      	mov	r6, r2
/home/yin/imx-optee/imx-optee-os/lib/libutee/tee_api_operations.c:577
    1706:	4604      	mov	r4, r0
    1708:	b130      	cbz	r0, 1718 <TEE_SetOperationKey2+0x1c>
/home/yin/imx-optee/imx-optee-os/lib/libutee/tee_api_operations.c:582
    170a:	6a83      	ldr	r3, [r0, #40]	; 0x28
    170c:	b923      	cbnz	r3, 1718 <TEE_SetOperationKey2+0x1c>
/home/yin/imx-optee/imx-optee-os/lib/libutee/tee_api_operations.c:591
    170e:	b129      	cbz	r1, 171c <TEE_SetOperationKey2+0x20>
/home/yin/imx-optee/imx-optee-os/lib/libutee/tee_api_operations.c:591 (discriminator 1)
    1710:	b952      	cbnz	r2, 1728 <TEE_SetOperationKey2+0x2c>
/home/yin/imx-optee/imx-optee-os/lib/libutee/tee_api_operations.c:597
    1712:	6a60      	ldr	r0, [r4, #36]	; 0x24
    1714:	f7ff f91c 	bl	950 <TEE_ResetTransientObject>
/home/yin/imx-optee/imx-optee-os/lib/libutee/tee_api_operations.c:571
    1718:	4d31      	ldr	r5, [pc, #196]	; (17e0 <TEE_SetOperationKey2+0xe4>)
    171a:	e05c      	b.n	17d6 <TEE_SetOperationKey2+0xda>
/home/yin/imx-optee/imx-optee-os/lib/libutee/tee_api_operations.c:594
    171c:	6a00      	ldr	r0, [r0, #32]
    171e:	f7ff f917 	bl	950 <TEE_ResetTransientObject>
/home/yin/imx-optee/imx-optee-os/lib/libutee/tee_api_operations.c:596
    1722:	2e00      	cmp	r6, #0
    1724:	d1f8      	bne.n	1718 <TEE_SetOperationKey2+0x1c>
    1726:	e7f4      	b.n	1712 <TEE_SetOperationKey2+0x16>
/home/yin/imx-optee/imx-optee-os/lib/libutee/tee_api_operations.c:603
    1728:	6843      	ldr	r3, [r0, #4]
    172a:	2b05      	cmp	r3, #5
    172c:	d0f4      	beq.n	1718 <TEE_SetOperationKey2+0x1c>
/home/yin/imx-optee/imx-optee-os/lib/libutee/tee_api_operations.c:609
    172e:	69c3      	ldr	r3, [r0, #28]
    1730:	031b      	lsls	r3, r3, #12
    1732:	d5f1      	bpl.n	1718 <TEE_SetOperationKey2+0x1c>
/home/yin/imx-optee/imx-optee-os/lib/libutee/tee_api_operations.c:615
    1734:	4669      	mov	r1, sp
    1736:	4640      	mov	r0, r8
    1738:	f7ff f820 	bl	77c <TEE_GetObjectInfo1>
/home/yin/imx-optee/imx-optee-os/lib/libutee/tee_api_operations.c:617
    173c:	4605      	mov	r5, r0
    173e:	2800      	cmp	r0, #0
    1740:	d13d      	bne.n	17be <TEE_SetOperationKey2+0xc2>
/home/yin/imx-optee/imx-optee-os/lib/libutee/tee_api_operations.c:621
    1742:	69a3      	ldr	r3, [r4, #24]
    1744:	9a03      	ldr	r2, [sp, #12]
    1746:	4393      	bics	r3, r2
    1748:	d1e6      	bne.n	1718 <TEE_SetOperationKey2+0x1c>
/home/yin/imx-optee/imx-optee-os/lib/libutee/tee_api_operations.c:627
    174a:	a907      	add	r1, sp, #28
    174c:	4630      	mov	r0, r6
    174e:	f7ff f815 	bl	77c <TEE_GetObjectInfo1>
/home/yin/imx-optee/imx-optee-os/lib/libutee/tee_api_operations.c:629
    1752:	4605      	mov	r5, r0
    1754:	b120      	cbz	r0, 1760 <TEE_SetOperationKey2+0x64>
/home/yin/imx-optee/imx-optee-os/lib/libutee/tee_api_operations.c:674
    1756:	4b23      	ldr	r3, [pc, #140]	; (17e4 <TEE_SetOperationKey2+0xe8>)
    1758:	429d      	cmp	r5, r3
    175a:	d133      	bne.n	17c4 <TEE_SetOperationKey2+0xc8>
/home/yin/imx-optee/imx-optee-os/lib/libutee/tee_api_operations.c:571
    175c:	4d22      	ldr	r5, [pc, #136]	; (17e8 <TEE_SetOperationKey2+0xec>)
    175e:	e02a      	b.n	17b6 <TEE_SetOperationKey2+0xba>
/home/yin/imx-optee/imx-optee-os/lib/libutee/tee_api_operations.c:636
    1760:	69a3      	ldr	r3, [r4, #24]
    1762:	9a0a      	ldr	r2, [sp, #40]	; 0x28
    1764:	4393      	bics	r3, r2
    1766:	d1d7      	bne.n	1718 <TEE_SetOperationKey2+0x1c>
/home/yin/imx-optee/imx-optee-os/lib/libutee/tee_api_operations.c:646
    1768:	6822      	ldr	r2, [r4, #0]
    176a:	4b20      	ldr	r3, [pc, #128]	; (17ec <TEE_SetOperationKey2+0xf0>)
    176c:	9f01      	ldr	r7, [sp, #4]
    176e:	429a      	cmp	r2, r3
    1770:	d102      	bne.n	1778 <TEE_SetOperationKey2+0x7c>
/home/yin/imx-optee/imx-optee-os/lib/libutee/tee_api_operations.c:646 (discriminator 1)
    1772:	9b08      	ldr	r3, [sp, #32]
    1774:	429f      	cmp	r7, r3
    1776:	d1cf      	bne.n	1718 <TEE_SetOperationKey2+0x1c>
/home/yin/imx-optee/imx-optee-os/lib/libutee/tee_api_operations.c:653
    1778:	6923      	ldr	r3, [r4, #16]
    177a:	42bb      	cmp	r3, r7
    177c:	d3cc      	bcc.n	1718 <TEE_SetOperationKey2+0x1c>
/home/yin/imx-optee/imx-optee-os/lib/libutee/tee_api_operations.c:664
    177e:	6a20      	ldr	r0, [r4, #32]
    1780:	f7ff f8e6 	bl	950 <TEE_ResetTransientObject>
/home/yin/imx-optee/imx-optee-os/lib/libutee/tee_api_operations.c:665
    1784:	6a60      	ldr	r0, [r4, #36]	; 0x24
    1786:	f7ff f8e3 	bl	950 <TEE_ResetTransientObject>
/home/yin/imx-optee/imx-optee-os/lib/libutee/tee_api_operations.c:666
    178a:	69e3      	ldr	r3, [r4, #28]
/home/yin/imx-optee/imx-optee-os/lib/libutee/tee_api_operations.c:668
    178c:	4641      	mov	r1, r8
    178e:	6a20      	ldr	r0, [r4, #32]
/home/yin/imx-optee/imx-optee-os/lib/libutee/tee_api_operations.c:666
    1790:	f423 2380 	bic.w	r3, r3, #262144	; 0x40000
    1794:	61e3      	str	r3, [r4, #28]
/home/yin/imx-optee/imx-optee-os/lib/libutee/tee_api_operations.c:668
    1796:	f7ff f94d 	bl	a34 <TEE_CopyObjectAttributes1>
/home/yin/imx-optee/imx-optee-os/lib/libutee/tee_api_operations.c:669
    179a:	4605      	mov	r5, r0
    179c:	b978      	cbnz	r0, 17be <TEE_SetOperationKey2+0xc2>
/home/yin/imx-optee/imx-optee-os/lib/libutee/tee_api_operations.c:672
    179e:	4631      	mov	r1, r6
    17a0:	6a60      	ldr	r0, [r4, #36]	; 0x24
    17a2:	f7ff f947 	bl	a34 <TEE_CopyObjectAttributes1>
/home/yin/imx-optee/imx-optee-os/lib/libutee/tee_api_operations.c:673
    17a6:	4605      	mov	r5, r0
    17a8:	2800      	cmp	r0, #0
    17aa:	d1d4      	bne.n	1756 <TEE_SetOperationKey2+0x5a>
/home/yin/imx-optee/imx-optee-os/lib/libutee/tee_api_operations.c:679
    17ac:	69e3      	ldr	r3, [r4, #28]
/home/yin/imx-optee/imx-optee-os/lib/libutee/tee_api_operations.c:681
    17ae:	6167      	str	r7, [r4, #20]
/home/yin/imx-optee/imx-optee-os/lib/libutee/tee_api_operations.c:679
    17b0:	f443 2380 	orr.w	r3, r3, #262144	; 0x40000
    17b4:	61e3      	str	r3, [r4, #28]
/home/yin/imx-optee/imx-optee-os/lib/libutee/tee_api_operations.c:692
    17b6:	4628      	mov	r0, r5
    17b8:	b00e      	add	sp, #56	; 0x38
    17ba:	e8bd 81f0 	ldmia.w	sp!, {r4, r5, r6, r7, r8, pc}
/home/yin/imx-optee/imx-optee-os/lib/libutee/tee_api_operations.c:684
    17be:	4b09      	ldr	r3, [pc, #36]	; (17e4 <TEE_SetOperationKey2+0xe8>)
    17c0:	429d      	cmp	r5, r3
    17c2:	d0f8      	beq.n	17b6 <TEE_SetOperationKey2+0xba>
/home/yin/imx-optee/imx-optee-os/lib/libutee/tee_api_operations.c:685
    17c4:	4b08      	ldr	r3, [pc, #32]	; (17e8 <TEE_SetOperationKey2+0xec>)
    17c6:	429d      	cmp	r5, r3
    17c8:	d0c8      	beq.n	175c <TEE_SetOperationKey2+0x60>
/home/yin/imx-optee/imx-optee-os/lib/libutee/tee_api_operations.c:686
    17ca:	3301      	adds	r3, #1
    17cc:	429d      	cmp	r5, r3
    17ce:	d0f2      	beq.n	17b6 <TEE_SetOperationKey2+0xba>
/home/yin/imx-optee/imx-optee-os/lib/libutee/tee_api_operations.c:687
    17d0:	3301      	adds	r3, #1
    17d2:	429d      	cmp	r5, r3
    17d4:	d0ef      	beq.n	17b6 <TEE_SetOperationKey2+0xba>
/home/yin/imx-optee/imx-optee-os/lib/libutee/tee_api_operations.c:689
    17d6:	4628      	mov	r0, r5
    17d8:	f003 fd22 	bl	5220 <TEE_Panic>
/home/yin/imx-optee/imx-optee-os/lib/libutee/tee_api_operations.c:691
    17dc:	e7eb      	b.n	17b6 <TEE_SetOperationKey2+0xba>
    17de:	bf00      	nop
    17e0:	ffff0006 	.word	0xffff0006
    17e4:	f0100001 	.word	0xf0100001
    17e8:	f0100002 	.word	0xf0100002
    17ec:	10000410 	.word	0x10000410

000017f0 <TEE_CopyOperation>:
TEE_CopyOperation():
/home/yin/imx-optee/imx-optee-os/lib/libutee/tee_api_operations.c:695
    17f0:	b538      	push	{r3, r4, r5, lr}
    17f2:	460c      	mov	r4, r1
/home/yin/imx-optee/imx-optee-os/lib/libutee/tee_api_operations.c:698
    17f4:	4605      	mov	r5, r0
    17f6:	b100      	cbz	r0, 17fa <TEE_CopyOperation+0xa>
/home/yin/imx-optee/imx-optee-os/lib/libutee/tee_api_operations.c:698 (discriminator 1)
    17f8:	b911      	cbnz	r1, 1800 <TEE_CopyOperation+0x10>
/home/yin/imx-optee/imx-optee-os/lib/libutee/tee_api_operations.c:699
    17fa:	2000      	movs	r0, #0
    17fc:	f003 fd10 	bl	5220 <TEE_Panic>
/home/yin/imx-optee/imx-optee-os/lib/libutee/tee_api_operations.c:700
    1800:	682a      	ldr	r2, [r5, #0]
    1802:	6823      	ldr	r3, [r4, #0]
    1804:	429a      	cmp	r2, r3
    1806:	d002      	beq.n	180e <TEE_CopyOperation+0x1e>
/home/yin/imx-optee/imx-optee-os/lib/libutee/tee_api_operations.c:701
    1808:	2000      	movs	r0, #0
    180a:	f003 fd09 	bl	5220 <TEE_Panic>
/home/yin/imx-optee/imx-optee-os/lib/libutee/tee_api_operations.c:702
    180e:	6863      	ldr	r3, [r4, #4]
    1810:	2b05      	cmp	r3, #5
    1812:	d00b      	beq.n	182c <TEE_CopyOperation+0x3c>
/home/yin/imx-optee/imx-optee-os/lib/libutee/tee_api_operations.c:706
    1814:	69e3      	ldr	r3, [r4, #28]
/home/yin/imx-optee/imx-optee-os/lib/libutee/tee_api_operations.c:713
    1816:	4628      	mov	r0, r5
/home/yin/imx-optee/imx-optee-os/lib/libutee/tee_api_operations.c:706
    1818:	f413 2280 	ands.w	r2, r3, #262144	; 0x40000
/home/yin/imx-optee/imx-optee-os/lib/libutee/tee_api_operations.c:707
    181c:	bf16      	itet	ne
    181e:	6a21      	ldrne	r1, [r4, #32]
/home/yin/imx-optee/imx-optee-os/lib/libutee/tee_api_operations.c:703
    1820:	4611      	moveq	r1, r2
/home/yin/imx-optee/imx-optee-os/lib/libutee/tee_api_operations.c:708
    1822:	6a62      	ldrne	r2, [r4, #36]	; 0x24
/home/yin/imx-optee/imx-optee-os/lib/libutee/tee_api_operations.c:711
    1824:	031b      	lsls	r3, r3, #12
    1826:	d42b      	bmi.n	1880 <TEE_CopyOperation+0x90>
/home/yin/imx-optee/imx-optee-os/lib/libutee/tee_api_operations.c:713
    1828:	f7ff ff22 	bl	1670 <TEE_SetOperationKey>
/home/yin/imx-optee/imx-optee-os/lib/libutee/tee_api_operations.c:718
    182c:	69e3      	ldr	r3, [r4, #28]
/home/yin/imx-optee/imx-optee-os/lib/libutee/tee_api_operations.c:722
    182e:	f895 2030 	ldrb.w	r2, [r5, #48]	; 0x30
/home/yin/imx-optee/imx-optee-os/lib/libutee/tee_api_operations.c:718
    1832:	61eb      	str	r3, [r5, #28]
/home/yin/imx-optee/imx-optee-os/lib/libutee/tee_api_operations.c:719
    1834:	6963      	ldr	r3, [r4, #20]
    1836:	616b      	str	r3, [r5, #20]
/home/yin/imx-optee/imx-optee-os/lib/libutee/tee_api_operations.c:720
    1838:	6aa3      	ldr	r3, [r4, #40]	; 0x28
    183a:	62ab      	str	r3, [r5, #40]	; 0x28
/home/yin/imx-optee/imx-optee-os/lib/libutee/tee_api_operations.c:722
    183c:	f894 3030 	ldrb.w	r3, [r4, #48]	; 0x30
    1840:	429a      	cmp	r2, r3
    1842:	d103      	bne.n	184c <TEE_CopyOperation+0x5c>
/home/yin/imx-optee/imx-optee-os/lib/libutee/tee_api_operations.c:722 (discriminator 1)
    1844:	6b6a      	ldr	r2, [r5, #52]	; 0x34
    1846:	6b63      	ldr	r3, [r4, #52]	; 0x34
    1848:	429a      	cmp	r2, r3
    184a:	d002      	beq.n	1852 <TEE_CopyOperation+0x62>
/home/yin/imx-optee/imx-optee-os/lib/libutee/tee_api_operations.c:724
    184c:	2000      	movs	r0, #0
    184e:	f003 fce7 	bl	5220 <TEE_Panic>
/home/yin/imx-optee/imx-optee-os/lib/libutee/tee_api_operations.c:726
    1852:	6ae8      	ldr	r0, [r5, #44]	; 0x2c
    1854:	6ae3      	ldr	r3, [r4, #44]	; 0x2c
    1856:	b1b0      	cbz	r0, 1886 <TEE_CopyOperation+0x96>
/home/yin/imx-optee/imx-optee-os/lib/libutee/tee_api_operations.c:727
    1858:	b913      	cbnz	r3, 1860 <TEE_CopyOperation+0x70>
/home/yin/imx-optee/imx-optee-os/lib/libutee/tee_api_operations.c:728
    185a:	4618      	mov	r0, r3
    185c:	f003 fce0 	bl	5220 <TEE_Panic>
/home/yin/imx-optee/imx-optee-os/lib/libutee/tee_api_operations.c:730
    1860:	6ba2      	ldr	r2, [r4, #56]	; 0x38
    1862:	6ae1      	ldr	r1, [r4, #44]	; 0x2c
    1864:	6ae8      	ldr	r0, [r5, #44]	; 0x2c
    1866:	f003 fd02 	bl	526e <memcpy>
/home/yin/imx-optee/imx-optee-os/lib/libutee/tee_api_operations.c:731
    186a:	6ba3      	ldr	r3, [r4, #56]	; 0x38
    186c:	63ab      	str	r3, [r5, #56]	; 0x38
/home/yin/imx-optee/imx-optee-os/lib/libutee/tee_api_operations.c:736
    186e:	6be1      	ldr	r1, [r4, #60]	; 0x3c
    1870:	6be8      	ldr	r0, [r5, #60]	; 0x3c
    1872:	f000 efb6 	blx	27e0 <utee_cryp_state_copy>
/home/yin/imx-optee/imx-optee-os/lib/libutee/tee_api_operations.c:737
    1876:	b158      	cbz	r0, 1890 <TEE_CopyOperation+0xa0>
/home/yin/imx-optee/imx-optee-os/lib/libutee/tee_api_operations.c:739
    1878:	e8bd 4038 	ldmia.w	sp!, {r3, r4, r5, lr}
/home/yin/imx-optee/imx-optee-os/lib/libutee/tee_api_operations.c:738
    187c:	f003 bcd0 	b.w	5220 <TEE_Panic>
/home/yin/imx-optee/imx-optee-os/lib/libutee/tee_api_operations.c:715
    1880:	f7ff ff3c 	bl	16fc <TEE_SetOperationKey2>
    1884:	e7d2      	b.n	182c <TEE_CopyOperation+0x3c>
/home/yin/imx-optee/imx-optee-os/lib/libutee/tee_api_operations.c:732
    1886:	2b00      	cmp	r3, #0
    1888:	d0f1      	beq.n	186e <TEE_CopyOperation+0x7e>
/home/yin/imx-optee/imx-optee-os/lib/libutee/tee_api_operations.c:733
    188a:	f003 fcc9 	bl	5220 <TEE_Panic>
    188e:	e7ee      	b.n	186e <TEE_CopyOperation+0x7e>
    1890:	bd38      	pop	{r3, r4, r5, pc}

00001892 <TEE_DigestUpdate>:
TEE_DigestUpdate():
/home/yin/imx-optee/imx-optee-os/lib/libutee/tee_api_operations.c:761
    1892:	b570      	push	{r4, r5, r6, lr}
    1894:	460d      	mov	r5, r1
    1896:	4616      	mov	r6, r2
/home/yin/imx-optee/imx-optee-os/lib/libutee/tee_api_operations.c:764
    1898:	4604      	mov	r4, r0
    189a:	b110      	cbz	r0, 18a2 <TEE_DigestUpdate+0x10>
/home/yin/imx-optee/imx-optee-os/lib/libutee/tee_api_operations.c:764 (discriminator 1)
    189c:	6843      	ldr	r3, [r0, #4]
    189e:	2b05      	cmp	r3, #5
    18a0:	d002      	beq.n	18a8 <TEE_DigestUpdate+0x16>
/home/yin/imx-optee/imx-optee-os/lib/libutee/tee_api_operations.c:766
    18a2:	2000      	movs	r0, #0
    18a4:	f003 fcbc 	bl	5220 <TEE_Panic>
/home/yin/imx-optee/imx-optee-os/lib/libutee/tee_api_operations.c:768
    18a8:	2301      	movs	r3, #1
/home/yin/imx-optee/imx-optee-os/lib/libutee/tee_api_operations.c:770
    18aa:	4632      	mov	r2, r6
/home/yin/imx-optee/imx-optee-os/lib/libutee/tee_api_operations.c:768
    18ac:	62a3      	str	r3, [r4, #40]	; 0x28
/home/yin/imx-optee/imx-optee-os/lib/libutee/tee_api_operations.c:770
    18ae:	4629      	mov	r1, r5
    18b0:	6be0      	ldr	r0, [r4, #60]	; 0x3c
    18b2:	f000 efb4 	blx	281c <utee_hash_update>
/home/yin/imx-optee/imx-optee-os/lib/libutee/tee_api_operations.c:771
    18b6:	b118      	cbz	r0, 18c0 <TEE_DigestUpdate+0x2e>
/home/yin/imx-optee/imx-optee-os/lib/libutee/tee_api_operations.c:773
    18b8:	e8bd 4070 	ldmia.w	sp!, {r4, r5, r6, lr}
/home/yin/imx-optee/imx-optee-os/lib/libutee/tee_api_operations.c:772
    18bc:	f003 bcb0 	b.w	5220 <TEE_Panic>
    18c0:	bd70      	pop	{r4, r5, r6, pc}

000018c2 <TEE_DigestDoFinal>:
TEE_DigestDoFinal():
/home/yin/imx-optee/imx-optee-os/lib/libutee/tee_api_operations.c:777
    18c2:	b530      	push	{r4, r5, lr}
    18c4:	b085      	sub	sp, #20
    18c6:	9c08      	ldr	r4, [sp, #32]
/home/yin/imx-optee/imx-optee-os/lib/libutee/tee_api_operations.c:781
    18c8:	4605      	mov	r5, r0
    18ca:	b328      	cbz	r0, 1918 <TEE_DigestDoFinal+0x56>
/home/yin/imx-optee/imx-optee-os/lib/libutee/tee_api_operations.c:781 (discriminator 1)
    18cc:	b901      	cbnz	r1, 18d0 <TEE_DigestDoFinal+0xe>
/home/yin/imx-optee/imx-optee-os/lib/libutee/tee_api_operations.c:782
    18ce:	bb1a      	cbnz	r2, 1918 <TEE_DigestDoFinal+0x56>
/home/yin/imx-optee/imx-optee-os/lib/libutee/tee_api_operations.c:782 (discriminator 1)
    18d0:	b313      	cbz	r3, 1918 <TEE_DigestDoFinal+0x56>
/home/yin/imx-optee/imx-optee-os/lib/libutee/tee_api_operations.c:783
    18d2:	b30c      	cbz	r4, 1918 <TEE_DigestDoFinal+0x56>
/home/yin/imx-optee/imx-optee-os/lib/libutee/tee_api_operations.c:784
    18d4:	6868      	ldr	r0, [r5, #4]
    18d6:	2805      	cmp	r0, #5
    18d8:	d11e      	bne.n	1918 <TEE_DigestDoFinal+0x56>
/home/yin/imx-optee/imx-optee-os/lib/libutee/tee_api_operations.c:790
    18da:	6820      	ldr	r0, [r4, #0]
    18dc:	9002      	str	r0, [sp, #8]
    18de:	2000      	movs	r0, #0
    18e0:	9003      	str	r0, [sp, #12]
/home/yin/imx-optee/imx-optee-os/lib/libutee/tee_api_operations.c:791
    18e2:	a802      	add	r0, sp, #8
    18e4:	9000      	str	r0, [sp, #0]
    18e6:	6be8      	ldr	r0, [r5, #60]	; 0x3c
    18e8:	f000 efa2 	blx	2830 <utee_hash_final>
/home/yin/imx-optee/imx-optee-os/lib/libutee/tee_api_operations.c:792
    18ec:	9b02      	ldr	r3, [sp, #8]
    18ee:	6023      	str	r3, [r4, #0]
/home/yin/imx-optee/imx-optee-os/lib/libutee/tee_api_operations.c:793
    18f0:	4604      	mov	r4, r0
    18f2:	b9b0      	cbnz	r0, 1922 <TEE_DigestDoFinal+0x60>
init_hash_operation():
/home/yin/imx-optee/imx-optee-os/lib/libutee/tee_api_operations.c:752
    18f4:	4602      	mov	r2, r0
    18f6:	4601      	mov	r1, r0
    18f8:	6be8      	ldr	r0, [r5, #60]	; 0x3c
    18fa:	f000 ef86 	blx	2808 <utee_hash_init>
/home/yin/imx-optee/imx-optee-os/lib/libutee/tee_api_operations.c:753
    18fe:	b108      	cbz	r0, 1904 <TEE_DigestDoFinal+0x42>
/home/yin/imx-optee/imx-optee-os/lib/libutee/tee_api_operations.c:754
    1900:	f003 fc8e 	bl	5220 <TEE_Panic>
/home/yin/imx-optee/imx-optee-os/lib/libutee/tee_api_operations.c:756
    1904:	69eb      	ldr	r3, [r5, #28]
/home/yin/imx-optee/imx-optee-os/lib/libutee/tee_api_operations.c:755
    1906:	2200      	movs	r2, #0
    1908:	63aa      	str	r2, [r5, #56]	; 0x38
TEE_DigestDoFinal():
/home/yin/imx-optee/imx-optee-os/lib/libutee/tee_api_operations.c:799
    190a:	62aa      	str	r2, [r5, #40]	; 0x28
init_hash_operation():
/home/yin/imx-optee/imx-optee-os/lib/libutee/tee_api_operations.c:756
    190c:	f443 3300 	orr.w	r3, r3, #131072	; 0x20000
    1910:	61eb      	str	r3, [r5, #28]
TEE_DigestDoFinal():
/home/yin/imx-optee/imx-optee-os/lib/libutee/tee_api_operations.c:807
    1912:	4620      	mov	r0, r4
    1914:	b005      	add	sp, #20
    1916:	bd30      	pop	{r4, r5, pc}
    1918:	4c04      	ldr	r4, [pc, #16]	; (192c <TEE_DigestDoFinal+0x6a>)
/home/yin/imx-optee/imx-optee-os/lib/libutee/tee_api_operations.c:804
    191a:	4620      	mov	r0, r4
    191c:	f003 fc80 	bl	5220 <TEE_Panic>
/home/yin/imx-optee/imx-optee-os/lib/libutee/tee_api_operations.c:806
    1920:	e7f7      	b.n	1912 <TEE_DigestDoFinal+0x50>
/home/yin/imx-optee/imx-optee-os/lib/libutee/tee_api_operations.c:802
    1922:	4b03      	ldr	r3, [pc, #12]	; (1930 <TEE_DigestDoFinal+0x6e>)
    1924:	4298      	cmp	r0, r3
    1926:	d0f4      	beq.n	1912 <TEE_DigestDoFinal+0x50>
    1928:	e7f7      	b.n	191a <TEE_DigestDoFinal+0x58>
    192a:	bf00      	nop
    192c:	ffff0006 	.word	0xffff0006
    1930:	ffff0010 	.word	0xffff0010

00001934 <TEE_CipherInit>:
TEE_CipherInit():
/home/yin/imx-optee/imx-optee-os/lib/libutee/tee_api_operations.c:813
    1934:	b570      	push	{r4, r5, r6, lr}
    1936:	460d      	mov	r5, r1
    1938:	4616      	mov	r6, r2
/home/yin/imx-optee/imx-optee-os/lib/libutee/tee_api_operations.c:816
    193a:	4604      	mov	r4, r0
    193c:	b908      	cbnz	r0, 1942 <TEE_CipherInit+0xe>
/home/yin/imx-optee/imx-optee-os/lib/libutee/tee_api_operations.c:817
    193e:	f003 fc6f 	bl	5220 <TEE_Panic>
/home/yin/imx-optee/imx-optee-os/lib/libutee/tee_api_operations.c:819
    1942:	6863      	ldr	r3, [r4, #4]
    1944:	2b01      	cmp	r3, #1
    1946:	d002      	beq.n	194e <TEE_CipherInit+0x1a>
/home/yin/imx-optee/imx-optee-os/lib/libutee/tee_api_operations.c:820
    1948:	2000      	movs	r0, #0
    194a:	f003 fc69 	bl	5220 <TEE_Panic>
/home/yin/imx-optee/imx-optee-os/lib/libutee/tee_api_operations.c:822
    194e:	69e3      	ldr	r3, [r4, #28]
    1950:	035b      	lsls	r3, r3, #13
    1952:	d501      	bpl.n	1958 <TEE_CipherInit+0x24>
/home/yin/imx-optee/imx-optee-os/lib/libutee/tee_api_operations.c:822 (discriminator 1)
    1954:	6a23      	ldr	r3, [r4, #32]
    1956:	b913      	cbnz	r3, 195e <TEE_CipherInit+0x2a>
/home/yin/imx-optee/imx-optee-os/lib/libutee/tee_api_operations.c:824
    1958:	2000      	movs	r0, #0
    195a:	f003 fc61 	bl	5220 <TEE_Panic>
/home/yin/imx-optee/imx-optee-os/lib/libutee/tee_api_operations.c:826
    195e:	6aa3      	ldr	r3, [r4, #40]	; 0x28
    1960:	b113      	cbz	r3, 1968 <TEE_CipherInit+0x34>
/home/yin/imx-optee/imx-optee-os/lib/libutee/tee_api_operations.c:827
    1962:	4620      	mov	r0, r4
    1964:	f7ff fe64 	bl	1630 <TEE_ResetOperation>
/home/yin/imx-optee/imx-optee-os/lib/libutee/tee_api_operations.c:829
    1968:	2301      	movs	r3, #1
/home/yin/imx-optee/imx-optee-os/lib/libutee/tee_api_operations.c:831
    196a:	4632      	mov	r2, r6
/home/yin/imx-optee/imx-optee-os/lib/libutee/tee_api_operations.c:829
    196c:	62a3      	str	r3, [r4, #40]	; 0x28
/home/yin/imx-optee/imx-optee-os/lib/libutee/tee_api_operations.c:831
    196e:	4629      	mov	r1, r5
    1970:	6be0      	ldr	r0, [r4, #60]	; 0x3c
    1972:	f000 ef6a 	blx	2848 <utee_cipher_init>
/home/yin/imx-optee/imx-optee-os/lib/libutee/tee_api_operations.c:832
    1976:	b108      	cbz	r0, 197c <TEE_CipherInit+0x48>
/home/yin/imx-optee/imx-optee-os/lib/libutee/tee_api_operations.c:833
    1978:	f003 fc52 	bl	5220 <TEE_Panic>
/home/yin/imx-optee/imx-optee-os/lib/libutee/tee_api_operations.c:835
    197c:	2300      	movs	r3, #0
    197e:	63a3      	str	r3, [r4, #56]	; 0x38
/home/yin/imx-optee/imx-optee-os/lib/libutee/tee_api_operations.c:836
    1980:	69e3      	ldr	r3, [r4, #28]
    1982:	f443 3300 	orr.w	r3, r3, #131072	; 0x20000
    1986:	61e3      	str	r3, [r4, #28]
    1988:	bd70      	pop	{r4, r5, r6, pc}

0000198a <TEE_CipherUpdate>:
TEE_CipherUpdate():
/home/yin/imx-optee/imx-optee-os/lib/libutee/tee_api_operations.c:939
    198a:	e92d 47f0 	stmdb	sp!, {r4, r5, r6, r7, r8, r9, sl, lr}
    198e:	b086      	sub	sp, #24
    1990:	f8df a0e8 	ldr.w	sl, [pc, #232]	; 1a7c <TEE_CipherUpdate+0xf2>
    1994:	4688      	mov	r8, r1
    1996:	4614      	mov	r4, r2
    1998:	4699      	mov	r9, r3
    199a:	9e0e      	ldr	r6, [sp, #56]	; 0x38
/home/yin/imx-optee/imx-optee-os/lib/libutee/tee_api_operations.c:944
    199c:	4605      	mov	r5, r0
/home/yin/imx-optee/imx-optee-os/lib/libutee/tee_api_operations.c:939
    199e:	44fa      	add	sl, pc
/home/yin/imx-optee/imx-optee-os/lib/libutee/tee_api_operations.c:944
    19a0:	2800      	cmp	r0, #0
    19a2:	d064      	beq.n	1a6e <TEE_CipherUpdate+0xe4>
/home/yin/imx-optee/imx-optee-os/lib/libutee/tee_api_operations.c:944 (discriminator 1)
    19a4:	b909      	cbnz	r1, 19aa <TEE_CipherUpdate+0x20>
/home/yin/imx-optee/imx-optee-os/lib/libutee/tee_api_operations.c:945
    19a6:	2a00      	cmp	r2, #0
    19a8:	d161      	bne.n	1a6e <TEE_CipherUpdate+0xe4>
/home/yin/imx-optee/imx-optee-os/lib/libutee/tee_api_operations.c:945 (discriminator 1)
    19aa:	2e00      	cmp	r6, #0
    19ac:	d05f      	beq.n	1a6e <TEE_CipherUpdate+0xe4>
/home/yin/imx-optee/imx-optee-os/lib/libutee/tee_api_operations.c:946
    19ae:	f1b9 0f00 	cmp.w	r9, #0
    19b2:	d102      	bne.n	19ba <TEE_CipherUpdate+0x30>
/home/yin/imx-optee/imx-optee-os/lib/libutee/tee_api_operations.c:947
    19b4:	6833      	ldr	r3, [r6, #0]
    19b6:	2b00      	cmp	r3, #0
    19b8:	d159      	bne.n	1a6e <TEE_CipherUpdate+0xe4>
/home/yin/imx-optee/imx-optee-os/lib/libutee/tee_api_operations.c:952
    19ba:	686b      	ldr	r3, [r5, #4]
    19bc:	2b01      	cmp	r3, #1
    19be:	d156      	bne.n	1a6e <TEE_CipherUpdate+0xe4>
/home/yin/imx-optee/imx-optee-os/lib/libutee/tee_api_operations.c:957
    19c0:	69eb      	ldr	r3, [r5, #28]
    19c2:	039b      	lsls	r3, r3, #14
    19c4:	d553      	bpl.n	1a6e <TEE_CipherUpdate+0xe4>
/home/yin/imx-optee/imx-optee-os/lib/libutee/tee_api_operations.c:962
    19c6:	6aab      	ldr	r3, [r5, #40]	; 0x28
    19c8:	2b01      	cmp	r3, #1
    19ca:	d150      	bne.n	1a6e <TEE_CipherUpdate+0xe4>
/home/yin/imx-optee/imx-optee-os/lib/libutee/tee_api_operations.c:967
    19cc:	f1b8 0f00 	cmp.w	r8, #0
    19d0:	d105      	bne.n	19de <TEE_CipherUpdate+0x54>
/home/yin/imx-optee/imx-optee-os/lib/libutee/tee_api_operations.c:967 (discriminator 1)
    19d2:	b924      	cbnz	r4, 19de <TEE_CipherUpdate+0x54>
/home/yin/imx-optee/imx-optee-os/lib/libutee/tee_api_operations.c:968
    19d4:	6034      	str	r4, [r6, #0]
/home/yin/imx-optee/imx-optee-os/lib/libutee/tee_api_operations.c:1018
    19d6:	4620      	mov	r0, r4
    19d8:	b006      	add	sp, #24
    19da:	e8bd 87f0 	ldmia.w	sp!, {r4, r5, r6, r7, r8, r9, sl, pc}
/home/yin/imx-optee/imx-optee-os/lib/libutee/tee_api_operations.c:974
    19de:	6b6f      	ldr	r7, [r5, #52]	; 0x34
    19e0:	2f01      	cmp	r7, #1
    19e2:	d913      	bls.n	1a0c <TEE_CipherUpdate+0x82>
/home/yin/imx-optee/imx-optee-os/lib/libutee/tee_api_operations.c:975
    19e4:	6ba8      	ldr	r0, [r5, #56]	; 0x38
    19e6:	4639      	mov	r1, r7
    19e8:	4420      	add	r0, r4
    19ea:	f003 fc9a 	bl	5322 <__aeabi_uidiv>
    19ee:	4378      	muls	r0, r7
/home/yin/imx-optee/imx-optee-os/lib/libutee/tee_api_operations.c:980
    19f0:	f895 3030 	ldrb.w	r3, [r5, #48]	; 0x30
    19f4:	b123      	cbz	r3, 1a00 <TEE_CipherUpdate+0x76>
/home/yin/imx-optee/imx-optee-os/lib/libutee/tee_api_operations.c:981
    19f6:	007b      	lsls	r3, r7, #1
    19f8:	4298      	cmp	r0, r3
/home/yin/imx-optee/imx-optee-os/lib/libutee/tee_api_operations.c:982
    19fa:	bf8c      	ite	hi
    19fc:	1ac0      	subhi	r0, r0, r3
/home/yin/imx-optee/imx-optee-os/lib/libutee/tee_api_operations.c:984
    19fe:	2000      	movls	r0, #0
/home/yin/imx-optee/imx-optee-os/lib/libutee/tee_api_operations.c:991
    1a00:	6833      	ldr	r3, [r6, #0]
    1a02:	4298      	cmp	r0, r3
    1a04:	d904      	bls.n	1a10 <TEE_CipherUpdate+0x86>
/home/yin/imx-optee/imx-optee-os/lib/libutee/tee_api_operations.c:992
    1a06:	6030      	str	r0, [r6, #0]
    1a08:	4c1a      	ldr	r4, [pc, #104]	; (1a74 <TEE_CipherUpdate+0xea>)
    1a0a:	e7e4      	b.n	19d6 <TEE_CipherUpdate+0x4c>
    1a0c:	4620      	mov	r0, r4
    1a0e:	e7ef      	b.n	19f0 <TEE_CipherUpdate+0x66>
/home/yin/imx-optee/imx-optee-os/lib/libutee/tee_api_operations.c:998
    1a10:	2f01      	cmp	r7, #1
/home/yin/imx-optee/imx-optee-os/lib/libutee/tee_api_operations.c:997
    1a12:	9304      	str	r3, [sp, #16]
    1a14:	f04f 0300 	mov.w	r3, #0
    1a18:	9305      	str	r3, [sp, #20]
/home/yin/imx-optee/imx-optee-os/lib/libutee/tee_api_operations.c:998
    1a1a:	d919      	bls.n	1a50 <TEE_CipherUpdate+0xc6>
/home/yin/imx-optee/imx-optee-os/lib/libutee/tee_api_operations.c:999
    1a1c:	4b18      	ldr	r3, [pc, #96]	; (1a80 <TEE_CipherUpdate+0xf6>)
    1a1e:	4642      	mov	r2, r8
    1a20:	4628      	mov	r0, r5
    1a22:	f85a 3003 	ldr.w	r3, [sl, r3]
    1a26:	f8cd 9000 	str.w	r9, [sp]
    1a2a:	9303      	str	r3, [sp, #12]
    1a2c:	ab04      	add	r3, sp, #16
    1a2e:	9301      	str	r3, [sp, #4]
    1a30:	4623      	mov	r3, r4
    1a32:	9903      	ldr	r1, [sp, #12]
    1a34:	f7ff fa36 	bl	ea4 <tee_buffer_update>
/home/yin/imx-optee/imx-optee-os/lib/libutee/tee_api_operations.c:1003
    1a38:	4604      	mov	r4, r0
/home/yin/imx-optee/imx-optee-os/lib/libutee/tee_api_operations.c:1010
    1a3a:	9b04      	ldr	r3, [sp, #16]
    1a3c:	6033      	str	r3, [r6, #0]
/home/yin/imx-optee/imx-optee-os/lib/libutee/tee_api_operations.c:1013
    1a3e:	2c00      	cmp	r4, #0
    1a40:	d0c9      	beq.n	19d6 <TEE_CipherUpdate+0x4c>
/home/yin/imx-optee/imx-optee-os/lib/libutee/tee_api_operations.c:1013 (discriminator 1)
    1a42:	4b0c      	ldr	r3, [pc, #48]	; (1a74 <TEE_CipherUpdate+0xea>)
    1a44:	429c      	cmp	r4, r3
    1a46:	d0c6      	beq.n	19d6 <TEE_CipherUpdate+0x4c>
/home/yin/imx-optee/imx-optee-os/lib/libutee/tee_api_operations.c:1015
    1a48:	4620      	mov	r0, r4
    1a4a:	f003 fbe9 	bl	5220 <TEE_Panic>
/home/yin/imx-optee/imx-optee-os/lib/libutee/tee_api_operations.c:1017
    1a4e:	e7c2      	b.n	19d6 <TEE_CipherUpdate+0x4c>
/home/yin/imx-optee/imx-optee-os/lib/libutee/tee_api_operations.c:1002
    1a50:	b144      	cbz	r4, 1a64 <TEE_CipherUpdate+0xda>
/home/yin/imx-optee/imx-optee-os/lib/libutee/tee_api_operations.c:1003
    1a52:	ab04      	add	r3, sp, #16
    1a54:	4622      	mov	r2, r4
    1a56:	9300      	str	r3, [sp, #0]
    1a58:	4641      	mov	r1, r8
    1a5a:	464b      	mov	r3, r9
    1a5c:	6be8      	ldr	r0, [r5, #60]	; 0x3c
    1a5e:	f000 eefe 	blx	285c <utee_cipher_update>
    1a62:	e7e9      	b.n	1a38 <TEE_CipherUpdate+0xae>
/home/yin/imx-optee/imx-optee-os/lib/libutee/tee_api_operations.c:1007
    1a64:	2200      	movs	r2, #0
    1a66:	2300      	movs	r3, #0
    1a68:	e9cd 2304 	strd	r2, r3, [sp, #16]
    1a6c:	e7e5      	b.n	1a3a <TEE_CipherUpdate+0xb0>
    1a6e:	4c02      	ldr	r4, [pc, #8]	; (1a78 <TEE_CipherUpdate+0xee>)
    1a70:	e7ea      	b.n	1a48 <TEE_CipherUpdate+0xbe>
    1a72:	bf00      	nop
    1a74:	ffff0010 	.word	0xffff0010
    1a78:	ffff0006 	.word	0xffff0006
    1a7c:	000074b6 	.word	0x000074b6
    1a80:	00000024 	.word	0x00000024

00001a84 <TEE_CipherDoFinal>:
TEE_CipherDoFinal():
/home/yin/imx-optee/imx-optee-os/lib/libutee/tee_api_operations.c:1023
    1a84:	e92d 4ff0 	stmdb	sp!, {r4, r5, r6, r7, r8, r9, sl, fp, lr}
    1a88:	b087      	sub	sp, #28
    1a8a:	f8df b104 	ldr.w	fp, [pc, #260]	; 1b90 <TEE_CipherDoFinal+0x10c>
    1a8e:	468a      	mov	sl, r1
    1a90:	4614      	mov	r4, r2
    1a92:	4698      	mov	r8, r3
    1a94:	9f10      	ldr	r7, [sp, #64]	; 0x40
/home/yin/imx-optee/imx-optee-os/lib/libutee/tee_api_operations.c:1030
    1a96:	4605      	mov	r5, r0
/home/yin/imx-optee/imx-optee-os/lib/libutee/tee_api_operations.c:1023
    1a98:	44fb      	add	fp, pc
/home/yin/imx-optee/imx-optee-os/lib/libutee/tee_api_operations.c:1030
    1a9a:	2800      	cmp	r0, #0
    1a9c:	d069      	beq.n	1b72 <TEE_CipherDoFinal+0xee>
/home/yin/imx-optee/imx-optee-os/lib/libutee/tee_api_operations.c:1030 (discriminator 1)
    1a9e:	b909      	cbnz	r1, 1aa4 <TEE_CipherDoFinal+0x20>
/home/yin/imx-optee/imx-optee-os/lib/libutee/tee_api_operations.c:1031
    1aa0:	2a00      	cmp	r2, #0
    1aa2:	d166      	bne.n	1b72 <TEE_CipherDoFinal+0xee>
/home/yin/imx-optee/imx-optee-os/lib/libutee/tee_api_operations.c:1031 (discriminator 1)
    1aa4:	2f00      	cmp	r7, #0
    1aa6:	d064      	beq.n	1b72 <TEE_CipherDoFinal+0xee>
/home/yin/imx-optee/imx-optee-os/lib/libutee/tee_api_operations.c:1032
    1aa8:	f1b8 0f00 	cmp.w	r8, #0
    1aac:	d102      	bne.n	1ab4 <TEE_CipherDoFinal+0x30>
/home/yin/imx-optee/imx-optee-os/lib/libutee/tee_api_operations.c:1033
    1aae:	683b      	ldr	r3, [r7, #0]
    1ab0:	2b00      	cmp	r3, #0
    1ab2:	d15e      	bne.n	1b72 <TEE_CipherDoFinal+0xee>
/home/yin/imx-optee/imx-optee-os/lib/libutee/tee_api_operations.c:1038
    1ab4:	686b      	ldr	r3, [r5, #4]
    1ab6:	2b01      	cmp	r3, #1
    1ab8:	d15b      	bne.n	1b72 <TEE_CipherDoFinal+0xee>
/home/yin/imx-optee/imx-optee-os/lib/libutee/tee_api_operations.c:1043
    1aba:	69eb      	ldr	r3, [r5, #28]
    1abc:	039b      	lsls	r3, r3, #14
    1abe:	d558      	bpl.n	1b72 <TEE_CipherDoFinal+0xee>
/home/yin/imx-optee/imx-optee-os/lib/libutee/tee_api_operations.c:1048
    1ac0:	6aab      	ldr	r3, [r5, #40]	; 0x28
    1ac2:	2b01      	cmp	r3, #1
    1ac4:	d155      	bne.n	1b72 <TEE_CipherDoFinal+0xee>
/home/yin/imx-optee/imx-optee-os/lib/libutee/tee_api_operations.c:1057
    1ac6:	682b      	ldr	r3, [r5, #0]
    1ac8:	f423 7380 	bic.w	r3, r3, #256	; 0x100
    1acc:	f103 4270 	add.w	r2, r3, #4026531840	; 0xf0000000
    1ad0:	3a10      	subs	r2, #16
    1ad2:	2a01      	cmp	r2, #1
    1ad4:	d902      	bls.n	1adc <TEE_CipherDoFinal+0x58>
/home/yin/imx-optee/imx-optee-os/lib/libutee/tee_api_operations.c:1060 (discriminator 1)
    1ad6:	4a2b      	ldr	r2, [pc, #172]	; (1b84 <TEE_CipherDoFinal+0x100>)
    1ad8:	4293      	cmp	r3, r2
    1ada:	d106      	bne.n	1aea <TEE_CipherDoFinal+0x66>
/home/yin/imx-optee/imx-optee-os/lib/libutee/tee_api_operations.c:1063
    1adc:	6ba8      	ldr	r0, [r5, #56]	; 0x38
    1ade:	6b69      	ldr	r1, [r5, #52]	; 0x34
    1ae0:	4420      	add	r0, r4
    1ae2:	f003 fc3e 	bl	5362 <__aeabi_uidivmod>
    1ae6:	2900      	cmp	r1, #0
    1ae8:	d143      	bne.n	1b72 <TEE_CipherDoFinal+0xee>
/home/yin/imx-optee/imx-optee-os/lib/libutee/tee_api_operations.c:1075
    1aea:	6b6a      	ldr	r2, [r5, #52]	; 0x34
/home/yin/imx-optee/imx-optee-os/lib/libutee/tee_api_operations.c:1080
    1aec:	6839      	ldr	r1, [r7, #0]
/home/yin/imx-optee/imx-optee-os/lib/libutee/tee_api_operations.c:1075
    1aee:	2a01      	cmp	r2, #1
/home/yin/imx-optee/imx-optee-os/lib/libutee/tee_api_operations.c:1076
    1af0:	bf8a      	itet	hi
    1af2:	6bab      	ldrhi	r3, [r5, #56]	; 0x38
    1af4:	4623      	movls	r3, r4
    1af6:	191b      	addhi	r3, r3, r4
/home/yin/imx-optee/imx-optee-os/lib/libutee/tee_api_operations.c:1080
    1af8:	428b      	cmp	r3, r1
    1afa:	d905      	bls.n	1b08 <TEE_CipherDoFinal+0x84>
/home/yin/imx-optee/imx-optee-os/lib/libutee/tee_api_operations.c:1081
    1afc:	4c22      	ldr	r4, [pc, #136]	; (1b88 <TEE_CipherDoFinal+0x104>)
    1afe:	603b      	str	r3, [r7, #0]
/home/yin/imx-optee/imx-optee-os/lib/libutee/tee_api_operations.c:1119
    1b00:	4620      	mov	r0, r4
    1b02:	b007      	add	sp, #28
    1b04:	e8bd 8ff0 	ldmia.w	sp!, {r4, r5, r6, r7, r8, r9, sl, fp, pc}
/home/yin/imx-optee/imx-optee-os/lib/libutee/tee_api_operations.c:1087
    1b08:	2a01      	cmp	r2, #1
/home/yin/imx-optee/imx-optee-os/lib/libutee/tee_api_operations.c:1086
    1b0a:	f04f 0600 	mov.w	r6, #0
    1b0e:	9104      	str	r1, [sp, #16]
    1b10:	f10d 0910 	add.w	r9, sp, #16
    1b14:	9605      	str	r6, [sp, #20]
/home/yin/imx-optee/imx-optee-os/lib/libutee/tee_api_operations.c:1087
    1b16:	d926      	bls.n	1b66 <TEE_CipherDoFinal+0xe2>
/home/yin/imx-optee/imx-optee-os/lib/libutee/tee_api_operations.c:1088
    1b18:	4b1e      	ldr	r3, [pc, #120]	; (1b94 <TEE_CipherDoFinal+0x110>)
    1b1a:	4652      	mov	r2, sl
    1b1c:	4628      	mov	r0, r5
    1b1e:	f85b 3003 	ldr.w	r3, [fp, r3]
    1b22:	e88d 0300 	stmia.w	sp, {r8, r9}
    1b26:	9303      	str	r3, [sp, #12]
    1b28:	4623      	mov	r3, r4
    1b2a:	9903      	ldr	r1, [sp, #12]
    1b2c:	f7ff f9ba 	bl	ea4 <tee_buffer_update>
/home/yin/imx-optee/imx-optee-os/lib/libutee/tee_api_operations.c:1090
    1b30:	4604      	mov	r4, r0
    1b32:	bb18      	cbnz	r0, 1b7c <TEE_CipherDoFinal+0xf8>
/home/yin/imx-optee/imx-optee-os/lib/libutee/tee_api_operations.c:1093
    1b34:	9e04      	ldr	r6, [sp, #16]
/home/yin/imx-optee/imx-optee-os/lib/libutee/tee_api_operations.c:1096
    1b36:	683b      	ldr	r3, [r7, #0]
/home/yin/imx-optee/imx-optee-os/lib/libutee/tee_api_operations.c:1097
    1b38:	f8cd 9000 	str.w	r9, [sp]
    1b3c:	6baa      	ldr	r2, [r5, #56]	; 0x38
    1b3e:	6ae9      	ldr	r1, [r5, #44]	; 0x2c
/home/yin/imx-optee/imx-optee-os/lib/libutee/tee_api_operations.c:1096
    1b40:	1b9b      	subs	r3, r3, r6
    1b42:	9304      	str	r3, [sp, #16]
/home/yin/imx-optee/imx-optee-os/lib/libutee/tee_api_operations.c:1097
    1b44:	eb08 0306 	add.w	r3, r8, r6
/home/yin/imx-optee/imx-optee-os/lib/libutee/tee_api_operations.c:1096
    1b48:	9005      	str	r0, [sp, #20]
/home/yin/imx-optee/imx-optee-os/lib/libutee/tee_api_operations.c:1100
    1b4a:	6be8      	ldr	r0, [r5, #60]	; 0x3c
    1b4c:	f000 ee92 	blx	2874 <utee_cipher_final>
    1b50:	4604      	mov	r4, r0
/home/yin/imx-optee/imx-optee-os/lib/libutee/tee_api_operations.c:1103
    1b52:	b998      	cbnz	r0, 1b7c <TEE_CipherDoFinal+0xf8>
/home/yin/imx-optee/imx-optee-os/lib/libutee/tee_api_operations.c:1106
    1b54:	9b04      	ldr	r3, [sp, #16]
    1b56:	441e      	add	r6, r3
/home/yin/imx-optee/imx-optee-os/lib/libutee/tee_api_operations.c:1107
    1b58:	603e      	str	r6, [r7, #0]
/home/yin/imx-optee/imx-optee-os/lib/libutee/tee_api_operations.c:1109
    1b5a:	69eb      	ldr	r3, [r5, #28]
/home/yin/imx-optee/imx-optee-os/lib/libutee/tee_api_operations.c:1111
    1b5c:	62a8      	str	r0, [r5, #40]	; 0x28
/home/yin/imx-optee/imx-optee-os/lib/libutee/tee_api_operations.c:1109
    1b5e:	f423 3300 	bic.w	r3, r3, #131072	; 0x20000
    1b62:	61eb      	str	r3, [r5, #28]
    1b64:	e7cc      	b.n	1b00 <TEE_CipherDoFinal+0x7c>
/home/yin/imx-optee/imx-optee-os/lib/libutee/tee_api_operations.c:1100
    1b66:	f8cd 9000 	str.w	r9, [sp]
    1b6a:	4643      	mov	r3, r8
    1b6c:	4622      	mov	r2, r4
    1b6e:	4651      	mov	r1, sl
    1b70:	e7eb      	b.n	1b4a <TEE_CipherDoFinal+0xc6>
    1b72:	4c06      	ldr	r4, [pc, #24]	; (1b8c <TEE_CipherDoFinal+0x108>)
/home/yin/imx-optee/imx-optee-os/lib/libutee/tee_api_operations.c:1116
    1b74:	4620      	mov	r0, r4
    1b76:	f003 fb53 	bl	5220 <TEE_Panic>
/home/yin/imx-optee/imx-optee-os/lib/libutee/tee_api_operations.c:1118
    1b7a:	e7c1      	b.n	1b00 <TEE_CipherDoFinal+0x7c>
/home/yin/imx-optee/imx-optee-os/lib/libutee/tee_api_operations.c:1114
    1b7c:	4b02      	ldr	r3, [pc, #8]	; (1b88 <TEE_CipherDoFinal+0x104>)
    1b7e:	429c      	cmp	r4, r3
    1b80:	d0be      	beq.n	1b00 <TEE_CipherDoFinal+0x7c>
    1b82:	e7f7      	b.n	1b74 <TEE_CipherDoFinal+0xf0>
    1b84:	10000013 	.word	0x10000013
    1b88:	ffff0010 	.word	0xffff0010
    1b8c:	ffff0006 	.word	0xffff0006
    1b90:	000073bc 	.word	0x000073bc
    1b94:	00000024 	.word	0x00000024

00001b98 <TEE_MACInit>:
TEE_MACInit():
/home/yin/imx-optee/imx-optee-os/lib/libutee/tee_api_operations.c:1124
    1b98:	b570      	push	{r4, r5, r6, lr}
    1b9a:	460d      	mov	r5, r1
    1b9c:	4616      	mov	r6, r2
/home/yin/imx-optee/imx-optee-os/lib/libutee/tee_api_operations.c:1125
    1b9e:	4604      	mov	r4, r0
    1ba0:	b908      	cbnz	r0, 1ba6 <TEE_MACInit+0xe>
/home/yin/imx-optee/imx-optee-os/lib/libutee/tee_api_operations.c:1126
    1ba2:	f003 fb3d 	bl	5220 <TEE_Panic>
/home/yin/imx-optee/imx-optee-os/lib/libutee/tee_api_operations.c:1128
    1ba6:	6863      	ldr	r3, [r4, #4]
    1ba8:	2b03      	cmp	r3, #3
    1baa:	d002      	beq.n	1bb2 <TEE_MACInit+0x1a>
/home/yin/imx-optee/imx-optee-os/lib/libutee/tee_api_operations.c:1129
    1bac:	2000      	movs	r0, #0
    1bae:	f003 fb37 	bl	5220 <TEE_Panic>
/home/yin/imx-optee/imx-optee-os/lib/libutee/tee_api_operations.c:1131
    1bb2:	69e3      	ldr	r3, [r4, #28]
    1bb4:	035b      	lsls	r3, r3, #13
    1bb6:	d501      	bpl.n	1bbc <TEE_MACInit+0x24>
/home/yin/imx-optee/imx-optee-os/lib/libutee/tee_api_operations.c:1131 (discriminator 1)
    1bb8:	6a23      	ldr	r3, [r4, #32]
    1bba:	b913      	cbnz	r3, 1bc2 <TEE_MACInit+0x2a>
/home/yin/imx-optee/imx-optee-os/lib/libutee/tee_api_operations.c:1133
    1bbc:	2000      	movs	r0, #0
    1bbe:	f003 fb2f 	bl	5220 <TEE_Panic>
/home/yin/imx-optee/imx-optee-os/lib/libutee/tee_api_operations.c:1135
    1bc2:	6aa3      	ldr	r3, [r4, #40]	; 0x28
    1bc4:	b113      	cbz	r3, 1bcc <TEE_MACInit+0x34>
/home/yin/imx-optee/imx-optee-os/lib/libutee/tee_api_operations.c:1136
    1bc6:	4620      	mov	r0, r4
    1bc8:	f7ff fd32 	bl	1630 <TEE_ResetOperation>
/home/yin/imx-optee/imx-optee-os/lib/libutee/tee_api_operations.c:1138
    1bcc:	2301      	movs	r3, #1
init_hash_operation():
/home/yin/imx-optee/imx-optee-os/lib/libutee/tee_api_operations.c:752
    1bce:	4632      	mov	r2, r6
TEE_MACInit():
/home/yin/imx-optee/imx-optee-os/lib/libutee/tee_api_operations.c:1138
    1bd0:	62a3      	str	r3, [r4, #40]	; 0x28
init_hash_operation():
/home/yin/imx-optee/imx-optee-os/lib/libutee/tee_api_operations.c:752
    1bd2:	4629      	mov	r1, r5
    1bd4:	6be0      	ldr	r0, [r4, #60]	; 0x3c
    1bd6:	f000 ee18 	blx	2808 <utee_hash_init>
/home/yin/imx-optee/imx-optee-os/lib/libutee/tee_api_operations.c:753
    1bda:	b108      	cbz	r0, 1be0 <TEE_MACInit+0x48>
/home/yin/imx-optee/imx-optee-os/lib/libutee/tee_api_operations.c:754
    1bdc:	f003 fb20 	bl	5220 <TEE_Panic>
/home/yin/imx-optee/imx-optee-os/lib/libutee/tee_api_operations.c:755
    1be0:	2300      	movs	r3, #0
    1be2:	63a3      	str	r3, [r4, #56]	; 0x38
/home/yin/imx-optee/imx-optee-os/lib/libutee/tee_api_operations.c:756
    1be4:	69e3      	ldr	r3, [r4, #28]
    1be6:	f443 3300 	orr.w	r3, r3, #131072	; 0x20000
    1bea:	61e3      	str	r3, [r4, #28]
    1bec:	bd70      	pop	{r4, r5, r6, pc}

00001bee <TEE_MACUpdate>:
TEE_MACUpdate():
/home/yin/imx-optee/imx-optee-os/lib/libutee/tee_api_operations.c:1145
    1bee:	b570      	push	{r4, r5, r6, lr}
    1bf0:	460d      	mov	r5, r1
    1bf2:	4616      	mov	r6, r2
/home/yin/imx-optee/imx-optee-os/lib/libutee/tee_api_operations.c:1148
    1bf4:	4604      	mov	r4, r0
    1bf6:	b108      	cbz	r0, 1bfc <TEE_MACUpdate+0xe>
/home/yin/imx-optee/imx-optee-os/lib/libutee/tee_api_operations.c:1148 (discriminator 1)
    1bf8:	b919      	cbnz	r1, 1c02 <TEE_MACUpdate+0x14>
/home/yin/imx-optee/imx-optee-os/lib/libutee/tee_api_operations.c:1148 (discriminator 2)
    1bfa:	b112      	cbz	r2, 1c02 <TEE_MACUpdate+0x14>
/home/yin/imx-optee/imx-optee-os/lib/libutee/tee_api_operations.c:1149
    1bfc:	2000      	movs	r0, #0
    1bfe:	f003 fb0f 	bl	5220 <TEE_Panic>
/home/yin/imx-optee/imx-optee-os/lib/libutee/tee_api_operations.c:1151
    1c02:	6863      	ldr	r3, [r4, #4]
    1c04:	2b03      	cmp	r3, #3
    1c06:	d002      	beq.n	1c0e <TEE_MACUpdate+0x20>
/home/yin/imx-optee/imx-optee-os/lib/libutee/tee_api_operations.c:1152
    1c08:	2000      	movs	r0, #0
    1c0a:	f003 fb09 	bl	5220 <TEE_Panic>
/home/yin/imx-optee/imx-optee-os/lib/libutee/tee_api_operations.c:1154
    1c0e:	69e0      	ldr	r0, [r4, #28]
    1c10:	f410 3000 	ands.w	r0, r0, #131072	; 0x20000
    1c14:	d101      	bne.n	1c1a <TEE_MACUpdate+0x2c>
/home/yin/imx-optee/imx-optee-os/lib/libutee/tee_api_operations.c:1155
    1c16:	f003 fb03 	bl	5220 <TEE_Panic>
/home/yin/imx-optee/imx-optee-os/lib/libutee/tee_api_operations.c:1157
    1c1a:	6aa3      	ldr	r3, [r4, #40]	; 0x28
    1c1c:	2b01      	cmp	r3, #1
    1c1e:	d002      	beq.n	1c26 <TEE_MACUpdate+0x38>
/home/yin/imx-optee/imx-optee-os/lib/libutee/tee_api_operations.c:1158
    1c20:	2000      	movs	r0, #0
    1c22:	f003 fafd 	bl	5220 <TEE_Panic>
/home/yin/imx-optee/imx-optee-os/lib/libutee/tee_api_operations.c:1160
    1c26:	4632      	mov	r2, r6
    1c28:	4629      	mov	r1, r5
    1c2a:	6be0      	ldr	r0, [r4, #60]	; 0x3c
    1c2c:	f000 edf6 	blx	281c <utee_hash_update>
/home/yin/imx-optee/imx-optee-os/lib/libutee/tee_api_operations.c:1161
    1c30:	b118      	cbz	r0, 1c3a <TEE_MACUpdate+0x4c>
/home/yin/imx-optee/imx-optee-os/lib/libutee/tee_api_operations.c:1163
    1c32:	e8bd 4070 	ldmia.w	sp!, {r4, r5, r6, lr}
/home/yin/imx-optee/imx-optee-os/lib/libutee/tee_api_operations.c:1162
    1c36:	f003 baf3 	b.w	5220 <TEE_Panic>
    1c3a:	bd70      	pop	{r4, r5, r6, pc}

00001c3c <TEE_MACComputeFinal>:
TEE_MACComputeFinal():
/home/yin/imx-optee/imx-optee-os/lib/libutee/tee_api_operations.c:1168
    1c3c:	b530      	push	{r4, r5, lr}
    1c3e:	b085      	sub	sp, #20
    1c40:	9c08      	ldr	r4, [sp, #32]
/home/yin/imx-optee/imx-optee-os/lib/libutee/tee_api_operations.c:1172
    1c42:	4605      	mov	r5, r0
    1c44:	b308      	cbz	r0, 1c8a <TEE_MACComputeFinal+0x4e>
/home/yin/imx-optee/imx-optee-os/lib/libutee/tee_api_operations.c:1172 (discriminator 1)
    1c46:	b901      	cbnz	r1, 1c4a <TEE_MACComputeFinal+0xe>
/home/yin/imx-optee/imx-optee-os/lib/libutee/tee_api_operations.c:1173
    1c48:	b9fa      	cbnz	r2, 1c8a <TEE_MACComputeFinal+0x4e>
/home/yin/imx-optee/imx-optee-os/lib/libutee/tee_api_operations.c:1173 (discriminator 1)
    1c4a:	b1f3      	cbz	r3, 1c8a <TEE_MACComputeFinal+0x4e>
/home/yin/imx-optee/imx-optee-os/lib/libutee/tee_api_operations.c:1174
    1c4c:	b1ec      	cbz	r4, 1c8a <TEE_MACComputeFinal+0x4e>
/home/yin/imx-optee/imx-optee-os/lib/libutee/tee_api_operations.c:1180
    1c4e:	6868      	ldr	r0, [r5, #4]
    1c50:	2803      	cmp	r0, #3
    1c52:	d11a      	bne.n	1c8a <TEE_MACComputeFinal+0x4e>
/home/yin/imx-optee/imx-optee-os/lib/libutee/tee_api_operations.c:1185
    1c54:	69e8      	ldr	r0, [r5, #28]
    1c56:	0380      	lsls	r0, r0, #14
    1c58:	d517      	bpl.n	1c8a <TEE_MACComputeFinal+0x4e>
/home/yin/imx-optee/imx-optee-os/lib/libutee/tee_api_operations.c:1190
    1c5a:	6aa8      	ldr	r0, [r5, #40]	; 0x28
    1c5c:	2801      	cmp	r0, #1
    1c5e:	d114      	bne.n	1c8a <TEE_MACComputeFinal+0x4e>
/home/yin/imx-optee/imx-optee-os/lib/libutee/tee_api_operations.c:1195
    1c60:	6820      	ldr	r0, [r4, #0]
    1c62:	9002      	str	r0, [sp, #8]
    1c64:	2000      	movs	r0, #0
    1c66:	9003      	str	r0, [sp, #12]
/home/yin/imx-optee/imx-optee-os/lib/libutee/tee_api_operations.c:1196
    1c68:	a802      	add	r0, sp, #8
    1c6a:	9000      	str	r0, [sp, #0]
    1c6c:	6be8      	ldr	r0, [r5, #60]	; 0x3c
    1c6e:	f000 ede0 	blx	2830 <utee_hash_final>
/home/yin/imx-optee/imx-optee-os/lib/libutee/tee_api_operations.c:1197
    1c72:	9b02      	ldr	r3, [sp, #8]
    1c74:	6023      	str	r3, [r4, #0]
/home/yin/imx-optee/imx-optee-os/lib/libutee/tee_api_operations.c:1198
    1c76:	4604      	mov	r4, r0
    1c78:	b960      	cbnz	r0, 1c94 <TEE_MACComputeFinal+0x58>
/home/yin/imx-optee/imx-optee-os/lib/libutee/tee_api_operations.c:1201
    1c7a:	69eb      	ldr	r3, [r5, #28]
/home/yin/imx-optee/imx-optee-os/lib/libutee/tee_api_operations.c:1203
    1c7c:	62a8      	str	r0, [r5, #40]	; 0x28
/home/yin/imx-optee/imx-optee-os/lib/libutee/tee_api_operations.c:1201
    1c7e:	f423 3300 	bic.w	r3, r3, #131072	; 0x20000
    1c82:	61eb      	str	r3, [r5, #28]
/home/yin/imx-optee/imx-optee-os/lib/libutee/tee_api_operations.c:1211
    1c84:	4620      	mov	r0, r4
    1c86:	b005      	add	sp, #20
    1c88:	bd30      	pop	{r4, r5, pc}
    1c8a:	4c04      	ldr	r4, [pc, #16]	; (1c9c <TEE_MACComputeFinal+0x60>)
/home/yin/imx-optee/imx-optee-os/lib/libutee/tee_api_operations.c:1208
    1c8c:	4620      	mov	r0, r4
    1c8e:	f003 fac7 	bl	5220 <TEE_Panic>
/home/yin/imx-optee/imx-optee-os/lib/libutee/tee_api_operations.c:1210
    1c92:	e7f7      	b.n	1c84 <TEE_MACComputeFinal+0x48>
/home/yin/imx-optee/imx-optee-os/lib/libutee/tee_api_operations.c:1206
    1c94:	4b02      	ldr	r3, [pc, #8]	; (1ca0 <TEE_MACComputeFinal+0x64>)
    1c96:	4298      	cmp	r0, r3
    1c98:	d0f4      	beq.n	1c84 <TEE_MACComputeFinal+0x48>
    1c9a:	e7f7      	b.n	1c8c <TEE_MACComputeFinal+0x50>
    1c9c:	ffff0006 	.word	0xffff0006
    1ca0:	ffff0010 	.word	0xffff0010

00001ca4 <TEE_MACCompareFinal>:
TEE_MACCompareFinal():
/home/yin/imx-optee/imx-optee-os/lib/libutee/tee_api_operations.c:1216
    1ca4:	b5f0      	push	{r4, r5, r6, r7, lr}
    1ca6:	461f      	mov	r7, r3
    1ca8:	b095      	sub	sp, #84	; 0x54
/home/yin/imx-optee/imx-optee-os/lib/libutee/tee_api_operations.c:1219
    1caa:	2340      	movs	r3, #64	; 0x40
/home/yin/imx-optee/imx-optee-os/lib/libutee/tee_api_operations.c:1216
    1cac:	4605      	mov	r5, r0
/home/yin/imx-optee/imx-optee-os/lib/libutee/tee_api_operations.c:1219
    1cae:	9303      	str	r3, [sp, #12]
/home/yin/imx-optee/imx-optee-os/lib/libutee/tee_api_operations.c:1221
    1cb0:	6843      	ldr	r3, [r0, #4]
    1cb2:	2b03      	cmp	r3, #3
    1cb4:	d11a      	bne.n	1cec <TEE_MACCompareFinal+0x48>
/home/yin/imx-optee/imx-optee-os/lib/libutee/tee_api_operations.c:1226
    1cb6:	69c3      	ldr	r3, [r0, #28]
    1cb8:	039b      	lsls	r3, r3, #14
    1cba:	d517      	bpl.n	1cec <TEE_MACCompareFinal+0x48>
/home/yin/imx-optee/imx-optee-os/lib/libutee/tee_api_operations.c:1231
    1cbc:	6a83      	ldr	r3, [r0, #40]	; 0x28
    1cbe:	2b01      	cmp	r3, #1
    1cc0:	d114      	bne.n	1cec <TEE_MACCompareFinal+0x48>
/home/yin/imx-optee/imx-optee-os/lib/libutee/tee_api_operations.c:1236
    1cc2:	ab03      	add	r3, sp, #12
    1cc4:	ae04      	add	r6, sp, #16
    1cc6:	9300      	str	r3, [sp, #0]
    1cc8:	4633      	mov	r3, r6
    1cca:	f7ff ffb7 	bl	1c3c <TEE_MACComputeFinal>
/home/yin/imx-optee/imx-optee-os/lib/libutee/tee_api_operations.c:1238
    1cce:	4604      	mov	r4, r0
    1cd0:	b988      	cbnz	r0, 1cf6 <TEE_MACCompareFinal+0x52>
/home/yin/imx-optee/imx-optee-os/lib/libutee/tee_api_operations.c:1241
    1cd2:	9a03      	ldr	r2, [sp, #12]
    1cd4:	9b1a      	ldr	r3, [sp, #104]	; 0x68
    1cd6:	429a      	cmp	r2, r3
    1cd8:	d110      	bne.n	1cfc <TEE_MACCompareFinal+0x58>
/home/yin/imx-optee/imx-optee-os/lib/libutee/tee_api_operations.c:1246
    1cda:	4631      	mov	r1, r6
    1cdc:	4638      	mov	r0, r7
    1cde:	f003 fbd6 	bl	548e <buf_compare_ct>
    1ce2:	b958      	cbnz	r0, 1cfc <TEE_MACCompareFinal+0x58>
/home/yin/imx-optee/imx-optee-os/lib/libutee/tee_api_operations.c:1251
