
b6c53aba-9669-4668-a7f2-205629d00f86.elf:     file format elf32-littlearm
b6c53aba-9669-4668-a7f2-205629d00f86.elf
architecture: arm, flags 0x00000150:
HAS_SYMS, DYNAMIC, D_PAGED
start address 0x00000020

Program Header:
0x70000001 off    0x0001824c vaddr 0x0000824c paddr 0x0000824c align 2**2
         filesz 0x00000648 memsz 0x00000648 flags r--
    LOAD off    0x00010000 vaddr 0x00000000 paddr 0x00000000 align 2**16
         filesz 0x00006be0 memsz 0x00006be0 flags r-x
    LOAD off    0x00016be0 vaddr 0x00006be0 paddr 0x00006be0 align 2**16
         filesz 0x00001ff0 memsz 0x00001ff0 flags r--
    LOAD off    0x00019000 vaddr 0x00009000 paddr 0x00009000 align 2**16
         filesz 0x0000008c memsz 0x0000a9c0 flags rw-
 DYNAMIC off    0x000189c4 vaddr 0x000089c4 paddr 0x000089c4 align 2**2
         filesz 0x00000080 memsz 0x00000080 flags rw-

Dynamic Section:
  HASH                 0x00008b8c
  STRTAB               0x00008b04
  SYMTAB               0x00008a44
  STRSZ                0x00000088
  SYMENT               0x00000010
  DEBUG                0x00000000
  REL                  0x000088c4
  RELSZ                0x00000100
  RELENT               0x00000008
  FLAGS_1              0x08000000
  RELCOUNT             0x00000017
private flags = 5000400: [Version5 EABI] [hard-float ABI]

Sections:
Idx Name          Size      VMA       LMA       File off  Algn
  0 .ta_head      00000020  00000000  00000000  00010000  2**3
                  CONTENTS, ALLOC, LOAD, DATA
  1 .text         00006bc0  00000020  00000020  00010020  2**3
                  CONTENTS, ALLOC, LOAD, READONLY, CODE
  2 .rodata       0000153d  00006be0  00006be0  00016be0  2**2
                  CONTENTS, ALLOC, LOAD, READONLY, DATA
  3 .ARM.extab    000000fc  00008120  00008120  00018120  2**2
                  CONTENTS, ALLOC, LOAD, READONLY, DATA
  4 .ARM.extab.text.utee_panic 0000000c  0000821c  0000821c  0001821c  2**2
                  CONTENTS, ALLOC, LOAD, READONLY, DATA
  5 .ARM.extab.text.unlikely 0000000c  00008228  00008228  00018228  2**2
                  CONTENTS, ALLOC, LOAD, READONLY, DATA
  6 .ARM.extab.text.__aeabi_ldivmod 0000000c  00008234  00008234  00018234  2**2
                  CONTENTS, ALLOC, LOAD, READONLY, DATA
  7 .ARM.extab.text.__aeabi_uldivmod 0000000c  00008240  00008240  00018240  2**2
                  CONTENTS, ALLOC, LOAD, READONLY, DATA
  8 .ARM.exidx    00000648  0000824c  0000824c  0001824c  2**2
                  CONTENTS, ALLOC, LOAD, READONLY, DATA
  9 .got          00000030  00008894  00008894  00018894  2**2
                  CONTENTS, ALLOC, LOAD, DATA
 10 .dynsym       000000c0  00008a44  00008a44  00018a44  2**2
                  CONTENTS, ALLOC, LOAD, READONLY, DATA
 11 .rel.got      00000048  0000897c  0000897c  0001897c  2**2
                  CONTENTS, ALLOC, LOAD, READONLY, DATA
 12 .dynamic      00000080  000089c4  000089c4  000189c4  2**2
                  CONTENTS, ALLOC, LOAD, DATA
 13 .dynstr       00000088  00008b04  00008b04  00018b04  2**0
                  CONTENTS, ALLOC, LOAD, READONLY, DATA
 14 .hash         00000044  00008b8c  00008b8c  00018b8c  2**2
                  CONTENTS, ALLOC, LOAD, READONLY, DATA
 15 .data         0000008c  00009000  00009000  00019000  2**2
                  CONTENTS, ALLOC, LOAD, DATA
 16 .bss          0000a934  0000908c  0000908c  0001908c  2**2
                  ALLOC
 17 .debug_info   00011941  00000000  00000000  0001908c  2**0
                  CONTENTS, READONLY, DEBUGGING
 18 .debug_abbrev 00004559  00000000  00000000  0002a9cd  2**0
                  CONTENTS, READONLY, DEBUGGING
 19 .debug_loc    0000fd2e  00000000  00000000  0002ef26  2**0
                  CONTENTS, READONLY, DEBUGGING
 20 .debug_aranges 000007f0  00000000  00000000  0003ec58  2**3
                  CONTENTS, READONLY, DEBUGGING
 21 .debug_ranges 00000970  00000000  00000000  0003f448  2**3
                  CONTENTS, READONLY, DEBUGGING
 22 .debug_macro  00005b9b  00000000  00000000  0003fdb8  2**0
                  CONTENTS, READONLY, DEBUGGING
 23 .debug_line   00006e76  00000000  00000000  00045953  2**0
                  CONTENTS, READONLY, DEBUGGING
 24 .debug_str    00011806  00000000  00000000  0004c7c9  2**0
                  CONTENTS, READONLY, DEBUGGING
 25 .comment      00000024  00000000  00000000  0005dfcf  2**0
                  CONTENTS, READONLY
 26 .ARM.attributes 00000035  00000000  00000000  0005dff3  2**0
                  CONTENTS, READONLY
 27 .debug_frame  00002110  00000000  00000000  0005e028  2**2
                  CONTENTS, READONLY, DEBUGGING
 28 .rel.dyn      000000b8  000088c4  000088c4  000188c4  2**2
                  CONTENTS, ALLOC, LOAD, READONLY, DATA
SYMBOL TABLE:
00000000 l    d  .ta_head	00000000 .ta_head
00000020 l    d  .text	00000000 .text
00006be0 l    d  .rodata	00000000 .rodata
00008120 l    d  .ARM.extab	00000000 .ARM.extab
0000821c l    d  .ARM.extab.text.utee_panic	00000000 .ARM.extab.text.utee_panic
00008228 l    d  .ARM.extab.text.unlikely	00000000 .ARM.extab.text.unlikely
00008234 l    d  .ARM.extab.text.__aeabi_ldivmod	00000000 .ARM.extab.text.__aeabi_ldivmod
00008240 l    d  .ARM.extab.text.__aeabi_uldivmod	00000000 .ARM.extab.text.__aeabi_uldivmod
0000824c l    d  .ARM.exidx	00000000 .ARM.exidx
00008894 l    d  .got	00000000 .got
0000897c l    d  .rel.got	00000000 .rel.got
000089c4 l    d  .dynamic	00000000 .dynamic
00008a44 l    d  .dynsym	00000000 .dynsym
00008b04 l    d  .dynstr	00000000 .dynstr
00008b8c l    d  .hash	00000000 .hash
00009000 l    d  .data	00000000 .data
0000908c l    d  .bss	00000000 .bss
00000000 l    d  .debug_info	00000000 .debug_info
00000000 l    d  .debug_abbrev	00000000 .debug_abbrev
00000000 l    d  .debug_loc	00000000 .debug_loc
00000000 l    d  .debug_aranges	00000000 .debug_aranges
00000000 l    d  .debug_ranges	00000000 .debug_ranges
00000000 l    d  .debug_macro	00000000 .debug_macro
00000000 l    d  .debug_line	00000000 .debug_line
00000000 l    d  .debug_str	00000000 .debug_str
00000000 l    d  .comment	00000000 .comment
00000000 l    d  .ARM.attributes	00000000 .ARM.attributes
00000000 l    d  .debug_frame	00000000 .debug_frame
000088c4 l    d  .rel.dyn	00000000 .rel.dyn
00000000 l    df *ABS*	00000000 user_ta_header.c
00006be4 l     O .rodata	00000004 __compound_literal.5
00006be8 l     O .rodata	00000004 __compound_literal.4
00006bec l     O .rodata	00000004 __compound_literal.3
00006bf0 l     O .rodata	00000001 __compound_literal.2
00006bf1 l     O .rodata	00000001 __compound_literal.1
00006bf2 l     O .rodata	00000001 __compound_literal.0
00000000 l    df *ABS*	00000000 random_example_ta.c
00007954 l     O .rodata	00000017 __func__.6147
00000000 l    df *ABS*	00000000 tee_api_operations.c
00000094 l     F .text	0000015c tee_buffer_update
00000000 l    df *ABS*	00000000 user_ta_entry.c
0000165c l     F .text	0000001c ta_header_get_session
00001678 l     F .text	00000068 ta_header_remove_session
0000908c l     O .bss	00000001 init_done
00009074 l     O .data	00000008 ta_sessions
00000000 l    df *ABS*	00000000 utee_syscalls_a32.o
00000000 l    df *ABS*	00000000 gprof_a32.o
00000000 l    df *ABS*	00000000 tee_api_arith.c
000022d4 l     F .text	0000001c TEE_BigInt_Panic
000090c0 l     O .bss	000018f0 mempool_u32
000090b4 l     O .bss	00000008 mem.6436
000090bc l     O .bss	00000004 mempool
00000000 l    df *ABS*	00000000 tee_api.c
00007b0a l     O .rodata	0000000b __func__.6699
0000a9b0 l     O .bss	00000004 tee_api_instance_data
00000000 l    df *ABS*	00000000 tee_api_objects.c
00000000 l    df *ABS*	00000000 trace_ext.c
00000000 l    df *ABS*	00000000 bget_malloc.c
00002e00 l     F .text	000000d8 create_free_block.constprop.11
00007b26 l     O .rodata	00000012 __func__.5801
00007b38 l     O .rodata	00000005 __func__.5679
00007b3d l     O .rodata	00000006 __func__.5694
00007b43 l     O .rodata	00000005 __func__.5711
00007b48 l     O .rodata	00000006 __func__.5703
00007b4e l     O .rodata	00000006 __func__.5720
00007b54 l     O .rodata	0000000d __func__.5837
00007b61 l     O .rodata	0000000c __func__.5811
00007b6d l     O .rodata	0000000b __func__.5822
00007b78 l     O .rodata	00000010 __func__.5889
00007b88 l     O .rodata	0000000e __func__.5843
00007b96 l     O .rodata	00000013 __func__.5749
0000a9b4 l     O .bss	00000004 malloc_pool_len
0000a9b8 l     O .bss	00000004 malloc_pool
0000907c l     O .data	00000010 malloc_poolset
00000000 l    df *ABS*	00000000 snprintk.c
00007f8a l     O .rodata	00000011 HEXDIGITS
00007f9b l     O .rodata	00000011 hexdigits
00000000 l    df *ABS*	00000000 trace.c
00003f30 l     F .text	0000004e append
00007fe4 l     O .rodata	00000005 lvl_strs.5552
00007fe9 l     O .rodata	0000000a __func__.5603
00000000 l    df *ABS*	00000000 mempool.c
0000802d l     O .rodata	00000013 __func__.5543
00000000 l    df *ABS*	00000000 arm32_aeabi_divmod_a32.o
00000000 l    df *ABS*	00000000 arm32_aeabi_ldivmod_a32.o
00000000 l    df *ABS*	00000000 mpa_misc.c
00000000 l    df *ABS*	00000000 mpa_montgomery.c
00000000 l    df *ABS*	00000000 mpa_primetest.c
0000785c l     O .rodata	00000010 const_miller_rabin_proof_limit
0000786c l     O .rodata	0000001c proof_a.5912
00007888 l     O .rodata	0000000c const_two
00007894 l     O .rodata	000000b8 const_small_prime_factors
00000000 l    df *ABS*	00000000 mpa_expmod.c
00000000 l    df *ABS*	00000000 mpa_io.c
000049b8 l     F .text	0000002a __mpa_word_to_hexstr
000049e2 l     F .text	0000009c __mpa_mpanum_to_hexstr
00004a7e l     F .text	00000026 __mpa_isspace
000129bc l     O .bss	00001002 buf.5972
0000807f l     O .rodata	0000000c __func__.5986
0000808b l     O .rodata	0000000c __func__.6000
00000000 l    df *ABS*	00000000 assert.c
00000000 l    df *ABS*	00000000 tee_api_panic.c
00000000 l    df *ABS*	00000000 snprintf.c
00000000 l    df *ABS*	00000000 memcmp.c
00000000 l    df *ABS*	00000000 memcpy.c
00000000 l    df *ABS*	00000000 memmove.c
00000000 l    df *ABS*	00000000 memset.c
00000000 l    df *ABS*	00000000 strlen.c
00000000 l    df *ABS*	00000000 arm32_aeabi_divmod.c
00004f3c l     F .text	0000004a uint_div_qr
00000000 l    df *ABS*	00000000 buf_compare_ct.c
00000000 l    df *ABS*	00000000 aeabi_unwind.c
00000000 l    df *ABS*	00000000 memchr.c
00000000 l    df *ABS*	00000000 arm32_aeabi_ldivmod.c
00000000 l    df *ABS*	00000000 mpa_conv.c
00000000 l    df *ABS*	00000000 mpa_div.c
00000000 l    df *ABS*	00000000 mpa_gcd.c
0000589e l     F .text	0000004c __mpa_divby2
000058ea l     F .text	000000e4 __mpa_gcd.part.0
000059ce l     F .text	00000236 __mpa_egcd
00000000 l    df *ABS*	00000000 mpa_mem_static.c
00000000 l    df *ABS*	00000000 mpa_mul.c
00000000 l    df *ABS*	00000000 mpa_random.c
00000000 l    df *ABS*	00000000 mpa_shift.c
00000000 l    df *ABS*	00000000 mpa_addsub.c
00000000 l    df *ABS*	00000000 mpa_cmp.c
00000000 l    df *ABS*	00000000 mpa_init.c
00000000 l    df *ABS*	00000000 mpa_modulus.c
00000000 l    df *ABS*	00000000 
000089c4 l     O *ABS*	00000000 _DYNAMIC
00008894 l     O *ABS*	00000000 _GLOBAL_OFFSET_TABLE_
00006ba0 l     F .text	00000010 __utee_check_access_rights_from_thumb
00006bb0 l     F .text	00000010 __utee_log_from_thumb
00006bc0 l     F .text	00000010 __utee_cache_operation_from_thumb
00006bd0 l     F .text	00000010 __utee_panic_from_thumb
00001e10 g     F .text	00000018 utee_se_channel_transmit
000042ac g     F .text	00000004 ret_idivmod_values
00002ddc g     F .text	00000022 putchar
000069d8 g     F .text	00000012 mpa_init_static
00002840 g     F .text	00000070 TEE_PopulateTransientObject
00004314 g     F .text	00000022 mpa_copy
00002248 g     F .text	00000020 TEE_BigIntConvertToFMM
00002180 g     F .text	00000008 TEE_BigIntSquareMod
00001f4c g     F .text	00000004 TEE_BigIntShiftRight
000052bc g     F .text	00000042 mpa_get_S32
0000434a g     F .text	0000002a mpa_highest_bit_index
00001c00 g     F .text	00000018 utee_storage_obj_create
000051b4 g     F .text	000000ec __l_divmod
00001dd4 g     F .text	00000014 utee_se_session_close
00001880 g     F .text	00000014 utee_return
00000a82 g     F .text	00000030 TEE_DigestUpdate
00001d30 g     F .text	00000014 utee_se_service_get_readers
000025bc g     F .text	00000004 TEE_Realloc
00005370 g     F .text	000000be __mpa_div_q_r_internal_word
000008ec g     F .text	000000f4 TEE_SetOperationKey2
00006638 g     F .text	00000104 mpa_sub
00002d7e g     F .text	0000003a printf
00001894 g     F .text	00000014 utee_log
0000794c g     O .rodata	00000004 NR_STORED_PRIMES
000028b0 g     F .text	00000022 TEE_InitRefAttribute
000023da g     F .text	00000066 TEE_InvokeTACommand
000043a0 g     F .text	00000014 mpa_can_hold
00005e52 g     F .text	00000050 __mpa_abs_mul_word
0000107c g     F .text	00000118 TEE_AEEncryptFinal
000045f0 g     F .text	0000003c mpa_montgomery_mul
00003f08 g     F .text	0000000e vsnprintk
000043b4 g     F .text	00000008 mpa_parity
00004ee8 g     F .text	00000034 memmove
0000637e g     F .text	0000001a __mpa_full_adder_ackum
00004e88 g     F .text	0000001e snprintf
00001f48 g     F .text	00000004 TEE_BigIntCmpS32
000028d2 g     F .text	00000022 TEE_InitValueAttribute
0000511e g     F .text	00000002 __aeabi_unwind_cpp_pr0
00001f68 g     F .text	00000010 TEE_BigIntAdd
000018d4 g     F .text	00000014 utee_get_property_name_to_index
00004fa6 g     F .text	00000020 __aeabi_uimod
00006bf4 g     O .rodata	00000004 ta_heap_size
00007950 g     O .rodata	00000004 MAX_TABULATED_PRIME
00002810 g     F .text	00000030 TEE_ResetTransientObject
000019b8 g     F .text	00000018 utee_cryp_state_alloc
00001b88 g     F .text	00000018 utee_authenc_enc_final
00005e3a g     F .text	00000018 __mpa_mul_add_word_cum
00000b24 g     F .text	00000056 TEE_CipherInit
00001f88 g     F .text	00000004 TEE_BigIntNeg
00005810 g     F .text	0000008e mpa_div
00000020 g       .text	00000000 __text_start
00002bb0 g     F .text	0000002c TEE_StartPersistentObjectEnumerator
00006bfc g     O .rodata	0000000c const_one
00003790 g     F .text	00000048 malloc_buffer_overlaps_heap
0000692e g     F .text	0000000a __mpa_abs_less_than
000020a0 g     F .text	00000060 TEE_BigIntSubMod
00000ef8 g     F .text	00000070 TEE_AEInit
0000601e g     F .text	000000a0 mpa_get_random
00003fb0 g     F .text	00000144 trace_printf
00001d08 g     F .text	00000014 utee_se_service_open
00004ed2 g     F .text	00000016 memcpy
000019e4 g     F .text	00000014 utee_cryp_state_free
000042fe g     F .text	00000016 mpa_wipe
00002268 g     F .text	00000050 TEE_BigIntConvertFromFMM
00004e84 g     F .text	00000004 TEE_Panic
00001dfc g     F .text	00000014 utee_se_channel_get_select_resp
000042cc g     F .text	00000018 __aeabi_uldivmod
000009e0 g     F .text	000000a2 TEE_CopyOperation
00002db8 g     F .text	00000024 puts
000022b8 g     F .text	0000001c TEE_BigIntComputeFMM
000052fe g     F .text	0000000c mpa_set_word
00006184 g     F .text	000000f4 mpa_shift_left
00001a64 g     F .text	00000018 utee_cipher_final
00005f30 g     F .text	00000082 mpa_mul
0000255c g     F .text	00000016 TEE_GetREETime
00002b50 g     F .text	00000038 TEE_AllocatePersistentObjectEnumerator
00009004 g     O .data	0000006c ta_props
0000129c g     F .text	000000bc TEE_AsymmetricEncrypt
00003330 g     F .text	00000018 malloc
00001acc g     F .text	00000014 utee_cryp_obj_close
00001d6c g     F .text	00000014 utee_se_reader_open_session
000042b0 g     F .text	00000004 ret_uidivmod_values
00004ea6 g     F .text	0000000e vsnprintf
0000298c g     F .text	00000048 TEE_GenerateKey
00009000 g     O .data	00000004 trace_level
00001f44 g     F .text	00000004 TEE_BigIntCmp
00006be0 g     O .rodata	00000004 ta_num_props
00003218 g     F .text	0000007c bgetr
00001b70 g     F .text	00000018 utee_authenc_update_payload
0000427e g     F .text	0000002e mempool_free
00000b7a g     F .text	000000fa TEE_CipherUpdate
00001ef8 g     F .text	00000034 TEE_BigIntConvertToOctetString
0000076a g     F .text	000000b6 TEE_GetOperationInfoMultiple
00001e3c g     F .text	00000014 utee_cache_operation
00001b44 g     F .text	00000018 utee_authenc_init
00001f50 g     F .text	0000000e TEE_BigIntGetBit
00006bf8 g     O .rodata	00000003 trace_ext_prefix
00006398 g     F .text	000000aa __mpa_abs_add
00002ff4 g     F .text	0000005c bgetz
000024ac g     F .text	0000000c TEE_GetInstanceData
000024da g     F .text	0000001e TEE_Wait
00001cb8 g     F .text	00000014 utee_storage_obj_write
00005e1a g     F .text	00000010 mpa_free_static_temp_var
0000462c g     F .text	00000278 mpa_is_prob_prime
00005122 g     F .text	00000002 __aeabi_unwind_cpp_pr2
00001e28 g     F .text	00000014 utee_se_channel_close
00005fb2 g     F .text	0000006c mpa_mul_word
000025ca g     F .text	00000006 TEE_CacheFlush
00000024 g     F .text	00000002 TA_DestroyEntryPoint
00004e48 g     F .text	00000028 _assert_log
00001ed8 g     F .text	0000000a TEE_BigIntFMMContextSizeInU32
00000e94 g     F .text	00000064 TEE_MACCompareFinal
00005034 g     F .text	00000070 __aeabi_imod
00002b0a g     F .text	00000046 TEE_RenamePersistentObject
00000ab2 g     F .text	00000072 TEE_DigestDoFinal
0000542e g     F .text	000003e2 __mpa_div_q_r
00001e5c g     F .text	00000038 _TEE_MathAPI_Init
00001c90 g     F .text	00000014 utee_storage_next_enum
0000a9bc g     O .bss	00008000 ta_heap
00002188 g     F .text	00000044 TEE_BigIntInvMod
00000034 g     F .text	00000002 TA_CloseSessionEntryPoint
00001358 g     F .text	000000c0 TEE_AsymmetricDecrypt
000029d4 g     F .text	00000064 TEE_OpenPersistentObject
000018a8 g     F .text	00000014 __utee_panic
000019d0 g     F .text	00000014 utee_cryp_state_copy
00000036 g     F .text	0000005e TA_InvokeCommandEntryPoint
00004cd4 g     F .text	0000009c mpa_set_oct_str
00001dbc g     F .text	00000018 utee_se_session_open_channel
00004234 g     F .text	0000004a mempool_alloc
000060f4 g     F .text	0000004c __mpa_shift_words_left
00001ab8 g     F .text	00000014 utee_cryp_obj_alloc
000019a4 g     F .text	00000014 utee_set_ta_time
00001aa4 g     F .text	00000014 utee_cryp_obj_get_attr
0000295c g     F .text	00000030 TEE_CopyObjectAttributes
00004428 g     F .text	00000060 __mpa_montgomery_sub_ack
00003358 g     F .text	00000028 calloc
00002572 g     F .text	0000004a TEE_Malloc
00001968 g     F .text	00000014 utee_mask_cancellation
00001ae0 g     F .text	00000014 utee_cryp_obj_reset
00002494 g     F .text	0000000a TEE_CheckMemoryAccessRights
000139c0 g       .bss	00000000 __gprof_buf_end
00005140 g     F .text	00000074 __ul_divmod
0000673c g     F .text	00000010 mpa_neg
00006c24 g     O .rodata	00000c38 PRIME_TABLE
00002c30 g     F .text	00000040 TEE_ReadObjectData
000026a8 g     F .text	00000070 TEE_GetObjectBufferAttribute
00000026 g     F .text	0000000e TA_OpenSessionEntryPoint
00005c04 g     F .text	000000aa mpa_gcd
00004336 g     F .text	00000014 mpa_abs
00001c7c g     F .text	00000014 utee_storage_start_enum
000001f0 g     F .text	00000026 TEE_FreeOperation
00004aaa g     F .text	000001d6 mpa_set_str
00001c2c g     F .text	00000014 utee_storage_obj_rename
00009090 g     O .bss	00000004 ta_param_types
000025d8 g     F .text	0000003a __utee_from_attr
00004fec g     F .text	00000048 __aeabi_idiv
00002228 g     F .text	00000020 TEE_BigIntIsProbablePrime
00002ad0 g     F .text	00000024 TEE_CloseAndDeletePersistentObject1
00005e10 g     F .text	0000000a mpa_alloc_static_temp_var
000018bc g     F .text	00000018 utee_get_property
00001194 g     F .text	00000108 TEE_AEDecryptFinal
00001e94 g     F .text	00000004 TEE_BigIntInit
000024b8 g     F .text	00000004 TEE_MemMove
00001ee2 g     F .text	00000016 TEE_BigIntConvertFromOctetString
00009070 g     O .data	00000004 _ref__utee_mcount
00000d88 g     F .text	00000056 TEE_MACInit
00001418 g     F .text	000000b4 TEE_AsymmetricSignDigest
00005124 g     F .text	0000001c memchr
0000245c g     F .text	0000001c TEE_UnmaskCancellation
00002612 g     F .text	0000002a TEE_GetObjectInfo
00006aba g     F .text	00000042 mpa_mul_mod
00001c18 g     F .text	00000014 utee_storage_obj_del
00000fae g     F .text	000000ce TEE_AEUpdate
00001ce0 g     F .text	00000014 utee_storage_obj_seek
000027e0 g     F .text	00000030 TEE_FreeTransientObject
00004520 g     F .text	000000d0 mpa_compute_fmm_context
00001a0c g     F .text	00000014 utee_hash_update
00001644 g     F .text	00000018 rand
00001e50  w    F .text	0000000c __utee_mcount
00000748 g     F .text	00000022 TEE_GetOperationInfo
00001fe8 g     F .text	00000058 TEE_BigIntMod
00001de8 g     F .text	00000014 utee_se_channel_select_next
00001900 g     F .text	00000014 utee_close_ta_session
00001fac g     F .text	0000003c TEE_BigIntDiv
00001a4c g     F .text	00000018 utee_cipher_update
0000265c g     F .text	00000020 TEE_RestrictObjectUsage1
00001da8 g     F .text	00000014 utee_se_session_get_atr
00003380 g     F .text	00000018 realloc
00006442 g     F .text	00000074 __mpa_abs_add_ackum
000041f0 g     F .text	00000044 mempool_alloc_pool
00001bd0 g     F .text	00000018 utee_asymm_verify
00001f8c g     F .text	00000010 TEE_BigIntMul
00000820 g     F .text	00000040 TEE_ResetOperation
0000530a g     F .text	0000000c mpa_get_word
000024c0 g     F .text	00000004 TEE_MemFill
00004eb4 g     F .text	0000001e memcmp
000035e4 g     F .text	000000d0 malloc_add_pool
00000dde g     F .text	0000004e TEE_MACUpdate
00003f9c g     F .text	00000014 trace_get_level
00001b30 g     F .text	00000014 utee_cryp_random_number_generate
0000267c g     F .text	0000002c TEE_RestrictObjectUsage
00001ed0 g     F .text	00000008 TEE_BigIntFMMSizeInU32
00001e98 g     F .text	0000000e TEE_BigIntInitFMM
00001bb8 g     F .text	00000018 utee_asymm_operate
0000279c g     F .text	00000014 TEE_CloseObject
000016e0 g     F .text	0000018c __utee_entry
00006be0 g       .text	00000000 __text_end
000021cc g     F .text	00000040 TEE_BigIntRelativePrime
000060be g     F .text	00000036 mpa_get_random_digits
00003294 g     F .text	0000009c bpool
000052a0 g     F .text	0000001c mpa_set_S32
000069ea g     F .text	00000036 mpa_init_static_fmm_context
00002440 g     F .text	0000001c TEE_GetCancellationFlag
00001d1c g     F .text	00000014 utee_se_service_close
00002534 g     F .text	00000028 TEE_SetTAPersistentTime
0000674c g     F .text	000000be mpa_add_word
00001d44 g     F .text	00000014 utee_se_reader_get_prop
00004f1c g     F .text	00000010 memset
000024f8 g     F .text	0000003c TEE_GetTAPersistentTime
000040f4 g     F .text	000000fc dhex_dump
00002a38 g     F .text	00000098 TEE_CreatePersistentObject
00002478 g     F .text	0000001c TEE_MaskCancellation
00006366 g     F .text	00000018 __mpa_full_sub
00001ca4 g     F .text	00000014 utee_storage_obj_read
00000f68 g     F .text	00000046 TEE_AEUpdateAAD
00004f86 g     F .text	00000020 __aeabi_uidiv
00002cb0 g     F .text	00000038 TEE_TruncateObjectData
00001af4 g     F .text	00000014 utee_cryp_obj_populate
00006938 g     F .text	00000046 mpa_cmp
00006afc g     F .text	000000a4 mpa_inv_mod
0000680a g     F .text	000000c2 mpa_sub_word
00005e2a g     F .text	00000010 __mpa_mul_add_word
0000654a g     F .text	000000ee mpa_add
000048a4 g     F .text	00000114 mpa_exp_mod
0000263c g     F .text	00000020 TEE_GetObjectInfo1
00006140 g     F .text	00000044 __mpa_shift_words_right
00003f7e g     F .text	0000001e trace_set_level
00001d94 g     F .text	00000014 utee_se_session_is_closed
00001a7c g     F .text	00000014 utee_cryp_obj_get_info
00002718 g     F .text	00000084 TEE_GetObjectValueAttribute
00000860 g     F .text	0000008c TEE_SetOperationKey
00001c40 g     F .text	00000014 utee_storage_alloc_enum
00001c68 g     F .text	00000014 utee_storage_reset_enum
00001ccc g     F .text	00000014 utee_storage_obj_trunc
00006a20 g     F .text	00000016 mpa_mod
0000691e g     F .text	00000010 __mpa_abs_greater_than
00001f30 g     F .text	00000014 TEE_BigIntConvertToS32
00001f78 g     F .text	00000010 TEE_BigIntSub
0000192c g     F .text	00000014 utee_get_cancellation_flag
000019f8 g     F .text	00000014 utee_hash_init
00004e80 g     F .text	00000004 tahead_get_trace_level
000022f0 g     F .text	00000052 __utee_from_param
00002ce8 g     F .text	0000007c TEE_SeekObjectData
00006c08 g     O .rodata	00000010 Const_1_LShift_Base
00002342 g     F .text	00000040 __utee_to_param
00003398 g     F .text	0000024c memalign
00000c74 g     F .text	00000114 TEE_CipherDoFinal
00001f2c g     F .text	00000004 TEE_BigIntConvertFromS32
00006a78 g     F .text	00000042 mpa_sub_mod
00001a90 g     F .text	00000014 utee_cryp_obj_restrict_usage
000036b4 g     F .text	000000dc malloc_buffer_is_within_alloced
00001b08 g     F .text	00000014 utee_cryp_obj_copy
00006278 g     F .text	000000d6 mpa_shift_right
00001ea6 g     F .text	0000002a TEE_BigIntInitFMMContext
00001b1c g     F .text	00000014 utee_cryp_derive_key
00004488 g     F .text	00000098 __mpa_montgomery_mul
00004d70 g     F .text	000000d6 mpa_get_oct_str
0000697e g     F .text	0000005a mpa_cmp_short
00001ba0 g     F .text	00000018 utee_authenc_dec_final
00002c70 g     F .text	00000040 TEE_WriteObjectData
00002b9c g     F .text	00000014 TEE_ResetPersistentObjectEnumerator
000068cc g     F .text	00000052 __mpa_abs_cmp
00001f9c g     F .text	00000010 TEE_BigIntSquare
00000020 g     F .text	00000004 TA_CreateEntryPoint
00003f16 g     F .text	0000001a snprintk
00001f5e g     F .text	0000000a TEE_BigIntGetBitCount
00002100 g     F .text	00000080 TEE_BigIntMulMod
00001578 g     F .text	000000ba TEE_DeriveKey
00009094 g     O .bss	00000020 ta_params
00005ea2 g     F .text	0000008e __mpa_abs_mul
00002ed8 g     F .text	0000011c bget
000027b0 g     F .text	00000030 TEE_AllocateTransientObject
000025c0 g     F .text	00000004 TEE_Free
00001d58 g     F .text	00000014 utee_se_reader_get_name
000025d0 g     F .text	00000006 TEE_CacheInvalidate
00001a38 g     F .text	00000014 utee_cipher_init
00004fc6 g     F .text	00000026 __aeabi_uidivmod
00004e70 g     F .text	00000010 _assert_break
00002040 g     F .text	00000060 TEE_BigIntAddMod
00001c54 g     F .text	00000014 utee_storage_free_enum
00001b5c g     F .text	00000014 utee_authenc_update_aad
00004374 g     F .text	0000002c mpa_get_bit
00000216 g     F .text	00000532 TEE_AllocateOperation
00001632 g     F .text	00000012 TEE_GenerateRandom
000024bc g     F .text	00000004 TEE_MemCompare
000037d8 g     F .text	00000730 __vsnprintf
00002b88 g     F .text	00000014 TEE_FreePersistentObjectEnumerator
00002382 g     F .text	00000044 TEE_OpenTASession
0000186c g     F .text	00000014 utee_panic
00002d64 g     F .text	00000014 trace_ext_puts
00002d78 g     F .text	00000006 trace_ext_get_thread_id
00002af4 g     F .text	00000016 TEE_CloseAndDeletePersistentObject
000025c4 g     F .text	00000006 TEE_CacheClean
000018e8 g     F .text	00000018 utee_open_ta_session
000050f2 g     F .text	0000002c buf_compare_ct
00005316 g     F .text	0000005a __mpa_div_dword
000042e4 g     F .text	0000001a __mpa_set_unused_digits_to_zero
00006c18 g     O .rodata	0000000c const_largest_deci_base
00004aa4 g     F .text	00000006 mpa_get_str_size
000028f4 g     F .text	00000068 TEE_CopyObjectAttributes1
00001a20 g     F .text	00000018 utee_hash_final
00004f2c g     F .text	00000010 strlen
0000220c g     F .text	0000001c TEE_BigIntComputeExtendedGcd
00005120 g     F .text	00000002 __aeabi_unwind_cpp_pr1
00005cae g     F .text	0000013a mpa_extended_gcd
00006a36 g     F .text	00000042 mpa_add_mod
00001be8 g     F .text	00000018 utee_storage_obj_open
00001914 g     F .text	00000018 utee_invoke_ta_command
00004c80 g     F .text	00000054 mpa_get_str
0000197c g     F .text	00000014 utee_wait
000024c4 g     F .text	00000016 TEE_GetSystemTime
00000000 g     O .ta_head	00000020 ta_head
00003050 g     F .text	000001c8 brel
00005de8 g     F .text	00000028 mpa_alloc_static_temp_var_size
00001990 g     F .text	00000014 utee_get_time
000043c8 g     F .text	00000060 __mpa_montgomery_mul_add
0000249e g     F .text	0000000e TEE_SetInstanceData
000050a4 g     F .text	0000004e __aeabi_idivmod
00001954 g     F .text	00000014 utee_unmask_cancellation
000042b4 g     F .text	00000018 __aeabi_ldivmod
00001940 g     F .text	00000014 utee_check_access_rights
00001d80 g     F .text	00000014 utee_se_reader_close_sessions
00002bdc g     F .text	00000054 TEE_GetNextPersistentObject
00001cf4 g     F .text	00000014 utee_cryp_obj_generate_key
000023c6 g     F .text	00000014 TEE_CloseTASession
000043bc g     F .text	0000000c mpa_constant_one
000014cc g     F .text	000000ac TEE_AsymmetricVerifyDigest
0000634e g     F .text	00000018 __mpa_full_adder
000064b6 g     F .text	00000094 __mpa_abs_sub
000139c0 g       .bss	00000000 __gprof_buf_start
00003348 g     F .text	00000010 free
00000e2c g     F .text	00000068 TEE_MACComputeFinal



Disassembly of section .text:

00000020 <TA_CreateEntryPoint>:
TA_CreateEntryPoint():
/home/yin/imx-optee/optee_examples/random/ta/random_example_ta.c:36
      20:	2000      	movs	r0, #0
      22:	4770      	bx	lr

00000024 <TA_DestroyEntryPoint>:
TA_DestroyEntryPoint():
/home/yin/imx-optee/optee_examples/random/ta/random_example_ta.c:39
      24:	4770      	bx	lr

00000026 <TA_OpenSessionEntryPoint>:
TA_OpenSessionEntryPoint():
/home/yin/imx-optee/optee_examples/random/ta/random_example_ta.c:50
      26:	2800      	cmp	r0, #0
/home/yin/imx-optee/optee_examples/random/ta/random_example_ta.c:57
      28:	4801      	ldr	r0, [pc, #4]	; (30 <TA_OpenSessionEntryPoint+0xa>)
      2a:	bf08      	it	eq
      2c:	2000      	moveq	r0, #0
      2e:	4770      	bx	lr
      30:	ffff0006 	.word	0xffff0006

00000034 <TA_CloseSessionEntryPoint>:
TA_CloseSessionEntryPoint():
/home/yin/imx-optee/optee_examples/random/ta/random_example_ta.c:60
      34:	4770      	bx	lr

00000036 <TA_InvokeCommandEntryPoint>:
TA_InvokeCommandEntryPoint():
/home/yin/imx-optee/optee_examples/random/ta/random_example_ta.c:94
      36:	b5f7      	push	{r0, r1, r2, r4, r5, r6, r7, lr}
      38:	4617      	mov	r7, r2
      3a:	461d      	mov	r5, r3
/home/yin/imx-optee/optee_examples/random/ta/random_example_ta.c:97
      3c:	460c      	mov	r4, r1
      3e:	b9f1      	cbnz	r1, 7e <TA_InvokeCommandEntryPoint+0x48>
random_number_generate():
/home/yin/imx-optee/optee_examples/random/ta/random_example_ta.c:73
      40:	4e11      	ldr	r6, [pc, #68]	; (88 <TA_InvokeCommandEntryPoint+0x52>)
      42:	2203      	movs	r2, #3
      44:	4b11      	ldr	r3, [pc, #68]	; (8c <TA_InvokeCommandEntryPoint+0x56>)
      46:	2149      	movs	r1, #73	; 0x49
      48:	447e      	add	r6, pc
      4a:	447b      	add	r3, pc
      4c:	4630      	mov	r0, r6
      4e:	9300      	str	r3, [sp, #0]
      50:	2301      	movs	r3, #1
      52:	f003 ffad 	bl	3fb0 <trace_printf>
/home/yin/imx-optee/optee_examples/random/ta/random_example_ta.c:74
      56:	2f06      	cmp	r7, #6
      58:	d111      	bne.n	7e <TA_InvokeCommandEntryPoint+0x48>
/home/yin/imx-optee/optee_examples/random/ta/random_example_ta.c:77
      5a:	686b      	ldr	r3, [r5, #4]
      5c:	2202      	movs	r2, #2
      5e:	214d      	movs	r1, #77	; 0x4d
      60:	4630      	mov	r0, r6
      62:	9301      	str	r3, [sp, #4]
      64:	4b0a      	ldr	r3, [pc, #40]	; (90 <TA_InvokeCommandEntryPoint+0x5a>)
      66:	447b      	add	r3, pc
      68:	9300      	str	r3, [sp, #0]
      6a:	2301      	movs	r3, #1
      6c:	f003 ffa0 	bl	3fb0 <trace_printf>
/home/yin/imx-optee/optee_examples/random/ta/random_example_ta.c:86
      70:	e895 0003 	ldmia.w	r5, {r0, r1}
      74:	f001 fadd 	bl	1632 <TEE_GenerateRandom>
/home/yin/imx-optee/optee_examples/random/ta/random_example_ta.c:88
      78:	4620      	mov	r0, r4
TA_InvokeCommandEntryPoint():
/home/yin/imx-optee/optee_examples/random/ta/random_example_ta.c:103
      7a:	b003      	add	sp, #12
      7c:	bdf0      	pop	{r4, r5, r6, r7, pc}
random_number_generate():
/home/yin/imx-optee/optee_examples/random/ta/random_example_ta.c:75
      7e:	4801      	ldr	r0, [pc, #4]	; (84 <TA_InvokeCommandEntryPoint+0x4e>)
      80:	e7fb      	b.n	7a <TA_InvokeCommandEntryPoint+0x44>
      82:	bf00      	nop
      84:	ffff0006 	.word	0xffff0006
      88:	00007908 	.word	0x00007908
      8c:	0000791d 	.word	0x0000791d
      90:	00007911 	.word	0x00007911

00000094 <tee_buffer_update>:
tee_buffer_update():
/home/yin/imx-optee/imx-optee-os/lib/libutee/tee_api_operations.c:845
      94:	e92d 4ff0 	stmdb	sp!, {r4, r5, r6, r7, r8, r9, sl, fp, lr}
      98:	b087      	sub	sp, #28
      9a:	461f      	mov	r7, r3
/home/yin/imx-optee/imx-optee-os/lib/libutee/tee_api_operations.c:850
      9c:	9b11      	ldr	r3, [sp, #68]	; 0x44
/home/yin/imx-optee/imx-optee-os/lib/libutee/tee_api_operations.c:845
      9e:	4604      	mov	r4, r0
      a0:	468b      	mov	fp, r1
      a2:	f8dd 8040 	ldr.w	r8, [sp, #64]	; 0x40
/home/yin/imx-optee/imx-optee-os/lib/libutee/tee_api_operations.c:857
      a6:	4692      	mov	sl, r2
/home/yin/imx-optee/imx-optee-os/lib/libutee/tee_api_operations.c:850
      a8:	e9d3 0100 	ldrd	r0, r1, [r3]
      ac:	e9cd 0102 	strd	r0, r1, [sp, #8]
/home/yin/imx-optee/imx-optee-os/lib/libutee/tee_api_operations.c:857
      b0:	b962      	cbnz	r2, cc <tee_buffer_update+0x38>
/home/yin/imx-optee/imx-optee-os/lib/libutee/tee_api_operations.c:858
      b2:	b93f      	cbnz	r7, c4 <tee_buffer_update+0x30>
/home/yin/imx-optee/imx-optee-os/lib/libutee/tee_api_operations.c:851
      b4:	2500      	movs	r5, #0
/home/yin/imx-optee/imx-optee-os/lib/libutee/tee_api_operations.c:933
      b6:	9b11      	ldr	r3, [sp, #68]	; 0x44
      b8:	2000      	movs	r0, #0
      ba:	601d      	str	r5, [r3, #0]
      bc:	6058      	str	r0, [r3, #4]
/home/yin/imx-optee/imx-optee-os/lib/libutee/tee_api_operations.c:935
      be:	b007      	add	sp, #28
      c0:	e8bd 8ff0 	ldmia.w	sp!, {r4, r5, r6, r7, r8, r9, sl, fp, pc}
/home/yin/imx-optee/imx-optee-os/lib/libutee/tee_api_operations.c:859
      c4:	4610      	mov	r0, r2
      c6:	f004 fedd 	bl	4e84 <TEE_Panic>
      ca:	e7f3      	b.n	b4 <tee_buffer_update+0x20>
/home/yin/imx-optee/imx-optee-os/lib/libutee/tee_api_operations.c:863
      cc:	f894 3030 	ldrb.w	r3, [r4, #48]	; 0x30
      d0:	6b65      	ldr	r5, [r4, #52]	; 0x34
      d2:	2b00      	cmp	r3, #0
      d4:	d058      	beq.n	188 <tee_buffer_update+0xf4>
/home/yin/imx-optee/imx-optee-os/lib/libutee/tee_api_operations.c:864
      d6:	006e      	lsls	r6, r5, #1
/home/yin/imx-optee/imx-optee-os/lib/libutee/tee_api_operations.c:865
      d8:	f04f 0901 	mov.w	r9, #1
/home/yin/imx-optee/imx-optee-os/lib/libutee/tee_api_operations.c:871
      dc:	6ba0      	ldr	r0, [r4, #56]	; 0x38
      de:	b1b0      	cbz	r0, 10e <tee_buffer_update+0x7a>
/home/yin/imx-optee/imx-optee-os/lib/libutee/tee_api_operations.c:873
      e0:	42a8      	cmp	r0, r5
/home/yin/imx-optee/imx-optee-os/lib/libutee/tee_api_operations.c:877
      e2:	6ae3      	ldr	r3, [r4, #44]	; 0x2c
/home/yin/imx-optee/imx-optee-os/lib/libutee/tee_api_operations.c:876
      e4:	bf2c      	ite	cs
      e6:	1a35      	subcs	r5, r6, r0
/home/yin/imx-optee/imx-optee-os/lib/libutee/tee_api_operations.c:874
      e8:	1a2d      	subcc	r5, r5, r0
/home/yin/imx-optee/imx-optee-os/lib/libutee/tee_api_operations.c:876
      ea:	42bd      	cmp	r5, r7
/home/yin/imx-optee/imx-optee-os/lib/libutee/tee_api_operations.c:877
      ec:	4651      	mov	r1, sl
/home/yin/imx-optee/imx-optee-os/lib/libutee/tee_api_operations.c:876
      ee:	bf28      	it	cs
      f0:	463d      	movcs	r5, r7
/home/yin/imx-optee/imx-optee-os/lib/libutee/tee_api_operations.c:877
      f2:	4418      	add	r0, r3
      f4:	462a      	mov	r2, r5
      f6:	f004 feec 	bl	4ed2 <memcpy>
/home/yin/imx-optee/imx-optee-os/lib/libutee/tee_api_operations.c:878
      fa:	6ba0      	ldr	r0, [r4, #56]	; 0x38
/home/yin/imx-optee/imx-optee-os/lib/libutee/tee_api_operations.c:881
      fc:	6b61      	ldr	r1, [r4, #52]	; 0x34
/home/yin/imx-optee/imx-optee-os/lib/libutee/tee_api_operations.c:878
      fe:	4428      	add	r0, r5
     100:	63a0      	str	r0, [r4, #56]	; 0x38
/home/yin/imx-optee/imx-optee-os/lib/libutee/tee_api_operations.c:881
     102:	f004 ff60 	bl	4fc6 <__aeabi_uidivmod>
     106:	2900      	cmp	r1, #0
     108:	d1d4      	bne.n	b4 <tee_buffer_update+0x20>
/home/yin/imx-optee/imx-optee-os/lib/libutee/tee_api_operations.c:879
     10a:	44aa      	add	sl, r5
/home/yin/imx-optee/imx-optee-os/lib/libutee/tee_api_operations.c:880
     10c:	1b7f      	subs	r7, r7, r5
/home/yin/imx-optee/imx-optee-os/lib/libutee/tee_api_operations.c:886
     10e:	6ba5      	ldr	r5, [r4, #56]	; 0x38
/home/yin/imx-optee/imx-optee-os/lib/libutee/tee_api_operations.c:850
     110:	9902      	ldr	r1, [sp, #8]
/home/yin/imx-optee/imx-optee-os/lib/libutee/tee_api_operations.c:886
     112:	2d00      	cmp	r5, #0
     114:	d03c      	beq.n	190 <tee_buffer_update+0xfc>
/home/yin/imx-optee/imx-optee-os/lib/libutee/tee_api_operations.c:887 (discriminator 1)
     116:	1978      	adds	r0, r7, r5
     118:	eb06 0309 	add.w	r3, r6, r9
/home/yin/imx-optee/imx-optee-os/lib/libutee/tee_api_operations.c:886 (discriminator 1)
     11c:	4298      	cmp	r0, r3
     11e:	d336      	bcc.n	18e <tee_buffer_update+0xfa>
/home/yin/imx-optee/imx-optee-os/lib/libutee/tee_api_operations.c:888
     120:	6b62      	ldr	r2, [r4, #52]	; 0x34
     122:	1e53      	subs	r3, r2, #1
     124:	4252      	negs	r2, r2
     126:	1b9b      	subs	r3, r3, r6
     128:	4403      	add	r3, r0
/home/yin/imx-optee/imx-optee-os/lib/libutee/tee_api_operations.c:891
     12a:	e9dd 0102 	ldrd	r0, r1, [sp, #8]
/home/yin/imx-optee/imx-optee-os/lib/libutee/tee_api_operations.c:888
     12e:	4013      	ands	r3, r2
/home/yin/imx-optee/imx-optee-os/lib/libutee/tee_api_operations.c:891
     130:	2100      	movs	r1, #0
/home/yin/imx-optee/imx-optee-os/lib/libutee/tee_api_operations.c:890
     132:	429d      	cmp	r5, r3
     134:	bf28      	it	cs
     136:	461d      	movcs	r5, r3
/home/yin/imx-optee/imx-optee-os/lib/libutee/tee_api_operations.c:891
     138:	ab06      	add	r3, sp, #24
     13a:	e963 0102 	strd	r0, r1, [r3, #-8]!
/home/yin/imx-optee/imx-optee-os/lib/libutee/tee_api_operations.c:892
     13e:	462a      	mov	r2, r5
     140:	9300      	str	r3, [sp, #0]
     142:	4643      	mov	r3, r8
     144:	6ae1      	ldr	r1, [r4, #44]	; 0x2c
     146:	6be0      	ldr	r0, [r4, #60]	; 0x3c
     148:	47d8      	blx	fp
/home/yin/imx-optee/imx-optee-os/lib/libutee/tee_api_operations.c:893
     14a:	b108      	cbz	r0, 150 <tee_buffer_update+0xbc>
/home/yin/imx-optee/imx-optee-os/lib/libutee/tee_api_operations.c:894
     14c:	f004 fe9a 	bl	4e84 <TEE_Panic>
/home/yin/imx-optee/imx-optee-os/lib/libutee/tee_api_operations.c:895
     150:	9b04      	ldr	r3, [sp, #16]
/home/yin/imx-optee/imx-optee-os/lib/libutee/tee_api_operations.c:896
     152:	9a02      	ldr	r2, [sp, #8]
/home/yin/imx-optee/imx-optee-os/lib/libutee/tee_api_operations.c:895
     154:	4498      	add	r8, r3
/home/yin/imx-optee/imx-optee-os/lib/libutee/tee_api_operations.c:896
     156:	1ad1      	subs	r1, r2, r3
/home/yin/imx-optee/imx-optee-os/lib/libutee/tee_api_operations.c:898
     158:	6ba2      	ldr	r2, [r4, #56]	; 0x38
     15a:	1b52      	subs	r2, r2, r5
     15c:	63a2      	str	r2, [r4, #56]	; 0x38
/home/yin/imx-optee/imx-optee-os/lib/libutee/tee_api_operations.c:899
     15e:	2a00      	cmp	r2, #0
     160:	d041      	beq.n	1e6 <tee_buffer_update+0x152>
/home/yin/imx-optee/imx-optee-os/lib/libutee/tee_api_operations.c:903
     162:	6ae0      	ldr	r0, [r4, #44]	; 0x2c
     164:	1b72      	subs	r2, r6, r5
     166:	9302      	str	r3, [sp, #8]
     168:	1941      	adds	r1, r0, r5
     16a:	f004 feb2 	bl	4ed2 <memcpy>
/home/yin/imx-optee/imx-optee-os/lib/libutee/tee_api_operations.c:904
     16e:	6ae5      	ldr	r5, [r4, #44]	; 0x2c
     170:	463a      	mov	r2, r7
     172:	6ba0      	ldr	r0, [r4, #56]	; 0x38
     174:	4651      	mov	r1, sl
     176:	4428      	add	r0, r5
     178:	f004 feab 	bl	4ed2 <memcpy>
/home/yin/imx-optee/imx-optee-os/lib/libutee/tee_api_operations.c:905
     17c:	6ba2      	ldr	r2, [r4, #56]	; 0x38
/home/yin/imx-optee/imx-optee-os/lib/libutee/tee_api_operations.c:897
     17e:	9b02      	ldr	r3, [sp, #8]
/home/yin/imx-optee/imx-optee-os/lib/libutee/tee_api_operations.c:905
     180:	4417      	add	r7, r2
     182:	63a7      	str	r7, [r4, #56]	; 0x38
/home/yin/imx-optee/imx-optee-os/lib/libutee/tee_api_operations.c:897
     184:	461d      	mov	r5, r3
/home/yin/imx-optee/imx-optee-os/lib/libutee/tee_api_operations.c:906
     186:	e796      	b.n	b6 <tee_buffer_update+0x22>
/home/yin/imx-optee/imx-optee-os/lib/libutee/tee_api_operations.c:867
     188:	462e      	mov	r6, r5
/home/yin/imx-optee/imx-optee-os/lib/libutee/tee_api_operations.c:868
     18a:	4699      	mov	r9, r3
     18c:	e7a6      	b.n	dc <tee_buffer_update+0x48>
/home/yin/imx-optee/imx-optee-os/lib/libutee/tee_api_operations.c:851
     18e:	2500      	movs	r5, #0
/home/yin/imx-optee/imx-optee-os/lib/libutee/tee_api_operations.c:910
     190:	44b1      	add	r9, r6
     192:	454f      	cmp	r7, r9
     194:	d31c      	bcc.n	1d0 <tee_buffer_update+0x13c>
/home/yin/imx-optee/imx-optee-os/lib/libutee/tee_api_operations.c:912
     196:	4b15      	ldr	r3, [pc, #84]	; (1ec <tee_buffer_update+0x158>)
     198:	6822      	ldr	r2, [r4, #0]
/home/yin/imx-optee/imx-optee-os/lib/libutee/tee_api_operations.c:917
     19a:	9104      	str	r1, [sp, #16]
/home/yin/imx-optee/imx-optee-os/lib/libutee/tee_api_operations.c:918
     19c:	4651      	mov	r1, sl
     19e:	6be0      	ldr	r0, [r4, #60]	; 0x3c
/home/yin/imx-optee/imx-optee-os/lib/libutee/tee_api_operations.c:912
     1a0:	429a      	cmp	r2, r3
     1a2:	6b62      	ldr	r2, [r4, #52]	; 0x34
/home/yin/imx-optee/imx-optee-os/lib/libutee/tee_api_operations.c:913
     1a4:	bf0a      	itet	eq
     1a6:	f102 33ff 	addeq.w	r3, r2, #4294967295	; 0xffffffff
/home/yin/imx-optee/imx-optee-os/lib/libutee/tee_api_operations.c:915
     1aa:	1b96      	subne	r6, r2, r6
/home/yin/imx-optee/imx-optee-os/lib/libutee/tee_api_operations.c:913
     1ac:	1b9e      	subeq	r6, r3, r6
/home/yin/imx-optee/imx-optee-os/lib/libutee/tee_api_operations.c:915
     1ae:	4252      	negs	r2, r2
/home/yin/imx-optee/imx-optee-os/lib/libutee/tee_api_operations.c:917
     1b0:	2300      	movs	r3, #0
/home/yin/imx-optee/imx-optee-os/lib/libutee/tee_api_operations.c:915
     1b2:	443e      	add	r6, r7
     1b4:	4016      	ands	r6, r2
/home/yin/imx-optee/imx-optee-os/lib/libutee/tee_api_operations.c:917
     1b6:	9305      	str	r3, [sp, #20]
/home/yin/imx-optee/imx-optee-os/lib/libutee/tee_api_operations.c:918
     1b8:	ab04      	add	r3, sp, #16
     1ba:	4632      	mov	r2, r6
     1bc:	9300      	str	r3, [sp, #0]
     1be:	4643      	mov	r3, r8
     1c0:	47d8      	blx	fp
/home/yin/imx-optee/imx-optee-os/lib/libutee/tee_api_operations.c:919
     1c2:	b108      	cbz	r0, 1c8 <tee_buffer_update+0x134>
/home/yin/imx-optee/imx-optee-os/lib/libutee/tee_api_operations.c:920
     1c4:	f004 fe5e 	bl	4e84 <TEE_Panic>
/home/yin/imx-optee/imx-optee-os/lib/libutee/tee_api_operations.c:925
     1c8:	9b04      	ldr	r3, [sp, #16]
/home/yin/imx-optee/imx-optee-os/lib/libutee/tee_api_operations.c:921
     1ca:	44b2      	add	sl, r6
/home/yin/imx-optee/imx-optee-os/lib/libutee/tee_api_operations.c:922
     1cc:	1bbf      	subs	r7, r7, r6
/home/yin/imx-optee/imx-optee-os/lib/libutee/tee_api_operations.c:925
     1ce:	441d      	add	r5, r3
/home/yin/imx-optee/imx-optee-os/lib/libutee/tee_api_operations.c:929
     1d0:	6ba3      	ldr	r3, [r4, #56]	; 0x38
     1d2:	463a      	mov	r2, r7
     1d4:	6ae0      	ldr	r0, [r4, #44]	; 0x2c
     1d6:	4651      	mov	r1, sl
     1d8:	4418      	add	r0, r3
     1da:	f004 fe7a 	bl	4ed2 <memcpy>
/home/yin/imx-optee/imx-optee-os/lib/libutee/tee_api_operations.c:930
     1de:	6ba3      	ldr	r3, [r4, #56]	; 0x38
     1e0:	441f      	add	r7, r3
     1e2:	63a7      	str	r7, [r4, #56]	; 0x38
     1e4:	e767      	b.n	b6 <tee_buffer_update+0x22>
/home/yin/imx-optee/imx-optee-os/lib/libutee/tee_api_operations.c:897
     1e6:	461d      	mov	r5, r3
     1e8:	e7d2      	b.n	190 <tee_buffer_update+0xfc>
     1ea:	bf00      	nop
     1ec:	10000310 	.word	0x10000310

000001f0 <TEE_FreeOperation>:
TEE_FreeOperation():
/home/yin/imx-optee/imx-optee-os/lib/libutee/tee_api_operations.c:344
     1f0:	b510      	push	{r4, lr}
/home/yin/imx-optee/imx-optee-os/lib/libutee/tee_api_operations.c:347
     1f2:	4604      	mov	r4, r0
     1f4:	b908      	cbnz	r0, 1fa <TEE_FreeOperation+0xa>
/home/yin/imx-optee/imx-optee-os/lib/libutee/tee_api_operations.c:348
     1f6:	f004 fe45 	bl	4e84 <TEE_Panic>
/home/yin/imx-optee/imx-optee-os/lib/libutee/tee_api_operations.c:355
     1fa:	6be0      	ldr	r0, [r4, #60]	; 0x3c
     1fc:	f001 ebf2 	blx	19e4 <utee_cryp_state_free>
/home/yin/imx-optee/imx-optee-os/lib/libutee/tee_api_operations.c:356
     200:	b108      	cbz	r0, 206 <TEE_FreeOperation+0x16>
/home/yin/imx-optee/imx-optee-os/lib/libutee/tee_api_operations.c:357
     202:	f004 fe3f 	bl	4e84 <TEE_Panic>
/home/yin/imx-optee/imx-optee-os/lib/libutee/tee_api_operations.c:359
     206:	6ae0      	ldr	r0, [r4, #44]	; 0x2c
     208:	f002 f9da 	bl	25c0 <TEE_Free>
/home/yin/imx-optee/imx-optee-os/lib/libutee/tee_api_operations.c:360
     20c:	4620      	mov	r0, r4
/home/yin/imx-optee/imx-optee-os/lib/libutee/tee_api_operations.c:361
     20e:	e8bd 4010 	ldmia.w	sp!, {r4, lr}
/home/yin/imx-optee/imx-optee-os/lib/libutee/tee_api_operations.c:360
     212:	f002 b9d5 	b.w	25c0 <TEE_Free>

00000216 <TEE_AllocateOperation>:
TEE_AllocateOperation():
/home/yin/imx-optee/imx-optee-os/lib/libutee/tee_api_operations.c:37
     216:	e92d 4ff0 	stmdb	sp!, {r4, r5, r6, r7, r8, r9, sl, fp, lr}
     21a:	b087      	sub	sp, #28
     21c:	460c      	mov	r4, r1
     21e:	4617      	mov	r7, r2
     220:	4699      	mov	r9, r3
/home/yin/imx-optee/imx-optee-os/lib/libutee/tee_api_operations.c:46
     222:	9003      	str	r0, [sp, #12]
     224:	b908      	cbnz	r0, 22a <TEE_AllocateOperation+0x14>
/home/yin/imx-optee/imx-optee-os/lib/libutee/tee_api_operations.c:47
     226:	f004 fe2d 	bl	4e84 <TEE_Panic>
/home/yin/imx-optee/imx-optee-os/lib/libutee/tee_api_operations.c:49
     22a:	4bc0      	ldr	r3, [pc, #768]	; (52c <TEE_AllocateOperation+0x316>)
     22c:	429c      	cmp	r4, r3
     22e:	f000 81b9 	beq.w	5a4 <TEE_AllocateOperation+0x38e>
/home/yin/imx-optee/imx-optee-os/lib/libutee/tee_api_operations.c:53
     232:	4bbf      	ldr	r3, [pc, #764]	; (530 <TEE_AllocateOperation+0x31a>)
     234:	429c      	cmp	r4, r3
     236:	d06e      	beq.n	316 <TEE_AllocateOperation+0x100>
     238:	d83f      	bhi.n	2ba <TEE_AllocateOperation+0xa4>
     23a:	4abe      	ldr	r2, [pc, #760]	; (534 <TEE_AllocateOperation+0x31e>)
     23c:	4294      	cmp	r4, r2
     23e:	d055      	beq.n	2ec <TEE_AllocateOperation+0xd6>
     240:	d82d      	bhi.n	29e <TEE_AllocateOperation+0x88>
     242:	f5a2 5287 	sub.w	r2, r2, #4320	; 0x10e0
     246:	3a10      	subs	r2, #16
     248:	4294      	cmp	r4, r2
     24a:	d040      	beq.n	2ce <TEE_AllocateOperation+0xb8>
     24c:	f502 5280 	add.w	r2, r2, #4096	; 0x1000
     250:	4294      	cmp	r4, r2
     252:	d065      	beq.n	320 <TEE_AllocateOperation+0x10a>
/home/yin/imx-optee/imx-optee-os/lib/libutee/tee_api_operations.c:108
     254:	4ab7      	ldr	r2, [pc, #732]	; (534 <TEE_AllocateOperation+0x31e>)
     256:	4294      	cmp	r4, r2
     258:	d050      	beq.n	2fc <TEE_AllocateOperation+0xe6>
     25a:	f200 80d6 	bhi.w	40a <TEE_AllocateOperation+0x1f4>
     25e:	4bb6      	ldr	r3, [pc, #728]	; (538 <TEE_AllocateOperation+0x322>)
     260:	429c      	cmp	r4, r3
     262:	d07d      	beq.n	360 <TEE_AllocateOperation+0x14a>
     264:	f200 808e 	bhi.w	384 <TEE_AllocateOperation+0x16e>
     268:	4bb4      	ldr	r3, [pc, #720]	; (53c <TEE_AllocateOperation+0x326>)
     26a:	429c      	cmp	r4, r3
     26c:	f000 81ab 	beq.w	5c6 <TEE_AllocateOperation+0x3b0>
     270:	d86b      	bhi.n	34a <TEE_AllocateOperation+0x134>
     272:	f46f 70ff 	mvn.w	r0, #510	; 0x1fe
     276:	4403      	add	r3, r0
     278:	429c      	cmp	r4, r3
     27a:	d85b      	bhi.n	334 <TEE_AllocateOperation+0x11e>
     27c:	3b01      	subs	r3, #1
     27e:	429c      	cmp	r4, r3
     280:	d209      	bcs.n	296 <TEE_AllocateOperation+0x80>
     282:	f5a3 7380 	sub.w	r3, r3, #256	; 0x100
     286:	429c      	cmp	r4, r3
     288:	d324      	bcc.n	2d4 <TEE_AllocateOperation+0xbe>
     28a:	3301      	adds	r3, #1
     28c:	429c      	cmp	r4, r3
     28e:	d902      	bls.n	296 <TEE_AllocateOperation+0x80>
     290:	3302      	adds	r3, #2
     292:	429c      	cmp	r4, r3
     294:	d11e      	bne.n	2d4 <TEE_AllocateOperation+0xbe>
     296:	f04f 0800 	mov.w	r8, #0
/home/yin/imx-optee/imx-optee-os/lib/libutee/tee_api_operations.c:44
     29a:	4646      	mov	r6, r8
     29c:	e185      	b.n	5aa <TEE_AllocateOperation+0x394>
/home/yin/imx-optee/imx-optee-os/lib/libutee/tee_api_operations.c:53
     29e:	4aa8      	ldr	r2, [pc, #672]	; (540 <TEE_AllocateOperation+0x32a>)
     2a0:	4294      	cmp	r4, r2
     2a2:	d034      	beq.n	30e <TEE_AllocateOperation+0xf8>
     2a4:	f502 6271 	add.w	r2, r2, #3856	; 0xf10
     2a8:	4294      	cmp	r4, r2
     2aa:	d03c      	beq.n	326 <TEE_AllocateOperation+0x110>
     2ac:	f5a2 5280 	sub.w	r2, r2, #4096	; 0x1000
     2b0:	4294      	cmp	r4, r2
     2b2:	d1cf      	bne.n	254 <TEE_AllocateOperation+0x3e>
/home/yin/imx-optee/imx-optee-os/lib/libutee/tee_api_operations.c:87
     2b4:	f5b9 7f80 	cmp.w	r9, #256	; 0x100
     2b8:	e00b      	b.n	2d2 <TEE_AllocateOperation+0xbc>
/home/yin/imx-optee/imx-optee-os/lib/libutee/tee_api_operations.c:53
     2ba:	4aa2      	ldr	r2, [pc, #648]	; (544 <TEE_AllocateOperation+0x32e>)
     2bc:	4294      	cmp	r4, r2
     2be:	d02f      	beq.n	320 <TEE_AllocateOperation+0x10a>
     2c0:	d80a      	bhi.n	2d8 <TEE_AllocateOperation+0xc2>
     2c2:	4aa1      	ldr	r2, [pc, #644]	; (548 <TEE_AllocateOperation+0x332>)
     2c4:	4294      	cmp	r4, r2
     2c6:	d031      	beq.n	32c <TEE_AllocateOperation+0x116>
     2c8:	4aa0      	ldr	r2, [pc, #640]	; (54c <TEE_AllocateOperation+0x336>)
     2ca:	4294      	cmp	r4, r2
     2cc:	d1c2      	bne.n	254 <TEE_AllocateOperation+0x3e>
/home/yin/imx-optee/imx-optee-os/lib/libutee/tee_api_operations.c:75
     2ce:	f1b9 0fc0 	cmp.w	r9, #192	; 0xc0
/home/yin/imx-optee/imx-optee-os/lib/libutee/tee_api_operations.c:99
     2d2:	d0bf      	beq.n	254 <TEE_AllocateOperation+0x3e>
/home/yin/imx-optee/imx-optee-os/lib/libutee/tee_api_operations.c:56
     2d4:	4e9e      	ldr	r6, [pc, #632]	; (550 <TEE_AllocateOperation+0x33a>)
     2d6:	e1c9      	b.n	66c <TEE_AllocateOperation+0x456>
/home/yin/imx-optee/imx-optee-os/lib/libutee/tee_api_operations.c:53
     2d8:	4a9e      	ldr	r2, [pc, #632]	; (554 <TEE_AllocateOperation+0x33e>)
     2da:	4294      	cmp	r4, r2
     2dc:	d023      	beq.n	326 <TEE_AllocateOperation+0x110>
     2de:	f502 5280 	add.w	r2, r2, #4096	; 0x1000
     2e2:	4294      	cmp	r4, r2
     2e4:	d022      	beq.n	32c <TEE_AllocateOperation+0x116>
     2e6:	f5a2 5200 	sub.w	r2, r2, #8192	; 0x2000
     2ea:	e7e1      	b.n	2b0 <TEE_AllocateOperation+0x9a>
/home/yin/imx-optee/imx-optee-os/lib/libutee/tee_api_operations.c:55
     2ec:	f5a9 7300 	sub.w	r3, r9, #512	; 0x200
     2f0:	f5b3 7f00 	cmp.w	r3, #512	; 0x200
     2f4:	d8ee      	bhi.n	2d4 <TEE_AllocateOperation+0xbe>
/home/yin/imx-optee/imx-optee-os/lib/libutee/tee_api_operations.c:59
     2f6:	f019 0f3f 	tst.w	r9, #63	; 0x3f
     2fa:	d1eb      	bne.n	2d4 <TEE_AllocateOperation+0xbe>
/home/yin/imx-optee/imx-optee-os/lib/libutee/tee_api_operations.c:154
     2fc:	2f02      	cmp	r7, #2
     2fe:	f000 81bc 	beq.w	67a <TEE_AllocateOperation+0x464>
/home/yin/imx-optee/imx-optee-os/lib/libutee/tee_api_operations.c:157
     302:	2f03      	cmp	r7, #3
     304:	d1e6      	bne.n	2d4 <TEE_AllocateOperation+0xbe>
/home/yin/imx-optee/imx-optee-os/lib/libutee/tee_api_operations.c:44
     306:	2600      	movs	r6, #0
/home/yin/imx-optee/imx-optee-os/lib/libutee/tee_api_operations.c:158
     308:	2220      	movs	r2, #32
/home/yin/imx-optee/imx-optee-os/lib/libutee/tee_api_operations.c:43
     30a:	46b2      	mov	sl, r6
     30c:	e02d      	b.n	36a <TEE_AllocateOperation+0x154>
/home/yin/imx-optee/imx-optee-os/lib/libutee/tee_api_operations.c:64
     30e:	f5b9 6f00 	cmp.w	r9, #2048	; 0x800
/home/yin/imx-optee/imx-optee-os/lib/libutee/tee_api_operations.c:108
     312:	d1df      	bne.n	2d4 <TEE_AllocateOperation+0xbe>
     314:	e7f2      	b.n	2fc <TEE_AllocateOperation+0xe6>
/home/yin/imx-optee/imx-optee-os/lib/libutee/tee_api_operations.c:69
     316:	f429 6380 	bic.w	r3, r9, #1024	; 0x400
     31a:	f5b3 6f00 	cmp.w	r3, #2048	; 0x800
     31e:	e7f8      	b.n	312 <TEE_AllocateOperation+0xfc>
/home/yin/imx-optee/imx-optee-os/lib/libutee/tee_api_operations.c:81
     320:	f1b9 0fe0 	cmp.w	r9, #224	; 0xe0
     324:	e7d5      	b.n	2d2 <TEE_AllocateOperation+0xbc>
/home/yin/imx-optee/imx-optee-os/lib/libutee/tee_api_operations.c:93
     326:	f5b9 7fc0 	cmp.w	r9, #384	; 0x180
     32a:	e7d2      	b.n	2d2 <TEE_AllocateOperation+0xbc>
/home/yin/imx-optee/imx-optee-os/lib/libutee/tee_api_operations.c:99
     32c:	f240 2209 	movw	r2, #521	; 0x209
     330:	4591      	cmp	r9, r2
     332:	e7ce      	b.n	2d2 <TEE_AllocateOperation+0xbc>
/home/yin/imx-optee/imx-optee-os/lib/libutee/tee_api_operations.c:108
     334:	4b88      	ldr	r3, [pc, #544]	; (558 <TEE_AllocateOperation+0x342>)
     336:	429c      	cmp	r4, r3
     338:	d0ad      	beq.n	296 <TEE_AllocateOperation+0x80>
     33a:	33fd      	adds	r3, #253	; 0xfd
     33c:	429c      	cmp	r4, r3
     33e:	d1c9      	bne.n	2d4 <TEE_AllocateOperation+0xbe>
     340:	f04f 0800 	mov.w	r8, #0
/home/yin/imx-optee/imx-optee-os/lib/libutee/tee_api_operations.c:41
     344:	2301      	movs	r3, #1
/home/yin/imx-optee/imx-optee-os/lib/libutee/tee_api_operations.c:44
     346:	4646      	mov	r6, r8
     348:	e134      	b.n	5b4 <TEE_AllocateOperation+0x39e>
/home/yin/imx-optee/imx-optee-os/lib/libutee/tee_api_operations.c:108
     34a:	4b84      	ldr	r3, [pc, #528]	; (55c <TEE_AllocateOperation+0x346>)
     34c:	429c      	cmp	r4, r3
     34e:	d80f      	bhi.n	370 <TEE_AllocateOperation+0x15a>
     350:	3b01      	subs	r3, #1
     352:	429c      	cmp	r4, r3
     354:	d204      	bcs.n	360 <TEE_AllocateOperation+0x14a>
     356:	f104 4350 	add.w	r3, r4, #3489660928	; 0xd0000000
     35a:	3b01      	subs	r3, #1
     35c:	2b05      	cmp	r3, #5
     35e:	d8b9      	bhi.n	2d4 <TEE_AllocateOperation+0xbe>
/home/yin/imx-optee/imx-optee-os/lib/libutee/tee_api_operations.c:241
     360:	2f04      	cmp	r7, #4
     362:	d1b7      	bne.n	2d4 <TEE_AllocateOperation+0xbe>
/home/yin/imx-optee/imx-optee-os/lib/libutee/tee_api_operations.c:44
     364:	2600      	movs	r6, #0
/home/yin/imx-optee/imx-optee-os/lib/libutee/tee_api_operations.c:243
     366:	2208      	movs	r2, #8
/home/yin/imx-optee/imx-optee-os/lib/libutee/tee_api_operations.c:43
     368:	46b2      	mov	sl, r6
/home/yin/imx-optee/imx-optee-os/lib/libutee/tee_api_operations.c:41
     36a:	2301      	movs	r3, #1
     36c:	46b0      	mov	r8, r6
     36e:	e140      	b.n	5f2 <TEE_AllocateOperation+0x3dc>
/home/yin/imx-optee/imx-optee-os/lib/libutee/tee_api_operations.c:108
     370:	4b7b      	ldr	r3, [pc, #492]	; (560 <TEE_AllocateOperation+0x34a>)
     372:	429c      	cmp	r4, r3
     374:	d0f4      	beq.n	360 <TEE_AllocateOperation+0x14a>
     376:	d3ad      	bcc.n	2d4 <TEE_AllocateOperation+0xbe>
     378:	f104 4350 	add.w	r3, r4, #3489660928	; 0xd0000000
     37c:	f5a3 63a2 	sub.w	r3, r3, #1296	; 0x510
     380:	2b01      	cmp	r3, #1
     382:	e7ec      	b.n	35e <TEE_AllocateOperation+0x148>
     384:	4b77      	ldr	r3, [pc, #476]	; (564 <TEE_AllocateOperation+0x34e>)
     386:	429c      	cmp	r4, r3
     388:	d01b      	beq.n	3c2 <TEE_AllocateOperation+0x1ac>
     38a:	d823      	bhi.n	3d4 <TEE_AllocateOperation+0x1be>
     38c:	4b76      	ldr	r3, [pc, #472]	; (568 <TEE_AllocateOperation+0x352>)
     38e:	429c      	cmp	r4, r3
     390:	d80f      	bhi.n	3b2 <TEE_AllocateOperation+0x19c>
     392:	f1b4 4fa0 	cmp.w	r4, #1342177280	; 0x50000000
     396:	f200 8123 	bhi.w	5e0 <TEE_AllocateOperation+0x3ca>
     39a:	4b74      	ldr	r3, [pc, #464]	; (56c <TEE_AllocateOperation+0x356>)
     39c:	429c      	cmp	r4, r3
     39e:	f43f af7a 	beq.w	296 <TEE_AllocateOperation+0x80>
     3a2:	f503 7380 	add.w	r3, r3, #256	; 0x100
     3a6:	429c      	cmp	r4, r3
     3a8:	d0ca      	beq.n	340 <TEE_AllocateOperation+0x12a>
     3aa:	4b71      	ldr	r3, [pc, #452]	; (570 <TEE_AllocateOperation+0x35a>)
     3ac:	429c      	cmp	r4, r3
     3ae:	d191      	bne.n	2d4 <TEE_AllocateOperation+0xbe>
     3b0:	e7d6      	b.n	360 <TEE_AllocateOperation+0x14a>
     3b2:	4b70      	ldr	r3, [pc, #448]	; (574 <TEE_AllocateOperation+0x35e>)
     3b4:	429c      	cmp	r4, r3
     3b6:	f000 8109 	beq.w	5cc <TEE_AllocateOperation+0x3b6>
     3ba:	f503 7380 	add.w	r3, r3, #256	; 0x100
     3be:	429c      	cmp	r4, r3
     3c0:	d188      	bne.n	2d4 <TEE_AllocateOperation+0xbe>
/home/yin/imx-optee/imx-optee-os/lib/libutee/tee_api_operations.c:170
     3c2:	2f00      	cmp	r7, #0
     3c4:	f000 815e 	beq.w	684 <TEE_AllocateOperation+0x46e>
/home/yin/imx-optee/imx-optee-os/lib/libutee/tee_api_operations.c:172
     3c8:	2f01      	cmp	r7, #1
     3ca:	d183      	bne.n	2d4 <TEE_AllocateOperation+0xbe>
/home/yin/imx-optee/imx-optee-os/lib/libutee/tee_api_operations.c:44
     3cc:	2600      	movs	r6, #0
/home/yin/imx-optee/imx-optee-os/lib/libutee/tee_api_operations.c:173
     3ce:	46ba      	mov	sl, r7
/home/yin/imx-optee/imx-optee-os/lib/libutee/tee_api_operations.c:174
     3d0:	2204      	movs	r2, #4
     3d2:	e7ca      	b.n	36a <TEE_AllocateOperation+0x154>
/home/yin/imx-optee/imx-optee-os/lib/libutee/tee_api_operations.c:108
     3d4:	4b68      	ldr	r3, [pc, #416]	; (578 <TEE_AllocateOperation+0x362>)
     3d6:	429c      	cmp	r4, r3
     3d8:	d0f3      	beq.n	3c2 <TEE_AllocateOperation+0x1ac>
     3da:	d80a      	bhi.n	3f2 <TEE_AllocateOperation+0x1dc>
     3dc:	f5a3 1300 	sub.w	r3, r3, #2097152	; 0x200000
     3e0:	429c      	cmp	r4, r3
     3e2:	d0ee      	beq.n	3c2 <TEE_AllocateOperation+0x1ac>
     3e4:	f503 1380 	add.w	r3, r3, #1048576	; 0x100000
     3e8:	429c      	cmp	r4, r3
     3ea:	d0ea      	beq.n	3c2 <TEE_AllocateOperation+0x1ac>
     3ec:	f5a3 1300 	sub.w	r3, r3, #2097152	; 0x200000
     3f0:	e7e5      	b.n	3be <TEE_AllocateOperation+0x1a8>
     3f2:	4b62      	ldr	r3, [pc, #392]	; (57c <TEE_AllocateOperation+0x366>)
     3f4:	429c      	cmp	r4, r3
     3f6:	d081      	beq.n	2fc <TEE_AllocateOperation+0xe6>
     3f8:	f603 0311 	addw	r3, r3, #2065	; 0x811
     3fc:	429c      	cmp	r4, r3
     3fe:	f43f af7d 	beq.w	2fc <TEE_AllocateOperation+0xe6>
     402:	f5a3 5380 	sub.w	r3, r3, #4096	; 0x1000
     406:	429c      	cmp	r4, r3
     408:	e783      	b.n	312 <TEE_AllocateOperation+0xfc>
     40a:	4a5d      	ldr	r2, [pc, #372]	; (580 <TEE_AllocateOperation+0x36a>)
     40c:	4294      	cmp	r4, r2
     40e:	d05e      	beq.n	4ce <TEE_AllocateOperation+0x2b8>
     410:	d849      	bhi.n	4a6 <TEE_AllocateOperation+0x290>
     412:	4a4d      	ldr	r2, [pc, #308]	; (548 <TEE_AllocateOperation+0x332>)
     414:	4294      	cmp	r4, r2
     416:	f43f af71 	beq.w	2fc <TEE_AllocateOperation+0xe6>
     41a:	d81c      	bhi.n	456 <TEE_AllocateOperation+0x240>
     41c:	f5a2 52c0 	sub.w	r2, r2, #6144	; 0x1800
     420:	3a11      	subs	r2, #17
     422:	4294      	cmp	r4, r2
     424:	f43f af6a 	beq.w	2fc <TEE_AllocateOperation+0xe6>
     428:	d80b      	bhi.n	442 <TEE_AllocateOperation+0x22c>
     42a:	4b56      	ldr	r3, [pc, #344]	; (584 <TEE_AllocateOperation+0x36e>)
     42c:	429c      	cmp	r4, r3
     42e:	f43f af65 	beq.w	2fc <TEE_AllocateOperation+0xe6>
     432:	33f0      	adds	r3, #240	; 0xf0
     434:	429c      	cmp	r4, r3
     436:	f43f af61 	beq.w	2fc <TEE_AllocateOperation+0xe6>
     43a:	f46f 6110 	mvn.w	r1, #2304	; 0x900
     43e:	440b      	add	r3, r1
     440:	e7e1      	b.n	406 <TEE_AllocateOperation+0x1f0>
     442:	429c      	cmp	r4, r3
     444:	f43f af5a 	beq.w	2fc <TEE_AllocateOperation+0xe6>
     448:	4b4f      	ldr	r3, [pc, #316]	; (588 <TEE_AllocateOperation+0x372>)
     44a:	429c      	cmp	r4, r3
     44c:	f43f af56 	beq.w	2fc <TEE_AllocateOperation+0xe6>
     450:	f2a3 73ef 	subw	r3, r3, #2031	; 0x7ef
     454:	e7d7      	b.n	406 <TEE_AllocateOperation+0x1f0>
     456:	4b4d      	ldr	r3, [pc, #308]	; (58c <TEE_AllocateOperation+0x376>)
     458:	429c      	cmp	r4, r3
     45a:	f43f af4f 	beq.w	2fc <TEE_AllocateOperation+0xe6>
     45e:	d812      	bhi.n	486 <TEE_AllocateOperation+0x270>
     460:	f5a3 1343 	sub.w	r3, r3, #3194880	; 0x30c000
     464:	f5a3 5388 	sub.w	r3, r3, #4352	; 0x1100
     468:	429c      	cmp	r4, r3
     46a:	f43f af47 	beq.w	2fc <TEE_AllocateOperation+0xe6>
     46e:	f503 1303 	add.w	r3, r3, #2146304	; 0x20c000
     472:	f503 7380 	add.w	r3, r3, #256	; 0x100
     476:	429c      	cmp	r4, r3
     478:	f43f af40 	beq.w	2fc <TEE_AllocateOperation+0xe6>
     47c:	f5a3 1303 	sub.w	r3, r3, #2146304	; 0x20c000
     480:	f5a3 5388 	sub.w	r3, r3, #4352	; 0x1100
     484:	e7bf      	b.n	406 <TEE_AllocateOperation+0x1f0>
     486:	4b42      	ldr	r3, [pc, #264]	; (590 <TEE_AllocateOperation+0x37a>)
     488:	429c      	cmp	r4, r3
     48a:	f43f af37 	beq.w	2fc <TEE_AllocateOperation+0xe6>
     48e:	f503 1380 	add.w	r3, r3, #1048576	; 0x100000
     492:	f503 5380 	add.w	r3, r3, #4096	; 0x1000
     496:	429c      	cmp	r4, r3
     498:	f43f af30 	beq.w	2fc <TEE_AllocateOperation+0xe6>
     49c:	f5a3 1300 	sub.w	r3, r3, #2097152	; 0x200000
     4a0:	f5a3 5300 	sub.w	r3, r3, #8192	; 0x2000
     4a4:	e7af      	b.n	406 <TEE_AllocateOperation+0x1f0>
     4a6:	4b3b      	ldr	r3, [pc, #236]	; (594 <TEE_AllocateOperation+0x37e>)
     4a8:	429c      	cmp	r4, r3
     4aa:	d823      	bhi.n	4f4 <TEE_AllocateOperation+0x2de>
     4ac:	3b01      	subs	r3, #1
     4ae:	429c      	cmp	r4, r3
     4b0:	d20d      	bcs.n	4ce <TEE_AllocateOperation+0x2b8>
     4b2:	f5a3 5383 	sub.w	r3, r3, #4192	; 0x1060
     4b6:	3b1e      	subs	r3, #30
     4b8:	429c      	cmp	r4, r3
     4ba:	d008      	beq.n	4ce <TEE_AllocateOperation+0x2b8>
     4bc:	d810      	bhi.n	4e0 <TEE_AllocateOperation+0x2ca>
     4be:	f5a3 5380 	sub.w	r3, r3, #4096	; 0x1000
     4c2:	429c      	cmp	r4, r3
     4c4:	d003      	beq.n	4ce <TEE_AllocateOperation+0x2b8>
     4c6:	337e      	adds	r3, #126	; 0x7e
     4c8:	429c      	cmp	r4, r3
     4ca:	f47f af03 	bne.w	2d4 <TEE_AllocateOperation+0xbe>
/home/yin/imx-optee/imx-optee-os/lib/libutee/tee_api_operations.c:209
     4ce:	2f06      	cmp	r7, #6
     4d0:	f47f af00 	bne.w	2d4 <TEE_AllocateOperation+0xbe>
/home/yin/imx-optee/imx-optee-os/lib/libutee/tee_api_operations.c:44
     4d4:	2600      	movs	r6, #0
/home/yin/imx-optee/imx-optee-os/lib/libutee/tee_api_operations.c:211
     4d6:	f04f 0a01 	mov.w	sl, #1
/home/yin/imx-optee/imx-optee-os/lib/libutee/tee_api_operations.c:212
     4da:	2240      	movs	r2, #64	; 0x40
/home/yin/imx-optee/imx-optee-os/lib/libutee/tee_api_operations.c:41
     4dc:	4653      	mov	r3, sl
     4de:	e745      	b.n	36c <TEE_AllocateOperation+0x156>
/home/yin/imx-optee/imx-optee-os/lib/libutee/tee_api_operations.c:108
     4e0:	4b2d      	ldr	r3, [pc, #180]	; (598 <TEE_AllocateOperation+0x382>)
     4e2:	429c      	cmp	r4, r3
     4e4:	f4ff aef6 	bcc.w	2d4 <TEE_AllocateOperation+0xbe>
     4e8:	3302      	adds	r3, #2
     4ea:	429c      	cmp	r4, r3
     4ec:	d9ef      	bls.n	4ce <TEE_AllocateOperation+0x2b8>
     4ee:	f503 6378 	add.w	r3, r3, #3968	; 0xf80
     4f2:	e7e9      	b.n	4c8 <TEE_AllocateOperation+0x2b2>
     4f4:	4b29      	ldr	r3, [pc, #164]	; (59c <TEE_AllocateOperation+0x386>)
     4f6:	429c      	cmp	r4, r3
     4f8:	d0e9      	beq.n	4ce <TEE_AllocateOperation+0x2b8>
     4fa:	d80c      	bhi.n	516 <TEE_AllocateOperation+0x300>
     4fc:	f5a3 5380 	sub.w	r3, r3, #4096	; 0x1000
     500:	429c      	cmp	r4, r3
     502:	d0e4      	beq.n	4ce <TEE_AllocateOperation+0x2b8>
     504:	f4ff aee6 	bcc.w	2d4 <TEE_AllocateOperation+0xbe>
     508:	f5a3 4301 	sub.w	r3, r3, #33024	; 0x8100
     50c:	3b02      	subs	r3, #2
     50e:	4423      	add	r3, r4
     510:	2b01      	cmp	r3, #1
     512:	d9dc      	bls.n	4ce <TEE_AllocateOperation+0x2b8>
     514:	e6de      	b.n	2d4 <TEE_AllocateOperation+0xbe>
     516:	4b22      	ldr	r3, [pc, #136]	; (5a0 <TEE_AllocateOperation+0x38a>)
     518:	429c      	cmp	r4, r3
     51a:	f4ff aedb 	bcc.w	2d4 <TEE_AllocateOperation+0xbe>
     51e:	3301      	adds	r3, #1
     520:	429c      	cmp	r4, r3
     522:	d9d4      	bls.n	4ce <TEE_AllocateOperation+0x2b8>
     524:	f5a3 4331 	sub.w	r3, r3, #45312	; 0xb100
     528:	3b81      	subs	r3, #129	; 0x81
     52a:	e7f0      	b.n	50e <TEE_AllocateOperation+0x2f8>
     52c:	10000410 	.word	0x10000410
     530:	70004131 	.word	0x70004131
     534:	70002131 	.word	0x70002131
     538:	30000513 	.word	0x30000513
     53c:	10000310 	.word	0x10000310
     540:	70003131 	.word	0x70003131
     544:	80002042 	.word	0x80002042
     548:	70005041 	.word	0x70005041
     54c:	80001042 	.word	0x80001042
     550:	ffff000a 	.word	0xffff000a
     554:	80004042 	.word	0x80004042
     558:	10000113 	.word	0x10000113
     55c:	30000111 	.word	0x30000111
     560:	30000113 	.word	0x30000113
     564:	60210230 	.word	0x60210230
     568:	50000006 	.word	0x50000006
     56c:	40000710 	.word	0x40000710
     570:	30000610 	.word	0x30000610
     574:	60000030 	.word	0x60000030
     578:	60610230 	.word	0x60610230
     57c:	70001830 	.word	0x70001830
     580:	80000032 	.word	0x80000032
     584:	70003041 	.word	0x70003041
     588:	70004830 	.word	0x70004830
     58c:	70313930 	.word	0x70313930
     590:	70515930 	.word	0x70515930
     594:	800030c1 	.word	0x800030c1
     598:	800020c0 	.word	0x800020c0
     59c:	80005042 	.word	0x80005042
     5a0:	800050c0 	.word	0x800050c0
/home/yin/imx-optee/imx-optee-os/lib/libutee/tee_api_operations.c:50
     5a4:	f44f 2800 	mov.w	r8, #524288	; 0x80000
/home/yin/imx-optee/imx-optee-os/lib/libutee/tee_api_operations.c:111
     5a8:	2601      	movs	r6, #1
/home/yin/imx-optee/imx-optee-os/lib/libutee/tee_api_operations.c:120
     5aa:	b2e3      	uxtb	r3, r4
/home/yin/imx-optee/imx-optee-os/lib/libutee/tee_api_operations.c:123
     5ac:	2b10      	cmp	r3, #16
     5ae:	bf0c      	ite	eq
     5b0:	2310      	moveq	r3, #16
     5b2:	2308      	movne	r3, #8
/home/yin/imx-optee/imx-optee-os/lib/libutee/tee_api_operations.c:127
     5b4:	2f00      	cmp	r7, #0
     5b6:	d05d      	beq.n	674 <TEE_AllocateOperation+0x45e>
/home/yin/imx-optee/imx-optee-os/lib/libutee/tee_api_operations.c:129
     5b8:	2f01      	cmp	r7, #1
     5ba:	f47f ae8b 	bne.w	2d4 <TEE_AllocateOperation+0xbe>
/home/yin/imx-optee/imx-optee-os/lib/libutee/tee_api_operations.c:43
     5be:	f04f 0a00 	mov.w	sl, #0
/home/yin/imx-optee/imx-optee-os/lib/libutee/tee_api_operations.c:130
     5c2:	2204      	movs	r2, #4
     5c4:	e015      	b.n	5f2 <TEE_AllocateOperation+0x3dc>
/home/yin/imx-optee/imx-optee-os/lib/libutee/tee_api_operations.c:108
     5c6:	f04f 0800 	mov.w	r8, #0
     5ca:	e7ed      	b.n	5a8 <TEE_AllocateOperation+0x392>
/home/yin/imx-optee/imx-optee-os/lib/libutee/tee_api_operations.c:181
     5cc:	2f00      	cmp	r7, #0
     5ce:	d05f      	beq.n	690 <TEE_AllocateOperation+0x47a>
/home/yin/imx-optee/imx-optee-os/lib/libutee/tee_api_operations.c:183
     5d0:	2f01      	cmp	r7, #1
     5d2:	f47f ae7f 	bne.w	2d4 <TEE_AllocateOperation+0xbe>
/home/yin/imx-optee/imx-optee-os/lib/libutee/tee_api_operations.c:44
     5d6:	2600      	movs	r6, #0
/home/yin/imx-optee/imx-optee-os/lib/libutee/tee_api_operations.c:184
     5d8:	f04f 0a01 	mov.w	sl, #1
/home/yin/imx-optee/imx-optee-os/lib/libutee/tee_api_operations.c:185
     5dc:	2214      	movs	r2, #20
     5de:	e77d      	b.n	4dc <TEE_AllocateOperation+0x2c6>
/home/yin/imx-optee/imx-optee-os/lib/libutee/tee_api_operations.c:221
     5e0:	2f05      	cmp	r7, #5
     5e2:	f47f ae77 	bne.w	2d4 <TEE_AllocateOperation+0xbe>
/home/yin/imx-optee/imx-optee-os/lib/libutee/tee_api_operations.c:44
     5e6:	2600      	movs	r6, #0
/home/yin/imx-optee/imx-optee-os/lib/libutee/tee_api_operations.c:41
     5e8:	2301      	movs	r3, #1
/home/yin/imx-optee/imx-optee-os/lib/libutee/tee_api_operations.c:43
     5ea:	46b2      	mov	sl, r6
/home/yin/imx-optee/imx-optee-os/lib/libutee/tee_api_operations.c:225
     5ec:	4632      	mov	r2, r6
/home/yin/imx-optee/imx-optee-os/lib/libutee/tee_api_operations.c:224
     5ee:	f44f 2880 	mov.w	r8, #262144	; 0x40000
/home/yin/imx-optee/imx-optee-os/lib/libutee/tee_api_operations.c:250
     5f2:	2100      	movs	r1, #0
     5f4:	2044      	movs	r0, #68	; 0x44
     5f6:	9205      	str	r2, [sp, #20]
     5f8:	9304      	str	r3, [sp, #16]
     5fa:	f001 ffba 	bl	2572 <TEE_Malloc>
/home/yin/imx-optee/imx-optee-os/lib/libutee/tee_api_operations.c:251
     5fe:	4605      	mov	r5, r0
     600:	2800      	cmp	r0, #0
     602:	f000 8099 	beq.w	738 <TEE_AllocateOperation+0x522>
/home/yin/imx-optee/imx-optee-os/lib/libutee/tee_api_operations.c:261
     606:	9b04      	ldr	r3, [sp, #16]
/home/yin/imx-optee/imx-optee-os/lib/libutee/tee_api_operations.c:255
     608:	ea4f 7b14 	mov.w	fp, r4, lsr #28
/home/yin/imx-optee/imx-optee-os/lib/libutee/tee_api_operations.c:258
     60c:	9a05      	ldr	r2, [sp, #20]
/home/yin/imx-optee/imx-optee-os/lib/libutee/tee_api_operations.c:254
     60e:	6004      	str	r4, [r0, #0]
/home/yin/imx-optee/imx-optee-os/lib/libutee/tee_api_operations.c:261
     610:	2b01      	cmp	r3, #1
/home/yin/imx-optee/imx-optee-os/lib/libutee/tee_api_operations.c:255
     612:	f8c0 b004 	str.w	fp, [r0, #4]
/home/yin/imx-optee/imx-optee-os/lib/libutee/tee_api_operations.c:256
     616:	6087      	str	r7, [r0, #8]
/home/yin/imx-optee/imx-optee-os/lib/libutee/tee_api_operations.c:257
     618:	f8c0 9010 	str.w	r9, [r0, #16]
/home/yin/imx-optee/imx-optee-os/lib/libutee/tee_api_operations.c:258
     61c:	6182      	str	r2, [r0, #24]
/home/yin/imx-optee/imx-optee-os/lib/libutee/tee_api_operations.c:259
     61e:	f8c0 801c 	str.w	r8, [r0, #28]
/home/yin/imx-optee/imx-optee-os/lib/libutee/tee_api_operations.c:261
     622:	d13a      	bne.n	69a <TEE_AllocateOperation+0x484>
/home/yin/imx-optee/imx-optee-os/lib/libutee/tee_api_operations.c:277
     624:	f1bb 0f05 	cmp.w	fp, #5
/home/yin/imx-optee/imx-optee-os/lib/libutee/tee_api_operations.c:274
     628:	636b      	str	r3, [r5, #52]	; 0x34
/home/yin/imx-optee/imx-optee-os/lib/libutee/tee_api_operations.c:275
     62a:	f885 6030 	strb.w	r6, [r5, #48]	; 0x30
/home/yin/imx-optee/imx-optee-os/lib/libutee/tee_api_operations.c:277
     62e:	d143      	bne.n	6b8 <TEE_AllocateOperation+0x4a2>
/home/yin/imx-optee/imx-optee-os/lib/libutee/tee_api_operations.c:301
     630:	f105 033c 	add.w	r3, r5, #60	; 0x3c
     634:	4639      	mov	r1, r7
     636:	9300      	str	r3, [sp, #0]
     638:	4620      	mov	r0, r4
     63a:	6a2a      	ldr	r2, [r5, #32]
     63c:	6a6b      	ldr	r3, [r5, #36]	; 0x24
     63e:	f001 e9bc 	blx	19b8 <utee_cryp_state_alloc>
/home/yin/imx-optee/imx-optee-os/lib/libutee/tee_api_operations.c:303
     642:	4602      	mov	r2, r0
     644:	2800      	cmp	r0, #0
     646:	d179      	bne.n	73c <TEE_AllocateOperation+0x526>
/home/yin/imx-optee/imx-optee-os/lib/libutee/tee_api_operations.c:311
     648:	f1bb 0f05 	cmp.w	fp, #5
     64c:	d10a      	bne.n	664 <TEE_AllocateOperation+0x44e>
/home/yin/imx-optee/imx-optee-os/lib/libutee/tee_api_operations.c:312
     64e:	4601      	mov	r1, r0
     650:	6be8      	ldr	r0, [r5, #60]	; 0x3c
     652:	f001 e9d2 	blx	19f8 <utee_hash_init>
/home/yin/imx-optee/imx-optee-os/lib/libutee/tee_api_operations.c:313
     656:	4606      	mov	r6, r0
     658:	2800      	cmp	r0, #0
     65a:	d151      	bne.n	700 <TEE_AllocateOperation+0x4ea>
/home/yin/imx-optee/imx-optee-os/lib/libutee/tee_api_operations.c:316
     65c:	69eb      	ldr	r3, [r5, #28]
     65e:	f443 3300 	orr.w	r3, r3, #131072	; 0x20000
     662:	61eb      	str	r3, [r5, #28]
/home/yin/imx-optee/imx-optee-os/lib/libutee/tee_api_operations.c:321
     664:	9b03      	ldr	r3, [sp, #12]
/home/yin/imx-optee/imx-optee-os/lib/libutee/tee_api_operations.c:319
     666:	2600      	movs	r6, #0
     668:	62ae      	str	r6, [r5, #40]	; 0x28
/home/yin/imx-optee/imx-optee-os/lib/libutee/tee_api_operations.c:321
     66a:	601d      	str	r5, [r3, #0]
/home/yin/imx-optee/imx-optee-os/lib/libutee/tee_api_operations.c:341
     66c:	4630      	mov	r0, r6
     66e:	b007      	add	sp, #28
     670:	e8bd 8ff0 	ldmia.w	sp!, {r4, r5, r6, r7, r8, r9, sl, fp, pc}
/home/yin/imx-optee/imx-optee-os/lib/libutee/tee_api_operations.c:43
     674:	46ba      	mov	sl, r7
/home/yin/imx-optee/imx-optee-os/lib/libutee/tee_api_operations.c:128
     676:	2202      	movs	r2, #2
     678:	e7bb      	b.n	5f2 <TEE_AllocateOperation+0x3dc>
/home/yin/imx-optee/imx-optee-os/lib/libutee/tee_api_operations.c:44
     67a:	2600      	movs	r6, #0
/home/yin/imx-optee/imx-optee-os/lib/libutee/tee_api_operations.c:155
     67c:	f04f 0a01 	mov.w	sl, #1
/home/yin/imx-optee/imx-optee-os/lib/libutee/tee_api_operations.c:156
     680:	2210      	movs	r2, #16
     682:	e72b      	b.n	4dc <TEE_AllocateOperation+0x2c6>
     684:	46b8      	mov	r8, r7
/home/yin/imx-optee/imx-optee-os/lib/libutee/tee_api_operations.c:44
     686:	463e      	mov	r6, r7
/home/yin/imx-optee/imx-optee-os/lib/libutee/tee_api_operations.c:43
     688:	46ba      	mov	sl, r7
/home/yin/imx-optee/imx-optee-os/lib/libutee/tee_api_operations.c:171
     68a:	2202      	movs	r2, #2
/home/yin/imx-optee/imx-optee-os/lib/libutee/tee_api_operations.c:41
     68c:	2301      	movs	r3, #1
     68e:	e7b0      	b.n	5f2 <TEE_AllocateOperation+0x3dc>
     690:	46b8      	mov	r8, r7
/home/yin/imx-optee/imx-optee-os/lib/libutee/tee_api_operations.c:44
     692:	463e      	mov	r6, r7
/home/yin/imx-optee/imx-optee-os/lib/libutee/tee_api_operations.c:43
     694:	46ba      	mov	sl, r7
/home/yin/imx-optee/imx-optee-os/lib/libutee/tee_api_operations.c:182
     696:	2222      	movs	r2, #34	; 0x22
     698:	e7f8      	b.n	68c <TEE_AllocateOperation+0x476>
/home/yin/imx-optee/imx-optee-os/lib/libutee/tee_api_operations.c:264
     69a:	b15e      	cbz	r6, 6b4 <TEE_AllocateOperation+0x49e>
/home/yin/imx-optee/imx-optee-os/lib/libutee/tee_api_operations.c:265
     69c:	0058      	lsls	r0, r3, #1
/home/yin/imx-optee/imx-optee-os/lib/libutee/tee_api_operations.c:267
     69e:	f04f 4100 	mov.w	r1, #2147483648	; 0x80000000
     6a2:	9304      	str	r3, [sp, #16]
     6a4:	f001 ff65 	bl	2572 <TEE_Malloc>
/home/yin/imx-optee/imx-optee-os/lib/libutee/tee_api_operations.c:269
     6a8:	9b04      	ldr	r3, [sp, #16]
/home/yin/imx-optee/imx-optee-os/lib/libutee/tee_api_operations.c:267
     6aa:	62e8      	str	r0, [r5, #44]	; 0x2c
/home/yin/imx-optee/imx-optee-os/lib/libutee/tee_api_operations.c:269
     6ac:	2800      	cmp	r0, #0
     6ae:	d1b9      	bne.n	624 <TEE_AllocateOperation+0x40e>
/home/yin/imx-optee/imx-optee-os/lib/libutee/tee_api_operations.c:270
     6b0:	4e23      	ldr	r6, [pc, #140]	; (740 <TEE_AllocateOperation+0x52a>)
     6b2:	e02e      	b.n	712 <TEE_AllocateOperation+0x4fc>
     6b4:	4618      	mov	r0, r3
     6b6:	e7f2      	b.n	69e <TEE_AllocateOperation+0x488>
/home/yin/imx-optee/imx-optee-os/lib/libutee/tee_api_operations.c:279
     6b8:	f1ba 0f00 	cmp.w	sl, #0
     6bc:	fa5f f884 	uxtb.w	r8, r4
     6c0:	bf14      	ite	ne
     6c2:	f04f 4321 	movne.w	r3, #2701131776	; 0xa1000000
     6c6:	f04f 4320 	moveq.w	r3, #2684354560	; 0xa0000000
     6ca:	ea43 0808 	orr.w	r8, r3, r8
/home/yin/imx-optee/imx-optee-os/lib/libutee/tee_api_operations.c:286
     6ce:	69eb      	ldr	r3, [r5, #28]
/home/yin/imx-optee/imx-optee-os/lib/libutee/tee_api_operations.c:289
     6d0:	4640      	mov	r0, r8
/home/yin/imx-optee/imx-optee-os/lib/libutee/tee_api_operations.c:286
     6d2:	031a      	lsls	r2, r3, #12
/home/yin/imx-optee/imx-optee-os/lib/libutee/tee_api_operations.c:289
     6d4:	f105 0220 	add.w	r2, r5, #32
/home/yin/imx-optee/imx-optee-os/lib/libutee/tee_api_operations.c:287
     6d8:	bf48      	it	mi
     6da:	ea4f 0959 	movmi.w	r9, r9, lsr #1
/home/yin/imx-optee/imx-optee-os/lib/libutee/tee_api_operations.c:289
     6de:	4649      	mov	r1, r9
     6e0:	f002 f866 	bl	27b0 <TEE_AllocateTransientObject>
/home/yin/imx-optee/imx-optee-os/lib/libutee/tee_api_operations.c:290
     6e4:	4606      	mov	r6, r0
     6e6:	b958      	cbnz	r0, 700 <TEE_AllocateOperation+0x4ea>
/home/yin/imx-optee/imx-optee-os/lib/libutee/tee_api_operations.c:293
     6e8:	69eb      	ldr	r3, [r5, #28]
     6ea:	031b      	lsls	r3, r3, #12
     6ec:	d5a0      	bpl.n	630 <TEE_AllocateOperation+0x41a>
/home/yin/imx-optee/imx-optee-os/lib/libutee/tee_api_operations.c:294
     6ee:	f105 0224 	add.w	r2, r5, #36	; 0x24
     6f2:	4649      	mov	r1, r9
     6f4:	4640      	mov	r0, r8
     6f6:	f002 f85b 	bl	27b0 <TEE_AllocateTransientObject>
/home/yin/imx-optee/imx-optee-os/lib/libutee/tee_api_operations.c:296
     6fa:	4606      	mov	r6, r0
     6fc:	2800      	cmp	r0, #0
     6fe:	d097      	beq.n	630 <TEE_AllocateOperation+0x41a>
/home/yin/imx-optee/imx-optee-os/lib/libutee/tee_api_operations.c:325
     700:	4b0f      	ldr	r3, [pc, #60]	; (740 <TEE_AllocateOperation+0x52a>)
     702:	429e      	cmp	r6, r3
     704:	d005      	beq.n	712 <TEE_AllocateOperation+0x4fc>
/home/yin/imx-optee/imx-optee-os/lib/libutee/tee_api_operations.c:325 (discriminator 1)
     706:	4b0f      	ldr	r3, [pc, #60]	; (744 <TEE_AllocateOperation+0x52e>)
     708:	429e      	cmp	r6, r3
     70a:	d002      	beq.n	712 <TEE_AllocateOperation+0x4fc>
/home/yin/imx-optee/imx-optee-os/lib/libutee/tee_api_operations.c:327
     70c:	4630      	mov	r0, r6
     70e:	f004 fbb9 	bl	4e84 <TEE_Panic>
/home/yin/imx-optee/imx-optee-os/lib/libutee/tee_api_operations.c:329
     712:	6beb      	ldr	r3, [r5, #60]	; 0x3c
     714:	b11b      	cbz	r3, 71e <TEE_AllocateOperation+0x508>
/home/yin/imx-optee/imx-optee-os/lib/libutee/tee_api_operations.c:330
     716:	4628      	mov	r0, r5
     718:	f7ff fd6a 	bl	1f0 <TEE_FreeOperation>
     71c:	e7a6      	b.n	66c <TEE_AllocateOperation+0x456>
/home/yin/imx-optee/imx-optee-os/lib/libutee/tee_api_operations.c:332
     71e:	6ae8      	ldr	r0, [r5, #44]	; 0x2c
     720:	f001 ff4e 	bl	25c0 <TEE_Free>
/home/yin/imx-optee/imx-optee-os/lib/libutee/tee_api_operations.c:333
     724:	6a28      	ldr	r0, [r5, #32]
     726:	f002 f85b 	bl	27e0 <TEE_FreeTransientObject>
/home/yin/imx-optee/imx-optee-os/lib/libutee/tee_api_operations.c:334
     72a:	6a68      	ldr	r0, [r5, #36]	; 0x24
     72c:	f002 f858 	bl	27e0 <TEE_FreeTransientObject>
/home/yin/imx-optee/imx-optee-os/lib/libutee/tee_api_operations.c:335
     730:	4628      	mov	r0, r5
     732:	f001 ff45 	bl	25c0 <TEE_Free>
     736:	e799      	b.n	66c <TEE_AllocateOperation+0x456>
/home/yin/imx-optee/imx-optee-os/lib/libutee/tee_api_operations.c:252
     738:	4e01      	ldr	r6, [pc, #4]	; (740 <TEE_AllocateOperation+0x52a>)
     73a:	e797      	b.n	66c <TEE_AllocateOperation+0x456>
     73c:	4606      	mov	r6, r0
     73e:	e7df      	b.n	700 <TEE_AllocateOperation+0x4ea>
     740:	ffff000c 	.word	0xffff000c
     744:	ffff000a 	.word	0xffff000a

00000748 <TEE_GetOperationInfo>:
TEE_GetOperationInfo():
/home/yin/imx-optee/imx-optee-os/lib/libutee/tee_api_operations.c:365
     748:	b538      	push	{r3, r4, r5, lr}
     74a:	460c      	mov	r4, r1
/home/yin/imx-optee/imx-optee-os/lib/libutee/tee_api_operations.c:366
     74c:	4605      	mov	r5, r0
     74e:	b908      	cbnz	r0, 754 <TEE_GetOperationInfo+0xc>
/home/yin/imx-optee/imx-optee-os/lib/libutee/tee_api_operations.c:367
     750:	f004 fb98 	bl	4e84 <TEE_Panic>
/home/yin/imx-optee/imx-optee-os/lib/libutee/tee_api_operations.c:369
     754:	b914      	cbnz	r4, 75c <TEE_GetOperationInfo+0x14>
/home/yin/imx-optee/imx-optee-os/lib/libutee/tee_api_operations.c:370
     756:	4620      	mov	r0, r4
     758:	f004 fb94 	bl	4e84 <TEE_Panic>
/home/yin/imx-optee/imx-optee-os/lib/libutee/tee_api_operations.c:372
     75c:	cd0f      	ldmia	r5!, {r0, r1, r2, r3}
     75e:	c40f      	stmia	r4!, {r0, r1, r2, r3}
     760:	e895 000f 	ldmia.w	r5, {r0, r1, r2, r3}
     764:	e884 000f 	stmia.w	r4, {r0, r1, r2, r3}
     768:	bd38      	pop	{r3, r4, r5, pc}

0000076a <TEE_GetOperationInfoMultiple>:
TEE_GetOperationInfoMultiple():
/home/yin/imx-optee/imx-optee-os/lib/libutee/tee_api_operations.c:378
     76a:	b5f0      	push	{r4, r5, r6, r7, lr}
     76c:	460c      	mov	r4, r1
     76e:	b08f      	sub	sp, #60	; 0x3c
/home/yin/imx-optee/imx-optee-os/lib/libutee/tee_api_operations.c:385
     770:	4605      	mov	r5, r0
     772:	2800      	cmp	r0, #0
     774:	d04b      	beq.n	80e <TEE_GetOperationInfoMultiple+0xa4>
/home/yin/imx-optee/imx-optee-os/lib/libutee/tee_api_operations.c:390
     776:	2900      	cmp	r1, #0
     778:	d049      	beq.n	80e <TEE_GetOperationInfoMultiple+0xa4>
/home/yin/imx-optee/imx-optee-os/lib/libutee/tee_api_operations.c:395
     77a:	2a00      	cmp	r2, #0
     77c:	d047      	beq.n	80e <TEE_GetOperationInfoMultiple+0xa4>
/home/yin/imx-optee/imx-optee-os/lib/libutee/tee_api_operations.c:400
     77e:	6817      	ldr	r7, [r2, #0]
     780:	3f20      	subs	r7, #32
     782:	08ff      	lsrs	r7, r7, #3
/home/yin/imx-optee/imx-optee-os/lib/libutee/tee_api_operations.c:403
     784:	2f02      	cmp	r7, #2
     786:	d842      	bhi.n	80e <TEE_GetOperationInfoMultiple+0xa4>
/home/yin/imx-optee/imx-optee-os/lib/libutee/tee_api_operations.c:409
     788:	69c3      	ldr	r3, [r0, #28]
     78a:	031b      	lsls	r3, r3, #12
     78c:	d421      	bmi.n	7d2 <TEE_GetOperationInfoMultiple+0x68>
/home/yin/imx-optee/imx-optee-os/lib/libutee/tee_api_operations.c:417 (discriminator 1)
     78e:	b347      	cbz	r7, 7e2 <TEE_GetOperationInfoMultiple+0x78>
/home/yin/imx-optee/imx-optee-os/lib/libutee/tee_api_operations.c:417
     790:	2f02      	cmp	r7, #2
/home/yin/imx-optee/imx-optee-os/lib/libutee/tee_api_operations.c:418
     792:	f04f 0300 	mov.w	r3, #0
     796:	6223      	str	r3, [r4, #32]
/home/yin/imx-optee/imx-optee-os/lib/libutee/tee_api_operations.c:419
     798:	6263      	str	r3, [r4, #36]	; 0x24
/home/yin/imx-optee/imx-optee-os/lib/libutee/tee_api_operations.c:417
     79a:	d120      	bne.n	7de <TEE_GetOperationInfoMultiple+0x74>
/home/yin/imx-optee/imx-optee-os/lib/libutee/tee_api_operations.c:418
     79c:	62a3      	str	r3, [r4, #40]	; 0x28
/home/yin/imx-optee/imx-optee-os/lib/libutee/tee_api_operations.c:423
     79e:	a907      	add	r1, sp, #28
/home/yin/imx-optee/imx-optee-os/lib/libutee/tee_api_operations.c:419
     7a0:	62e3      	str	r3, [r4, #44]	; 0x2c
/home/yin/imx-optee/imx-optee-os/lib/libutee/tee_api_operations.c:423
     7a2:	6a68      	ldr	r0, [r5, #36]	; 0x24
     7a4:	f001 ff4a 	bl	263c <TEE_GetObjectInfo1>
/home/yin/imx-optee/imx-optee-os/lib/libutee/tee_api_operations.c:425
     7a8:	4606      	mov	r6, r0
     7aa:	b970      	cbnz	r0, 7ca <TEE_GetOperationInfoMultiple+0x60>
/home/yin/imx-optee/imx-optee-os/lib/libutee/tee_api_operations.c:428
     7ac:	9b08      	ldr	r3, [sp, #32]
     7ae:	62a3      	str	r3, [r4, #40]	; 0x28
/home/yin/imx-optee/imx-optee-os/lib/libutee/tee_api_operations.c:430
     7b0:	69ab      	ldr	r3, [r5, #24]
     7b2:	62e3      	str	r3, [r4, #44]	; 0x2c
/home/yin/imx-optee/imx-optee-os/lib/libutee/tee_api_operations.c:435
     7b4:	4669      	mov	r1, sp
     7b6:	6a28      	ldr	r0, [r5, #32]
     7b8:	f001 ff40 	bl	263c <TEE_GetObjectInfo1>
/home/yin/imx-optee/imx-optee-os/lib/libutee/tee_api_operations.c:437
     7bc:	4606      	mov	r6, r0
     7be:	b308      	cbz	r0, 804 <TEE_GetOperationInfoMultiple+0x9a>
/home/yin/imx-optee/imx-optee-os/lib/libutee/tee_api_operations.c:438
     7c0:	2f02      	cmp	r7, #2
     7c2:	d102      	bne.n	7ca <TEE_GetOperationInfoMultiple+0x60>
/home/yin/imx-optee/imx-optee-os/lib/libutee/tee_api_operations.c:440
     7c4:	2300      	movs	r3, #0
     7c6:	62a3      	str	r3, [r4, #40]	; 0x28
/home/yin/imx-optee/imx-optee-os/lib/libutee/tee_api_operations.c:442
     7c8:	62e3      	str	r3, [r4, #44]	; 0x2c
/home/yin/imx-optee/imx-optee-os/lib/libutee/tee_api_operations.c:464
     7ca:	4b13      	ldr	r3, [pc, #76]	; (818 <TEE_GetOperationInfoMultiple+0xae>)
     7cc:	429e      	cmp	r6, r3
     7ce:	d002      	beq.n	7d6 <TEE_GetOperationInfoMultiple+0x6c>
     7d0:	e01e      	b.n	810 <TEE_GetOperationInfoMultiple+0xa6>
/home/yin/imx-optee/imx-optee-os/lib/libutee/tee_api_operations.c:410
     7d2:	2f02      	cmp	r7, #2
     7d4:	d0dc      	beq.n	790 <TEE_GetOperationInfoMultiple+0x26>
/home/yin/imx-optee/imx-optee-os/lib/libutee/tee_api_operations.c:461
     7d6:	4e10      	ldr	r6, [pc, #64]	; (818 <TEE_GetOperationInfoMultiple+0xae>)
/home/yin/imx-optee/imx-optee-os/lib/libutee/tee_api_operations.c:469
     7d8:	4630      	mov	r0, r6
     7da:	b00f      	add	sp, #60	; 0x3c
     7dc:	bdf0      	pop	{r4, r5, r6, r7, pc}
/home/yin/imx-optee/imx-optee-os/lib/libutee/tee_api_operations.c:434
     7de:	2f00      	cmp	r7, #0
     7e0:	d1e8      	bne.n	7b4 <TEE_GetOperationInfoMultiple+0x4a>
/home/yin/imx-optee/imx-optee-os/lib/libutee/tee_api_operations.c:454
     7e2:	682b      	ldr	r3, [r5, #0]
/home/yin/imx-optee/imx-optee-os/lib/libutee/tee_api_operations.c:461
     7e4:	2600      	movs	r6, #0
/home/yin/imx-optee/imx-optee-os/lib/libutee/tee_api_operations.c:454
     7e6:	6023      	str	r3, [r4, #0]
/home/yin/imx-optee/imx-optee-os/lib/libutee/tee_api_operations.c:455
     7e8:	686b      	ldr	r3, [r5, #4]
     7ea:	6063      	str	r3, [r4, #4]
/home/yin/imx-optee/imx-optee-os/lib/libutee/tee_api_operations.c:456
     7ec:	68ab      	ldr	r3, [r5, #8]
     7ee:	60a3      	str	r3, [r4, #8]
/home/yin/imx-optee/imx-optee-os/lib/libutee/tee_api_operations.c:457
     7f0:	68eb      	ldr	r3, [r5, #12]
     7f2:	60e3      	str	r3, [r4, #12]
/home/yin/imx-optee/imx-optee-os/lib/libutee/tee_api_operations.c:458
     7f4:	692b      	ldr	r3, [r5, #16]
     7f6:	6123      	str	r3, [r4, #16]
/home/yin/imx-optee/imx-optee-os/lib/libutee/tee_api_operations.c:459
     7f8:	69eb      	ldr	r3, [r5, #28]
     7fa:	6163      	str	r3, [r4, #20]
/home/yin/imx-optee/imx-optee-os/lib/libutee/tee_api_operations.c:460
     7fc:	6aab      	ldr	r3, [r5, #40]	; 0x28
/home/yin/imx-optee/imx-optee-os/lib/libutee/tee_api_operations.c:461
     7fe:	61e7      	str	r7, [r4, #28]
/home/yin/imx-optee/imx-optee-os/lib/libutee/tee_api_operations.c:460
     800:	61a3      	str	r3, [r4, #24]
     802:	e7e9      	b.n	7d8 <TEE_GetOperationInfoMultiple+0x6e>
/home/yin/imx-optee/imx-optee-os/lib/libutee/tee_api_operations.c:447
     804:	9b01      	ldr	r3, [sp, #4]
     806:	6223      	str	r3, [r4, #32]
/home/yin/imx-optee/imx-optee-os/lib/libutee/tee_api_operations.c:449
     808:	69ab      	ldr	r3, [r5, #24]
     80a:	6263      	str	r3, [r4, #36]	; 0x24
     80c:	e7e9      	b.n	7e2 <TEE_GetOperationInfoMultiple+0x78>
     80e:	4e03      	ldr	r6, [pc, #12]	; (81c <TEE_GetOperationInfoMultiple+0xb2>)
/home/yin/imx-optee/imx-optee-os/lib/libutee/tee_api_operations.c:466
     810:	4630      	mov	r0, r6
     812:	f004 fb37 	bl	4e84 <TEE_Panic>
/home/yin/imx-optee/imx-optee-os/lib/libutee/tee_api_operations.c:468
     816:	e7df      	b.n	7d8 <TEE_GetOperationInfoMultiple+0x6e>
     818:	ffff0010 	.word	0xffff0010
     81c:	ffff0006 	.word	0xffff0006

00000820 <TEE_ResetOperation>:
TEE_ResetOperation():
/home/yin/imx-optee/imx-optee-os/lib/libutee/tee_api_operations.c:472
     820:	b510      	push	{r4, lr}
/home/yin/imx-optee/imx-optee-os/lib/libutee/tee_api_operations.c:475
     822:	4604      	mov	r4, r0
     824:	b908      	cbnz	r0, 82a <TEE_ResetOperation+0xa>
/home/yin/imx-optee/imx-optee-os/lib/libutee/tee_api_operations.c:476
     826:	f004 fb2d 	bl	4e84 <TEE_Panic>
/home/yin/imx-optee/imx-optee-os/lib/libutee/tee_api_operations.c:478
     82a:	69e0      	ldr	r0, [r4, #28]
     82c:	f410 2080 	ands.w	r0, r0, #262144	; 0x40000
     830:	d101      	bne.n	836 <TEE_ResetOperation+0x16>
/home/yin/imx-optee/imx-optee-os/lib/libutee/tee_api_operations.c:479
     832:	f004 fb27 	bl	4e84 <TEE_Panic>
/home/yin/imx-optee/imx-optee-os/lib/libutee/tee_api_operations.c:483
     836:	6863      	ldr	r3, [r4, #4]
/home/yin/imx-optee/imx-optee-os/lib/libutee/tee_api_operations.c:481
     838:	2200      	movs	r2, #0
     83a:	62a2      	str	r2, [r4, #40]	; 0x28
/home/yin/imx-optee/imx-optee-os/lib/libutee/tee_api_operations.c:483
     83c:	2b05      	cmp	r3, #5
     83e:	d10b      	bne.n	858 <TEE_ResetOperation+0x38>
/home/yin/imx-optee/imx-optee-os/lib/libutee/tee_api_operations.c:484
     840:	4611      	mov	r1, r2
     842:	6be0      	ldr	r0, [r4, #60]	; 0x3c
     844:	f001 e8d8 	blx	19f8 <utee_hash_init>
/home/yin/imx-optee/imx-optee-os/lib/libutee/tee_api_operations.c:485
     848:	b108      	cbz	r0, 84e <TEE_ResetOperation+0x2e>
/home/yin/imx-optee/imx-optee-os/lib/libutee/tee_api_operations.c:486
     84a:	f004 fb1b 	bl	4e84 <TEE_Panic>
/home/yin/imx-optee/imx-optee-os/lib/libutee/tee_api_operations.c:487
     84e:	69e3      	ldr	r3, [r4, #28]
     850:	f443 3300 	orr.w	r3, r3, #131072	; 0x20000
/home/yin/imx-optee/imx-optee-os/lib/libutee/tee_api_operations.c:489
     854:	61e3      	str	r3, [r4, #28]
     856:	bd10      	pop	{r4, pc}
     858:	69e3      	ldr	r3, [r4, #28]
     85a:	f423 3300 	bic.w	r3, r3, #131072	; 0x20000
     85e:	e7f9      	b.n	854 <TEE_ResetOperation+0x34>

00000860 <TEE_SetOperationKey>:
TEE_SetOperationKey():
/home/yin/imx-optee/imx-optee-os/lib/libutee/tee_api_operations.c:495
     860:	b5f0      	push	{r4, r5, r6, r7, lr}
     862:	460e      	mov	r6, r1
     864:	b089      	sub	sp, #36	; 0x24
/home/yin/imx-optee/imx-optee-os/lib/libutee/tee_api_operations.c:500
     866:	4604      	mov	r4, r0
     868:	b128      	cbz	r0, 876 <TEE_SetOperationKey+0x16>
/home/yin/imx-optee/imx-optee-os/lib/libutee/tee_api_operations.c:505
     86a:	6a83      	ldr	r3, [r0, #40]	; 0x28
     86c:	b91b      	cbnz	r3, 876 <TEE_SetOperationKey+0x16>
/home/yin/imx-optee/imx-optee-os/lib/libutee/tee_api_operations.c:510
     86e:	b921      	cbnz	r1, 87a <TEE_SetOperationKey+0x1a>
/home/yin/imx-optee/imx-optee-os/lib/libutee/tee_api_operations.c:512
     870:	6a00      	ldr	r0, [r0, #32]
     872:	f001 ffcd 	bl	2810 <TEE_ResetTransientObject>
/home/yin/imx-optee/imx-optee-os/lib/libutee/tee_api_operations.c:495
     876:	4d1a      	ldr	r5, [pc, #104]	; (8e0 <TEE_SetOperationKey+0x80>)
     878:	e02e      	b.n	8d8 <TEE_SetOperationKey+0x78>
/home/yin/imx-optee/imx-optee-os/lib/libutee/tee_api_operations.c:518
     87a:	6843      	ldr	r3, [r0, #4]
     87c:	2b05      	cmp	r3, #5
     87e:	d0fa      	beq.n	876 <TEE_SetOperationKey+0x16>
/home/yin/imx-optee/imx-optee-os/lib/libutee/tee_api_operations.c:524
     880:	69c3      	ldr	r3, [r0, #28]
     882:	031b      	lsls	r3, r3, #12
     884:	d4f7      	bmi.n	876 <TEE_SetOperationKey+0x16>
/home/yin/imx-optee/imx-optee-os/lib/libutee/tee_api_operations.c:530
     886:	a901      	add	r1, sp, #4
     888:	4630      	mov	r0, r6
     88a:	f001 fed7 	bl	263c <TEE_GetObjectInfo1>
/home/yin/imx-optee/imx-optee-os/lib/libutee/tee_api_operations.c:532
     88e:	4605      	mov	r5, r0
     890:	b9e0      	cbnz	r0, 8cc <TEE_SetOperationKey+0x6c>
/home/yin/imx-optee/imx-optee-os/lib/libutee/tee_api_operations.c:536
     892:	69a3      	ldr	r3, [r4, #24]
     894:	9a04      	ldr	r2, [sp, #16]
     896:	4393      	bics	r3, r2
     898:	d1ed      	bne.n	876 <TEE_SetOperationKey+0x16>
/home/yin/imx-optee/imx-optee-os/lib/libutee/tee_api_operations.c:542
     89a:	9f02      	ldr	r7, [sp, #8]
     89c:	6923      	ldr	r3, [r4, #16]
     89e:	42bb      	cmp	r3, r7
     8a0:	d3e9      	bcc.n	876 <TEE_SetOperationKey+0x16>
/home/yin/imx-optee/imx-optee-os/lib/libutee/tee_api_operations.c:549
     8a2:	6a20      	ldr	r0, [r4, #32]
     8a4:	f001 ffb4 	bl	2810 <TEE_ResetTransientObject>
/home/yin/imx-optee/imx-optee-os/lib/libutee/tee_api_operations.c:550
     8a8:	69e3      	ldr	r3, [r4, #28]
/home/yin/imx-optee/imx-optee-os/lib/libutee/tee_api_operations.c:552
     8aa:	4631      	mov	r1, r6
     8ac:	6a20      	ldr	r0, [r4, #32]
/home/yin/imx-optee/imx-optee-os/lib/libutee/tee_api_operations.c:550
     8ae:	f423 2380 	bic.w	r3, r3, #262144	; 0x40000
     8b2:	61e3      	str	r3, [r4, #28]
/home/yin/imx-optee/imx-optee-os/lib/libutee/tee_api_operations.c:552
     8b4:	f002 f81e 	bl	28f4 <TEE_CopyObjectAttributes1>
/home/yin/imx-optee/imx-optee-os/lib/libutee/tee_api_operations.c:553
     8b8:	4605      	mov	r5, r0
     8ba:	b938      	cbnz	r0, 8cc <TEE_SetOperationKey+0x6c>
/home/yin/imx-optee/imx-optee-os/lib/libutee/tee_api_operations.c:556
     8bc:	69e3      	ldr	r3, [r4, #28]
/home/yin/imx-optee/imx-optee-os/lib/libutee/tee_api_operations.c:558
     8be:	6167      	str	r7, [r4, #20]
/home/yin/imx-optee/imx-optee-os/lib/libutee/tee_api_operations.c:556
     8c0:	f443 2380 	orr.w	r3, r3, #262144	; 0x40000
     8c4:	61e3      	str	r3, [r4, #28]
/home/yin/imx-optee/imx-optee-os/lib/libutee/tee_api_operations.c:567
     8c6:	4628      	mov	r0, r5
     8c8:	b009      	add	sp, #36	; 0x24
     8ca:	bdf0      	pop	{r4, r5, r6, r7, pc}
/home/yin/imx-optee/imx-optee-os/lib/libutee/tee_api_operations.c:561
     8cc:	4b05      	ldr	r3, [pc, #20]	; (8e4 <TEE_SetOperationKey+0x84>)
     8ce:	429d      	cmp	r5, r3
     8d0:	d0f9      	beq.n	8c6 <TEE_SetOperationKey+0x66>
/home/yin/imx-optee/imx-optee-os/lib/libutee/tee_api_operations.c:562
     8d2:	4b05      	ldr	r3, [pc, #20]	; (8e8 <TEE_SetOperationKey+0x88>)
     8d4:	429d      	cmp	r5, r3
     8d6:	d0f6      	beq.n	8c6 <TEE_SetOperationKey+0x66>
/home/yin/imx-optee/imx-optee-os/lib/libutee/tee_api_operations.c:564
     8d8:	4628      	mov	r0, r5
     8da:	f004 fad3 	bl	4e84 <TEE_Panic>
/home/yin/imx-optee/imx-optee-os/lib/libutee/tee_api_operations.c:566
     8de:	e7f2      	b.n	8c6 <TEE_SetOperationKey+0x66>
     8e0:	ffff0006 	.word	0xffff0006
     8e4:	f0100001 	.word	0xf0100001
     8e8:	f0100003 	.word	0xf0100003

000008ec <TEE_SetOperationKey2>:
TEE_SetOperationKey2():
/home/yin/imx-optee/imx-optee-os/lib/libutee/tee_api_operations.c:571
     8ec:	e92d 41f0 	stmdb	sp!, {r4, r5, r6, r7, r8, lr}
     8f0:	4688      	mov	r8, r1
     8f2:	b08e      	sub	sp, #56	; 0x38
     8f4:	4616      	mov	r6, r2
/home/yin/imx-optee/imx-optee-os/lib/libutee/tee_api_operations.c:577
     8f6:	4604      	mov	r4, r0
     8f8:	b130      	cbz	r0, 908 <TEE_SetOperationKey2+0x1c>
/home/yin/imx-optee/imx-optee-os/lib/libutee/tee_api_operations.c:582
     8fa:	6a83      	ldr	r3, [r0, #40]	; 0x28
     8fc:	b923      	cbnz	r3, 908 <TEE_SetOperationKey2+0x1c>
/home/yin/imx-optee/imx-optee-os/lib/libutee/tee_api_operations.c:591
     8fe:	b129      	cbz	r1, 90c <TEE_SetOperationKey2+0x20>
/home/yin/imx-optee/imx-optee-os/lib/libutee/tee_api_operations.c:591 (discriminator 1)
     900:	b952      	cbnz	r2, 918 <TEE_SetOperationKey2+0x2c>
/home/yin/imx-optee/imx-optee-os/lib/libutee/tee_api_operations.c:597
     902:	6a60      	ldr	r0, [r4, #36]	; 0x24
     904:	f001 ff84 	bl	2810 <TEE_ResetTransientObject>
/home/yin/imx-optee/imx-optee-os/lib/libutee/tee_api_operations.c:571
     908:	4d31      	ldr	r5, [pc, #196]	; (9d0 <TEE_SetOperationKey2+0xe4>)
     90a:	e05c      	b.n	9c6 <TEE_SetOperationKey2+0xda>
/home/yin/imx-optee/imx-optee-os/lib/libutee/tee_api_operations.c:594
     90c:	6a00      	ldr	r0, [r0, #32]
     90e:	f001 ff7f 	bl	2810 <TEE_ResetTransientObject>
/home/yin/imx-optee/imx-optee-os/lib/libutee/tee_api_operations.c:596
     912:	2e00      	cmp	r6, #0
     914:	d1f8      	bne.n	908 <TEE_SetOperationKey2+0x1c>
     916:	e7f4      	b.n	902 <TEE_SetOperationKey2+0x16>
/home/yin/imx-optee/imx-optee-os/lib/libutee/tee_api_operations.c:603
     918:	6843      	ldr	r3, [r0, #4]
     91a:	2b05      	cmp	r3, #5
     91c:	d0f4      	beq.n	908 <TEE_SetOperationKey2+0x1c>
/home/yin/imx-optee/imx-optee-os/lib/libutee/tee_api_operations.c:609
     91e:	69c3      	ldr	r3, [r0, #28]
     920:	031b      	lsls	r3, r3, #12
     922:	d5f1      	bpl.n	908 <TEE_SetOperationKey2+0x1c>
/home/yin/imx-optee/imx-optee-os/lib/libutee/tee_api_operations.c:615
     924:	4669      	mov	r1, sp
     926:	4640      	mov	r0, r8
     928:	f001 fe88 	bl	263c <TEE_GetObjectInfo1>
/home/yin/imx-optee/imx-optee-os/lib/libutee/tee_api_operations.c:617
     92c:	4605      	mov	r5, r0
     92e:	2800      	cmp	r0, #0
     930:	d13d      	bne.n	9ae <TEE_SetOperationKey2+0xc2>
/home/yin/imx-optee/imx-optee-os/lib/libutee/tee_api_operations.c:621
     932:	69a3      	ldr	r3, [r4, #24]
     934:	9a03      	ldr	r2, [sp, #12]
     936:	4393      	bics	r3, r2
     938:	d1e6      	bne.n	908 <TEE_SetOperationKey2+0x1c>
/home/yin/imx-optee/imx-optee-os/lib/libutee/tee_api_operations.c:627
     93a:	a907      	add	r1, sp, #28
     93c:	4630      	mov	r0, r6
     93e:	f001 fe7d 	bl	263c <TEE_GetObjectInfo1>
/home/yin/imx-optee/imx-optee-os/lib/libutee/tee_api_operations.c:629
     942:	4605      	mov	r5, r0
     944:	b120      	cbz	r0, 950 <TEE_SetOperationKey2+0x64>
/home/yin/imx-optee/imx-optee-os/lib/libutee/tee_api_operations.c:674
     946:	4b23      	ldr	r3, [pc, #140]	; (9d4 <TEE_SetOperationKey2+0xe8>)
     948:	429d      	cmp	r5, r3
     94a:	d133      	bne.n	9b4 <TEE_SetOperationKey2+0xc8>
/home/yin/imx-optee/imx-optee-os/lib/libutee/tee_api_operations.c:571
     94c:	4d22      	ldr	r5, [pc, #136]	; (9d8 <TEE_SetOperationKey2+0xec>)
     94e:	e02a      	b.n	9a6 <TEE_SetOperationKey2+0xba>
/home/yin/imx-optee/imx-optee-os/lib/libutee/tee_api_operations.c:636
     950:	69a3      	ldr	r3, [r4, #24]
     952:	9a0a      	ldr	r2, [sp, #40]	; 0x28
     954:	4393      	bics	r3, r2
     956:	d1d7      	bne.n	908 <TEE_SetOperationKey2+0x1c>
/home/yin/imx-optee/imx-optee-os/lib/libutee/tee_api_operations.c:646
     958:	6822      	ldr	r2, [r4, #0]
     95a:	4b20      	ldr	r3, [pc, #128]	; (9dc <TEE_SetOperationKey2+0xf0>)
     95c:	9f01      	ldr	r7, [sp, #4]
     95e:	429a      	cmp	r2, r3
     960:	d102      	bne.n	968 <TEE_SetOperationKey2+0x7c>
/home/yin/imx-optee/imx-optee-os/lib/libutee/tee_api_operations.c:646 (discriminator 1)
     962:	9b08      	ldr	r3, [sp, #32]
     964:	429f      	cmp	r7, r3
     966:	d1cf      	bne.n	908 <TEE_SetOperationKey2+0x1c>
/home/yin/imx-optee/imx-optee-os/lib/libutee/tee_api_operations.c:653
     968:	6923      	ldr	r3, [r4, #16]
     96a:	42bb      	cmp	r3, r7
     96c:	d3cc      	bcc.n	908 <TEE_SetOperationKey2+0x1c>
/home/yin/imx-optee/imx-optee-os/lib/libutee/tee_api_operations.c:664
     96e:	6a20      	ldr	r0, [r4, #32]
     970:	f001 ff4e 	bl	2810 <TEE_ResetTransientObject>
/home/yin/imx-optee/imx-optee-os/lib/libutee/tee_api_operations.c:665
     974:	6a60      	ldr	r0, [r4, #36]	; 0x24
     976:	f001 ff4b 	bl	2810 <TEE_ResetTransientObject>
/home/yin/imx-optee/imx-optee-os/lib/libutee/tee_api_operations.c:666
     97a:	69e3      	ldr	r3, [r4, #28]
/home/yin/imx-optee/imx-optee-os/lib/libutee/tee_api_operations.c:668
     97c:	4641      	mov	r1, r8
     97e:	6a20      	ldr	r0, [r4, #32]
/home/yin/imx-optee/imx-optee-os/lib/libutee/tee_api_operations.c:666
     980:	f423 2380 	bic.w	r3, r3, #262144	; 0x40000
     984:	61e3      	str	r3, [r4, #28]
/home/yin/imx-optee/imx-optee-os/lib/libutee/tee_api_operations.c:668
     986:	f001 ffb5 	bl	28f4 <TEE_CopyObjectAttributes1>
/home/yin/imx-optee/imx-optee-os/lib/libutee/tee_api_operations.c:669
     98a:	4605      	mov	r5, r0
     98c:	b978      	cbnz	r0, 9ae <TEE_SetOperationKey2+0xc2>
/home/yin/imx-optee/imx-optee-os/lib/libutee/tee_api_operations.c:672
     98e:	4631      	mov	r1, r6
     990:	6a60      	ldr	r0, [r4, #36]	; 0x24
     992:	f001 ffaf 	bl	28f4 <TEE_CopyObjectAttributes1>
/home/yin/imx-optee/imx-optee-os/lib/libutee/tee_api_operations.c:673
     996:	4605      	mov	r5, r0
     998:	2800      	cmp	r0, #0
     99a:	d1d4      	bne.n	946 <TEE_SetOperationKey2+0x5a>
/home/yin/imx-optee/imx-optee-os/lib/libutee/tee_api_operations.c:679
     99c:	69e3      	ldr	r3, [r4, #28]
/home/yin/imx-optee/imx-optee-os/lib/libutee/tee_api_operations.c:681
     99e:	6167      	str	r7, [r4, #20]
/home/yin/imx-optee/imx-optee-os/lib/libutee/tee_api_operations.c:679
     9a0:	f443 2380 	orr.w	r3, r3, #262144	; 0x40000
     9a4:	61e3      	str	r3, [r4, #28]
/home/yin/imx-optee/imx-optee-os/lib/libutee/tee_api_operations.c:692
     9a6:	4628      	mov	r0, r5
     9a8:	b00e      	add	sp, #56	; 0x38
     9aa:	e8bd 81f0 	ldmia.w	sp!, {r4, r5, r6, r7, r8, pc}
/home/yin/imx-optee/imx-optee-os/lib/libutee/tee_api_operations.c:684
     9ae:	4b09      	ldr	r3, [pc, #36]	; (9d4 <TEE_SetOperationKey2+0xe8>)
     9b0:	429d      	cmp	r5, r3
     9b2:	d0f8      	beq.n	9a6 <TEE_SetOperationKey2+0xba>
/home/yin/imx-optee/imx-optee-os/lib/libutee/tee_api_operations.c:685
     9b4:	4b08      	ldr	r3, [pc, #32]	; (9d8 <TEE_SetOperationKey2+0xec>)
     9b6:	429d      	cmp	r5, r3
     9b8:	d0c8      	beq.n	94c <TEE_SetOperationKey2+0x60>
/home/yin/imx-optee/imx-optee-os/lib/libutee/tee_api_operations.c:686
     9ba:	3301      	adds	r3, #1
     9bc:	429d      	cmp	r5, r3
     9be:	d0f2      	beq.n	9a6 <TEE_SetOperationKey2+0xba>
/home/yin/imx-optee/imx-optee-os/lib/libutee/tee_api_operations.c:687
     9c0:	3301      	adds	r3, #1
     9c2:	429d      	cmp	r5, r3
     9c4:	d0ef      	beq.n	9a6 <TEE_SetOperationKey2+0xba>
/home/yin/imx-optee/imx-optee-os/lib/libutee/tee_api_operations.c:689
     9c6:	4628      	mov	r0, r5
     9c8:	f004 fa5c 	bl	4e84 <TEE_Panic>
/home/yin/imx-optee/imx-optee-os/lib/libutee/tee_api_operations.c:691
     9cc:	e7eb      	b.n	9a6 <TEE_SetOperationKey2+0xba>
     9ce:	bf00      	nop
     9d0:	ffff0006 	.word	0xffff0006
     9d4:	f0100001 	.word	0xf0100001
     9d8:	f0100002 	.word	0xf0100002
     9dc:	10000410 	.word	0x10000410

000009e0 <TEE_CopyOperation>:
TEE_CopyOperation():
/home/yin/imx-optee/imx-optee-os/lib/libutee/tee_api_operations.c:695
     9e0:	b538      	push	{r3, r4, r5, lr}
     9e2:	460c      	mov	r4, r1
/home/yin/imx-optee/imx-optee-os/lib/libutee/tee_api_operations.c:698
     9e4:	4605      	mov	r5, r0
     9e6:	b100      	cbz	r0, 9ea <TEE_CopyOperation+0xa>
/home/yin/imx-optee/imx-optee-os/lib/libutee/tee_api_operations.c:698 (discriminator 1)
     9e8:	b911      	cbnz	r1, 9f0 <TEE_CopyOperation+0x10>
/home/yin/imx-optee/imx-optee-os/lib/libutee/tee_api_operations.c:699
     9ea:	2000      	movs	r0, #0
     9ec:	f004 fa4a 	bl	4e84 <TEE_Panic>
/home/yin/imx-optee/imx-optee-os/lib/libutee/tee_api_operations.c:700
     9f0:	682a      	ldr	r2, [r5, #0]
     9f2:	6823      	ldr	r3, [r4, #0]
     9f4:	429a      	cmp	r2, r3
     9f6:	d002      	beq.n	9fe <TEE_CopyOperation+0x1e>
/home/yin/imx-optee/imx-optee-os/lib/libutee/tee_api_operations.c:701
     9f8:	2000      	movs	r0, #0
     9fa:	f004 fa43 	bl	4e84 <TEE_Panic>
/home/yin/imx-optee/imx-optee-os/lib/libutee/tee_api_operations.c:702
     9fe:	6863      	ldr	r3, [r4, #4]
     a00:	2b05      	cmp	r3, #5
     a02:	d00b      	beq.n	a1c <TEE_CopyOperation+0x3c>
/home/yin/imx-optee/imx-optee-os/lib/libutee/tee_api_operations.c:706
     a04:	69e3      	ldr	r3, [r4, #28]
/home/yin/imx-optee/imx-optee-os/lib/libutee/tee_api_operations.c:713
     a06:	4628      	mov	r0, r5
/home/yin/imx-optee/imx-optee-os/lib/libutee/tee_api_operations.c:706
     a08:	f413 2280 	ands.w	r2, r3, #262144	; 0x40000
/home/yin/imx-optee/imx-optee-os/lib/libutee/tee_api_operations.c:707
     a0c:	bf16      	itet	ne
     a0e:	6a21      	ldrne	r1, [r4, #32]
/home/yin/imx-optee/imx-optee-os/lib/libutee/tee_api_operations.c:703
     a10:	4611      	moveq	r1, r2
/home/yin/imx-optee/imx-optee-os/lib/libutee/tee_api_operations.c:708
     a12:	6a62      	ldrne	r2, [r4, #36]	; 0x24
/home/yin/imx-optee/imx-optee-os/lib/libutee/tee_api_operations.c:711
     a14:	031b      	lsls	r3, r3, #12
     a16:	d42b      	bmi.n	a70 <TEE_CopyOperation+0x90>
/home/yin/imx-optee/imx-optee-os/lib/libutee/tee_api_operations.c:713
     a18:	f7ff ff22 	bl	860 <TEE_SetOperationKey>
/home/yin/imx-optee/imx-optee-os/lib/libutee/tee_api_operations.c:718
     a1c:	69e3      	ldr	r3, [r4, #28]
/home/yin/imx-optee/imx-optee-os/lib/libutee/tee_api_operations.c:722
     a1e:	f895 2030 	ldrb.w	r2, [r5, #48]	; 0x30
/home/yin/imx-optee/imx-optee-os/lib/libutee/tee_api_operations.c:718
     a22:	61eb      	str	r3, [r5, #28]
/home/yin/imx-optee/imx-optee-os/lib/libutee/tee_api_operations.c:719
     a24:	6963      	ldr	r3, [r4, #20]
     a26:	616b      	str	r3, [r5, #20]
/home/yin/imx-optee/imx-optee-os/lib/libutee/tee_api_operations.c:720
     a28:	6aa3      	ldr	r3, [r4, #40]	; 0x28
     a2a:	62ab      	str	r3, [r5, #40]	; 0x28
/home/yin/imx-optee/imx-optee-os/lib/libutee/tee_api_operations.c:722
     a2c:	f894 3030 	ldrb.w	r3, [r4, #48]	; 0x30
     a30:	429a      	cmp	r2, r3
     a32:	d103      	bne.n	a3c <TEE_CopyOperation+0x5c>
/home/yin/imx-optee/imx-optee-os/lib/libutee/tee_api_operations.c:722 (discriminator 1)
     a34:	6b6a      	ldr	r2, [r5, #52]	; 0x34
     a36:	6b63      	ldr	r3, [r4, #52]	; 0x34
     a38:	429a      	cmp	r2, r3
     a3a:	d002      	beq.n	a42 <TEE_CopyOperation+0x62>
/home/yin/imx-optee/imx-optee-os/lib/libutee/tee_api_operations.c:724
     a3c:	2000      	movs	r0, #0
     a3e:	f004 fa21 	bl	4e84 <TEE_Panic>
/home/yin/imx-optee/imx-optee-os/lib/libutee/tee_api_operations.c:726
     a42:	6ae8      	ldr	r0, [r5, #44]	; 0x2c
     a44:	6ae3      	ldr	r3, [r4, #44]	; 0x2c
     a46:	b1b0      	cbz	r0, a76 <TEE_CopyOperation+0x96>
/home/yin/imx-optee/imx-optee-os/lib/libutee/tee_api_operations.c:727
     a48:	b913      	cbnz	r3, a50 <TEE_CopyOperation+0x70>
/home/yin/imx-optee/imx-optee-os/lib/libutee/tee_api_operations.c:728
     a4a:	4618      	mov	r0, r3
     a4c:	f004 fa1a 	bl	4e84 <TEE_Panic>
/home/yin/imx-optee/imx-optee-os/lib/libutee/tee_api_operations.c:730
     a50:	6ba2      	ldr	r2, [r4, #56]	; 0x38
     a52:	6ae1      	ldr	r1, [r4, #44]	; 0x2c
     a54:	6ae8      	ldr	r0, [r5, #44]	; 0x2c
     a56:	f004 fa3c 	bl	4ed2 <memcpy>
/home/yin/imx-optee/imx-optee-os/lib/libutee/tee_api_operations.c:731
     a5a:	6ba3      	ldr	r3, [r4, #56]	; 0x38
     a5c:	63ab      	str	r3, [r5, #56]	; 0x38
/home/yin/imx-optee/imx-optee-os/lib/libutee/tee_api_operations.c:736
     a5e:	6be1      	ldr	r1, [r4, #60]	; 0x3c
     a60:	6be8      	ldr	r0, [r5, #60]	; 0x3c
     a62:	f000 efb6 	blx	19d0 <utee_cryp_state_copy>
/home/yin/imx-optee/imx-optee-os/lib/libutee/tee_api_operations.c:737
     a66:	b158      	cbz	r0, a80 <TEE_CopyOperation+0xa0>
/home/yin/imx-optee/imx-optee-os/lib/libutee/tee_api_operations.c:739
     a68:	e8bd 4038 	ldmia.w	sp!, {r3, r4, r5, lr}
/home/yin/imx-optee/imx-optee-os/lib/libutee/tee_api_operations.c:738
     a6c:	f004 ba0a 	b.w	4e84 <TEE_Panic>
/home/yin/imx-optee/imx-optee-os/lib/libutee/tee_api_operations.c:715
     a70:	f7ff ff3c 	bl	8ec <TEE_SetOperationKey2>
     a74:	e7d2      	b.n	a1c <TEE_CopyOperation+0x3c>
/home/yin/imx-optee/imx-optee-os/lib/libutee/tee_api_operations.c:732
     a76:	2b00      	cmp	r3, #0
     a78:	d0f1      	beq.n	a5e <TEE_CopyOperation+0x7e>
/home/yin/imx-optee/imx-optee-os/lib/libutee/tee_api_operations.c:733
     a7a:	f004 fa03 	bl	4e84 <TEE_Panic>
     a7e:	e7ee      	b.n	a5e <TEE_CopyOperation+0x7e>
     a80:	bd38      	pop	{r3, r4, r5, pc}

00000a82 <TEE_DigestUpdate>:
TEE_DigestUpdate():
/home/yin/imx-optee/imx-optee-os/lib/libutee/tee_api_operations.c:761
     a82:	b570      	push	{r4, r5, r6, lr}
     a84:	460d      	mov	r5, r1
     a86:	4616      	mov	r6, r2
/home/yin/imx-optee/imx-optee-os/lib/libutee/tee_api_operations.c:764
     a88:	4604      	mov	r4, r0
     a8a:	b110      	cbz	r0, a92 <TEE_DigestUpdate+0x10>
/home/yin/imx-optee/imx-optee-os/lib/libutee/tee_api_operations.c:764 (discriminator 1)
     a8c:	6843      	ldr	r3, [r0, #4]
     a8e:	2b05      	cmp	r3, #5
     a90:	d002      	beq.n	a98 <TEE_DigestUpdate+0x16>
/home/yin/imx-optee/imx-optee-os/lib/libutee/tee_api_operations.c:766
     a92:	2000      	movs	r0, #0
     a94:	f004 f9f6 	bl	4e84 <TEE_Panic>
/home/yin/imx-optee/imx-optee-os/lib/libutee/tee_api_operations.c:768
     a98:	2301      	movs	r3, #1
/home/yin/imx-optee/imx-optee-os/lib/libutee/tee_api_operations.c:770
     a9a:	4632      	mov	r2, r6
/home/yin/imx-optee/imx-optee-os/lib/libutee/tee_api_operations.c:768
     a9c:	62a3      	str	r3, [r4, #40]	; 0x28
/home/yin/imx-optee/imx-optee-os/lib/libutee/tee_api_operations.c:770
     a9e:	4629      	mov	r1, r5
     aa0:	6be0      	ldr	r0, [r4, #60]	; 0x3c
     aa2:	f000 efb4 	blx	1a0c <utee_hash_update>
/home/yin/imx-optee/imx-optee-os/lib/libutee/tee_api_operations.c:771
     aa6:	b118      	cbz	r0, ab0 <TEE_DigestUpdate+0x2e>
/home/yin/imx-optee/imx-optee-os/lib/libutee/tee_api_operations.c:773
     aa8:	e8bd 4070 	ldmia.w	sp!, {r4, r5, r6, lr}
/home/yin/imx-optee/imx-optee-os/lib/libutee/tee_api_operations.c:772
     aac:	f004 b9ea 	b.w	4e84 <TEE_Panic>
     ab0:	bd70      	pop	{r4, r5, r6, pc}

00000ab2 <TEE_DigestDoFinal>:
TEE_DigestDoFinal():
/home/yin/imx-optee/imx-optee-os/lib/libutee/tee_api_operations.c:777
     ab2:	b530      	push	{r4, r5, lr}
     ab4:	b085      	sub	sp, #20
     ab6:	9c08      	ldr	r4, [sp, #32]
/home/yin/imx-optee/imx-optee-os/lib/libutee/tee_api_operations.c:781
     ab8:	4605      	mov	r5, r0
     aba:	b328      	cbz	r0, b08 <TEE_DigestDoFinal+0x56>
/home/yin/imx-optee/imx-optee-os/lib/libutee/tee_api_operations.c:781 (discriminator 1)
     abc:	b901      	cbnz	r1, ac0 <TEE_DigestDoFinal+0xe>
/home/yin/imx-optee/imx-optee-os/lib/libutee/tee_api_operations.c:782
     abe:	bb1a      	cbnz	r2, b08 <TEE_DigestDoFinal+0x56>
/home/yin/imx-optee/imx-optee-os/lib/libutee/tee_api_operations.c:782 (discriminator 1)
     ac0:	b313      	cbz	r3, b08 <TEE_DigestDoFinal+0x56>
/home/yin/imx-optee/imx-optee-os/lib/libutee/tee_api_operations.c:783
     ac2:	b30c      	cbz	r4, b08 <TEE_DigestDoFinal+0x56>
/home/yin/imx-optee/imx-optee-os/lib/libutee/tee_api_operations.c:784
     ac4:	6868      	ldr	r0, [r5, #4]
     ac6:	2805      	cmp	r0, #5
     ac8:	d11e      	bne.n	b08 <TEE_DigestDoFinal+0x56>
/home/yin/imx-optee/imx-optee-os/lib/libutee/tee_api_operations.c:790
     aca:	6820      	ldr	r0, [r4, #0]
     acc:	9002      	str	r0, [sp, #8]
     ace:	2000      	movs	r0, #0
     ad0:	9003      	str	r0, [sp, #12]
/home/yin/imx-optee/imx-optee-os/lib/libutee/tee_api_operations.c:791
     ad2:	a802      	add	r0, sp, #8
     ad4:	9000      	str	r0, [sp, #0]
     ad6:	6be8      	ldr	r0, [r5, #60]	; 0x3c
     ad8:	f000 efa2 	blx	1a20 <utee_hash_final>
/home/yin/imx-optee/imx-optee-os/lib/libutee/tee_api_operations.c:792
     adc:	9b02      	ldr	r3, [sp, #8]
     ade:	6023      	str	r3, [r4, #0]
/home/yin/imx-optee/imx-optee-os/lib/libutee/tee_api_operations.c:793
     ae0:	4604      	mov	r4, r0
     ae2:	b9b0      	cbnz	r0, b12 <TEE_DigestDoFinal+0x60>
init_hash_operation():
/home/yin/imx-optee/imx-optee-os/lib/libutee/tee_api_operations.c:752
     ae4:	4602      	mov	r2, r0
     ae6:	4601      	mov	r1, r0
     ae8:	6be8      	ldr	r0, [r5, #60]	; 0x3c
     aea:	f000 ef86 	blx	19f8 <utee_hash_init>
/home/yin/imx-optee/imx-optee-os/lib/libutee/tee_api_operations.c:753
     aee:	b108      	cbz	r0, af4 <TEE_DigestDoFinal+0x42>
/home/yin/imx-optee/imx-optee-os/lib/libutee/tee_api_operations.c:754
     af0:	f004 f9c8 	bl	4e84 <TEE_Panic>
/home/yin/imx-optee/imx-optee-os/lib/libutee/tee_api_operations.c:756
     af4:	69eb      	ldr	r3, [r5, #28]
/home/yin/imx-optee/imx-optee-os/lib/libutee/tee_api_operations.c:755
     af6:	2200      	movs	r2, #0
     af8:	63aa      	str	r2, [r5, #56]	; 0x38
TEE_DigestDoFinal():
/home/yin/imx-optee/imx-optee-os/lib/libutee/tee_api_operations.c:799
     afa:	62aa      	str	r2, [r5, #40]	; 0x28
init_hash_operation():
/home/yin/imx-optee/imx-optee-os/lib/libutee/tee_api_operations.c:756
     afc:	f443 3300 	orr.w	r3, r3, #131072	; 0x20000
     b00:	61eb      	str	r3, [r5, #28]
TEE_DigestDoFinal():
/home/yin/imx-optee/imx-optee-os/lib/libutee/tee_api_operations.c:807
     b02:	4620      	mov	r0, r4
     b04:	b005      	add	sp, #20
     b06:	bd30      	pop	{r4, r5, pc}
     b08:	4c04      	ldr	r4, [pc, #16]	; (b1c <TEE_DigestDoFinal+0x6a>)
/home/yin/imx-optee/imx-optee-os/lib/libutee/tee_api_operations.c:804
     b0a:	4620      	mov	r0, r4
     b0c:	f004 f9ba 	bl	4e84 <TEE_Panic>
/home/yin/imx-optee/imx-optee-os/lib/libutee/tee_api_operations.c:806
     b10:	e7f7      	b.n	b02 <TEE_DigestDoFinal+0x50>
/home/yin/imx-optee/imx-optee-os/lib/libutee/tee_api_operations.c:802
     b12:	4b03      	ldr	r3, [pc, #12]	; (b20 <TEE_DigestDoFinal+0x6e>)
     b14:	4298      	cmp	r0, r3
     b16:	d0f4      	beq.n	b02 <TEE_DigestDoFinal+0x50>
     b18:	e7f7      	b.n	b0a <TEE_DigestDoFinal+0x58>
     b1a:	bf00      	nop
     b1c:	ffff0006 	.word	0xffff0006
     b20:	ffff0010 	.word	0xffff0010

00000b24 <TEE_CipherInit>:
TEE_CipherInit():
/home/yin/imx-optee/imx-optee-os/lib/libutee/tee_api_operations.c:813
     b24:	b570      	push	{r4, r5, r6, lr}
     b26:	460d      	mov	r5, r1
     b28:	4616      	mov	r6, r2
/home/yin/imx-optee/imx-optee-os/lib/libutee/tee_api_operations.c:816
     b2a:	4604      	mov	r4, r0
     b2c:	b908      	cbnz	r0, b32 <TEE_CipherInit+0xe>
/home/yin/imx-optee/imx-optee-os/lib/libutee/tee_api_operations.c:817
     b2e:	f004 f9a9 	bl	4e84 <TEE_Panic>
/home/yin/imx-optee/imx-optee-os/lib/libutee/tee_api_operations.c:819
     b32:	6863      	ldr	r3, [r4, #4]
     b34:	2b01      	cmp	r3, #1
     b36:	d002      	beq.n	b3e <TEE_CipherInit+0x1a>
/home/yin/imx-optee/imx-optee-os/lib/libutee/tee_api_operations.c:820
     b38:	2000      	movs	r0, #0
     b3a:	f004 f9a3 	bl	4e84 <TEE_Panic>
/home/yin/imx-optee/imx-optee-os/lib/libutee/tee_api_operations.c:822
     b3e:	69e3      	ldr	r3, [r4, #28]
     b40:	035b      	lsls	r3, r3, #13
     b42:	d501      	bpl.n	b48 <TEE_CipherInit+0x24>
/home/yin/imx-optee/imx-optee-os/lib/libutee/tee_api_operations.c:822 (discriminator 1)
     b44:	6a23      	ldr	r3, [r4, #32]
     b46:	b913      	cbnz	r3, b4e <TEE_CipherInit+0x2a>
/home/yin/imx-optee/imx-optee-os/lib/libutee/tee_api_operations.c:824
     b48:	2000      	movs	r0, #0
     b4a:	f004 f99b 	bl	4e84 <TEE_Panic>
/home/yin/imx-optee/imx-optee-os/lib/libutee/tee_api_operations.c:826
     b4e:	6aa3      	ldr	r3, [r4, #40]	; 0x28
     b50:	b113      	cbz	r3, b58 <TEE_CipherInit+0x34>
/home/yin/imx-optee/imx-optee-os/lib/libutee/tee_api_operations.c:827
     b52:	4620      	mov	r0, r4
     b54:	f7ff fe64 	bl	820 <TEE_ResetOperation>
/home/yin/imx-optee/imx-optee-os/lib/libutee/tee_api_operations.c:829
     b58:	2301      	movs	r3, #1
/home/yin/imx-optee/imx-optee-os/lib/libutee/tee_api_operations.c:831
     b5a:	4632      	mov	r2, r6
/home/yin/imx-optee/imx-optee-os/lib/libutee/tee_api_operations.c:829
     b5c:	62a3      	str	r3, [r4, #40]	; 0x28
/home/yin/imx-optee/imx-optee-os/lib/libutee/tee_api_operations.c:831
     b5e:	4629      	mov	r1, r5
     b60:	6be0      	ldr	r0, [r4, #60]	; 0x3c
     b62:	f000 ef6a 	blx	1a38 <utee_cipher_init>
/home/yin/imx-optee/imx-optee-os/lib/libutee/tee_api_operations.c:832
     b66:	b108      	cbz	r0, b6c <TEE_CipherInit+0x48>
/home/yin/imx-optee/imx-optee-os/lib/libutee/tee_api_operations.c:833
     b68:	f004 f98c 	bl	4e84 <TEE_Panic>
/home/yin/imx-optee/imx-optee-os/lib/libutee/tee_api_operations.c:835
     b6c:	2300      	movs	r3, #0
     b6e:	63a3      	str	r3, [r4, #56]	; 0x38
/home/yin/imx-optee/imx-optee-os/lib/libutee/tee_api_operations.c:836
     b70:	69e3      	ldr	r3, [r4, #28]
     b72:	f443 3300 	orr.w	r3, r3, #131072	; 0x20000
     b76:	61e3      	str	r3, [r4, #28]
     b78:	bd70      	pop	{r4, r5, r6, pc}

00000b7a <TEE_CipherUpdate>:
TEE_CipherUpdate():
/home/yin/imx-optee/imx-optee-os/lib/libutee/tee_api_operations.c:939
     b7a:	e92d 47f0 	stmdb	sp!, {r4, r5, r6, r7, r8, r9, sl, lr}
     b7e:	b086      	sub	sp, #24
     b80:	f8df a0e8 	ldr.w	sl, [pc, #232]	; c6c <TEE_CipherUpdate+0xf2>
     b84:	4688      	mov	r8, r1
     b86:	4614      	mov	r4, r2
     b88:	4699      	mov	r9, r3
     b8a:	9e0e      	ldr	r6, [sp, #56]	; 0x38
/home/yin/imx-optee/imx-optee-os/lib/libutee/tee_api_operations.c:944
     b8c:	4605      	mov	r5, r0
/home/yin/imx-optee/imx-optee-os/lib/libutee/tee_api_operations.c:939
     b8e:	44fa      	add	sl, pc
/home/yin/imx-optee/imx-optee-os/lib/libutee/tee_api_operations.c:944
     b90:	2800      	cmp	r0, #0
     b92:	d064      	beq.n	c5e <TEE_CipherUpdate+0xe4>
/home/yin/imx-optee/imx-optee-os/lib/libutee/tee_api_operations.c:944 (discriminator 1)
     b94:	b909      	cbnz	r1, b9a <TEE_CipherUpdate+0x20>
/home/yin/imx-optee/imx-optee-os/lib/libutee/tee_api_operations.c:945
     b96:	2a00      	cmp	r2, #0
     b98:	d161      	bne.n	c5e <TEE_CipherUpdate+0xe4>
/home/yin/imx-optee/imx-optee-os/lib/libutee/tee_api_operations.c:945 (discriminator 1)
     b9a:	2e00      	cmp	r6, #0
     b9c:	d05f      	beq.n	c5e <TEE_CipherUpdate+0xe4>
/home/yin/imx-optee/imx-optee-os/lib/libutee/tee_api_operations.c:946
     b9e:	f1b9 0f00 	cmp.w	r9, #0
     ba2:	d102      	bne.n	baa <TEE_CipherUpdate+0x30>
/home/yin/imx-optee/imx-optee-os/lib/libutee/tee_api_operations.c:947
     ba4:	6833      	ldr	r3, [r6, #0]
     ba6:	2b00      	cmp	r3, #0
     ba8:	d159      	bne.n	c5e <TEE_CipherUpdate+0xe4>
/home/yin/imx-optee/imx-optee-os/lib/libutee/tee_api_operations.c:952
     baa:	686b      	ldr	r3, [r5, #4]
     bac:	2b01      	cmp	r3, #1
     bae:	d156      	bne.n	c5e <TEE_CipherUpdate+0xe4>
/home/yin/imx-optee/imx-optee-os/lib/libutee/tee_api_operations.c:957
     bb0:	69eb      	ldr	r3, [r5, #28]
     bb2:	039b      	lsls	r3, r3, #14
     bb4:	d553      	bpl.n	c5e <TEE_CipherUpdate+0xe4>
/home/yin/imx-optee/imx-optee-os/lib/libutee/tee_api_operations.c:962
     bb6:	6aab      	ldr	r3, [r5, #40]	; 0x28
     bb8:	2b01      	cmp	r3, #1
     bba:	d150      	bne.n	c5e <TEE_CipherUpdate+0xe4>
/home/yin/imx-optee/imx-optee-os/lib/libutee/tee_api_operations.c:967
     bbc:	f1b8 0f00 	cmp.w	r8, #0
     bc0:	d105      	bne.n	bce <TEE_CipherUpdate+0x54>
/home/yin/imx-optee/imx-optee-os/lib/libutee/tee_api_operations.c:967 (discriminator 1)
     bc2:	b924      	cbnz	r4, bce <TEE_CipherUpdate+0x54>
/home/yin/imx-optee/imx-optee-os/lib/libutee/tee_api_operations.c:968
     bc4:	6034      	str	r4, [r6, #0]
/home/yin/imx-optee/imx-optee-os/lib/libutee/tee_api_operations.c:1018
     bc6:	4620      	mov	r0, r4
     bc8:	b006      	add	sp, #24
     bca:	e8bd 87f0 	ldmia.w	sp!, {r4, r5, r6, r7, r8, r9, sl, pc}
/home/yin/imx-optee/imx-optee-os/lib/libutee/tee_api_operations.c:974
     bce:	6b6f      	ldr	r7, [r5, #52]	; 0x34
     bd0:	2f01      	cmp	r7, #1
     bd2:	d913      	bls.n	bfc <TEE_CipherUpdate+0x82>
/home/yin/imx-optee/imx-optee-os/lib/libutee/tee_api_operations.c:975
     bd4:	6ba8      	ldr	r0, [r5, #56]	; 0x38
     bd6:	4639      	mov	r1, r7
     bd8:	4420      	add	r0, r4
     bda:	f004 f9d4 	bl	4f86 <__aeabi_uidiv>
     bde:	4378      	muls	r0, r7
/home/yin/imx-optee/imx-optee-os/lib/libutee/tee_api_operations.c:980
     be0:	f895 3030 	ldrb.w	r3, [r5, #48]	; 0x30
     be4:	b123      	cbz	r3, bf0 <TEE_CipherUpdate+0x76>
/home/yin/imx-optee/imx-optee-os/lib/libutee/tee_api_operations.c:981
     be6:	007b      	lsls	r3, r7, #1
     be8:	4298      	cmp	r0, r3
/home/yin/imx-optee/imx-optee-os/lib/libutee/tee_api_operations.c:982
     bea:	bf8c      	ite	hi
     bec:	1ac0      	subhi	r0, r0, r3
/home/yin/imx-optee/imx-optee-os/lib/libutee/tee_api_operations.c:984
     bee:	2000      	movls	r0, #0
/home/yin/imx-optee/imx-optee-os/lib/libutee/tee_api_operations.c:991
     bf0:	6833      	ldr	r3, [r6, #0]
     bf2:	4298      	cmp	r0, r3
     bf4:	d904      	bls.n	c00 <TEE_CipherUpdate+0x86>
/home/yin/imx-optee/imx-optee-os/lib/libutee/tee_api_operations.c:992
     bf6:	6030      	str	r0, [r6, #0]
     bf8:	4c1a      	ldr	r4, [pc, #104]	; (c64 <TEE_CipherUpdate+0xea>)
     bfa:	e7e4      	b.n	bc6 <TEE_CipherUpdate+0x4c>
     bfc:	4620      	mov	r0, r4
     bfe:	e7ef      	b.n	be0 <TEE_CipherUpdate+0x66>
/home/yin/imx-optee/imx-optee-os/lib/libutee/tee_api_operations.c:998
     c00:	2f01      	cmp	r7, #1
/home/yin/imx-optee/imx-optee-os/lib/libutee/tee_api_operations.c:997
     c02:	9304      	str	r3, [sp, #16]
     c04:	f04f 0300 	mov.w	r3, #0
     c08:	9305      	str	r3, [sp, #20]
/home/yin/imx-optee/imx-optee-os/lib/libutee/tee_api_operations.c:998
     c0a:	d919      	bls.n	c40 <TEE_CipherUpdate+0xc6>
/home/yin/imx-optee/imx-optee-os/lib/libutee/tee_api_operations.c:999
     c0c:	4b18      	ldr	r3, [pc, #96]	; (c70 <TEE_CipherUpdate+0xf6>)
     c0e:	4642      	mov	r2, r8
     c10:	4628      	mov	r0, r5
     c12:	f85a 3003 	ldr.w	r3, [sl, r3]
     c16:	f8cd 9000 	str.w	r9, [sp]
     c1a:	9303      	str	r3, [sp, #12]
     c1c:	ab04      	add	r3, sp, #16
     c1e:	9301      	str	r3, [sp, #4]
     c20:	4623      	mov	r3, r4
     c22:	9903      	ldr	r1, [sp, #12]
     c24:	f7ff fa36 	bl	94 <tee_buffer_update>
/home/yin/imx-optee/imx-optee-os/lib/libutee/tee_api_operations.c:1003
     c28:	4604      	mov	r4, r0
/home/yin/imx-optee/imx-optee-os/lib/libutee/tee_api_operations.c:1010
     c2a:	9b04      	ldr	r3, [sp, #16]
     c2c:	6033      	str	r3, [r6, #0]
/home/yin/imx-optee/imx-optee-os/lib/libutee/tee_api_operations.c:1013
     c2e:	2c00      	cmp	r4, #0
     c30:	d0c9      	beq.n	bc6 <TEE_CipherUpdate+0x4c>
/home/yin/imx-optee/imx-optee-os/lib/libutee/tee_api_operations.c:1013 (discriminator 1)
     c32:	4b0c      	ldr	r3, [pc, #48]	; (c64 <TEE_CipherUpdate+0xea>)
     c34:	429c      	cmp	r4, r3
     c36:	d0c6      	beq.n	bc6 <TEE_CipherUpdate+0x4c>
/home/yin/imx-optee/imx-optee-os/lib/libutee/tee_api_operations.c:1015
     c38:	4620      	mov	r0, r4
     c3a:	f004 f923 	bl	4e84 <TEE_Panic>
/home/yin/imx-optee/imx-optee-os/lib/libutee/tee_api_operations.c:1017
     c3e:	e7c2      	b.n	bc6 <TEE_CipherUpdate+0x4c>
/home/yin/imx-optee/imx-optee-os/lib/libutee/tee_api_operations.c:1002
     c40:	b144      	cbz	r4, c54 <TEE_CipherUpdate+0xda>
/home/yin/imx-optee/imx-optee-os/lib/libutee/tee_api_operations.c:1003
     c42:	ab04      	add	r3, sp, #16
     c44:	4622      	mov	r2, r4
     c46:	9300      	str	r3, [sp, #0]
     c48:	4641      	mov	r1, r8
     c4a:	464b      	mov	r3, r9
     c4c:	6be8      	ldr	r0, [r5, #60]	; 0x3c
     c4e:	f000 eefe 	blx	1a4c <utee_cipher_update>
     c52:	e7e9      	b.n	c28 <TEE_CipherUpdate+0xae>
/home/yin/imx-optee/imx-optee-os/lib/libutee/tee_api_operations.c:1007
     c54:	2200      	movs	r2, #0
     c56:	2300      	movs	r3, #0
     c58:	e9cd 2304 	strd	r2, r3, [sp, #16]
     c5c:	e7e5      	b.n	c2a <TEE_CipherUpdate+0xb0>
     c5e:	4c02      	ldr	r4, [pc, #8]	; (c68 <TEE_CipherUpdate+0xee>)
     c60:	e7ea      	b.n	c38 <TEE_CipherUpdate+0xbe>
     c62:	bf00      	nop
     c64:	ffff0010 	.word	0xffff0010
     c68:	ffff0006 	.word	0xffff0006
     c6c:	00007d02 	.word	0x00007d02
     c70:	00000024 	.word	0x00000024

00000c74 <TEE_CipherDoFinal>:
TEE_CipherDoFinal():
/home/yin/imx-optee/imx-optee-os/lib/libutee/tee_api_operations.c:1023
     c74:	e92d 4ff0 	stmdb	sp!, {r4, r5, r6, r7, r8, r9, sl, fp, lr}
     c78:	b087      	sub	sp, #28
     c7a:	f8df b104 	ldr.w	fp, [pc, #260]	; d80 <TEE_CipherDoFinal+0x10c>
     c7e:	468a      	mov	sl, r1
     c80:	4614      	mov	r4, r2
     c82:	4698      	mov	r8, r3
     c84:	9f10      	ldr	r7, [sp, #64]	; 0x40
/home/yin/imx-optee/imx-optee-os/lib/libutee/tee_api_operations.c:1030
     c86:	4605      	mov	r5, r0
/home/yin/imx-optee/imx-optee-os/lib/libutee/tee_api_operations.c:1023
     c88:	44fb      	add	fp, pc
/home/yin/imx-optee/imx-optee-os/lib/libutee/tee_api_operations.c:1030
     c8a:	2800      	cmp	r0, #0
     c8c:	d069      	beq.n	d62 <TEE_CipherDoFinal+0xee>
/home/yin/imx-optee/imx-optee-os/lib/libutee/tee_api_operations.c:1030 (discriminator 1)
     c8e:	b909      	cbnz	r1, c94 <TEE_CipherDoFinal+0x20>
/home/yin/imx-optee/imx-optee-os/lib/libutee/tee_api_operations.c:1031
     c90:	2a00      	cmp	r2, #0
     c92:	d166      	bne.n	d62 <TEE_CipherDoFinal+0xee>
/home/yin/imx-optee/imx-optee-os/lib/libutee/tee_api_operations.c:1031 (discriminator 1)
     c94:	2f00      	cmp	r7, #0
     c96:	d064      	beq.n	d62 <TEE_CipherDoFinal+0xee>
/home/yin/imx-optee/imx-optee-os/lib/libutee/tee_api_operations.c:1032
     c98:	f1b8 0f00 	cmp.w	r8, #0
     c9c:	d102      	bne.n	ca4 <TEE_CipherDoFinal+0x30>
/home/yin/imx-optee/imx-optee-os/lib/libutee/tee_api_operations.c:1033
     c9e:	683b      	ldr	r3, [r7, #0]
     ca0:	2b00      	cmp	r3, #0
     ca2:	d15e      	bne.n	d62 <TEE_CipherDoFinal+0xee>
/home/yin/imx-optee/imx-optee-os/lib/libutee/tee_api_operations.c:1038
     ca4:	686b      	ldr	r3, [r5, #4]
     ca6:	2b01      	cmp	r3, #1
     ca8:	d15b      	bne.n	d62 <TEE_CipherDoFinal+0xee>
/home/yin/imx-optee/imx-optee-os/lib/libutee/tee_api_operations.c:1043
     caa:	69eb      	ldr	r3, [r5, #28]
     cac:	039b      	lsls	r3, r3, #14
     cae:	d558      	bpl.n	d62 <TEE_CipherDoFinal+0xee>
/home/yin/imx-optee/imx-optee-os/lib/libutee/tee_api_operations.c:1048
     cb0:	6aab      	ldr	r3, [r5, #40]	; 0x28
     cb2:	2b01      	cmp	r3, #1
     cb4:	d155      	bne.n	d62 <TEE_CipherDoFinal+0xee>
/home/yin/imx-optee/imx-optee-os/lib/libutee/tee_api_operations.c:1057
     cb6:	682b      	ldr	r3, [r5, #0]
     cb8:	f423 7380 	bic.w	r3, r3, #256	; 0x100
     cbc:	f103 4270 	add.w	r2, r3, #4026531840	; 0xf0000000
     cc0:	3a10      	subs	r2, #16
     cc2:	2a01      	cmp	r2, #1
     cc4:	d902      	bls.n	ccc <TEE_CipherDoFinal+0x58>
/home/yin/imx-optee/imx-optee-os/lib/libutee/tee_api_operations.c:1060 (discriminator 1)
     cc6:	4a2b      	ldr	r2, [pc, #172]	; (d74 <TEE_CipherDoFinal+0x100>)
     cc8:	4293      	cmp	r3, r2
     cca:	d106      	bne.n	cda <TEE_CipherDoFinal+0x66>
/home/yin/imx-optee/imx-optee-os/lib/libutee/tee_api_operations.c:1063
     ccc:	6ba8      	ldr	r0, [r5, #56]	; 0x38
     cce:	6b69      	ldr	r1, [r5, #52]	; 0x34
     cd0:	4420      	add	r0, r4
     cd2:	f004 f978 	bl	4fc6 <__aeabi_uidivmod>
     cd6:	2900      	cmp	r1, #0
     cd8:	d143      	bne.n	d62 <TEE_CipherDoFinal+0xee>
/home/yin/imx-optee/imx-optee-os/lib/libutee/tee_api_operations.c:1075
     cda:	6b6a      	ldr	r2, [r5, #52]	; 0x34
/home/yin/imx-optee/imx-optee-os/lib/libutee/tee_api_operations.c:1080
     cdc:	6839      	ldr	r1, [r7, #0]
/home/yin/imx-optee/imx-optee-os/lib/libutee/tee_api_operations.c:1075
     cde:	2a01      	cmp	r2, #1
/home/yin/imx-optee/imx-optee-os/lib/libutee/tee_api_operations.c:1076
     ce0:	bf8a      	itet	hi
     ce2:	6bab      	ldrhi	r3, [r5, #56]	; 0x38
     ce4:	4623      	movls	r3, r4
     ce6:	191b      	addhi	r3, r3, r4
/home/yin/imx-optee/imx-optee-os/lib/libutee/tee_api_operations.c:1080
     ce8:	428b      	cmp	r3, r1
     cea:	d905      	bls.n	cf8 <TEE_CipherDoFinal+0x84>
/home/yin/imx-optee/imx-optee-os/lib/libutee/tee_api_operations.c:1081
     cec:	4c22      	ldr	r4, [pc, #136]	; (d78 <TEE_CipherDoFinal+0x104>)
     cee:	603b      	str	r3, [r7, #0]
/home/yin/imx-optee/imx-optee-os/lib/libutee/tee_api_operations.c:1119
     cf0:	4620      	mov	r0, r4
     cf2:	b007      	add	sp, #28
     cf4:	e8bd 8ff0 	ldmia.w	sp!, {r4, r5, r6, r7, r8, r9, sl, fp, pc}
/home/yin/imx-optee/imx-optee-os/lib/libutee/tee_api_operations.c:1087
     cf8:	2a01      	cmp	r2, #1
/home/yin/imx-optee/imx-optee-os/lib/libutee/tee_api_operations.c:1086
     cfa:	f04f 0600 	mov.w	r6, #0
     cfe:	9104      	str	r1, [sp, #16]
     d00:	f10d 0910 	add.w	r9, sp, #16
     d04:	9605      	str	r6, [sp, #20]
/home/yin/imx-optee/imx-optee-os/lib/libutee/tee_api_operations.c:1087
     d06:	d926      	bls.n	d56 <TEE_CipherDoFinal+0xe2>
/home/yin/imx-optee/imx-optee-os/lib/libutee/tee_api_operations.c:1088
     d08:	4b1e      	ldr	r3, [pc, #120]	; (d84 <TEE_CipherDoFinal+0x110>)
     d0a:	4652      	mov	r2, sl
     d0c:	4628      	mov	r0, r5
     d0e:	f85b 3003 	ldr.w	r3, [fp, r3]
     d12:	e88d 0300 	stmia.w	sp, {r8, r9}
     d16:	9303      	str	r3, [sp, #12]
     d18:	4623      	mov	r3, r4
     d1a:	9903      	ldr	r1, [sp, #12]
     d1c:	f7ff f9ba 	bl	94 <tee_buffer_update>
/home/yin/imx-optee/imx-optee-os/lib/libutee/tee_api_operations.c:1090
     d20:	4604      	mov	r4, r0
     d22:	bb18      	cbnz	r0, d6c <TEE_CipherDoFinal+0xf8>
/home/yin/imx-optee/imx-optee-os/lib/libutee/tee_api_operations.c:1093
     d24:	9e04      	ldr	r6, [sp, #16]
/home/yin/imx-optee/imx-optee-os/lib/libutee/tee_api_operations.c:1096
     d26:	683b      	ldr	r3, [r7, #0]
/home/yin/imx-optee/imx-optee-os/lib/libutee/tee_api_operations.c:1097
     d28:	f8cd 9000 	str.w	r9, [sp]
     d2c:	6baa      	ldr	r2, [r5, #56]	; 0x38
     d2e:	6ae9      	ldr	r1, [r5, #44]	; 0x2c
/home/yin/imx-optee/imx-optee-os/lib/libutee/tee_api_operations.c:1096
     d30:	1b9b      	subs	r3, r3, r6
     d32:	9304      	str	r3, [sp, #16]
/home/yin/imx-optee/imx-optee-os/lib/libutee/tee_api_operations.c:1097
     d34:	eb08 0306 	add.w	r3, r8, r6
/home/yin/imx-optee/imx-optee-os/lib/libutee/tee_api_operations.c:1096
     d38:	9005      	str	r0, [sp, #20]
/home/yin/imx-optee/imx-optee-os/lib/libutee/tee_api_operations.c:1100
     d3a:	6be8      	ldr	r0, [r5, #60]	; 0x3c
     d3c:	f000 ee92 	blx	1a64 <utee_cipher_final>
     d40:	4604      	mov	r4, r0
/home/yin/imx-optee/imx-optee-os/lib/libutee/tee_api_operations.c:1103
     d42:	b998      	cbnz	r0, d6c <TEE_CipherDoFinal+0xf8>
/home/yin/imx-optee/imx-optee-os/lib/libutee/tee_api_operations.c:1106
     d44:	9b04      	ldr	r3, [sp, #16]
     d46:	441e      	add	r6, r3
/home/yin/imx-optee/imx-optee-os/lib/libutee/tee_api_operations.c:1107
     d48:	603e      	str	r6, [r7, #0]
/home/yin/imx-optee/imx-optee-os/lib/libutee/tee_api_operations.c:1109
     d4a:	69eb      	ldr	r3, [r5, #28]
/home/yin/imx-optee/imx-optee-os/lib/libutee/tee_api_operations.c:1111
     d4c:	62a8      	str	r0, [r5, #40]	; 0x28
/home/yin/imx-optee/imx-optee-os/lib/libutee/tee_api_operations.c:1109
     d4e:	f423 3300 	bic.w	r3, r3, #131072	; 0x20000
     d52:	61eb      	str	r3, [r5, #28]
     d54:	e7cc      	b.n	cf0 <TEE_CipherDoFinal+0x7c>
/home/yin/imx-optee/imx-optee-os/lib/libutee/tee_api_operations.c:1100
     d56:	f8cd 9000 	str.w	r9, [sp]
     d5a:	4643      	mov	r3, r8
     d5c:	4622      	mov	r2, r4
     d5e:	4651      	mov	r1, sl
     d60:	e7eb      	b.n	d3a <TEE_CipherDoFinal+0xc6>
     d62:	4c06      	ldr	r4, [pc, #24]	; (d7c <TEE_CipherDoFinal+0x108>)
/home/yin/imx-optee/imx-optee-os/lib/libutee/tee_api_operations.c:1116
     d64:	4620      	mov	r0, r4
     d66:	f004 f88d 	bl	4e84 <TEE_Panic>
/home/yin/imx-optee/imx-optee-os/lib/libutee/tee_api_operations.c:1118
     d6a:	e7c1      	b.n	cf0 <TEE_CipherDoFinal+0x7c>
/home/yin/imx-optee/imx-optee-os/lib/libutee/tee_api_operations.c:1114
     d6c:	4b02      	ldr	r3, [pc, #8]	; (d78 <TEE_CipherDoFinal+0x104>)
     d6e:	429c      	cmp	r4, r3
     d70:	d0be      	beq.n	cf0 <TEE_CipherDoFinal+0x7c>
     d72:	e7f7      	b.n	d64 <TEE_CipherDoFinal+0xf0>
     d74:	10000013 	.word	0x10000013
     d78:	ffff0010 	.word	0xffff0010
     d7c:	ffff0006 	.word	0xffff0006
     d80:	00007c08 	.word	0x00007c08
     d84:	00000024 	.word	0x00000024

00000d88 <TEE_MACInit>:
TEE_MACInit():
/home/yin/imx-optee/imx-optee-os/lib/libutee/tee_api_operations.c:1124
     d88:	b570      	push	{r4, r5, r6, lr}
     d8a:	460d      	mov	r5, r1
     d8c:	4616      	mov	r6, r2
/home/yin/imx-optee/imx-optee-os/lib/libutee/tee_api_operations.c:1125
     d8e:	4604      	mov	r4, r0
     d90:	b908      	cbnz	r0, d96 <TEE_MACInit+0xe>
/home/yin/imx-optee/imx-optee-os/lib/libutee/tee_api_operations.c:1126
     d92:	f004 f877 	bl	4e84 <TEE_Panic>
/home/yin/imx-optee/imx-optee-os/lib/libutee/tee_api_operations.c:1128
     d96:	6863      	ldr	r3, [r4, #4]
     d98:	2b03      	cmp	r3, #3
     d9a:	d002      	beq.n	da2 <TEE_MACInit+0x1a>
/home/yin/imx-optee/imx-optee-os/lib/libutee/tee_api_operations.c:1129
     d9c:	2000      	movs	r0, #0
     d9e:	f004 f871 	bl	4e84 <TEE_Panic>
/home/yin/imx-optee/imx-optee-os/lib/libutee/tee_api_operations.c:1131
     da2:	69e3      	ldr	r3, [r4, #28]
     da4:	035b      	lsls	r3, r3, #13
     da6:	d501      	bpl.n	dac <TEE_MACInit+0x24>
/home/yin/imx-optee/imx-optee-os/lib/libutee/tee_api_operations.c:1131 (discriminator 1)
     da8:	6a23      	ldr	r3, [r4, #32]
     daa:	b913      	cbnz	r3, db2 <TEE_MACInit+0x2a>
/home/yin/imx-optee/imx-optee-os/lib/libutee/tee_api_operations.c:1133
     dac:	2000      	movs	r0, #0
     dae:	f004 f869 	bl	4e84 <TEE_Panic>
/home/yin/imx-optee/imx-optee-os/lib/libutee/tee_api_operations.c:1135
     db2:	6aa3      	ldr	r3, [r4, #40]	; 0x28
     db4:	b113      	cbz	r3, dbc <TEE_MACInit+0x34>
/home/yin/imx-optee/imx-optee-os/lib/libutee/tee_api_operations.c:1136
     db6:	4620      	mov	r0, r4
     db8:	f7ff fd32 	bl	820 <TEE_ResetOperation>
/home/yin/imx-optee/imx-optee-os/lib/libutee/tee_api_operations.c:1138
     dbc:	2301      	movs	r3, #1
init_hash_operation():
/home/yin/imx-optee/imx-optee-os/lib/libutee/tee_api_operations.c:752
     dbe:	4632      	mov	r2, r6
TEE_MACInit():
/home/yin/imx-optee/imx-optee-os/lib/libutee/tee_api_operations.c:1138
     dc0:	62a3      	str	r3, [r4, #40]	; 0x28
init_hash_operation():
/home/yin/imx-optee/imx-optee-os/lib/libutee/tee_api_operations.c:752
     dc2:	4629      	mov	r1, r5
     dc4:	6be0      	ldr	r0, [r4, #60]	; 0x3c
     dc6:	f000 ee18 	blx	19f8 <utee_hash_init>
/home/yin/imx-optee/imx-optee-os/lib/libutee/tee_api_operations.c:753
     dca:	b108      	cbz	r0, dd0 <TEE_MACInit+0x48>
/home/yin/imx-optee/imx-optee-os/lib/libutee/tee_api_operations.c:754
     dcc:	f004 f85a 	bl	4e84 <TEE_Panic>
/home/yin/imx-optee/imx-optee-os/lib/libutee/tee_api_operations.c:755
     dd0:	2300      	movs	r3, #0
     dd2:	63a3      	str	r3, [r4, #56]	; 0x38
/home/yin/imx-optee/imx-optee-os/lib/libutee/tee_api_operations.c:756
     dd4:	69e3      	ldr	r3, [r4, #28]
     dd6:	f443 3300 	orr.w	r3, r3, #131072	; 0x20000
     dda:	61e3      	str	r3, [r4, #28]
     ddc:	bd70      	pop	{r4, r5, r6, pc}

00000dde <TEE_MACUpdate>:
TEE_MACUpdate():
/home/yin/imx-optee/imx-optee-os/lib/libutee/tee_api_operations.c:1145
     dde:	b570      	push	{r4, r5, r6, lr}
     de0:	460d      	mov	r5, r1
     de2:	4616      	mov	r6, r2
/home/yin/imx-optee/imx-optee-os/lib/libutee/tee_api_operations.c:1148
     de4:	4604      	mov	r4, r0
     de6:	b108      	cbz	r0, dec <TEE_MACUpdate+0xe>
/home/yin/imx-optee/imx-optee-os/lib/libutee/tee_api_operations.c:1148 (discriminator 1)
     de8:	b919      	cbnz	r1, df2 <TEE_MACUpdate+0x14>
/home/yin/imx-optee/imx-optee-os/lib/libutee/tee_api_operations.c:1148 (discriminator 2)
     dea:	b112      	cbz	r2, df2 <TEE_MACUpdate+0x14>
/home/yin/imx-optee/imx-optee-os/lib/libutee/tee_api_operations.c:1149
     dec:	2000      	movs	r0, #0
     dee:	f004 f849 	bl	4e84 <TEE_Panic>
/home/yin/imx-optee/imx-optee-os/lib/libutee/tee_api_operations.c:1151
     df2:	6863      	ldr	r3, [r4, #4]
     df4:	2b03      	cmp	r3, #3
     df6:	d002      	beq.n	dfe <TEE_MACUpdate+0x20>
/home/yin/imx-optee/imx-optee-os/lib/libutee/tee_api_operations.c:1152
     df8:	2000      	movs	r0, #0
     dfa:	f004 f843 	bl	4e84 <TEE_Panic>
/home/yin/imx-optee/imx-optee-os/lib/libutee/tee_api_operations.c:1154
     dfe:	69e0      	ldr	r0, [r4, #28]
     e00:	f410 3000 	ands.w	r0, r0, #131072	; 0x20000
     e04:	d101      	bne.n	e0a <TEE_MACUpdate+0x2c>
/home/yin/imx-optee/imx-optee-os/lib/libutee/tee_api_operations.c:1155
     e06:	f004 f83d 	bl	4e84 <TEE_Panic>
/home/yin/imx-optee/imx-optee-os/lib/libutee/tee_api_operations.c:1157
     e0a:	6aa3      	ldr	r3, [r4, #40]	; 0x28
     e0c:	2b01      	cmp	r3, #1
     e0e:	d002      	beq.n	e16 <TEE_MACUpdate+0x38>
/home/yin/imx-optee/imx-optee-os/lib/libutee/tee_api_operations.c:1158
     e10:	2000      	movs	r0, #0
     e12:	f004 f837 	bl	4e84 <TEE_Panic>
/home/yin/imx-optee/imx-optee-os/lib/libutee/tee_api_operations.c:1160
     e16:	4632      	mov	r2, r6
     e18:	4629      	mov	r1, r5
     e1a:	6be0      	ldr	r0, [r4, #60]	; 0x3c
     e1c:	f000 edf6 	blx	1a0c <utee_hash_update>
/home/yin/imx-optee/imx-optee-os/lib/libutee/tee_api_operations.c:1161
     e20:	b118      	cbz	r0, e2a <TEE_MACUpdate+0x4c>
/home/yin/imx-optee/imx-optee-os/lib/libutee/tee_api_operations.c:1163
     e22:	e8bd 4070 	ldmia.w	sp!, {r4, r5, r6, lr}
/home/yin/imx-optee/imx-optee-os/lib/libutee/tee_api_operations.c:1162
     e26:	f004 b82d 	b.w	4e84 <TEE_Panic>
     e2a:	bd70      	pop	{r4, r5, r6, pc}

00000e2c <TEE_MACComputeFinal>:
TEE_MACComputeFinal():
/home/yin/imx-optee/imx-optee-os/lib/libutee/tee_api_operations.c:1168
     e2c:	b530      	push	{r4, r5, lr}
     e2e:	b085      	sub	sp, #20
     e30:	9c08      	ldr	r4, [sp, #32]
/home/yin/imx-optee/imx-optee-os/lib/libutee/tee_api_operations.c:1172
     e32:	4605      	mov	r5, r0
     e34:	b308      	cbz	r0, e7a <TEE_MACComputeFinal+0x4e>
/home/yin/imx-optee/imx-optee-os/lib/libutee/tee_api_operations.c:1172 (discriminator 1)
     e36:	b901      	cbnz	r1, e3a <TEE_MACComputeFinal+0xe>
/home/yin/imx-optee/imx-optee-os/lib/libutee/tee_api_operations.c:1173
     e38:	b9fa      	cbnz	r2, e7a <TEE_MACComputeFinal+0x4e>
/home/yin/imx-optee/imx-optee-os/lib/libutee/tee_api_operations.c:1173 (discriminator 1)
     e3a:	b1f3      	cbz	r3, e7a <TEE_MACComputeFinal+0x4e>
/home/yin/imx-optee/imx-optee-os/lib/libutee/tee_api_operations.c:1174
     e3c:	b1ec      	cbz	r4, e7a <TEE_MACComputeFinal+0x4e>
/home/yin/imx-optee/imx-optee-os/lib/libutee/tee_api_operations.c:1180
     e3e:	6868      	ldr	r0, [r5, #4]
     e40:	2803      	cmp	r0, #3
     e42:	d11a      	bne.n	e7a <TEE_MACComputeFinal+0x4e>
/home/yin/imx-optee/imx-optee-os/lib/libutee/tee_api_operations.c:1185
     e44:	69e8      	ldr	r0, [r5, #28]
     e46:	0380      	lsls	r0, r0, #14
     e48:	d517      	bpl.n	e7a <TEE_MACComputeFinal+0x4e>
/home/yin/imx-optee/imx-optee-os/lib/libutee/tee_api_operations.c:1190
     e4a:	6aa8      	ldr	r0, [r5, #40]	; 0x28
     e4c:	2801      	cmp	r0, #1
     e4e:	d114      	bne.n	e7a <TEE_MACComputeFinal+0x4e>
/home/yin/imx-optee/imx-optee-os/lib/libutee/tee_api_operations.c:1195
     e50:	6820      	ldr	r0, [r4, #0]
     e52:	9002      	str	r0, [sp, #8]
     e54:	2000      	movs	r0, #0
     e56:	9003      	str	r0, [sp, #12]
/home/yin/imx-optee/imx-optee-os/lib/libutee/tee_api_operations.c:1196
     e58:	a802      	add	r0, sp, #8
     e5a:	9000      	str	r0, [sp, #0]
     e5c:	6be8      	ldr	r0, [r5, #60]	; 0x3c
     e5e:	f000 ede0 	blx	1a20 <utee_hash_final>
/home/yin/imx-optee/imx-optee-os/lib/libutee/tee_api_operations.c:1197
     e62:	9b02      	ldr	r3, [sp, #8]
     e64:	6023      	str	r3, [r4, #0]
/home/yin/imx-optee/imx-optee-os/lib/libutee/tee_api_operations.c:1198
     e66:	4604      	mov	r4, r0
     e68:	b960      	cbnz	r0, e84 <TEE_MACComputeFinal+0x58>
/home/yin/imx-optee/imx-optee-os/lib/libutee/tee_api_operations.c:1201
     e6a:	69eb      	ldr	r3, [r5, #28]
/home/yin/imx-optee/imx-optee-os/lib/libutee/tee_api_operations.c:1203
     e6c:	62a8      	str	r0, [r5, #40]	; 0x28
/home/yin/imx-optee/imx-optee-os/lib/libutee/tee_api_operations.c:1201
     e6e:	f423 3300 	bic.w	r3, r3, #131072	; 0x20000
     e72:	61eb      	str	r3, [r5, #28]
/home/yin/imx-optee/imx-optee-os/lib/libutee/tee_api_operations.c:1211
     e74:	4620      	mov	r0, r4
     e76:	b005      	add	sp, #20
     e78:	bd30      	pop	{r4, r5, pc}
     e7a:	4c04      	ldr	r4, [pc, #16]	; (e8c <TEE_MACComputeFinal+0x60>)
/home/yin/imx-optee/imx-optee-os/lib/libutee/tee_api_operations.c:1208
     e7c:	4620      	mov	r0, r4
     e7e:	f004 f801 	bl	4e84 <TEE_Panic>
/home/yin/imx-optee/imx-optee-os/lib/libutee/tee_api_operations.c:1210
     e82:	e7f7      	b.n	e74 <TEE_MACComputeFinal+0x48>
/home/yin/imx-optee/imx-optee-os/lib/libutee/tee_api_operations.c:1206
     e84:	4b02      	ldr	r3, [pc, #8]	; (e90 <TEE_MACComputeFinal+0x64>)
     e86:	4298      	cmp	r0, r3
     e88:	d0f4      	beq.n	e74 <TEE_MACComputeFinal+0x48>
     e8a:	e7f7      	b.n	e7c <TEE_MACComputeFinal+0x50>
     e8c:	ffff0006 	.word	0xffff0006
     e90:	ffff0010 	.word	0xffff0010

00000e94 <TEE_MACCompareFinal>:
TEE_MACCompareFinal():
/home/yin/imx-optee/imx-optee-os/lib/libutee/tee_api_operations.c:1216
     e94:	b5f0      	push	{r4, r5, r6, r7, lr}
     e96:	461f      	mov	r7, r3
     e98:	b095      	sub	sp, #84	; 0x54
/home/yin/imx-optee/imx-optee-os/lib/libutee/tee_api_operations.c:1219
     e9a:	2340      	movs	r3, #64	; 0x40
/home/yin/imx-optee/imx-optee-os/lib/libutee/tee_api_operations.c:1216
     e9c:	4605      	mov	r5, r0
/home/yin/imx-optee/imx-optee-os/lib/libutee/tee_api_operations.c:1219
     e9e:	9303      	str	r3, [sp, #12]
/home/yin/imx-optee/imx-optee-os/lib/libutee/tee_api_operations.c:1221
     ea0:	6843      	ldr	r3, [r0, #4]
     ea2:	2b03      	cmp	r3, #3
     ea4:	d11a      	bne.n	edc <TEE_MACCompareFinal+0x48>
/home/yin/imx-optee/imx-optee-os/lib/libutee/tee_api_operations.c:1226
     ea6:	69c3      	ldr	r3, [r0, #28]
     ea8:	039b      	lsls	r3, r3, #14
     eaa:	d517      	bpl.n	edc <TEE_MACCompareFinal+0x48>
/home/yin/imx-optee/imx-optee-os/lib/libutee/tee_api_operations.c:1231
     eac:	6a83      	ldr	r3, [r0, #40]	; 0x28
     eae:	2b01      	cmp	r3, #1
     eb0:	d114      	bne.n	edc <TEE_MACCompareFinal+0x48>
/home/yin/imx-optee/imx-optee-os/lib/libutee/tee_api_operations.c:1236
     eb2:	ab03      	add	r3, sp, #12
     eb4:	ae04      	add	r6, sp, #16
     eb6:	9300      	str	r3, [sp, #0]
     eb8:	4633      	mov	r3, r6
     eba:	f7ff ffb7 	bl	e2c <TEE_MACComputeFinal>
/home/yin/imx-optee/imx-optee-os/lib/libutee/tee_api_operations.c:1238
     ebe:	4604      	mov	r4, r0
     ec0:	b988      	cbnz	r0, ee6 <TEE_MACCompareFinal+0x52>
/home/yin/imx-optee/imx-optee-os/lib/libutee/tee_api_operations.c:1241
     ec2:	9a03      	ldr	r2, [sp, #12]
     ec4:	9b1a      	ldr	r3, [sp, #104]	; 0x68
     ec6:	429a      	cmp	r2, r3
     ec8:	d110      	bne.n	eec <TEE_MACCompareFinal+0x58>
/home/yin/imx-optee/imx-optee-os/lib/libutee/tee_api_operations.c:1246
     eca:	4631      	mov	r1, r6
     ecc:	4638      	mov	r0, r7
     ece:	f004 f910 	bl	50f2 <buf_compare_ct>
     ed2:	b958      	cbnz	r0, eec <TEE_MACCompareFinal+0x58>
/home/yin/imx-optee/imx-optee-os/lib/libutee/tee_api_operations.c:1251
     ed4:	62ac      	str	r4, [r5, #40]	; 0x28
/home/yin/imx-optee/imx-optee-os/lib/libutee/tee_api_operations.c:1259
     ed6:	4620      	mov	r0, r4
     ed8:	b015      	add	sp, #84	; 0x54
     eda:	bdf0      	pop	{r4, r5, r6, r7, pc}
     edc:	4c04      	ldr	r4, [pc, #16]	; (ef0 <TEE_MACCompareFinal+0x5c>)
/home/yin/imx-optee/imx-optee-os/lib/libutee/tee_api_operations.c:1256
     ede:	4620      	mov	r0, r4
     ee0:	f003 ffd0 	bl	4e84 <TEE_Panic>
/home/yin/imx-optee/imx-optee-os/lib/libutee/tee_api_operations.c:1258
     ee4:	e7f7      	b.n	ed6 <TEE_MACCompareFinal+0x42>
/home/yin/imx-optee/imx-optee-os/lib/libutee/tee_api_operations.c:1254
     ee6:	4b03      	ldr	r3, [pc, #12]	; (ef4 <TEE_MACCompareFinal+0x60>)
     ee8:	4298      	cmp	r0, r3
     eea:	d1f8      	bne.n	ede <TEE_MACCompareFinal+0x4a>
     eec:	4c01      	ldr	r4, [pc, #4]	; (ef4 <TEE_MACCompareFinal+0x60>)
     eee:	e7f2      	b.n	ed6 <TEE_MACCompareFinal+0x42>
     ef0:	ffff0006 	.word	0xffff0006
     ef4:	ffff3071 	.word	0xffff3071

00000ef8 <TEE_AEInit>:
TEE_AEInit():
/home/yin/imx-optee/imx-optee-os/lib/libutee/tee_api_operations.c:1266
     ef8:	b573      	push	{r0, r1, r4, r5, r6, lr}
/home/yin/imx-optee/imx-optee-os/lib/libutee/tee_api_operations.c:1269
     efa:	4605      	mov	r5, r0
     efc:	b320      	cbz	r0, f48 <TEE_AEInit+0x50>
/home/yin/imx-optee/imx-optee-os/lib/libutee/tee_api_operations.c:1269 (discriminator 1)
     efe:	b319      	cbz	r1, f48 <TEE_AEInit+0x50>
/home/yin/imx-optee/imx-optee-os/lib/libutee/tee_api_operations.c:1274
     f00:	6840      	ldr	r0, [r0, #4]
     f02:	2804      	cmp	r0, #4
     f04:	d120      	bne.n	f48 <TEE_AEInit+0x50>
/home/yin/imx-optee/imx-optee-os/lib/libutee/tee_api_operations.c:1279
     f06:	6aa8      	ldr	r0, [r5, #40]	; 0x28
     f08:	b9f0      	cbnz	r0, f48 <TEE_AEInit+0x50>
/home/yin/imx-optee/imx-optee-os/lib/libutee/tee_api_operations.c:1290
     f0a:	682c      	ldr	r4, [r5, #0]
     f0c:	4813      	ldr	r0, [pc, #76]	; (f5c <TEE_AEInit+0x64>)
     f0e:	4284      	cmp	r4, r0
     f10:	d109      	bne.n	f26 <TEE_AEInit+0x2e>
/home/yin/imx-optee/imx-optee-os/lib/libutee/tee_api_operations.c:1294
     f12:	f1a3 0060 	sub.w	r0, r3, #96	; 0x60
     f16:	2820      	cmp	r0, #32
     f18:	d903      	bls.n	f22 <TEE_AEInit+0x2a>
     f1a:	4c11      	ldr	r4, [pc, #68]	; (f60 <TEE_AEInit+0x68>)
/home/yin/imx-optee/imx-optee-os/lib/libutee/tee_api_operations.c:1314
     f1c:	4620      	mov	r0, r4
     f1e:	b002      	add	sp, #8
     f20:	bd70      	pop	{r4, r5, r6, pc}
/home/yin/imx-optee/imx-optee-os/lib/libutee/tee_api_operations.c:1294 (discriminator 1)
     f22:	0758      	lsls	r0, r3, #29
     f24:	d1f9      	bne.n	f1a <TEE_AEInit+0x22>
/home/yin/imx-optee/imx-optee-os/lib/libutee/tee_api_operations.c:1300
     f26:	08de      	lsrs	r6, r3, #3
     f28:	9b07      	ldr	r3, [sp, #28]
     f2a:	9301      	str	r3, [sp, #4]
     f2c:	9b06      	ldr	r3, [sp, #24]
     f2e:	9300      	str	r3, [sp, #0]
     f30:	4633      	mov	r3, r6
     f32:	6be8      	ldr	r0, [r5, #60]	; 0x3c
     f34:	f000 ee06 	blx	1b44 <utee_authenc_init>
/home/yin/imx-optee/imx-optee-os/lib/libutee/tee_api_operations.c:1302
     f38:	4604      	mov	r4, r0
     f3a:	b950      	cbnz	r0, f52 <TEE_AEInit+0x5a>
/home/yin/imx-optee/imx-optee-os/lib/libutee/tee_api_operations.c:1306
     f3c:	69eb      	ldr	r3, [r5, #28]
/home/yin/imx-optee/imx-optee-os/lib/libutee/tee_api_operations.c:1305
     f3e:	642e      	str	r6, [r5, #64]	; 0x40
/home/yin/imx-optee/imx-optee-os/lib/libutee/tee_api_operations.c:1306
     f40:	f443 3300 	orr.w	r3, r3, #131072	; 0x20000
     f44:	61eb      	str	r3, [r5, #28]
     f46:	e7e9      	b.n	f1c <TEE_AEInit+0x24>
     f48:	4c06      	ldr	r4, [pc, #24]	; (f64 <TEE_AEInit+0x6c>)
/home/yin/imx-optee/imx-optee-os/lib/libutee/tee_api_operations.c:1311
     f4a:	4620      	mov	r0, r4
     f4c:	f003 ff9a 	bl	4e84 <TEE_Panic>
/home/yin/imx-optee/imx-optee-os/lib/libutee/tee_api_operations.c:1313
     f50:	e7e4      	b.n	f1c <TEE_AEInit+0x24>
/home/yin/imx-optee/imx-optee-os/lib/libutee/tee_api_operations.c:1309
     f52:	4b03      	ldr	r3, [pc, #12]	; (f60 <TEE_AEInit+0x68>)
     f54:	4298      	cmp	r0, r3
     f56:	d0e0      	beq.n	f1a <TEE_AEInit+0x22>
     f58:	e7f7      	b.n	f4a <TEE_AEInit+0x52>
     f5a:	bf00      	nop
     f5c:	40000810 	.word	0x40000810
     f60:	ffff000a 	.word	0xffff000a
     f64:	ffff0006 	.word	0xffff0006

00000f68 <TEE_AEUpdateAAD>:
TEE_AEUpdateAAD():
/home/yin/imx-optee/imx-optee-os/lib/libutee/tee_api_operations.c:1318
     f68:	b570      	push	{r4, r5, r6, lr}
     f6a:	460d      	mov	r5, r1
     f6c:	4616      	mov	r6, r2
/home/yin/imx-optee/imx-optee-os/lib/libutee/tee_api_operations.c:1321
     f6e:	4604      	mov	r4, r0
     f70:	b108      	cbz	r0, f76 <TEE_AEUpdateAAD+0xe>
/home/yin/imx-optee/imx-optee-os/lib/libutee/tee_api_operations.c:1321 (discriminator 1)
     f72:	b919      	cbnz	r1, f7c <TEE_AEUpdateAAD+0x14>
/home/yin/imx-optee/imx-optee-os/lib/libutee/tee_api_operations.c:1322
     f74:	b112      	cbz	r2, f7c <TEE_AEUpdateAAD+0x14>
/home/yin/imx-optee/imx-optee-os/lib/libutee/tee_api_operations.c:1323
     f76:	2000      	movs	r0, #0
     f78:	f003 ff84 	bl	4e84 <TEE_Panic>
/home/yin/imx-optee/imx-optee-os/lib/libutee/tee_api_operations.c:1325
     f7c:	6863      	ldr	r3, [r4, #4]
     f7e:	2b04      	cmp	r3, #4
     f80:	d002      	beq.n	f88 <TEE_AEUpdateAAD+0x20>
/home/yin/imx-optee/imx-optee-os/lib/libutee/tee_api_operations.c:1326
     f82:	2000      	movs	r0, #0
     f84:	f003 ff7e 	bl	4e84 <TEE_Panic>
/home/yin/imx-optee/imx-optee-os/lib/libutee/tee_api_operations.c:1328
     f88:	69e0      	ldr	r0, [r4, #28]
     f8a:	f410 3000 	ands.w	r0, r0, #131072	; 0x20000
     f8e:	d101      	bne.n	f94 <TEE_AEUpdateAAD+0x2c>
/home/yin/imx-optee/imx-optee-os/lib/libutee/tee_api_operations.c:1329
     f90:	f003 ff78 	bl	4e84 <TEE_Panic>
/home/yin/imx-optee/imx-optee-os/lib/libutee/tee_api_operations.c:1331
     f94:	4632      	mov	r2, r6
     f96:	4629      	mov	r1, r5
     f98:	6be0      	ldr	r0, [r4, #60]	; 0x3c
     f9a:	f000 ede0 	blx	1b5c <utee_authenc_update_aad>
/home/yin/imx-optee/imx-optee-os/lib/libutee/tee_api_operations.c:1333
     f9e:	2301      	movs	r3, #1
     fa0:	62a3      	str	r3, [r4, #40]	; 0x28
/home/yin/imx-optee/imx-optee-os/lib/libutee/tee_api_operations.c:1335
     fa2:	b118      	cbz	r0, fac <TEE_AEUpdateAAD+0x44>
/home/yin/imx-optee/imx-optee-os/lib/libutee/tee_api_operations.c:1337
     fa4:	e8bd 4070 	ldmia.w	sp!, {r4, r5, r6, lr}
/home/yin/imx-optee/imx-optee-os/lib/libutee/tee_api_operations.c:1336
     fa8:	f003 bf6c 	b.w	4e84 <TEE_Panic>
     fac:	bd70      	pop	{r4, r5, r6, pc}

00000fae <TEE_AEUpdate>:
TEE_AEUpdate():
/home/yin/imx-optee/imx-optee-os/lib/libutee/tee_api_operations.c:1341
     fae:	b5f0      	push	{r4, r5, r6, r7, lr}
     fb0:	b087      	sub	sp, #28
     fb2:	4f30      	ldr	r7, [pc, #192]	; (1074 <TEE_AEUpdate+0xc6>)
/home/yin/imx-optee/imx-optee-os/lib/libutee/tee_api_operations.c:1346
     fb4:	4605      	mov	r5, r0
/home/yin/imx-optee/imx-optee-os/lib/libutee/tee_api_operations.c:1341
     fb6:	9e0c      	ldr	r6, [sp, #48]	; 0x30
     fb8:	447f      	add	r7, pc
/home/yin/imx-optee/imx-optee-os/lib/libutee/tee_api_operations.c:1346
     fba:	2800      	cmp	r0, #0
     fbc:	d04d      	beq.n	105a <TEE_AEUpdate+0xac>
/home/yin/imx-optee/imx-optee-os/lib/libutee/tee_api_operations.c:1346 (discriminator 1)
     fbe:	b909      	cbnz	r1, fc4 <TEE_AEUpdate+0x16>
/home/yin/imx-optee/imx-optee-os/lib/libutee/tee_api_operations.c:1347
     fc0:	2a00      	cmp	r2, #0
     fc2:	d14a      	bne.n	105a <TEE_AEUpdate+0xac>
/home/yin/imx-optee/imx-optee-os/lib/libutee/tee_api_operations.c:1347 (discriminator 1)
     fc4:	2e00      	cmp	r6, #0
     fc6:	d048      	beq.n	105a <TEE_AEUpdate+0xac>
/home/yin/imx-optee/imx-optee-os/lib/libutee/tee_api_operations.c:1348
     fc8:	b913      	cbnz	r3, fd0 <TEE_AEUpdate+0x22>
/home/yin/imx-optee/imx-optee-os/lib/libutee/tee_api_operations.c:1349
     fca:	6830      	ldr	r0, [r6, #0]
     fcc:	2800      	cmp	r0, #0
     fce:	d144      	bne.n	105a <TEE_AEUpdate+0xac>
/home/yin/imx-optee/imx-optee-os/lib/libutee/tee_api_operations.c:1354
     fd0:	6868      	ldr	r0, [r5, #4]
     fd2:	2804      	cmp	r0, #4
     fd4:	d141      	bne.n	105a <TEE_AEUpdate+0xac>
/home/yin/imx-optee/imx-optee-os/lib/libutee/tee_api_operations.c:1359
     fd6:	69e8      	ldr	r0, [r5, #28]
     fd8:	0380      	lsls	r0, r0, #14
     fda:	d53e      	bpl.n	105a <TEE_AEUpdate+0xac>
/home/yin/imx-optee/imx-optee-os/lib/libutee/tee_api_operations.c:1364
     fdc:	b919      	cbnz	r1, fe6 <TEE_AEUpdate+0x38>
/home/yin/imx-optee/imx-optee-os/lib/libutee/tee_api_operations.c:1364 (discriminator 1)
     fde:	b912      	cbnz	r2, fe6 <TEE_AEUpdate+0x38>
/home/yin/imx-optee/imx-optee-os/lib/libutee/tee_api_operations.c:1365
     fe0:	6032      	str	r2, [r6, #0]
/home/yin/imx-optee/imx-optee-os/lib/libutee/tee_api_operations.c:1407
     fe2:	2400      	movs	r4, #0
     fe4:	e010      	b.n	1008 <TEE_AEUpdate+0x5a>
/home/yin/imx-optee/imx-optee-os/lib/libutee/tee_api_operations.c:1375
     fe6:	6b6c      	ldr	r4, [r5, #52]	; 0x34
     fe8:	2c01      	cmp	r4, #1
/home/yin/imx-optee/imx-optee-os/lib/libutee/tee_api_operations.c:1376
     fea:	bf85      	ittet	hi
     fec:	6ba8      	ldrhi	r0, [r5, #56]	; 0x38
     fee:	f1c4 0c00 	rsbhi	ip, r4, #0
     ff2:	4610      	movls	r0, r2
     ff4:	1880      	addhi	r0, r0, r2
     ff6:	bf88      	it	hi
     ff8:	ea00 000c 	andhi.w	r0, r0, ip
/home/yin/imx-optee/imx-optee-os/lib/libutee/tee_api_operations.c:1382
     ffc:	f8d6 c000 	ldr.w	ip, [r6]
    1000:	4560      	cmp	r0, ip
    1002:	d904      	bls.n	100e <TEE_AEUpdate+0x60>
/home/yin/imx-optee/imx-optee-os/lib/libutee/tee_api_operations.c:1383
    1004:	4c19      	ldr	r4, [pc, #100]	; (106c <TEE_AEUpdate+0xbe>)
    1006:	6030      	str	r0, [r6, #0]
/home/yin/imx-optee/imx-optee-os/lib/libutee/tee_api_operations.c:1415
    1008:	4620      	mov	r0, r4
    100a:	b007      	add	sp, #28
    100c:	bdf0      	pop	{r4, r5, r6, r7, pc}
/home/yin/imx-optee/imx-optee-os/lib/libutee/tee_api_operations.c:1389
    100e:	2c01      	cmp	r4, #1
/home/yin/imx-optee/imx-optee-os/lib/libutee/tee_api_operations.c:1388
    1010:	f04f 0000 	mov.w	r0, #0
    1014:	f8cd c010 	str.w	ip, [sp, #16]
    1018:	9005      	str	r0, [sp, #20]
/home/yin/imx-optee/imx-optee-os/lib/libutee/tee_api_operations.c:1389
    101a:	d912      	bls.n	1042 <TEE_AEUpdate+0x94>
/home/yin/imx-optee/imx-optee-os/lib/libutee/tee_api_operations.c:1390
    101c:	4816      	ldr	r0, [pc, #88]	; (1078 <TEE_AEUpdate+0xca>)
    101e:	5838      	ldr	r0, [r7, r0]
    1020:	9300      	str	r3, [sp, #0]
    1022:	4613      	mov	r3, r2
    1024:	460a      	mov	r2, r1
    1026:	9003      	str	r0, [sp, #12]
    1028:	a804      	add	r0, sp, #16
    102a:	9001      	str	r0, [sp, #4]
    102c:	4628      	mov	r0, r5
    102e:	9903      	ldr	r1, [sp, #12]
    1030:	f7ff f830 	bl	94 <tee_buffer_update>
/home/yin/imx-optee/imx-optee-os/lib/libutee/tee_api_operations.c:1394
    1034:	4604      	mov	r4, r0
/home/yin/imx-optee/imx-optee-os/lib/libutee/tee_api_operations.c:1402
    1036:	b9a8      	cbnz	r0, 1064 <TEE_AEUpdate+0xb6>
/home/yin/imx-optee/imx-optee-os/lib/libutee/tee_api_operations.c:1405
    1038:	9b04      	ldr	r3, [sp, #16]
    103a:	6033      	str	r3, [r6, #0]
/home/yin/imx-optee/imx-optee-os/lib/libutee/tee_api_operations.c:1407
    103c:	2301      	movs	r3, #1
    103e:	62ab      	str	r3, [r5, #40]	; 0x28
    1040:	e7cf      	b.n	fe2 <TEE_AEUpdate+0x34>
/home/yin/imx-optee/imx-optee-os/lib/libutee/tee_api_operations.c:1393
    1042:	b12a      	cbz	r2, 1050 <TEE_AEUpdate+0xa2>
/home/yin/imx-optee/imx-optee-os/lib/libutee/tee_api_operations.c:1394
    1044:	a804      	add	r0, sp, #16
    1046:	9000      	str	r0, [sp, #0]
    1048:	6be8      	ldr	r0, [r5, #60]	; 0x3c
    104a:	f000 ed92 	blx	1b70 <utee_authenc_update_payload>
    104e:	e7f1      	b.n	1034 <TEE_AEUpdate+0x86>
/home/yin/imx-optee/imx-optee-os/lib/libutee/tee_api_operations.c:1398
    1050:	2200      	movs	r2, #0
    1052:	2300      	movs	r3, #0
    1054:	e9cd 2304 	strd	r2, r3, [sp, #16]
    1058:	e7ee      	b.n	1038 <TEE_AEUpdate+0x8a>
    105a:	4c05      	ldr	r4, [pc, #20]	; (1070 <TEE_AEUpdate+0xc2>)
/home/yin/imx-optee/imx-optee-os/lib/libutee/tee_api_operations.c:1412
    105c:	4620      	mov	r0, r4
    105e:	f003 ff11 	bl	4e84 <TEE_Panic>
/home/yin/imx-optee/imx-optee-os/lib/libutee/tee_api_operations.c:1414
    1062:	e7d1      	b.n	1008 <TEE_AEUpdate+0x5a>
/home/yin/imx-optee/imx-optee-os/lib/libutee/tee_api_operations.c:1410
    1064:	4b01      	ldr	r3, [pc, #4]	; (106c <TEE_AEUpdate+0xbe>)
    1066:	4298      	cmp	r0, r3
    1068:	d0ce      	beq.n	1008 <TEE_AEUpdate+0x5a>
    106a:	e7f7      	b.n	105c <TEE_AEUpdate+0xae>
    106c:	ffff0010 	.word	0xffff0010
    1070:	ffff0006 	.word	0xffff0006
    1074:	000078d8 	.word	0x000078d8
    1078:	00000018 	.word	0x00000018

0000107c <TEE_AEEncryptFinal>:
TEE_AEEncryptFinal():
/home/yin/imx-optee/imx-optee-os/lib/libutee/tee_api_operations.c:1421
    107c:	f8df c10c 	ldr.w	ip, [pc, #268]	; 118c <TEE_AEEncryptFinal+0x110>
    1080:	e92d 4ff0 	stmdb	sp!, {r4, r5, r6, r7, r8, r9, sl, fp, lr}
    1084:	b08b      	sub	sp, #44	; 0x2c
    1086:	4698      	mov	r8, r3
    1088:	9e14      	ldr	r6, [sp, #80]	; 0x50
    108a:	44fc      	add	ip, pc
/home/yin/imx-optee/imx-optee-os/lib/libutee/tee_api_operations.c:1429
    108c:	4604      	mov	r4, r0
/home/yin/imx-optee/imx-optee-os/lib/libutee/tee_api_operations.c:1421
    108e:	f8dd b054 	ldr.w	fp, [sp, #84]	; 0x54
    1092:	9f16      	ldr	r7, [sp, #88]	; 0x58
/home/yin/imx-optee/imx-optee-os/lib/libutee/tee_api_operations.c:1429
    1094:	2800      	cmp	r0, #0
    1096:	d069      	beq.n	116c <TEE_AEEncryptFinal+0xf0>
/home/yin/imx-optee/imx-optee-os/lib/libutee/tee_api_operations.c:1429 (discriminator 1)
    1098:	b909      	cbnz	r1, 109e <TEE_AEEncryptFinal+0x22>
/home/yin/imx-optee/imx-optee-os/lib/libutee/tee_api_operations.c:1430
    109a:	2a00      	cmp	r2, #0
    109c:	d166      	bne.n	116c <TEE_AEEncryptFinal+0xf0>
/home/yin/imx-optee/imx-optee-os/lib/libutee/tee_api_operations.c:1430 (discriminator 1)
    109e:	2e00      	cmp	r6, #0
    10a0:	d064      	beq.n	116c <TEE_AEEncryptFinal+0xf0>
/home/yin/imx-optee/imx-optee-os/lib/libutee/tee_api_operations.c:1431
    10a2:	f1b8 0f00 	cmp.w	r8, #0
    10a6:	d102      	bne.n	10ae <TEE_AEEncryptFinal+0x32>
/home/yin/imx-optee/imx-optee-os/lib/libutee/tee_api_operations.c:1432
    10a8:	6833      	ldr	r3, [r6, #0]
    10aa:	2b00      	cmp	r3, #0
    10ac:	d15e      	bne.n	116c <TEE_AEEncryptFinal+0xf0>
/home/yin/imx-optee/imx-optee-os/lib/libutee/tee_api_operations.c:1432 (discriminator 1)
    10ae:	f1bb 0f00 	cmp.w	fp, #0
    10b2:	d05b      	beq.n	116c <TEE_AEEncryptFinal+0xf0>
/home/yin/imx-optee/imx-optee-os/lib/libutee/tee_api_operations.c:1433
    10b4:	2f00      	cmp	r7, #0
    10b6:	d059      	beq.n	116c <TEE_AEEncryptFinal+0xf0>
/home/yin/imx-optee/imx-optee-os/lib/libutee/tee_api_operations.c:1438
    10b8:	6863      	ldr	r3, [r4, #4]
    10ba:	2b04      	cmp	r3, #4
    10bc:	d156      	bne.n	116c <TEE_AEEncryptFinal+0xf0>
/home/yin/imx-optee/imx-optee-os/lib/libutee/tee_api_operations.c:1443
    10be:	69e3      	ldr	r3, [r4, #28]
    10c0:	039b      	lsls	r3, r3, #14
    10c2:	d553      	bpl.n	116c <TEE_AEEncryptFinal+0xf0>
/home/yin/imx-optee/imx-optee-os/lib/libutee/tee_api_operations.c:1458
    10c4:	6ba3      	ldr	r3, [r4, #56]	; 0x38
/home/yin/imx-optee/imx-optee-os/lib/libutee/tee_api_operations.c:1459
    10c6:	6830      	ldr	r0, [r6, #0]
    10c8:	f8df 90b8 	ldr.w	r9, [pc, #184]	; 1184 <TEE_AEEncryptFinal+0x108>
/home/yin/imx-optee/imx-optee-os/lib/libutee/tee_api_operations.c:1458
    10cc:	4413      	add	r3, r2
/home/yin/imx-optee/imx-optee-os/lib/libutee/tee_api_operations.c:1459
    10ce:	4283      	cmp	r3, r0
/home/yin/imx-optee/imx-optee-os/lib/libutee/tee_api_operations.c:1460
    10d0:	bf84      	itt	hi
    10d2:	6033      	strhi	r3, [r6, #0]
/home/yin/imx-optee/imx-optee-os/lib/libutee/tee_api_operations.c:1461
    10d4:	4648      	movhi	r0, r9
/home/yin/imx-optee/imx-optee-os/lib/libutee/tee_api_operations.c:1464
    10d6:	683b      	ldr	r3, [r7, #0]
    10d8:	6c25      	ldr	r5, [r4, #64]	; 0x40
/home/yin/imx-optee/imx-optee-os/lib/libutee/tee_api_operations.c:1456
    10da:	bf98      	it	ls
    10dc:	4828      	ldrls	r0, [pc, #160]	; (1180 <TEE_AEEncryptFinal+0x104>)
/home/yin/imx-optee/imx-optee-os/lib/libutee/tee_api_operations.c:1464
    10de:	42ab      	cmp	r3, r5
    10e0:	d202      	bcs.n	10e8 <TEE_AEEncryptFinal+0x6c>
/home/yin/imx-optee/imx-optee-os/lib/libutee/tee_api_operations.c:1465
    10e2:	603d      	str	r5, [r7, #0]
    10e4:	4b27      	ldr	r3, [pc, #156]	; (1184 <TEE_AEEncryptFinal+0x108>)
    10e6:	e037      	b.n	1158 <TEE_AEEncryptFinal+0xdc>
/home/yin/imx-optee/imx-optee-os/lib/libutee/tee_api_operations.c:1469
    10e8:	4548      	cmp	r0, r9
    10ea:	d0fb      	beq.n	10e4 <TEE_AEEncryptFinal+0x68>
/home/yin/imx-optee/imx-optee-os/lib/libutee/tee_api_operations.c:1472
    10ec:	9308      	str	r3, [sp, #32]
    10ee:	2500      	movs	r5, #0
/home/yin/imx-optee/imx-optee-os/lib/libutee/tee_api_operations.c:1473
    10f0:	6833      	ldr	r3, [r6, #0]
    10f2:	f10d 0a18 	add.w	sl, sp, #24
/home/yin/imx-optee/imx-optee-os/lib/libutee/tee_api_operations.c:1472
    10f6:	9509      	str	r5, [sp, #36]	; 0x24
/home/yin/imx-optee/imx-optee-os/lib/libutee/tee_api_operations.c:1473
    10f8:	9507      	str	r5, [sp, #28]
    10fa:	9306      	str	r3, [sp, #24]
/home/yin/imx-optee/imx-optee-os/lib/libutee/tee_api_operations.c:1474
    10fc:	6b63      	ldr	r3, [r4, #52]	; 0x34
    10fe:	2b01      	cmp	r3, #1
    1100:	d92e      	bls.n	1160 <TEE_AEEncryptFinal+0xe4>
/home/yin/imx-optee/imx-optee-os/lib/libutee/tee_api_operations.c:1475
    1102:	4b23      	ldr	r3, [pc, #140]	; (1190 <TEE_AEEncryptFinal+0x114>)
    1104:	4620      	mov	r0, r4
    1106:	f85c 3003 	ldr.w	r3, [ip, r3]
    110a:	e88d 0500 	stmia.w	sp, {r8, sl}
    110e:	9305      	str	r3, [sp, #20]
    1110:	4613      	mov	r3, r2
    1112:	460a      	mov	r2, r1
    1114:	9905      	ldr	r1, [sp, #20]
    1116:	f7fe ffbd 	bl	94 <tee_buffer_update>
/home/yin/imx-optee/imx-optee-os/lib/libutee/tee_api_operations.c:1477
    111a:	4603      	mov	r3, r0
    111c:	2800      	cmp	r0, #0
    111e:	d12c      	bne.n	117a <TEE_AEEncryptFinal+0xfe>
/home/yin/imx-optee/imx-optee-os/lib/libutee/tee_api_operations.c:1480
    1120:	9d06      	ldr	r5, [sp, #24]
/home/yin/imx-optee/imx-optee-os/lib/libutee/tee_api_operations.c:1484
    1122:	ab08      	add	r3, sp, #32
/home/yin/imx-optee/imx-optee-os/lib/libutee/tee_api_operations.c:1483
    1124:	6832      	ldr	r2, [r6, #0]
/home/yin/imx-optee/imx-optee-os/lib/libutee/tee_api_operations.c:1484
    1126:	9302      	str	r3, [sp, #8]
    1128:	e88d 0c00 	stmia.w	sp, {sl, fp}
    112c:	eb08 0305 	add.w	r3, r8, r5
/home/yin/imx-optee/imx-optee-os/lib/libutee/tee_api_operations.c:1483
    1130:	1b52      	subs	r2, r2, r5
/home/yin/imx-optee/imx-optee-os/lib/libutee/tee_api_operations.c:1484
    1132:	6ae1      	ldr	r1, [r4, #44]	; 0x2c
/home/yin/imx-optee/imx-optee-os/lib/libutee/tee_api_operations.c:1483
    1134:	9206      	str	r2, [sp, #24]
/home/yin/imx-optee/imx-optee-os/lib/libutee/tee_api_operations.c:1484
    1136:	6ba2      	ldr	r2, [r4, #56]	; 0x38
/home/yin/imx-optee/imx-optee-os/lib/libutee/tee_api_operations.c:1483
    1138:	9007      	str	r0, [sp, #28]
/home/yin/imx-optee/imx-optee-os/lib/libutee/tee_api_operations.c:1489
    113a:	6be0      	ldr	r0, [r4, #60]	; 0x3c
    113c:	f000 ed24 	blx	1b88 <utee_authenc_enc_final>
/home/yin/imx-optee/imx-optee-os/lib/libutee/tee_api_operations.c:1493
    1140:	9a08      	ldr	r2, [sp, #32]
/home/yin/imx-optee/imx-optee-os/lib/libutee/tee_api_operations.c:1489
    1142:	4603      	mov	r3, r0
/home/yin/imx-optee/imx-optee-os/lib/libutee/tee_api_operations.c:1493
    1144:	603a      	str	r2, [r7, #0]
/home/yin/imx-optee/imx-optee-os/lib/libutee/tee_api_operations.c:1494
    1146:	b9c0      	cbnz	r0, 117a <TEE_AEEncryptFinal+0xfe>
/home/yin/imx-optee/imx-optee-os/lib/libutee/tee_api_operations.c:1497
    1148:	9a06      	ldr	r2, [sp, #24]
    114a:	4415      	add	r5, r2
/home/yin/imx-optee/imx-optee-os/lib/libutee/tee_api_operations.c:1498
    114c:	6035      	str	r5, [r6, #0]
/home/yin/imx-optee/imx-optee-os/lib/libutee/tee_api_operations.c:1500
    114e:	69e2      	ldr	r2, [r4, #28]
/home/yin/imx-optee/imx-optee-os/lib/libutee/tee_api_operations.c:1502
    1150:	62a0      	str	r0, [r4, #40]	; 0x28
/home/yin/imx-optee/imx-optee-os/lib/libutee/tee_api_operations.c:1500
    1152:	f422 3200 	bic.w	r2, r2, #131072	; 0x20000
    1156:	61e2      	str	r2, [r4, #28]
/home/yin/imx-optee/imx-optee-os/lib/libutee/tee_api_operations.c:1510
    1158:	4618      	mov	r0, r3
    115a:	b00b      	add	sp, #44	; 0x2c
    115c:	e8bd 8ff0 	ldmia.w	sp!, {r4, r5, r6, r7, r8, r9, sl, fp, pc}
/home/yin/imx-optee/imx-optee-os/lib/libutee/tee_api_operations.c:1489
    1160:	ab08      	add	r3, sp, #32
    1162:	e88d 0c00 	stmia.w	sp, {sl, fp}
    1166:	9302      	str	r3, [sp, #8]
    1168:	4643      	mov	r3, r8
    116a:	e7e6      	b.n	113a <TEE_AEEncryptFinal+0xbe>
    116c:	4b06      	ldr	r3, [pc, #24]	; (1188 <TEE_AEEncryptFinal+0x10c>)
/home/yin/imx-optee/imx-optee-os/lib/libutee/tee_api_operations.c:1507
    116e:	4618      	mov	r0, r3
    1170:	9305      	str	r3, [sp, #20]
    1172:	f003 fe87 	bl	4e84 <TEE_Panic>
/home/yin/imx-optee/imx-optee-os/lib/libutee/tee_api_operations.c:1509
    1176:	9b05      	ldr	r3, [sp, #20]
    1178:	e7ee      	b.n	1158 <TEE_AEEncryptFinal+0xdc>
/home/yin/imx-optee/imx-optee-os/lib/libutee/tee_api_operations.c:1505
    117a:	454b      	cmp	r3, r9
    117c:	d0b2      	beq.n	10e4 <TEE_AEEncryptFinal+0x68>
    117e:	e7f6      	b.n	116e <TEE_AEEncryptFinal+0xf2>
    1180:	ffff0000 	.word	0xffff0000
    1184:	ffff0010 	.word	0xffff0010
    1188:	ffff0006 	.word	0xffff0006
    118c:	00007806 	.word	0x00007806
    1190:	00000018 	.word	0x00000018

00001194 <TEE_AEDecryptFinal>:
TEE_AEDecryptFinal():
/home/yin/imx-optee/imx-optee-os/lib/libutee/tee_api_operations.c:1516
    1194:	e92d 4ff0 	stmdb	sp!, {r4, r5, r6, r7, r8, r9, sl, fp, lr}
    1198:	b089      	sub	sp, #36	; 0x24
    119a:	4c3e      	ldr	r4, [pc, #248]	; (1294 <TEE_AEDecryptFinal+0x100>)
    119c:	4699      	mov	r9, r3
/home/yin/imx-optee/imx-optee-os/lib/libutee/tee_api_operations.c:1523
    119e:	4605      	mov	r5, r0
/home/yin/imx-optee/imx-optee-os/lib/libutee/tee_api_operations.c:1516
    11a0:	9f12      	ldr	r7, [sp, #72]	; 0x48
    11a2:	447c      	add	r4, pc
    11a4:	f8dd b04c 	ldr.w	fp, [sp, #76]	; 0x4c
    11a8:	f8dd 8050 	ldr.w	r8, [sp, #80]	; 0x50
/home/yin/imx-optee/imx-optee-os/lib/libutee/tee_api_operations.c:1523
    11ac:	2800      	cmp	r0, #0
    11ae:	d068      	beq.n	1282 <TEE_AEDecryptFinal+0xee>
/home/yin/imx-optee/imx-optee-os/lib/libutee/tee_api_operations.c:1523 (discriminator 1)
    11b0:	b909      	cbnz	r1, 11b6 <TEE_AEDecryptFinal+0x22>
/home/yin/imx-optee/imx-optee-os/lib/libutee/tee_api_operations.c:1524
    11b2:	2a00      	cmp	r2, #0
    11b4:	d165      	bne.n	1282 <TEE_AEDecryptFinal+0xee>
/home/yin/imx-optee/imx-optee-os/lib/libutee/tee_api_operations.c:1524 (discriminator 1)
    11b6:	2f00      	cmp	r7, #0
    11b8:	d063      	beq.n	1282 <TEE_AEDecryptFinal+0xee>
/home/yin/imx-optee/imx-optee-os/lib/libutee/tee_api_operations.c:1525
    11ba:	f1b9 0f00 	cmp.w	r9, #0
    11be:	d102      	bne.n	11c6 <TEE_AEDecryptFinal+0x32>
/home/yin/imx-optee/imx-optee-os/lib/libutee/tee_api_operations.c:1526
    11c0:	683b      	ldr	r3, [r7, #0]
    11c2:	2b00      	cmp	r3, #0
    11c4:	d15d      	bne.n	1282 <TEE_AEDecryptFinal+0xee>
/home/yin/imx-optee/imx-optee-os/lib/libutee/tee_api_operations.c:1526 (discriminator 1)
    11c6:	f1bb 0f00 	cmp.w	fp, #0
    11ca:	d102      	bne.n	11d2 <TEE_AEDecryptFinal+0x3e>
/home/yin/imx-optee/imx-optee-os/lib/libutee/tee_api_operations.c:1527
    11cc:	f1b8 0f00 	cmp.w	r8, #0
    11d0:	d157      	bne.n	1282 <TEE_AEDecryptFinal+0xee>
/home/yin/imx-optee/imx-optee-os/lib/libutee/tee_api_operations.c:1532
    11d2:	686b      	ldr	r3, [r5, #4]
    11d4:	2b04      	cmp	r3, #4
    11d6:	d154      	bne.n	1282 <TEE_AEDecryptFinal+0xee>
/home/yin/imx-optee/imx-optee-os/lib/libutee/tee_api_operations.c:1537
    11d8:	69eb      	ldr	r3, [r5, #28]
    11da:	039b      	lsls	r3, r3, #14
    11dc:	d551      	bpl.n	1282 <TEE_AEDecryptFinal+0xee>
/home/yin/imx-optee/imx-optee-os/lib/libutee/tee_api_operations.c:1547
    11de:	6bab      	ldr	r3, [r5, #56]	; 0x38
/home/yin/imx-optee/imx-optee-os/lib/libutee/tee_api_operations.c:1548
    11e0:	6838      	ldr	r0, [r7, #0]
/home/yin/imx-optee/imx-optee-os/lib/libutee/tee_api_operations.c:1547
    11e2:	4413      	add	r3, r2
/home/yin/imx-optee/imx-optee-os/lib/libutee/tee_api_operations.c:1548
    11e4:	4283      	cmp	r3, r0
    11e6:	d905      	bls.n	11f4 <TEE_AEDecryptFinal+0x60>
/home/yin/imx-optee/imx-optee-os/lib/libutee/tee_api_operations.c:1549
    11e8:	4c27      	ldr	r4, [pc, #156]	; (1288 <TEE_AEDecryptFinal+0xf4>)
    11ea:	603b      	str	r3, [r7, #0]
/home/yin/imx-optee/imx-optee-os/lib/libutee/tee_api_operations.c:1595
    11ec:	4620      	mov	r0, r4
    11ee:	b009      	add	sp, #36	; 0x24
    11f0:	e8bd 8ff0 	ldmia.w	sp!, {r4, r5, r6, r7, r8, r9, sl, fp, pc}
/home/yin/imx-optee/imx-optee-os/lib/libutee/tee_api_operations.c:1555
    11f4:	6b6b      	ldr	r3, [r5, #52]	; 0x34
/home/yin/imx-optee/imx-optee-os/lib/libutee/tee_api_operations.c:1554
    11f6:	2600      	movs	r6, #0
    11f8:	9006      	str	r0, [sp, #24]
    11fa:	f10d 0a18 	add.w	sl, sp, #24
    11fe:	9607      	str	r6, [sp, #28]
/home/yin/imx-optee/imx-optee-os/lib/libutee/tee_api_operations.c:1555
    1200:	2b01      	cmp	r3, #1
    1202:	d938      	bls.n	1276 <TEE_AEDecryptFinal+0xe2>
/home/yin/imx-optee/imx-optee-os/lib/libutee/tee_api_operations.c:1556
    1204:	4b24      	ldr	r3, [pc, #144]	; (1298 <TEE_AEDecryptFinal+0x104>)
    1206:	4628      	mov	r0, r5
    1208:	58e3      	ldr	r3, [r4, r3]
    120a:	e88d 0600 	stmia.w	sp, {r9, sl}
    120e:	9305      	str	r3, [sp, #20]
    1210:	4613      	mov	r3, r2
    1212:	460a      	mov	r2, r1
    1214:	9905      	ldr	r1, [sp, #20]
    1216:	f7fe ff3d 	bl	94 <tee_buffer_update>
/home/yin/imx-optee/imx-optee-os/lib/libutee/tee_api_operations.c:1558
    121a:	4604      	mov	r4, r0
    121c:	bb08      	cbnz	r0, 1262 <TEE_AEDecryptFinal+0xce>
/home/yin/imx-optee/imx-optee-os/lib/libutee/tee_api_operations.c:1561
    121e:	9e06      	ldr	r6, [sp, #24]
/home/yin/imx-optee/imx-optee-os/lib/libutee/tee_api_operations.c:1564
    1220:	683b      	ldr	r3, [r7, #0]
/home/yin/imx-optee/imx-optee-os/lib/libutee/tee_api_operations.c:1565
    1222:	f8cd 8008 	str.w	r8, [sp, #8]
    1226:	e88d 0c00 	stmia.w	sp, {sl, fp}
    122a:	6baa      	ldr	r2, [r5, #56]	; 0x38
/home/yin/imx-optee/imx-optee-os/lib/libutee/tee_api_operations.c:1564
    122c:	1b9b      	subs	r3, r3, r6
/home/yin/imx-optee/imx-optee-os/lib/libutee/tee_api_operations.c:1565
    122e:	6ae9      	ldr	r1, [r5, #44]	; 0x2c
/home/yin/imx-optee/imx-optee-os/lib/libutee/tee_api_operations.c:1564
    1230:	9306      	str	r3, [sp, #24]
/home/yin/imx-optee/imx-optee-os/lib/libutee/tee_api_operations.c:1565
    1232:	eb09 0306 	add.w	r3, r9, r6
/home/yin/imx-optee/imx-optee-os/lib/libutee/tee_api_operations.c:1564
    1236:	9007      	str	r0, [sp, #28]
/home/yin/imx-optee/imx-optee-os/lib/libutee/tee_api_operations.c:1570
    1238:	6be8      	ldr	r0, [r5, #60]	; 0x3c
    123a:	f000 ecb2 	blx	1ba0 <utee_authenc_dec_final>
    123e:	4604      	mov	r4, r0
/home/yin/imx-optee/imx-optee-os/lib/libutee/tee_api_operations.c:1574
    1240:	b978      	cbnz	r0, 1262 <TEE_AEDecryptFinal+0xce>
/home/yin/imx-optee/imx-optee-os/lib/libutee/tee_api_operations.c:1578
    1242:	6c2a      	ldr	r2, [r5, #64]	; 0x40
/home/yin/imx-optee/imx-optee-os/lib/libutee/tee_api_operations.c:1579
    1244:	4b11      	ldr	r3, [pc, #68]	; (128c <TEE_AEDecryptFinal+0xf8>)
    1246:	4590      	cmp	r8, r2
    1248:	bf18      	it	ne
    124a:	461c      	movne	r4, r3
/home/yin/imx-optee/imx-optee-os/lib/libutee/tee_api_operations.c:1581
    124c:	9b06      	ldr	r3, [sp, #24]
    124e:	441e      	add	r6, r3
/home/yin/imx-optee/imx-optee-os/lib/libutee/tee_api_operations.c:1582
    1250:	603e      	str	r6, [r7, #0]
/home/yin/imx-optee/imx-optee-os/lib/libutee/tee_api_operations.c:1584
    1252:	69eb      	ldr	r3, [r5, #28]
    1254:	f423 3300 	bic.w	r3, r3, #131072	; 0x20000
    1258:	61eb      	str	r3, [r5, #28]
/home/yin/imx-optee/imx-optee-os/lib/libutee/tee_api_operations.c:1586
    125a:	2300      	movs	r3, #0
    125c:	62ab      	str	r3, [r5, #40]	; 0x28
/home/yin/imx-optee/imx-optee-os/lib/libutee/tee_api_operations.c:1589
    125e:	2c00      	cmp	r4, #0
    1260:	d0c4      	beq.n	11ec <TEE_AEDecryptFinal+0x58>
/home/yin/imx-optee/imx-optee-os/lib/libutee/tee_api_operations.c:1589 (discriminator 1)
    1262:	4b09      	ldr	r3, [pc, #36]	; (1288 <TEE_AEDecryptFinal+0xf4>)
    1264:	429c      	cmp	r4, r3
    1266:	d0c1      	beq.n	11ec <TEE_AEDecryptFinal+0x58>
/home/yin/imx-optee/imx-optee-os/lib/libutee/tee_api_operations.c:1590
    1268:	4b08      	ldr	r3, [pc, #32]	; (128c <TEE_AEDecryptFinal+0xf8>)
    126a:	429c      	cmp	r4, r3
    126c:	d0be      	beq.n	11ec <TEE_AEDecryptFinal+0x58>
/home/yin/imx-optee/imx-optee-os/lib/libutee/tee_api_operations.c:1592
    126e:	4620      	mov	r0, r4
    1270:	f003 fe08 	bl	4e84 <TEE_Panic>
/home/yin/imx-optee/imx-optee-os/lib/libutee/tee_api_operations.c:1594
    1274:	e7ba      	b.n	11ec <TEE_AEDecryptFinal+0x58>
/home/yin/imx-optee/imx-optee-os/lib/libutee/tee_api_operations.c:1570
    1276:	f8cd 8008 	str.w	r8, [sp, #8]
    127a:	464b      	mov	r3, r9
    127c:	e88d 0c00 	stmia.w	sp, {sl, fp}
    1280:	e7da      	b.n	1238 <TEE_AEDecryptFinal+0xa4>
    1282:	4c03      	ldr	r4, [pc, #12]	; (1290 <TEE_AEDecryptFinal+0xfc>)
    1284:	e7f3      	b.n	126e <TEE_AEDecryptFinal+0xda>
    1286:	bf00      	nop
    1288:	ffff0010 	.word	0xffff0010
    128c:	ffff3071 	.word	0xffff3071
    1290:	ffff0006 	.word	0xffff0006
    1294:	000076ee 	.word	0x000076ee
    1298:	00000018 	.word	0x00000018

0000129c <TEE_AsymmetricEncrypt>:
TEE_AsymmetricEncrypt():
/home/yin/imx-optee/imx-optee-os/lib/libutee/tee_api_operations.c:1604
    129c:	e92d 4ff0 	stmdb	sp!, {r4, r5, r6, r7, r8, r9, sl, fp, lr}
    12a0:	469a      	mov	sl, r3
/home/yin/imx-optee/imx-optee-os/lib/libutee/tee_api_operations.c:1606
    12a2:	2318      	movs	r3, #24
/home/yin/imx-optee/imx-optee-os/lib/libutee/tee_api_operations.c:1604
    12a4:	b087      	sub	sp, #28
/home/yin/imx-optee/imx-optee-os/lib/libutee/tee_api_operations.c:1606
    12a6:	4353      	muls	r3, r2
/home/yin/imx-optee/imx-optee-os/lib/libutee/tee_api_operations.c:1604
    12a8:	af04      	add	r7, sp, #16
    12aa:	4688      	mov	r8, r1
    12ac:	4616      	mov	r6, r2
    12ae:	f8d7 b034 	ldr.w	fp, [r7, #52]	; 0x34
    12b2:	6bbd      	ldr	r5, [r7, #56]	; 0x38
/home/yin/imx-optee/imx-optee-os/lib/libutee/tee_api_operations.c:1609
    12b4:	4604      	mov	r4, r0
/home/yin/imx-optee/imx-optee-os/lib/libutee/tee_api_operations.c:1606
    12b6:	3308      	adds	r3, #8
    12b8:	ebad 0d03 	sub.w	sp, sp, r3
    12bc:	f10d 0910 	add.w	r9, sp, #16
/home/yin/imx-optee/imx-optee-os/lib/libutee/tee_api_operations.c:1609
    12c0:	b150      	cbz	r0, 12d8 <TEE_AsymmetricEncrypt+0x3c>
/home/yin/imx-optee/imx-optee-os/lib/libutee/tee_api_operations.c:1609 (discriminator 1)
    12c2:	f1ba 0f00 	cmp.w	sl, #0
    12c6:	d101      	bne.n	12cc <TEE_AsymmetricEncrypt+0x30>
/home/yin/imx-optee/imx-optee-os/lib/libutee/tee_api_operations.c:1609 (discriminator 2)
    12c8:	6b3b      	ldr	r3, [r7, #48]	; 0x30
    12ca:	b92b      	cbnz	r3, 12d8 <TEE_AsymmetricEncrypt+0x3c>
/home/yin/imx-optee/imx-optee-os/lib/libutee/tee_api_operations.c:1609 (discriminator 4)
    12cc:	b125      	cbz	r5, 12d8 <TEE_AsymmetricEncrypt+0x3c>
/home/yin/imx-optee/imx-optee-os/lib/libutee/tee_api_operations.c:1610
    12ce:	f1bb 0f00 	cmp.w	fp, #0
    12d2:	d104      	bne.n	12de <TEE_AsymmetricEncrypt+0x42>
/home/yin/imx-optee/imx-optee-os/lib/libutee/tee_api_operations.c:1610 (discriminator 1)
    12d4:	682b      	ldr	r3, [r5, #0]
    12d6:	b113      	cbz	r3, 12de <TEE_AsymmetricEncrypt+0x42>
/home/yin/imx-optee/imx-optee-os/lib/libutee/tee_api_operations.c:1611
    12d8:	2000      	movs	r0, #0
    12da:	f003 fdd3 	bl	4e84 <TEE_Panic>
/home/yin/imx-optee/imx-optee-os/lib/libutee/tee_api_operations.c:1612
    12de:	f1b8 0f00 	cmp.w	r8, #0
    12e2:	d103      	bne.n	12ec <TEE_AsymmetricEncrypt+0x50>
/home/yin/imx-optee/imx-optee-os/lib/libutee/tee_api_operations.c:1612 (discriminator 1)
    12e4:	b116      	cbz	r6, 12ec <TEE_AsymmetricEncrypt+0x50>
/home/yin/imx-optee/imx-optee-os/lib/libutee/tee_api_operations.c:1613
    12e6:	4640      	mov	r0, r8
    12e8:	f003 fdcc 	bl	4e84 <TEE_Panic>
/home/yin/imx-optee/imx-optee-os/lib/libutee/tee_api_operations.c:1614
    12ec:	6a20      	ldr	r0, [r4, #32]
    12ee:	b908      	cbnz	r0, 12f4 <TEE_AsymmetricEncrypt+0x58>
/home/yin/imx-optee/imx-optee-os/lib/libutee/tee_api_operations.c:1615
    12f0:	f003 fdc8 	bl	4e84 <TEE_Panic>
/home/yin/imx-optee/imx-optee-os/lib/libutee/tee_api_operations.c:1616
    12f4:	6863      	ldr	r3, [r4, #4]
    12f6:	2b06      	cmp	r3, #6
    12f8:	d002      	beq.n	1300 <TEE_AsymmetricEncrypt+0x64>
/home/yin/imx-optee/imx-optee-os/lib/libutee/tee_api_operations.c:1617
    12fa:	2000      	movs	r0, #0
    12fc:	f003 fdc2 	bl	4e84 <TEE_Panic>
/home/yin/imx-optee/imx-optee-os/lib/libutee/tee_api_operations.c:1618
    1300:	68a3      	ldr	r3, [r4, #8]
    1302:	b113      	cbz	r3, 130a <TEE_AsymmetricEncrypt+0x6e>
/home/yin/imx-optee/imx-optee-os/lib/libutee/tee_api_operations.c:1619
    1304:	2000      	movs	r0, #0
    1306:	f003 fdbd 	bl	4e84 <TEE_Panic>
/home/yin/imx-optee/imx-optee-os/lib/libutee/tee_api_operations.c:1621
    130a:	4632      	mov	r2, r6
    130c:	4641      	mov	r1, r8
    130e:	4648      	mov	r0, r9
    1310:	f001 f962 	bl	25d8 <__utee_from_attr>
/home/yin/imx-optee/imx-optee-os/lib/libutee/tee_api_operations.c:1622
    1314:	682b      	ldr	r3, [r5, #0]
/home/yin/imx-optee/imx-optee-os/lib/libutee/tee_api_operations.c:1623
    1316:	4632      	mov	r2, r6
    1318:	9702      	str	r7, [sp, #8]
    131a:	4649      	mov	r1, r9
    131c:	f8cd b004 	str.w	fp, [sp, #4]
/home/yin/imx-optee/imx-optee-os/lib/libutee/tee_api_operations.c:1622
    1320:	603b      	str	r3, [r7, #0]
    1322:	2300      	movs	r3, #0
    1324:	607b      	str	r3, [r7, #4]
/home/yin/imx-optee/imx-optee-os/lib/libutee/tee_api_operations.c:1623
    1326:	6b3b      	ldr	r3, [r7, #48]	; 0x30
    1328:	9300      	str	r3, [sp, #0]
    132a:	4653      	mov	r3, sl
    132c:	6be0      	ldr	r0, [r4, #60]	; 0x3c
    132e:	f000 ec44 	blx	1bb8 <utee_asymm_operate>
/home/yin/imx-optee/imx-optee-os/lib/libutee/tee_api_operations.c:1625
    1332:	683b      	ldr	r3, [r7, #0]
/home/yin/imx-optee/imx-optee-os/lib/libutee/tee_api_operations.c:1627
    1334:	4604      	mov	r4, r0
/home/yin/imx-optee/imx-optee-os/lib/libutee/tee_api_operations.c:1625
    1336:	602b      	str	r3, [r5, #0]
/home/yin/imx-optee/imx-optee-os/lib/libutee/tee_api_operations.c:1627
    1338:	b138      	cbz	r0, 134a <TEE_AsymmetricEncrypt+0xae>
/home/yin/imx-optee/imx-optee-os/lib/libutee/tee_api_operations.c:1627 (discriminator 1)
    133a:	4b06      	ldr	r3, [pc, #24]	; (1354 <TEE_AsymmetricEncrypt+0xb8>)
    133c:	4298      	cmp	r0, r3
    133e:	d004      	beq.n	134a <TEE_AsymmetricEncrypt+0xae>
/home/yin/imx-optee/imx-optee-os/lib/libutee/tee_api_operations.c:1628
    1340:	3b0a      	subs	r3, #10
    1342:	4298      	cmp	r0, r3
    1344:	d001      	beq.n	134a <TEE_AsymmetricEncrypt+0xae>
/home/yin/imx-optee/imx-optee-os/lib/libutee/tee_api_operations.c:1630
    1346:	f003 fd9d 	bl	4e84 <TEE_Panic>
/home/yin/imx-optee/imx-optee-os/lib/libutee/tee_api_operations.c:1633
    134a:	4620      	mov	r0, r4
    134c:	370c      	adds	r7, #12
    134e:	46bd      	mov	sp, r7
    1350:	e8bd 8ff0 	ldmia.w	sp!, {r4, r5, r6, r7, r8, r9, sl, fp, pc}
    1354:	ffff0010 	.word	0xffff0010

00001358 <TEE_AsymmetricDecrypt>:
TEE_AsymmetricDecrypt():
/home/yin/imx-optee/imx-optee-os/lib/libutee/tee_api_operations.c:1640
    1358:	e92d 4ff0 	stmdb	sp!, {r4, r5, r6, r7, r8, r9, sl, fp, lr}
    135c:	469a      	mov	sl, r3
/home/yin/imx-optee/imx-optee-os/lib/libutee/tee_api_operations.c:1642
    135e:	2318      	movs	r3, #24
/home/yin/imx-optee/imx-optee-os/lib/libutee/tee_api_operations.c:1640
    1360:	b087      	sub	sp, #28
/home/yin/imx-optee/imx-optee-os/lib/libutee/tee_api_operations.c:1642
    1362:	4353      	muls	r3, r2
/home/yin/imx-optee/imx-optee-os/lib/libutee/tee_api_operations.c:1640
    1364:	af04      	add	r7, sp, #16
    1366:	4688      	mov	r8, r1
    1368:	4616      	mov	r6, r2
    136a:	f8d7 b034 	ldr.w	fp, [r7, #52]	; 0x34
    136e:	6bbd      	ldr	r5, [r7, #56]	; 0x38
/home/yin/imx-optee/imx-optee-os/lib/libutee/tee_api_operations.c:1645
    1370:	4604      	mov	r4, r0
/home/yin/imx-optee/imx-optee-os/lib/libutee/tee_api_operations.c:1642
    1372:	3308      	adds	r3, #8
    1374:	ebad 0d03 	sub.w	sp, sp, r3
    1378:	f10d 0910 	add.w	r9, sp, #16
/home/yin/imx-optee/imx-optee-os/lib/libutee/tee_api_operations.c:1645
    137c:	b150      	cbz	r0, 1394 <TEE_AsymmetricDecrypt+0x3c>
/home/yin/imx-optee/imx-optee-os/lib/libutee/tee_api_operations.c:1645 (discriminator 1)
    137e:	f1ba 0f00 	cmp.w	sl, #0
    1382:	d101      	bne.n	1388 <TEE_AsymmetricDecrypt+0x30>
/home/yin/imx-optee/imx-optee-os/lib/libutee/tee_api_operations.c:1645 (discriminator 2)
    1384:	6b3b      	ldr	r3, [r7, #48]	; 0x30
    1386:	b92b      	cbnz	r3, 1394 <TEE_AsymmetricDecrypt+0x3c>
/home/yin/imx-optee/imx-optee-os/lib/libutee/tee_api_operations.c:1645 (discriminator 4)
    1388:	b125      	cbz	r5, 1394 <TEE_AsymmetricDecrypt+0x3c>
/home/yin/imx-optee/imx-optee-os/lib/libutee/tee_api_operations.c:1646
    138a:	f1bb 0f00 	cmp.w	fp, #0
    138e:	d104      	bne.n	139a <TEE_AsymmetricDecrypt+0x42>
/home/yin/imx-optee/imx-optee-os/lib/libutee/tee_api_operations.c:1646 (discriminator 1)
    1390:	682b      	ldr	r3, [r5, #0]
    1392:	b113      	cbz	r3, 139a <TEE_AsymmetricDecrypt+0x42>
/home/yin/imx-optee/imx-optee-os/lib/libutee/tee_api_operations.c:1647
    1394:	2000      	movs	r0, #0
    1396:	f003 fd75 	bl	4e84 <TEE_Panic>
/home/yin/imx-optee/imx-optee-os/lib/libutee/tee_api_operations.c:1648
    139a:	f1b8 0f00 	cmp.w	r8, #0
    139e:	d103      	bne.n	13a8 <TEE_AsymmetricDecrypt+0x50>
/home/yin/imx-optee/imx-optee-os/lib/libutee/tee_api_operations.c:1648 (discriminator 1)
    13a0:	b116      	cbz	r6, 13a8 <TEE_AsymmetricDecrypt+0x50>
/home/yin/imx-optee/imx-optee-os/lib/libutee/tee_api_operations.c:1649
    13a2:	4640      	mov	r0, r8
    13a4:	f003 fd6e 	bl	4e84 <TEE_Panic>
/home/yin/imx-optee/imx-optee-os/lib/libutee/tee_api_operations.c:1650
    13a8:	6a20      	ldr	r0, [r4, #32]
    13aa:	b908      	cbnz	r0, 13b0 <TEE_AsymmetricDecrypt+0x58>
/home/yin/imx-optee/imx-optee-os/lib/libutee/tee_api_operations.c:1651
    13ac:	f003 fd6a 	bl	4e84 <TEE_Panic>
/home/yin/imx-optee/imx-optee-os/lib/libutee/tee_api_operations.c:1652
    13b0:	6863      	ldr	r3, [r4, #4]
    13b2:	2b06      	cmp	r3, #6
    13b4:	d002      	beq.n	13bc <TEE_AsymmetricDecrypt+0x64>
/home/yin/imx-optee/imx-optee-os/lib/libutee/tee_api_operations.c:1653
    13b6:	2000      	movs	r0, #0
    13b8:	f003 fd64 	bl	4e84 <TEE_Panic>
/home/yin/imx-optee/imx-optee-os/lib/libutee/tee_api_operations.c:1654
    13bc:	68a3      	ldr	r3, [r4, #8]
    13be:	2b01      	cmp	r3, #1
    13c0:	d002      	beq.n	13c8 <TEE_AsymmetricDecrypt+0x70>
/home/yin/imx-optee/imx-optee-os/lib/libutee/tee_api_operations.c:1655
    13c2:	2000      	movs	r0, #0
    13c4:	f003 fd5e 	bl	4e84 <TEE_Panic>
/home/yin/imx-optee/imx-optee-os/lib/libutee/tee_api_operations.c:1657
    13c8:	4632      	mov	r2, r6
    13ca:	4641      	mov	r1, r8
    13cc:	4648      	mov	r0, r9
    13ce:	f001 f903 	bl	25d8 <__utee_from_attr>
/home/yin/imx-optee/imx-optee-os/lib/libutee/tee_api_operations.c:1658
    13d2:	682b      	ldr	r3, [r5, #0]
/home/yin/imx-optee/imx-optee-os/lib/libutee/tee_api_operations.c:1659
    13d4:	4632      	mov	r2, r6
    13d6:	9702      	str	r7, [sp, #8]
    13d8:	4649      	mov	r1, r9
    13da:	f8cd b004 	str.w	fp, [sp, #4]
/home/yin/imx-optee/imx-optee-os/lib/libutee/tee_api_operations.c:1658
    13de:	603b      	str	r3, [r7, #0]
    13e0:	2300      	movs	r3, #0
    13e2:	607b      	str	r3, [r7, #4]
/home/yin/imx-optee/imx-optee-os/lib/libutee/tee_api_operations.c:1659
    13e4:	6b3b      	ldr	r3, [r7, #48]	; 0x30
    13e6:	9300      	str	r3, [sp, #0]
    13e8:	4653      	mov	r3, sl
    13ea:	6be0      	ldr	r0, [r4, #60]	; 0x3c
    13ec:	f000 ebe4 	blx	1bb8 <utee_asymm_operate>
/home/yin/imx-optee/imx-optee-os/lib/libutee/tee_api_operations.c:1661
    13f0:	683b      	ldr	r3, [r7, #0]
/home/yin/imx-optee/imx-optee-os/lib/libutee/tee_api_operations.c:1663
    13f2:	4604      	mov	r4, r0
/home/yin/imx-optee/imx-optee-os/lib/libutee/tee_api_operations.c:1661
    13f4:	602b      	str	r3, [r5, #0]
/home/yin/imx-optee/imx-optee-os/lib/libutee/tee_api_operations.c:1663
    13f6:	b138      	cbz	r0, 1408 <TEE_AsymmetricDecrypt+0xb0>
/home/yin/imx-optee/imx-optee-os/lib/libutee/tee_api_operations.c:1663 (discriminator 1)
    13f8:	4b06      	ldr	r3, [pc, #24]	; (1414 <TEE_AsymmetricDecrypt+0xbc>)
    13fa:	4298      	cmp	r0, r3
    13fc:	d004      	beq.n	1408 <TEE_AsymmetricDecrypt+0xb0>
/home/yin/imx-optee/imx-optee-os/lib/libutee/tee_api_operations.c:1664
    13fe:	3b0a      	subs	r3, #10
    1400:	4298      	cmp	r0, r3
    1402:	d001      	beq.n	1408 <TEE_AsymmetricDecrypt+0xb0>
/home/yin/imx-optee/imx-optee-os/lib/libutee/tee_api_operations.c:1666
    1404:	f003 fd3e 	bl	4e84 <TEE_Panic>
/home/yin/imx-optee/imx-optee-os/lib/libutee/tee_api_operations.c:1669
    1408:	4620      	mov	r0, r4
    140a:	370c      	adds	r7, #12
    140c:	46bd      	mov	sp, r7
    140e:	e8bd 8ff0 	ldmia.w	sp!, {r4, r5, r6, r7, r8, r9, sl, fp, pc}
    1412:	bf00      	nop
    1414:	ffff0010 	.word	0xffff0010

00001418 <TEE_AsymmetricSignDigest>:
TEE_AsymmetricSignDigest():
/home/yin/imx-optee/imx-optee-os/lib/libutee/tee_api_operations.c:1676
    1418:	e92d 4ff0 	stmdb	sp!, {r4, r5, r6, r7, r8, r9, sl, fp, lr}
    141c:	469a      	mov	sl, r3
/home/yin/imx-optee/imx-optee-os/lib/libutee/tee_api_operations.c:1678
    141e:	2318      	movs	r3, #24
/home/yin/imx-optee/imx-optee-os/lib/libutee/tee_api_operations.c:1676
    1420:	b087      	sub	sp, #28
/home/yin/imx-optee/imx-optee-os/lib/libutee/tee_api_operations.c:1678
    1422:	4353      	muls	r3, r2
/home/yin/imx-optee/imx-optee-os/lib/libutee/tee_api_operations.c:1676
    1424:	af04      	add	r7, sp, #16
    1426:	4688      	mov	r8, r1
    1428:	4615      	mov	r5, r2
    142a:	f8d7 b034 	ldr.w	fp, [r7, #52]	; 0x34
    142e:	6bbe      	ldr	r6, [r7, #56]	; 0x38
/home/yin/imx-optee/imx-optee-os/lib/libutee/tee_api_operations.c:1681
    1430:	4604      	mov	r4, r0
/home/yin/imx-optee/imx-optee-os/lib/libutee/tee_api_operations.c:1678
    1432:	3308      	adds	r3, #8
    1434:	ebad 0d03 	sub.w	sp, sp, r3
    1438:	f10d 0910 	add.w	r9, sp, #16
/home/yin/imx-optee/imx-optee-os/lib/libutee/tee_api_operations.c:1681
    143c:	b140      	cbz	r0, 1450 <TEE_AsymmetricSignDigest+0x38>
/home/yin/imx-optee/imx-optee-os/lib/libutee/tee_api_operations.c:1681 (discriminator 1)
    143e:	f1ba 0f00 	cmp.w	sl, #0
    1442:	d101      	bne.n	1448 <TEE_AsymmetricSignDigest+0x30>
/home/yin/imx-optee/imx-optee-os/lib/libutee/tee_api_operations.c:1682
    1444:	6b3b      	ldr	r3, [r7, #48]	; 0x30
    1446:	b91b      	cbnz	r3, 1450 <TEE_AsymmetricSignDigest+0x38>
/home/yin/imx-optee/imx-optee-os/lib/libutee/tee_api_operations.c:1682 (discriminator 1)
    1448:	f1bb 0f00 	cmp.w	fp, #0
    144c:	d000      	beq.n	1450 <TEE_AsymmetricSignDigest+0x38>
/home/yin/imx-optee/imx-optee-os/lib/libutee/tee_api_operations.c:1683
    144e:	b916      	cbnz	r6, 1456 <TEE_AsymmetricSignDigest+0x3e>
/home/yin/imx-optee/imx-optee-os/lib/libutee/tee_api_operations.c:1684
    1450:	2000      	movs	r0, #0
    1452:	f003 fd17 	bl	4e84 <TEE_Panic>
/home/yin/imx-optee/imx-optee-os/lib/libutee/tee_api_operations.c:1685
    1456:	f1b8 0f00 	cmp.w	r8, #0
    145a:	d103      	bne.n	1464 <TEE_AsymmetricSignDigest+0x4c>
/home/yin/imx-optee/imx-optee-os/lib/libutee/tee_api_operations.c:1685 (discriminator 1)
    145c:	b115      	cbz	r5, 1464 <TEE_AsymmetricSignDigest+0x4c>
/home/yin/imx-optee/imx-optee-os/lib/libutee/tee_api_operations.c:1686
    145e:	4640      	mov	r0, r8
    1460:	f003 fd10 	bl	4e84 <TEE_Panic>
/home/yin/imx-optee/imx-optee-os/lib/libutee/tee_api_operations.c:1687
    1464:	6a20      	ldr	r0, [r4, #32]
    1466:	b908      	cbnz	r0, 146c <TEE_AsymmetricSignDigest+0x54>
/home/yin/imx-optee/imx-optee-os/lib/libutee/tee_api_operations.c:1688
    1468:	f003 fd0c 	bl	4e84 <TEE_Panic>
/home/yin/imx-optee/imx-optee-os/lib/libutee/tee_api_operations.c:1689
    146c:	6863      	ldr	r3, [r4, #4]
    146e:	2b07      	cmp	r3, #7
    1470:	d002      	beq.n	1478 <TEE_AsymmetricSignDigest+0x60>
/home/yin/imx-optee/imx-optee-os/lib/libutee/tee_api_operations.c:1691
    1472:	2000      	movs	r0, #0
    1474:	f003 fd06 	bl	4e84 <TEE_Panic>
/home/yin/imx-optee/imx-optee-os/lib/libutee/tee_api_operations.c:1692
    1478:	68a3      	ldr	r3, [r4, #8]
    147a:	2b02      	cmp	r3, #2
    147c:	d002      	beq.n	1484 <TEE_AsymmetricSignDigest+0x6c>
/home/yin/imx-optee/imx-optee-os/lib/libutee/tee_api_operations.c:1693
    147e:	2000      	movs	r0, #0
    1480:	f003 fd00 	bl	4e84 <TEE_Panic>
/home/yin/imx-optee/imx-optee-os/lib/libutee/tee_api_operations.c:1695
    1484:	462a      	mov	r2, r5
    1486:	4641      	mov	r1, r8
    1488:	4648      	mov	r0, r9
    148a:	f001 f8a5 	bl	25d8 <__utee_from_attr>
/home/yin/imx-optee/imx-optee-os/lib/libutee/tee_api_operations.c:1696
    148e:	6833      	ldr	r3, [r6, #0]
/home/yin/imx-optee/imx-optee-os/lib/libutee/tee_api_operations.c:1697
    1490:	462a      	mov	r2, r5
    1492:	9702      	str	r7, [sp, #8]
    1494:	4649      	mov	r1, r9
    1496:	f8cd b004 	str.w	fp, [sp, #4]
/home/yin/imx-optee/imx-optee-os/lib/libutee/tee_api_operations.c:1696
    149a:	603b      	str	r3, [r7, #0]
    149c:	2300      	movs	r3, #0
    149e:	607b      	str	r3, [r7, #4]
/home/yin/imx-optee/imx-optee-os/lib/libutee/tee_api_operations.c:1697
    14a0:	6b3b      	ldr	r3, [r7, #48]	; 0x30
    14a2:	9300      	str	r3, [sp, #0]
    14a4:	4653      	mov	r3, sl
    14a6:	6be0      	ldr	r0, [r4, #60]	; 0x3c
    14a8:	f000 eb86 	blx	1bb8 <utee_asymm_operate>
/home/yin/imx-optee/imx-optee-os/lib/libutee/tee_api_operations.c:1699
    14ac:	683b      	ldr	r3, [r7, #0]
/home/yin/imx-optee/imx-optee-os/lib/libutee/tee_api_operations.c:1701
    14ae:	4604      	mov	r4, r0
/home/yin/imx-optee/imx-optee-os/lib/libutee/tee_api_operations.c:1699
    14b0:	6033      	str	r3, [r6, #0]
/home/yin/imx-optee/imx-optee-os/lib/libutee/tee_api_operations.c:1701
    14b2:	b120      	cbz	r0, 14be <TEE_AsymmetricSignDigest+0xa6>
/home/yin/imx-optee/imx-optee-os/lib/libutee/tee_api_operations.c:1701 (discriminator 1)
    14b4:	4b04      	ldr	r3, [pc, #16]	; (14c8 <TEE_AsymmetricSignDigest+0xb0>)
    14b6:	4298      	cmp	r0, r3
    14b8:	d001      	beq.n	14be <TEE_AsymmetricSignDigest+0xa6>
/home/yin/imx-optee/imx-optee-os/lib/libutee/tee_api_operations.c:1702
    14ba:	f003 fce3 	bl	4e84 <TEE_Panic>
/home/yin/imx-optee/imx-optee-os/lib/libutee/tee_api_operations.c:1705
    14be:	4620      	mov	r0, r4
    14c0:	370c      	adds	r7, #12
    14c2:	46bd      	mov	sp, r7
    14c4:	e8bd 8ff0 	ldmia.w	sp!, {r4, r5, r6, r7, r8, r9, sl, fp, pc}
    14c8:	ffff0010 	.word	0xffff0010

000014cc <TEE_AsymmetricVerifyDigest>:
TEE_AsymmetricVerifyDigest():
/home/yin/imx-optee/imx-optee-os/lib/libutee/tee_api_operations.c:1713
    14cc:	e92d 4ff0 	stmdb	sp!, {r4, r5, r6, r7, r8, r9, sl, fp, lr}
    14d0:	4699      	mov	r9, r3
/home/yin/imx-optee/imx-optee-os/lib/libutee/tee_api_operations.c:1715
    14d2:	2318      	movs	r3, #24
/home/yin/imx-optee/imx-optee-os/lib/libutee/tee_api_operations.c:1713
    14d4:	b085      	sub	sp, #20
/home/yin/imx-optee/imx-optee-os/lib/libutee/tee_api_operations.c:1715
    14d6:	4353      	muls	r3, r2
/home/yin/imx-optee/imx-optee-os/lib/libutee/tee_api_operations.c:1713
    14d8:	af04      	add	r7, sp, #16
    14da:	460e      	mov	r6, r1
    14dc:	4615      	mov	r5, r2
    14de:	f8d7 a02c 	ldr.w	sl, [r7, #44]	; 0x2c
    14e2:	f8d7 b030 	ldr.w	fp, [r7, #48]	; 0x30
/home/yin/imx-optee/imx-optee-os/lib/libutee/tee_api_operations.c:1717
    14e6:	4604      	mov	r4, r0
/home/yin/imx-optee/imx-optee-os/lib/libutee/tee_api_operations.c:1715
    14e8:	3308      	adds	r3, #8
    14ea:	ebad 0d03 	sub.w	sp, sp, r3
    14ee:	f10d 0810 	add.w	r8, sp, #16
/home/yin/imx-optee/imx-optee-os/lib/libutee/tee_api_operations.c:1717
    14f2:	b150      	cbz	r0, 150a <TEE_AsymmetricVerifyDigest+0x3e>
/home/yin/imx-optee/imx-optee-os/lib/libutee/tee_api_operations.c:1717 (discriminator 1)
    14f4:	f1b9 0f00 	cmp.w	r9, #0
    14f8:	d101      	bne.n	14fe <TEE_AsymmetricVerifyDigest+0x32>
/home/yin/imx-optee/imx-optee-os/lib/libutee/tee_api_operations.c:1718
    14fa:	6abb      	ldr	r3, [r7, #40]	; 0x28
    14fc:	b92b      	cbnz	r3, 150a <TEE_AsymmetricVerifyDigest+0x3e>
/home/yin/imx-optee/imx-optee-os/lib/libutee/tee_api_operations.c:1718 (discriminator 1)
    14fe:	f1ba 0f00 	cmp.w	sl, #0
    1502:	d105      	bne.n	1510 <TEE_AsymmetricVerifyDigest+0x44>
/home/yin/imx-optee/imx-optee-os/lib/libutee/tee_api_operations.c:1719
    1504:	f1bb 0f00 	cmp.w	fp, #0
    1508:	d002      	beq.n	1510 <TEE_AsymmetricVerifyDigest+0x44>
/home/yin/imx-optee/imx-optee-os/lib/libutee/tee_api_operations.c:1720
    150a:	2000      	movs	r0, #0
    150c:	f003 fcba 	bl	4e84 <TEE_Panic>
/home/yin/imx-optee/imx-optee-os/lib/libutee/tee_api_operations.c:1721
    1510:	b91e      	cbnz	r6, 151a <TEE_AsymmetricVerifyDigest+0x4e>
/home/yin/imx-optee/imx-optee-os/lib/libutee/tee_api_operations.c:1721 (discriminator 1)
    1512:	b115      	cbz	r5, 151a <TEE_AsymmetricVerifyDigest+0x4e>
/home/yin/imx-optee/imx-optee-os/lib/libutee/tee_api_operations.c:1722
    1514:	4630      	mov	r0, r6
    1516:	f003 fcb5 	bl	4e84 <TEE_Panic>
/home/yin/imx-optee/imx-optee-os/lib/libutee/tee_api_operations.c:1723
    151a:	6a20      	ldr	r0, [r4, #32]
    151c:	b908      	cbnz	r0, 1522 <TEE_AsymmetricVerifyDigest+0x56>
/home/yin/imx-optee/imx-optee-os/lib/libutee/tee_api_operations.c:1724
    151e:	f003 fcb1 	bl	4e84 <TEE_Panic>
/home/yin/imx-optee/imx-optee-os/lib/libutee/tee_api_operations.c:1725
    1522:	6863      	ldr	r3, [r4, #4]
    1524:	2b07      	cmp	r3, #7
    1526:	d002      	beq.n	152e <TEE_AsymmetricVerifyDigest+0x62>
/home/yin/imx-optee/imx-optee-os/lib/libutee/tee_api_operations.c:1727
    1528:	2000      	movs	r0, #0
    152a:	f003 fcab 	bl	4e84 <TEE_Panic>
/home/yin/imx-optee/imx-optee-os/lib/libutee/tee_api_operations.c:1728
    152e:	68a3      	ldr	r3, [r4, #8]
    1530:	2b03      	cmp	r3, #3
    1532:	d002      	beq.n	153a <TEE_AsymmetricVerifyDigest+0x6e>
/home/yin/imx-optee/imx-optee-os/lib/libutee/tee_api_operations.c:1729
    1534:	2000      	movs	r0, #0
    1536:	f003 fca5 	bl	4e84 <TEE_Panic>
/home/yin/imx-optee/imx-optee-os/lib/libutee/tee_api_operations.c:1731
    153a:	462a      	mov	r2, r5
    153c:	4631      	mov	r1, r6
    153e:	4640      	mov	r0, r8
    1540:	f001 f84a 	bl	25d8 <__utee_from_attr>
/home/yin/imx-optee/imx-optee-os/lib/libutee/tee_api_operations.c:1732
    1544:	6abb      	ldr	r3, [r7, #40]	; 0x28
    1546:	462a      	mov	r2, r5
    1548:	f8cd b008 	str.w	fp, [sp, #8]
    154c:	4641      	mov	r1, r8
    154e:	f8cd a004 	str.w	sl, [sp, #4]
    1552:	9300      	str	r3, [sp, #0]
    1554:	464b      	mov	r3, r9
    1556:	6be0      	ldr	r0, [r4, #60]	; 0x3c
    1558:	f000 eb3a 	blx	1bd0 <utee_asymm_verify>
/home/yin/imx-optee/imx-optee-os/lib/libutee/tee_api_operations.c:1735
    155c:	4604      	mov	r4, r0
    155e:	b120      	cbz	r0, 156a <TEE_AsymmetricVerifyDigest+0x9e>
/home/yin/imx-optee/imx-optee-os/lib/libutee/tee_api_operations.c:1735 (discriminator 1)
    1560:	4b04      	ldr	r3, [pc, #16]	; (1574 <TEE_AsymmetricVerifyDigest+0xa8>)
    1562:	4298      	cmp	r0, r3
    1564:	d001      	beq.n	156a <TEE_AsymmetricVerifyDigest+0x9e>
/home/yin/imx-optee/imx-optee-os/lib/libutee/tee_api_operations.c:1736
    1566:	f003 fc8d 	bl	4e84 <TEE_Panic>
/home/yin/imx-optee/imx-optee-os/lib/libutee/tee_api_operations.c:1739
    156a:	4620      	mov	r0, r4
    156c:	3704      	adds	r7, #4
    156e:	46bd      	mov	sp, r7
    1570:	e8bd 8ff0 	ldmia.w	sp!, {r4, r5, r6, r7, r8, r9, sl, fp, pc}
    1574:	ffff3072 	.word	0xffff3072

00001578 <TEE_DeriveKey>:
TEE_DeriveKey():
/home/yin/imx-optee/imx-optee-os/lib/libutee/tee_api_operations.c:1746
    1578:	e92d 43f0 	stmdb	sp!, {r4, r5, r6, r7, r8, r9, lr}
    157c:	461e      	mov	r6, r3
/home/yin/imx-optee/imx-optee-os/lib/libutee/tee_api_operations.c:1749
    157e:	2318      	movs	r3, #24
/home/yin/imx-optee/imx-optee-os/lib/libutee/tee_api_operations.c:1746
    1580:	b089      	sub	sp, #36	; 0x24
/home/yin/imx-optee/imx-optee-os/lib/libutee/tee_api_operations.c:1749
    1582:	4353      	muls	r3, r2
/home/yin/imx-optee/imx-optee-os/lib/libutee/tee_api_operations.c:1746
    1584:	af00      	add	r7, sp, #0
    1586:	4688      	mov	r8, r1
    1588:	4615      	mov	r5, r2
/home/yin/imx-optee/imx-optee-os/lib/libutee/tee_api_operations.c:1751
    158a:	4604      	mov	r4, r0
/home/yin/imx-optee/imx-optee-os/lib/libutee/tee_api_operations.c:1749
    158c:	3308      	adds	r3, #8
    158e:	ebad 0d03 	sub.w	sp, sp, r3
    1592:	46e9      	mov	r9, sp
/home/yin/imx-optee/imx-optee-os/lib/libutee/tee_api_operations.c:1751
    1594:	b100      	cbz	r0, 1598 <TEE_DeriveKey+0x20>
/home/yin/imx-optee/imx-optee-os/lib/libutee/tee_api_operations.c:1751 (discriminator 1)
    1596:	b916      	cbnz	r6, 159e <TEE_DeriveKey+0x26>
/home/yin/imx-optee/imx-optee-os/lib/libutee/tee_api_operations.c:1752
    1598:	2000      	movs	r0, #0
    159a:	f003 fc73 	bl	4e84 <TEE_Panic>
/home/yin/imx-optee/imx-optee-os/lib/libutee/tee_api_operations.c:1753
    159e:	f1b8 0f00 	cmp.w	r8, #0
    15a2:	d103      	bne.n	15ac <TEE_DeriveKey+0x34>
/home/yin/imx-optee/imx-optee-os/lib/libutee/tee_api_operations.c:1753 (discriminator 1)
    15a4:	b115      	cbz	r5, 15ac <TEE_DeriveKey+0x34>
/home/yin/imx-optee/imx-optee-os/lib/libutee/tee_api_operations.c:1754
    15a6:	4640      	mov	r0, r8
    15a8:	f003 fc6c 	bl	4e84 <TEE_Panic>
/home/yin/imx-optee/imx-optee-os/lib/libutee/tee_api_operations.c:1755
    15ac:	6823      	ldr	r3, [r4, #0]
    15ae:	0f1b      	lsrs	r3, r3, #28
    15b0:	2b08      	cmp	r3, #8
    15b2:	d002      	beq.n	15ba <TEE_DeriveKey+0x42>
/home/yin/imx-optee/imx-optee-os/lib/libutee/tee_api_operations.c:1757
    15b4:	2000      	movs	r0, #0
    15b6:	f003 fc65 	bl	4e84 <TEE_Panic>
/home/yin/imx-optee/imx-optee-os/lib/libutee/tee_api_operations.c:1759
    15ba:	6863      	ldr	r3, [r4, #4]
    15bc:	2b08      	cmp	r3, #8
    15be:	d002      	beq.n	15c6 <TEE_DeriveKey+0x4e>
/home/yin/imx-optee/imx-optee-os/lib/libutee/tee_api_operations.c:1760
    15c0:	2000      	movs	r0, #0
    15c2:	f003 fc5f 	bl	4e84 <TEE_Panic>
/home/yin/imx-optee/imx-optee-os/lib/libutee/tee_api_operations.c:1761
    15c6:	6a20      	ldr	r0, [r4, #32]
    15c8:	b908      	cbnz	r0, 15ce <TEE_DeriveKey+0x56>
/home/yin/imx-optee/imx-optee-os/lib/libutee/tee_api_operations.c:1762
    15ca:	f003 fc5b 	bl	4e84 <TEE_Panic>
/home/yin/imx-optee/imx-optee-os/lib/libutee/tee_api_operations.c:1763
    15ce:	68a3      	ldr	r3, [r4, #8]
    15d0:	2b06      	cmp	r3, #6
    15d2:	d002      	beq.n	15da <TEE_DeriveKey+0x62>
/home/yin/imx-optee/imx-optee-os/lib/libutee/tee_api_operations.c:1764
    15d4:	2000      	movs	r0, #0
    15d6:	f003 fc55 	bl	4e84 <TEE_Panic>
/home/yin/imx-optee/imx-optee-os/lib/libutee/tee_api_operations.c:1765
    15da:	69e0      	ldr	r0, [r4, #28]
    15dc:	f410 2080 	ands.w	r0, r0, #262144	; 0x40000
    15e0:	d101      	bne.n	15e6 <TEE_DeriveKey+0x6e>
/home/yin/imx-optee/imx-optee-os/lib/libutee/tee_api_operations.c:1766
    15e2:	f003 fc4f 	bl	4e84 <TEE_Panic>
/home/yin/imx-optee/imx-optee-os/lib/libutee/tee_api_operations.c:1768
    15e6:	1d39      	adds	r1, r7, #4
    15e8:	4630      	mov	r0, r6
    15ea:	f000 ea48 	blx	1a7c <utee_cryp_obj_get_info>
/home/yin/imx-optee/imx-optee-os/lib/libutee/tee_api_operations.c:1769
    15ee:	b108      	cbz	r0, 15f4 <TEE_DeriveKey+0x7c>
/home/yin/imx-optee/imx-optee-os/lib/libutee/tee_api_operations.c:1770
    15f0:	f003 fc48 	bl	4e84 <TEE_Panic>
/home/yin/imx-optee/imx-optee-os/lib/libutee/tee_api_operations.c:1772
    15f4:	687b      	ldr	r3, [r7, #4]
    15f6:	f1b3 4f20 	cmp.w	r3, #2684354560	; 0xa0000000
    15fa:	d002      	beq.n	1602 <TEE_DeriveKey+0x8a>
/home/yin/imx-optee/imx-optee-os/lib/libutee/tee_api_operations.c:1773
    15fc:	2000      	movs	r0, #0
    15fe:	f003 fc41 	bl	4e84 <TEE_Panic>
/home/yin/imx-optee/imx-optee-os/lib/libutee/tee_api_operations.c:1774
    1602:	69fb      	ldr	r3, [r7, #28]
    1604:	039b      	lsls	r3, r3, #14
    1606:	d502      	bpl.n	160e <TEE_DeriveKey+0x96>
/home/yin/imx-optee/imx-optee-os/lib/libutee/tee_api_operations.c:1775
    1608:	2000      	movs	r0, #0
    160a:	f003 fc3b 	bl	4e84 <TEE_Panic>
/home/yin/imx-optee/imx-optee-os/lib/libutee/tee_api_operations.c:1777
    160e:	462a      	mov	r2, r5
    1610:	4641      	mov	r1, r8
    1612:	4648      	mov	r0, r9
    1614:	f000 ffe0 	bl	25d8 <__utee_from_attr>
/home/yin/imx-optee/imx-optee-os/lib/libutee/tee_api_operations.c:1778
    1618:	4633      	mov	r3, r6
    161a:	462a      	mov	r2, r5
    161c:	4649      	mov	r1, r9
    161e:	6be0      	ldr	r0, [r4, #60]	; 0x3c
    1620:	f000 ea7c 	blx	1b1c <utee_cryp_derive_key>
/home/yin/imx-optee/imx-optee-os/lib/libutee/tee_api_operations.c:1780
    1624:	b108      	cbz	r0, 162a <TEE_DeriveKey+0xb2>
/home/yin/imx-optee/imx-optee-os/lib/libutee/tee_api_operations.c:1781
    1626:	f003 fc2d 	bl	4e84 <TEE_Panic>
/home/yin/imx-optee/imx-optee-os/lib/libutee/tee_api_operations.c:1782
    162a:	3724      	adds	r7, #36	; 0x24
    162c:	46bd      	mov	sp, r7
    162e:	e8bd 83f0 	ldmia.w	sp!, {r4, r5, r6, r7, r8, r9, pc}

00001632 <TEE_GenerateRandom>:
TEE_GenerateRandom():
/home/yin/imx-optee/imx-optee-os/lib/libutee/tee_api_operations.c:1787
    1632:	b508      	push	{r3, lr}
/home/yin/imx-optee/imx-optee-os/lib/libutee/tee_api_operations.c:1790
    1634:	f000 ea7c 	blx	1b30 <utee_cryp_random_number_generate>
/home/yin/imx-optee/imx-optee-os/lib/libutee/tee_api_operations.c:1791
    1638:	b118      	cbz	r0, 1642 <TEE_GenerateRandom+0x10>
/home/yin/imx-optee/imx-optee-os/lib/libutee/tee_api_operations.c:1793
    163a:	e8bd 4008 	ldmia.w	sp!, {r3, lr}
/home/yin/imx-optee/imx-optee-os/lib/libutee/tee_api_operations.c:1792
    163e:	f003 bc21 	b.w	4e84 <TEE_Panic>
    1642:	bd08      	pop	{r3, pc}

00001644 <rand>:
rand():
/home/yin/imx-optee/imx-optee-os/lib/libutee/tee_api_operations.c:1796
    1644:	b507      	push	{r0, r1, r2, lr}
/home/yin/imx-optee/imx-optee-os/lib/libutee/tee_api_operations.c:1799
    1646:	2104      	movs	r1, #4
    1648:	eb0d 0001 	add.w	r0, sp, r1
    164c:	f7ff fff1 	bl	1632 <TEE_GenerateRandom>
/home/yin/imx-optee/imx-optee-os/lib/libutee/tee_api_operations.c:1806
    1650:	9801      	ldr	r0, [sp, #4]
    1652:	f020 4000 	bic.w	r0, r0, #2147483648	; 0x80000000
    1656:	b003      	add	sp, #12
    1658:	f85d fb04 	ldr.w	pc, [sp], #4

0000165c <ta_header_get_session>:
ta_header_get_session():
/home/yin/imx-optee/imx-optee-os/lib/libutee/arch/arm/user_ta_entry.c:81
    165c:	4b05      	ldr	r3, [pc, #20]	; (1674 <ta_header_get_session+0x18>)
    165e:	447b      	add	r3, pc
    1660:	681b      	ldr	r3, [r3, #0]
/home/yin/imx-optee/imx-optee-os/lib/libutee/arch/arm/user_ta_entry.c:81 (discriminator 1)
    1662:	b90b      	cbnz	r3, 1668 <ta_header_get_session+0xc>
/home/yin/imx-optee/imx-optee-os/lib/libutee/arch/arm/user_ta_entry.c:86
    1664:	4618      	mov	r0, r3
    1666:	4770      	bx	lr
/home/yin/imx-optee/imx-optee-os/lib/libutee/arch/arm/user_ta_entry.c:82
    1668:	681a      	ldr	r2, [r3, #0]
    166a:	4282      	cmp	r2, r0
    166c:	d0fa      	beq.n	1664 <ta_header_get_session+0x8>
/home/yin/imx-optee/imx-optee-os/lib/libutee/arch/arm/user_ta_entry.c:81 (discriminator 2)
    166e:	689b      	ldr	r3, [r3, #8]
    1670:	e7f7      	b.n	1662 <ta_header_get_session+0x6>
    1672:	bf00      	nop
    1674:	00007a12 	.word	0x00007a12

00001678 <ta_header_remove_session>:
ta_header_remove_session():
/home/yin/imx-optee/imx-optee-os/lib/libutee/arch/arm/user_ta_entry.c:119
    1678:	4b14      	ldr	r3, [pc, #80]	; (16cc <ta_header_remove_session+0x54>)
/home/yin/imx-optee/imx-optee-os/lib/libutee/arch/arm/user_ta_entry.c:115
    167a:	b510      	push	{r4, lr}
    167c:	4c14      	ldr	r4, [pc, #80]	; (16d0 <ta_header_remove_session+0x58>)
/home/yin/imx-optee/imx-optee-os/lib/libutee/arch/arm/user_ta_entry.c:119
    167e:	447b      	add	r3, pc
    1680:	681b      	ldr	r3, [r3, #0]
/home/yin/imx-optee/imx-optee-os/lib/libutee/arch/arm/user_ta_entry.c:115
    1682:	447c      	add	r4, pc
/home/yin/imx-optee/imx-optee-os/lib/libutee/arch/arm/user_ta_entry.c:119 (discriminator 1)
    1684:	b903      	cbnz	r3, 1688 <ta_header_remove_session+0x10>
    1686:	bd10      	pop	{r4, pc}
/home/yin/imx-optee/imx-optee-os/lib/libutee/arch/arm/user_ta_entry.c:120
    1688:	681a      	ldr	r2, [r3, #0]
    168a:	4282      	cmp	r2, r0
    168c:	689a      	ldr	r2, [r3, #8]
    168e:	d11b      	bne.n	16c8 <ta_header_remove_session+0x50>
    1690:	68d9      	ldr	r1, [r3, #12]
/home/yin/imx-optee/imx-optee-os/lib/libutee/arch/arm/user_ta_entry.c:121
    1692:	b1aa      	cbz	r2, 16c0 <ta_header_remove_session+0x48>
/home/yin/imx-optee/imx-optee-os/lib/libutee/arch/arm/user_ta_entry.c:121 (discriminator 1)
    1694:	60d1      	str	r1, [r2, #12]
/home/yin/imx-optee/imx-optee-os/lib/libutee/arch/arm/user_ta_entry.c:121 (discriminator 4)
    1696:	68d9      	ldr	r1, [r3, #12]
/home/yin/imx-optee/imx-optee-os/lib/libutee/arch/arm/user_ta_entry.c:122 (discriminator 4)
    1698:	4618      	mov	r0, r3
/home/yin/imx-optee/imx-optee-os/lib/libutee/arch/arm/user_ta_entry.c:121 (discriminator 4)
    169a:	600a      	str	r2, [r1, #0]
/home/yin/imx-optee/imx-optee-os/lib/libutee/arch/arm/user_ta_entry.c:122 (discriminator 4)
    169c:	f000 ff90 	bl	25c0 <TEE_Free>
/home/yin/imx-optee/imx-optee-os/lib/libutee/arch/arm/user_ta_entry.c:127 (discriminator 4)
    16a0:	4b0c      	ldr	r3, [pc, #48]	; (16d4 <ta_header_remove_session+0x5c>)
    16a2:	447b      	add	r3, pc
    16a4:	681b      	ldr	r3, [r3, #0]
    16a6:	2b00      	cmp	r3, #0
    16a8:	d1ed      	bne.n	1686 <ta_header_remove_session+0xe>
/home/yin/imx-optee/imx-optee-os/lib/libutee/arch/arm/user_ta_entry.c:125 (discriminator 1)
    16aa:	4b0b      	ldr	r3, [pc, #44]	; (16d8 <ta_header_remove_session+0x60>)
    16ac:	58e3      	ldr	r3, [r4, r3]
    16ae:	695b      	ldr	r3, [r3, #20]
    16b0:	f003 0314 	and.w	r3, r3, #20
/home/yin/imx-optee/imx-optee-os/lib/libutee/arch/arm/user_ta_entry.c:127 (discriminator 1)
    16b4:	2b14      	cmp	r3, #20
    16b6:	d0e6      	beq.n	1686 <ta_header_remove_session+0xe>
/home/yin/imx-optee/imx-optee-os/lib/libutee/arch/arm/user_ta_entry.c:133
    16b8:	e8bd 4010 	ldmia.w	sp!, {r4, lr}
uninit_instance():
/home/yin/imx-optee/imx-optee-os/lib/libutee/arch/arm/user_ta_entry.c:63
    16bc:	f7fe bcb2 	b.w	24 <TA_DestroyEntryPoint>
ta_header_remove_session():
/home/yin/imx-optee/imx-optee-os/lib/libutee/arch/arm/user_ta_entry.c:121 (discriminator 2)
    16c0:	4806      	ldr	r0, [pc, #24]	; (16dc <ta_header_remove_session+0x64>)
    16c2:	4478      	add	r0, pc
    16c4:	6041      	str	r1, [r0, #4]
    16c6:	e7e6      	b.n	1696 <ta_header_remove_session+0x1e>
/home/yin/imx-optee/imx-optee-os/lib/libutee/arch/arm/user_ta_entry.c:119 (discriminator 2)
    16c8:	4613      	mov	r3, r2
    16ca:	e7db      	b.n	1684 <ta_header_remove_session+0xc>
    16cc:	000079f2 	.word	0x000079f2
    16d0:	0000720e 	.word	0x0000720e
    16d4:	000079ce 	.word	0x000079ce
    16d8:	0000002c 	.word	0x0000002c
    16dc:	000079ae 	.word	0x000079ae

000016e0 <__utee_entry>:
__utee_entry():
/home/yin/imx-optee/imx-optee-os/lib/libutee/arch/arm/user_ta_entry.c:200
    16e0:	4c5a      	ldr	r4, [pc, #360]	; (184c <__utee_entry+0x16c>)
    16e2:	4616      	mov	r6, r2
    16e4:	b580      	push	{r7, lr}
    16e6:	4698      	mov	r8, r3
    16e8:	b08c      	sub	sp, #48	; 0x30
    16ea:	460f      	mov	r7, r1
    16ec:	447c      	add	r4, pc
/home/yin/imx-optee/imx-optee-os/lib/libutee/arch/arm/user_ta_entry.c:211
    16ee:	2801      	cmp	r0, #1
    16f0:	d073      	beq.n	17da <__utee_entry+0xfa>
    16f2:	d307      	bcc.n	1704 <__utee_entry+0x24>
    16f4:	2802      	cmp	r0, #2
    16f6:	d07d      	beq.n	17f4 <__utee_entry+0x114>
/home/yin/imx-optee/imx-optee-os/lib/libutee/arch/arm/user_ta_entry.c:223
    16f8:	2000      	movs	r0, #0
/home/yin/imx-optee/imx-optee-os/lib/libutee/arch/arm/user_ta_entry.c:222
    16fa:	f04f 34ff 	mov.w	r4, #4294967295	; 0xffffffff
/home/yin/imx-optee/imx-optee-os/lib/libutee/arch/arm/user_ta_entry.c:223
    16fe:	f003 fbc1 	bl	4e84 <TEE_Panic>
/home/yin/imx-optee/imx-optee-os/lib/libutee/arch/arm/user_ta_entry.c:224
    1702:	e026      	b.n	1752 <__utee_entry+0x72>
ta_header_add_session():
/home/yin/imx-optee/imx-optee-os/lib/libutee/arch/arm/user_ta_entry.c:90
    1704:	4608      	mov	r0, r1
    1706:	f7ff ffa9 	bl	165c <ta_header_get_session>
/home/yin/imx-optee/imx-optee-os/lib/libutee/arch/arm/user_ta_entry.c:93
    170a:	2800      	cmp	r0, #0
    170c:	d137      	bne.n	177e <__utee_entry+0x9e>
/home/yin/imx-optee/imx-optee-os/lib/libutee/arch/arm/user_ta_entry.c:96
    170e:	4b50      	ldr	r3, [pc, #320]	; (1850 <__utee_entry+0x170>)
    1710:	447b      	add	r3, pc
    1712:	781a      	ldrb	r2, [r3, #0]
    1714:	b13a      	cbz	r2, 1726 <__utee_entry+0x46>
/home/yin/imx-optee/imx-optee-os/lib/libutee/arch/arm/user_ta_entry.c:103
    1716:	f04f 4100 	mov.w	r1, #2147483648	; 0x80000000
    171a:	2010      	movs	r0, #16
    171c:	f000 ff29 	bl	2572 <TEE_Malloc>
/home/yin/imx-optee/imx-optee-os/lib/libutee/arch/arm/user_ta_entry.c:105
    1720:	bb10      	cbnz	r0, 1768 <__utee_entry+0x88>
/home/yin/imx-optee/imx-optee-os/lib/libutee/arch/arm/user_ta_entry.c:106
    1722:	4c48      	ldr	r4, [pc, #288]	; (1844 <__utee_entry+0x164>)
    1724:	e015      	b.n	1752 <__utee_entry+0x72>
/home/yin/imx-optee/imx-optee-os/lib/libutee/arch/arm/user_ta_entry.c:97
    1726:	2201      	movs	r2, #1
    1728:	701a      	strb	r2, [r3, #0]
init_instance():
/home/yin/imx-optee/imx-optee-os/lib/libutee/arch/arm/user_ta_entry.c:53
    172a:	f003 fba9 	bl	4e80 <tahead_get_trace_level>
    172e:	f002 fc26 	bl	3f7e <trace_set_level>
/home/yin/imx-optee/imx-optee-os/lib/libutee/arch/arm/user_ta_entry.c:55
    1732:	4b48      	ldr	r3, [pc, #288]	; (1854 <__utee_entry+0x174>)
    1734:	4a48      	ldr	r2, [pc, #288]	; (1858 <__utee_entry+0x178>)
    1736:	58e3      	ldr	r3, [r4, r3]
    1738:	58a2      	ldr	r2, [r4, r2]
    173a:	6819      	ldr	r1, [r3, #0]
    173c:	4610      	mov	r0, r2
    173e:	9201      	str	r2, [sp, #4]
    1740:	f001 ff50 	bl	35e4 <malloc_add_pool>
/home/yin/imx-optee/imx-optee-os/lib/libutee/arch/arm/user_ta_entry.c:56
    1744:	f000 fb8a 	bl	1e5c <_TEE_MathAPI_Init>
/home/yin/imx-optee/imx-optee-os/lib/libutee/arch/arm/user_ta_entry.c:57
    1748:	f7fe fc6a 	bl	20 <TA_CreateEntryPoint>
ta_header_add_session():
/home/yin/imx-optee/imx-optee-os/lib/libutee/arch/arm/user_ta_entry.c:99
    174c:	4604      	mov	r4, r0
    174e:	2800      	cmp	r0, #0
    1750:	d0e1      	beq.n	1716 <__utee_entry+0x36>
ta_header_save_params():
/home/yin/imx-optee/imx-optee-os/lib/libutee/arch/arm/user_ta_entry.c:69
    1752:	4842      	ldr	r0, [pc, #264]	; (185c <__utee_entry+0x17c>)
    1754:	2100      	movs	r1, #0
/home/yin/imx-optee/imx-optee-os/lib/libutee/arch/arm/user_ta_entry.c:74
    1756:	2220      	movs	r2, #32
/home/yin/imx-optee/imx-optee-os/lib/libutee/arch/arm/user_ta_entry.c:69
    1758:	4478      	add	r0, pc
    175a:	6041      	str	r1, [r0, #4]
/home/yin/imx-optee/imx-optee-os/lib/libutee/arch/arm/user_ta_entry.c:74
    175c:	3008      	adds	r0, #8
    175e:	f003 fbdd 	bl	4f1c <memset>
__utee_entry():
/home/yin/imx-optee/imx-optee-os/lib/libutee/arch/arm/user_ta_entry.c:227
    1762:	4620      	mov	r0, r4
    1764:	f000 e88c 	blx	1880 <utee_return>
ta_header_add_session():
/home/yin/imx-optee/imx-optee-os/lib/libutee/arch/arm/user_ta_entry.c:108
    1768:	2300      	movs	r3, #0
/home/yin/imx-optee/imx-optee-os/lib/libutee/arch/arm/user_ta_entry.c:107
    176a:	6007      	str	r7, [r0, #0]
/home/yin/imx-optee/imx-optee-os/lib/libutee/arch/arm/user_ta_entry.c:108
    176c:	6043      	str	r3, [r0, #4]
/home/yin/imx-optee/imx-optee-os/lib/libutee/arch/arm/user_ta_entry.c:109
    176e:	6083      	str	r3, [r0, #8]
    1770:	4b3b      	ldr	r3, [pc, #236]	; (1860 <__utee_entry+0x180>)
    1772:	447b      	add	r3, pc
    1774:	685a      	ldr	r2, [r3, #4]
    1776:	60c2      	str	r2, [r0, #12]
    1778:	6010      	str	r0, [r2, #0]
    177a:	3008      	adds	r0, #8
    177c:	6058      	str	r0, [r3, #4]
entry_open_session():
/home/yin/imx-optee/imx-optee-os/lib/libutee/arch/arm/user_ta_entry.c:147
    177e:	4638      	mov	r0, r7
    1780:	f7ff ff6c 	bl	165c <ta_header_get_session>
/home/yin/imx-optee/imx-optee-os/lib/libutee/arch/arm/user_ta_entry.c:148
    1784:	4681      	mov	r9, r0
    1786:	b908      	cbnz	r0, 178c <__utee_entry+0xac>
entry_close_session():
/home/yin/imx-optee/imx-optee-os/lib/libutee/arch/arm/user_ta_entry.c:169
    1788:	4c2f      	ldr	r4, [pc, #188]	; (1848 <__utee_entry+0x168>)
    178a:	e7e2      	b.n	1752 <__utee_entry+0x72>
entry_open_session():
/home/yin/imx-optee/imx-optee-os/lib/libutee/arch/arm/user_ta_entry.c:151
    178c:	f10d 0810 	add.w	r8, sp, #16
    1790:	4632      	mov	r2, r6
    1792:	a903      	add	r1, sp, #12
    1794:	4640      	mov	r0, r8
ta_header_save_params():
/home/yin/imx-optee/imx-optee-os/lib/libutee/arch/arm/user_ta_entry.c:69
    1796:	4c33      	ldr	r4, [pc, #204]	; (1864 <__utee_entry+0x184>)
/home/yin/imx-optee/imx-optee-os/lib/libutee/arch/arm/user_ta_entry.c:72
    1798:	4645      	mov	r5, r8
entry_open_session():
/home/yin/imx-optee/imx-optee-os/lib/libutee/arch/arm/user_ta_entry.c:151
    179a:	f000 fdd2 	bl	2342 <__utee_to_param>
/home/yin/imx-optee/imx-optee-os/lib/libutee/arch/arm/user_ta_entry.c:152
    179e:	f8dd c00c 	ldr.w	ip, [sp, #12]
ta_header_save_params():
/home/yin/imx-optee/imx-optee-os/lib/libutee/arch/arm/user_ta_entry.c:72
    17a2:	cd0f      	ldmia	r5!, {r0, r1, r2, r3}
/home/yin/imx-optee/imx-optee-os/lib/libutee/arch/arm/user_ta_entry.c:69
    17a4:	447c      	add	r4, pc
/home/yin/imx-optee/imx-optee-os/lib/libutee/arch/arm/user_ta_entry.c:72
    17a6:	3408      	adds	r4, #8
/home/yin/imx-optee/imx-optee-os/lib/libutee/arch/arm/user_ta_entry.c:69
    17a8:	f844 cc04 	str.w	ip, [r4, #-4]
/home/yin/imx-optee/imx-optee-os/lib/libutee/arch/arm/user_ta_entry.c:72
    17ac:	c40f      	stmia	r4!, {r0, r1, r2, r3}
    17ae:	e895 000f 	ldmia.w	r5, {r0, r1, r2, r3}
    17b2:	e884 000f 	stmia.w	r4, {r0, r1, r2, r3}
entry_open_session():
/home/yin/imx-optee/imx-optee-os/lib/libutee/arch/arm/user_ta_entry.c:154
    17b6:	f109 0204 	add.w	r2, r9, #4
    17ba:	4641      	mov	r1, r8
    17bc:	4660      	mov	r0, ip
    17be:	f7fe fc32 	bl	26 <TA_OpenSessionEntryPoint>
    17c2:	4604      	mov	r4, r0
/home/yin/imx-optee/imx-optee-os/lib/libutee/arch/arm/user_ta_entry.c:157
    17c4:	4642      	mov	r2, r8
    17c6:	9903      	ldr	r1, [sp, #12]
    17c8:	4630      	mov	r0, r6
    17ca:	f000 fd91 	bl	22f0 <__utee_from_param>
/home/yin/imx-optee/imx-optee-os/lib/libutee/arch/arm/user_ta_entry.c:159
    17ce:	2c00      	cmp	r4, #0
    17d0:	d0bf      	beq.n	1752 <__utee_entry+0x72>
/home/yin/imx-optee/imx-optee-os/lib/libutee/arch/arm/user_ta_entry.c:160
    17d2:	4638      	mov	r0, r7
    17d4:	f7ff ff50 	bl	1678 <ta_header_remove_session>
    17d8:	e7bb      	b.n	1752 <__utee_entry+0x72>
entry_close_session():
/home/yin/imx-optee/imx-optee-os/lib/libutee/arch/arm/user_ta_entry.c:166
    17da:	4608      	mov	r0, r1
    17dc:	f7ff ff3e 	bl	165c <ta_header_get_session>
/home/yin/imx-optee/imx-optee-os/lib/libutee/arch/arm/user_ta_entry.c:168
    17e0:	2800      	cmp	r0, #0
    17e2:	d0d1      	beq.n	1788 <__utee_entry+0xa8>
/home/yin/imx-optee/imx-optee-os/lib/libutee/arch/arm/user_ta_entry.c:171
    17e4:	6840      	ldr	r0, [r0, #4]
/home/yin/imx-optee/imx-optee-os/lib/libutee/arch/arm/user_ta_entry.c:174
    17e6:	2400      	movs	r4, #0
/home/yin/imx-optee/imx-optee-os/lib/libutee/arch/arm/user_ta_entry.c:171
    17e8:	f7fe fc24 	bl	34 <TA_CloseSessionEntryPoint>
/home/yin/imx-optee/imx-optee-os/lib/libutee/arch/arm/user_ta_entry.c:173
    17ec:	4638      	mov	r0, r7
    17ee:	f7ff ff43 	bl	1678 <ta_header_remove_session>
    17f2:	e7ae      	b.n	1752 <__utee_entry+0x72>
entry_invoke_command():
/home/yin/imx-optee/imx-optee-os/lib/libutee/arch/arm/user_ta_entry.c:183
    17f4:	4608      	mov	r0, r1
    17f6:	f7ff ff31 	bl	165c <ta_header_get_session>
/home/yin/imx-optee/imx-optee-os/lib/libutee/arch/arm/user_ta_entry.c:185
    17fa:	4681      	mov	r9, r0
    17fc:	2800      	cmp	r0, #0
    17fe:	d0c3      	beq.n	1788 <__utee_entry+0xa8>
/home/yin/imx-optee/imx-optee-os/lib/libutee/arch/arm/user_ta_entry.c:188
    1800:	af04      	add	r7, sp, #16
    1802:	4632      	mov	r2, r6
    1804:	a903      	add	r1, sp, #12
    1806:	4638      	mov	r0, r7
ta_header_save_params():
/home/yin/imx-optee/imx-optee-os/lib/libutee/arch/arm/user_ta_entry.c:72
    1808:	463d      	mov	r5, r7
/home/yin/imx-optee/imx-optee-os/lib/libutee/arch/arm/user_ta_entry.c:69
    180a:	4c17      	ldr	r4, [pc, #92]	; (1868 <__utee_entry+0x188>)
entry_invoke_command():
/home/yin/imx-optee/imx-optee-os/lib/libutee/arch/arm/user_ta_entry.c:188
    180c:	f000 fd99 	bl	2342 <__utee_to_param>
/home/yin/imx-optee/imx-optee-os/lib/libutee/arch/arm/user_ta_entry.c:189
    1810:	f8dd c00c 	ldr.w	ip, [sp, #12]
ta_header_save_params():
/home/yin/imx-optee/imx-optee-os/lib/libutee/arch/arm/user_ta_entry.c:72
    1814:	cd0f      	ldmia	r5!, {r0, r1, r2, r3}
/home/yin/imx-optee/imx-optee-os/lib/libutee/arch/arm/user_ta_entry.c:69
    1816:	447c      	add	r4, pc
/home/yin/imx-optee/imx-optee-os/lib/libutee/arch/arm/user_ta_entry.c:72
    1818:	3408      	adds	r4, #8
/home/yin/imx-optee/imx-optee-os/lib/libutee/arch/arm/user_ta_entry.c:69
    181a:	f844 cc04 	str.w	ip, [r4, #-4]
/home/yin/imx-optee/imx-optee-os/lib/libutee/arch/arm/user_ta_entry.c:72
    181e:	c40f      	stmia	r4!, {r0, r1, r2, r3}
    1820:	e895 000f 	ldmia.w	r5, {r0, r1, r2, r3}
    1824:	e884 000f 	stmia.w	r4, {r0, r1, r2, r3}
entry_invoke_command():
/home/yin/imx-optee/imx-optee-os/lib/libutee/arch/arm/user_ta_entry.c:191
    1828:	4662      	mov	r2, ip
    182a:	4641      	mov	r1, r8
    182c:	463b      	mov	r3, r7
    182e:	f8d9 0004 	ldr.w	r0, [r9, #4]
    1832:	f7fe fc00 	bl	36 <TA_InvokeCommandEntryPoint>
/home/yin/imx-optee/imx-optee-os/lib/libutee/arch/arm/user_ta_entry.c:194
    1836:	463a      	mov	r2, r7
/home/yin/imx-optee/imx-optee-os/lib/libutee/arch/arm/user_ta_entry.c:191
    1838:	4604      	mov	r4, r0
/home/yin/imx-optee/imx-optee-os/lib/libutee/arch/arm/user_ta_entry.c:194
    183a:	9903      	ldr	r1, [sp, #12]
    183c:	4630      	mov	r0, r6
    183e:	f000 fd57 	bl	22f0 <__utee_from_param>
    1842:	e786      	b.n	1752 <__utee_entry+0x72>
    1844:	ffff000c 	.word	0xffff000c
    1848:	ffff0007 	.word	0xffff0007
    184c:	000071a4 	.word	0x000071a4
    1850:	00007978 	.word	0x00007978
    1854:	0000000c 	.word	0x0000000c
    1858:	00000020 	.word	0x00000020
    185c:	00007930 	.word	0x00007930
    1860:	000078fe 	.word	0x000078fe
    1864:	000078e4 	.word	0x000078e4
    1868:	00007872 	.word	0x00007872

0000186c <utee_panic>:
utee_panic():
/home/yin/imx-optee/imx-optee-os/lib/libutee/arch/arm/utee_syscalls_a32.S:47
    186c:	e92d4fff 	push	{r0, r1, r2, r3, r4, r5, r6, r7, r8, r9, sl, fp, lr}
/home/yin/imx-optee/imx-optee-os/lib/libutee/arch/arm/utee_syscalls_a32.S:49
    1870:	e1a0e00f 	mov	lr, pc
/home/yin/imx-optee/imx-optee-os/lib/libutee/arch/arm/utee_syscalls_a32.S:50
    1874:	e52de004 	push	{lr}		; (str lr, [sp, #-4]!)
/home/yin/imx-optee/imx-optee-os/lib/libutee/arch/arm/utee_syscalls_a32.S:52
    1878:	e1a0100d 	mov	r1, sp
/home/yin/imx-optee/imx-optee-os/lib/libutee/arch/arm/utee_syscalls_a32.S:53
    187c:	eb000009 	bl	18a8 <__utee_panic>

00001880 <utee_return>:
utee_return():
/home/yin/imx-optee/imx-optee-os/lib/libutee/arch/arm/utee_syscalls_asm.S:8
    1880:	e92d40e0 	push	{r5, r6, r7, lr}
    1884:	e3a07000 	mov	r7, #0
    1888:	e3a06000 	mov	r6, #0
    188c:	ef000000 	svc	0x00000000
    1890:	e8bd80e0 	pop	{r5, r6, r7, pc}

00001894 <utee_log>:
utee_log():
/home/yin/imx-optee/imx-optee-os/lib/libutee/arch/arm/utee_syscalls_asm.S:10
    1894:	e92d40e0 	push	{r5, r6, r7, lr}
    1898:	e3a07001 	mov	r7, #1
    189c:	e3a06000 	mov	r6, #0
    18a0:	ef000000 	svc	0x00000000
    18a4:	e8bd80e0 	pop	{r5, r6, r7, pc}

000018a8 <__utee_panic>:
__utee_panic():
/home/yin/imx-optee/imx-optee-os/lib/libutee/arch/arm/utee_syscalls_asm.S:12
    18a8:	e92d40e0 	push	{r5, r6, r7, lr}
    18ac:	e3a07002 	mov	r7, #2
    18b0:	e3a06000 	mov	r6, #0
    18b4:	ef000000 	svc	0x00000000
    18b8:	e8bd80e0 	pop	{r5, r6, r7, pc}

000018bc <utee_get_property>:
utee_get_property():
/home/yin/imx-optee/imx-optee-os/lib/libutee/arch/arm/utee_syscalls_asm.S:14
    18bc:	e92d40e0 	push	{r5, r6, r7, lr}
    18c0:	e3a07003 	mov	r7, #3
    18c4:	e3a06003 	mov	r6, #3
    18c8:	e28d5010 	add	r5, sp, #16
    18cc:	ef000000 	svc	0x00000000
    18d0:	e8bd80e0 	pop	{r5, r6, r7, pc}

000018d4 <utee_get_property_name_to_index>:
utee_get_property_name_to_index():
/home/yin/imx-optee/imx-optee-os/lib/libutee/arch/arm/utee_syscalls_asm.S:16
    18d4:	e92d40e0 	push	{r5, r6, r7, lr}
    18d8:	e3a07004 	mov	r7, #4
    18dc:	e3a06000 	mov	r6, #0
    18e0:	ef000000 	svc	0x00000000
    18e4:	e8bd80e0 	pop	{r5, r6, r7, pc}

000018e8 <utee_open_ta_session>:
utee_open_ta_session():
/home/yin/imx-optee/imx-optee-os/lib/libutee/arch/arm/utee_syscalls_asm.S:19
    18e8:	e92d40e0 	push	{r5, r6, r7, lr}
    18ec:	e3a07005 	mov	r7, #5
    18f0:	e3a06001 	mov	r6, #1
    18f4:	e28d5010 	add	r5, sp, #16
    18f8:	ef000000 	svc	0x00000000
    18fc:	e8bd80e0 	pop	{r5, r6, r7, pc}

00001900 <utee_close_ta_session>:
utee_close_ta_session():
/home/yin/imx-optee/imx-optee-os/lib/libutee/arch/arm/utee_syscalls_asm.S:21
    1900:	e92d40e0 	push	{r5, r6, r7, lr}
    1904:	e3a07006 	mov	r7, #6
    1908:	e3a06000 	mov	r6, #0
    190c:	ef000000 	svc	0x00000000
    1910:	e8bd80e0 	pop	{r5, r6, r7, pc}

00001914 <utee_invoke_ta_command>:
utee_invoke_ta_command():
/home/yin/imx-optee/imx-optee-os/lib/libutee/arch/arm/utee_syscalls_asm.S:23
    1914:	e92d40e0 	push	{r5, r6, r7, lr}
    1918:	e3a07007 	mov	r7, #7
    191c:	e3a06001 	mov	r6, #1
    1920:	e28d5010 	add	r5, sp, #16
    1924:	ef000000 	svc	0x00000000
    1928:	e8bd80e0 	pop	{r5, r6, r7, pc}

0000192c <utee_get_cancellation_flag>:
utee_get_cancellation_flag():
/home/yin/imx-optee/imx-optee-os/lib/libutee/arch/arm/utee_syscalls_asm.S:25
    192c:	e92d40e0 	push	{r5, r6, r7, lr}
    1930:	e3a07009 	mov	r7, #9
    1934:	e3a06000 	mov	r6, #0
    1938:	ef000000 	svc	0x00000000
    193c:	e8bd80e0 	pop	{r5, r6, r7, pc}

00001940 <utee_check_access_rights>:
utee_check_access_rights():
/home/yin/imx-optee/imx-optee-os/lib/libutee/arch/arm/utee_syscalls_asm.S:28
    1940:	e92d40e0 	push	{r5, r6, r7, lr}
    1944:	e3a07008 	mov	r7, #8
    1948:	e3a06000 	mov	r6, #0
    194c:	ef000000 	svc	0x00000000
    1950:	e8bd80e0 	pop	{r5, r6, r7, pc}

00001954 <utee_unmask_cancellation>:
utee_unmask_cancellation():
/home/yin/imx-optee/imx-optee-os/lib/libutee/arch/arm/utee_syscalls_asm.S:30
    1954:	e92d40e0 	push	{r5, r6, r7, lr}
    1958:	e3a0700a 	mov	r7, #10
    195c:	e3a06000 	mov	r6, #0
    1960:	ef000000 	svc	0x00000000
    1964:	e8bd80e0 	pop	{r5, r6, r7, pc}

00001968 <utee_mask_cancellation>:
utee_mask_cancellation():
/home/yin/imx-optee/imx-optee-os/lib/libutee/arch/arm/utee_syscalls_asm.S:32
    1968:	e92d40e0 	push	{r5, r6, r7, lr}
    196c:	e3a0700b 	mov	r7, #11
    1970:	e3a06000 	mov	r6, #0
    1974:	ef000000 	svc	0x00000000
    1978:	e8bd80e0 	pop	{r5, r6, r7, pc}

0000197c <utee_wait>:
utee_wait():
/home/yin/imx-optee/imx-optee-os/lib/libutee/arch/arm/utee_syscalls_asm.S:34
    197c:	e92d40e0 	push	{r5, r6, r7, lr}
    1980:	e3a0700c 	mov	r7, #12
    1984:	e3a06000 	mov	r6, #0
    1988:	ef000000 	svc	0x00000000
    198c:	e8bd80e0 	pop	{r5, r6, r7, pc}

00001990 <utee_get_time>:
utee_get_time():
/home/yin/imx-optee/imx-optee-os/lib/libutee/arch/arm/utee_syscalls_asm.S:36
    1990:	e92d40e0 	push	{r5, r6, r7, lr}
    1994:	e3a0700d 	mov	r7, #13
    1998:	e3a06000 	mov	r6, #0
    199c:	ef000000 	svc	0x00000000
    19a0:	e8bd80e0 	pop	{r5, r6, r7, pc}

000019a4 <utee_set_ta_time>:
utee_set_ta_time():
/home/yin/imx-optee/imx-optee-os/lib/libutee/arch/arm/utee_syscalls_asm.S:38
    19a4:	e92d40e0 	push	{r5, r6, r7, lr}
    19a8:	e3a0700e 	mov	r7, #14
    19ac:	e3a06000 	mov	r6, #0
    19b0:	ef000000 	svc	0x00000000
    19b4:	e8bd80e0 	pop	{r5, r6, r7, pc}

000019b8 <utee_cryp_state_alloc>:
utee_cryp_state_alloc():
/home/yin/imx-optee/imx-optee-os/lib/libutee/arch/arm/utee_syscalls_asm.S:40
    19b8:	e92d40e0 	push	{r5, r6, r7, lr}
    19bc:	e3a0700f 	mov	r7, #15
    19c0:	e3a06001 	mov	r6, #1
    19c4:	e28d5010 	add	r5, sp, #16
    19c8:	ef000000 	svc	0x00000000
    19cc:	e8bd80e0 	pop	{r5, r6, r7, pc}

000019d0 <utee_cryp_state_copy>:
utee_cryp_state_copy():
/home/yin/imx-optee/imx-optee-os/lib/libutee/arch/arm/utee_syscalls_asm.S:42
    19d0:	e92d40e0 	push	{r5, r6, r7, lr}
    19d4:	e3a07010 	mov	r7, #16
    19d8:	e3a06000 	mov	r6, #0
    19dc:	ef000000 	svc	0x00000000
    19e0:	e8bd80e0 	pop	{r5, r6, r7, pc}

000019e4 <utee_cryp_state_free>:
utee_cryp_state_free():
/home/yin/imx-optee/imx-optee-os/lib/libutee/arch/arm/utee_syscalls_asm.S:44
    19e4:	e92d40e0 	push	{r5, r6, r7, lr}
    19e8:	e3a07011 	mov	r7, #17
    19ec:	e3a06000 	mov	r6, #0
    19f0:	ef000000 	svc	0x00000000
    19f4:	e8bd80e0 	pop	{r5, r6, r7, pc}

000019f8 <utee_hash_init>:
utee_hash_init():
/home/yin/imx-optee/imx-optee-os/lib/libutee/arch/arm/utee_syscalls_asm.S:46
    19f8:	e92d40e0 	push	{r5, r6, r7, lr}
    19fc:	e3a07012 	mov	r7, #18
    1a00:	e3a06000 	mov	r6, #0
    1a04:	ef000000 	svc	0x00000000
    1a08:	e8bd80e0 	pop	{r5, r6, r7, pc}

00001a0c <utee_hash_update>:
utee_hash_update():
/home/yin/imx-optee/imx-optee-os/lib/libutee/arch/arm/utee_syscalls_asm.S:48
    1a0c:	e92d40e0 	push	{r5, r6, r7, lr}
    1a10:	e3a07013 	mov	r7, #19
    1a14:	e3a06000 	mov	r6, #0
    1a18:	ef000000 	svc	0x00000000
    1a1c:	e8bd80e0 	pop	{r5, r6, r7, pc}

00001a20 <utee_hash_final>:
utee_hash_final():
/home/yin/imx-optee/imx-optee-os/lib/libutee/arch/arm/utee_syscalls_asm.S:50
    1a20:	e92d40e0 	push	{r5, r6, r7, lr}
    1a24:	e3a07014 	mov	r7, #20
    1a28:	e3a06001 	mov	r6, #1
    1a2c:	e28d5010 	add	r5, sp, #16
    1a30:	ef000000 	svc	0x00000000
    1a34:	e8bd80e0 	pop	{r5, r6, r7, pc}

00001a38 <utee_cipher_init>:
utee_cipher_init():
/home/yin/imx-optee/imx-optee-os/lib/libutee/arch/arm/utee_syscalls_asm.S:52
    1a38:	e92d40e0 	push	{r5, r6, r7, lr}
    1a3c:	e3a07015 	mov	r7, #21
    1a40:	e3a06000 	mov	r6, #0
    1a44:	ef000000 	svc	0x00000000
    1a48:	e8bd80e0 	pop	{r5, r6, r7, pc}

00001a4c <utee_cipher_update>:
utee_cipher_update():
/home/yin/imx-optee/imx-optee-os/lib/libutee/arch/arm/utee_syscalls_asm.S:54
    1a4c:	e92d40e0 	push	{r5, r6, r7, lr}
    1a50:	e3a07016 	mov	r7, #22
    1a54:	e3a06001 	mov	r6, #1
    1a58:	e28d5010 	add	r5, sp, #16
    1a5c:	ef000000 	svc	0x00000000
    1a60:	e8bd80e0 	pop	{r5, r6, r7, pc}

00001a64 <utee_cipher_final>:
utee_cipher_final():
/home/yin/imx-optee/imx-optee-os/lib/libutee/arch/arm/utee_syscalls_asm.S:56
    1a64:	e92d40e0 	push	{r5, r6, r7, lr}
    1a68:	e3a07017 	mov	r7, #23
    1a6c:	e3a06001 	mov	r6, #1
    1a70:	e28d5010 	add	r5, sp, #16
    1a74:	ef000000 	svc	0x00000000
    1a78:	e8bd80e0 	pop	{r5, r6, r7, pc}

00001a7c <utee_cryp_obj_get_info>:
utee_cryp_obj_get_info():
/home/yin/imx-optee/imx-optee-os/lib/libutee/arch/arm/utee_syscalls_asm.S:58
    1a7c:	e92d40e0 	push	{r5, r6, r7, lr}
    1a80:	e3a07018 	mov	r7, #24
    1a84:	e3a06000 	mov	r6, #0
    1a88:	ef000000 	svc	0x00000000
    1a8c:	e8bd80e0 	pop	{r5, r6, r7, pc}

00001a90 <utee_cryp_obj_restrict_usage>:
utee_cryp_obj_restrict_usage():
/home/yin/imx-optee/imx-optee-os/lib/libutee/arch/arm/utee_syscalls_asm.S:60
    1a90:	e92d40e0 	push	{r5, r6, r7, lr}
    1a94:	e3a07019 	mov	r7, #25
    1a98:	e3a06000 	mov	r6, #0
    1a9c:	ef000000 	svc	0x00000000
    1aa0:	e8bd80e0 	pop	{r5, r6, r7, pc}

00001aa4 <utee_cryp_obj_get_attr>:
utee_cryp_obj_get_attr():
/home/yin/imx-optee/imx-optee-os/lib/libutee/arch/arm/utee_syscalls_asm.S:63
    1aa4:	e92d40e0 	push	{r5, r6, r7, lr}
    1aa8:	e3a0701a 	mov	r7, #26
    1aac:	e3a06000 	mov	r6, #0
    1ab0:	ef000000 	svc	0x00000000
    1ab4:	e8bd80e0 	pop	{r5, r6, r7, pc}

00001ab8 <utee_cryp_obj_alloc>:
utee_cryp_obj_alloc():
/home/yin/imx-optee/imx-optee-os/lib/libutee/arch/arm/utee_syscalls_asm.S:65
    1ab8:	e92d40e0 	push	{r5, r6, r7, lr}
    1abc:	e3a0701b 	mov	r7, #27
    1ac0:	e3a06000 	mov	r6, #0
    1ac4:	ef000000 	svc	0x00000000
    1ac8:	e8bd80e0 	pop	{r5, r6, r7, pc}

00001acc <utee_cryp_obj_close>:
utee_cryp_obj_close():
/home/yin/imx-optee/imx-optee-os/lib/libutee/arch/arm/utee_syscalls_asm.S:67
    1acc:	e92d40e0 	push	{r5, r6, r7, lr}
    1ad0:	e3a0701c 	mov	r7, #28
    1ad4:	e3a06000 	mov	r6, #0
    1ad8:	ef000000 	svc	0x00000000
    1adc:	e8bd80e0 	pop	{r5, r6, r7, pc}

00001ae0 <utee_cryp_obj_reset>:
utee_cryp_obj_reset():
/home/yin/imx-optee/imx-optee-os/lib/libutee/arch/arm/utee_syscalls_asm.S:69
    1ae0:	e92d40e0 	push	{r5, r6, r7, lr}
    1ae4:	e3a0701d 	mov	r7, #29
    1ae8:	e3a06000 	mov	r6, #0
    1aec:	ef000000 	svc	0x00000000
    1af0:	e8bd80e0 	pop	{r5, r6, r7, pc}

00001af4 <utee_cryp_obj_populate>:
utee_cryp_obj_populate():
/home/yin/imx-optee/imx-optee-os/lib/libutee/arch/arm/utee_syscalls_asm.S:71
    1af4:	e92d40e0 	push	{r5, r6, r7, lr}
    1af8:	e3a0701e 	mov	r7, #30
    1afc:	e3a06000 	mov	r6, #0
    1b00:	ef000000 	svc	0x00000000
    1b04:	e8bd80e0 	pop	{r5, r6, r7, pc}

00001b08 <utee_cryp_obj_copy>:
utee_cryp_obj_copy():
/home/yin/imx-optee/imx-optee-os/lib/libutee/arch/arm/utee_syscalls_asm.S:73
    1b08:	e92d40e0 	push	{r5, r6, r7, lr}
    1b0c:	e3a0701f 	mov	r7, #31
    1b10:	e3a06000 	mov	r6, #0
    1b14:	ef000000 	svc	0x00000000
    1b18:	e8bd80e0 	pop	{r5, r6, r7, pc}

00001b1c <utee_cryp_derive_key>:
utee_cryp_derive_key():
/home/yin/imx-optee/imx-optee-os/lib/libutee/arch/arm/utee_syscalls_asm.S:75
    1b1c:	e92d40e0 	push	{r5, r6, r7, lr}
    1b20:	e3a07020 	mov	r7, #32
    1b24:	e3a06000 	mov	r6, #0
    1b28:	ef000000 	svc	0x00000000
    1b2c:	e8bd80e0 	pop	{r5, r6, r7, pc}

00001b30 <utee_cryp_random_number_generate>:
utee_cryp_random_number_generate():
/home/yin/imx-optee/imx-optee-os/lib/libutee/arch/arm/utee_syscalls_asm.S:77
    1b30:	e92d40e0 	push	{r5, r6, r7, lr}
    1b34:	e3a07021 	mov	r7, #33	; 0x21
    1b38:	e3a06000 	mov	r6, #0
    1b3c:	ef000000 	svc	0x00000000
    1b40:	e8bd80e0 	pop	{r5, r6, r7, pc}

00001b44 <utee_authenc_init>:
utee_authenc_init():
/home/yin/imx-optee/imx-optee-os/lib/libutee/arch/arm/utee_syscalls_asm.S:80
    1b44:	e92d40e0 	push	{r5, r6, r7, lr}
    1b48:	e3a07022 	mov	r7, #34	; 0x22
    1b4c:	e3a06002 	mov	r6, #2
    1b50:	e28d5010 	add	r5, sp, #16
    1b54:	ef000000 	svc	0x00000000
    1b58:	e8bd80e0 	pop	{r5, r6, r7, pc}

00001b5c <utee_authenc_update_aad>:
utee_authenc_update_aad():
/home/yin/imx-optee/imx-optee-os/lib/libutee/arch/arm/utee_syscalls_asm.S:82
    1b5c:	e92d40e0 	push	{r5, r6, r7, lr}
    1b60:	e3a07023 	mov	r7, #35	; 0x23
    1b64:	e3a06000 	mov	r6, #0
    1b68:	ef000000 	svc	0x00000000
    1b6c:	e8bd80e0 	pop	{r5, r6, r7, pc}

00001b70 <utee_authenc_update_payload>:
utee_authenc_update_payload():
/home/yin/imx-optee/imx-optee-os/lib/libutee/arch/arm/utee_syscalls_asm.S:84
    1b70:	e92d40e0 	push	{r5, r6, r7, lr}
    1b74:	e3a07024 	mov	r7, #36	; 0x24
    1b78:	e3a06001 	mov	r6, #1
    1b7c:	e28d5010 	add	r5, sp, #16
    1b80:	ef000000 	svc	0x00000000
    1b84:	e8bd80e0 	pop	{r5, r6, r7, pc}

00001b88 <utee_authenc_enc_final>:
utee_authenc_enc_final():
/home/yin/imx-optee/imx-optee-os/lib/libutee/arch/arm/utee_syscalls_asm.S:87
    1b88:	e92d40e0 	push	{r5, r6, r7, lr}
    1b8c:	e3a07025 	mov	r7, #37	; 0x25
    1b90:	e3a06003 	mov	r6, #3
    1b94:	e28d5010 	add	r5, sp, #16
    1b98:	ef000000 	svc	0x00000000
    1b9c:	e8bd80e0 	pop	{r5, r6, r7, pc}

00001ba0 <utee_authenc_dec_final>:
utee_authenc_dec_final():
/home/yin/imx-optee/imx-optee-os/lib/libutee/arch/arm/utee_syscalls_asm.S:89
    1ba0:	e92d40e0 	push	{r5, r6, r7, lr}
    1ba4:	e3a07026 	mov	r7, #38	; 0x26
    1ba8:	e3a06003 	mov	r6, #3
    1bac:	e28d5010 	add	r5, sp, #16
    1bb0:	ef000000 	svc	0x00000000
    1bb4:	e8bd80e0 	pop	{r5, r6, r7, pc}

00001bb8 <utee_asymm_operate>:
utee_asymm_operate():
/home/yin/imx-optee/imx-optee-os/lib/libutee/arch/arm/utee_syscalls_asm.S:91
    1bb8:	e92d40e0 	push	{r5, r6, r7, lr}
    1bbc:	e3a07027 	mov	r7, #39	; 0x27
    1bc0:	e3a06003 	mov	r6, #3
    1bc4:	e28d5010 	add	r5, sp, #16
    1bc8:	ef000000 	svc	0x00000000
    1bcc:	e8bd80e0 	pop	{r5, r6, r7, pc}

00001bd0 <utee_asymm_verify>:
utee_asymm_verify():
/home/yin/imx-optee/imx-optee-os/lib/libutee/arch/arm/utee_syscalls_asm.S:93
    1bd0:	e92d40e0 	push	{r5, r6, r7, lr}
    1bd4:	e3a07028 	mov	r7, #40	; 0x28
    1bd8:	e3a06003 	mov	r6, #3
    1bdc:	e28d5010 	add	r5, sp, #16
    1be0:	ef000000 	svc	0x00000000
    1be4:	e8bd80e0 	pop	{r5, r6, r7, pc}

00001be8 <utee_storage_obj_open>:
utee_storage_obj_open():
/home/yin/imx-optee/imx-optee-os/lib/libutee/arch/arm/utee_syscalls_asm.S:95
    1be8:	e92d40e0 	push	{r5, r6, r7, lr}
    1bec:	e3a07029 	mov	r7, #41	; 0x29
    1bf0:	e3a06001 	mov	r6, #1
    1bf4:	e28d5010 	add	r5, sp, #16
    1bf8:	ef000000 	svc	0x00000000
    1bfc:	e8bd80e0 	pop	{r5, r6, r7, pc}

00001c00 <utee_storage_obj_create>:
utee_storage_obj_create():
/home/yin/imx-optee/imx-optee-os/lib/libutee/arch/arm/utee_syscalls_asm.S:97
    1c00:	e92d40e0 	push	{r5, r6, r7, lr}
    1c04:	e3a0702a 	mov	r7, #42	; 0x2a
    1c08:	e3a06004 	mov	r6, #4
    1c0c:	e28d5010 	add	r5, sp, #16
    1c10:	ef000000 	svc	0x00000000
    1c14:	e8bd80e0 	pop	{r5, r6, r7, pc}

00001c18 <utee_storage_obj_del>:
utee_storage_obj_del():
/home/yin/imx-optee/imx-optee-os/lib/libutee/arch/arm/utee_syscalls_asm.S:99
    1c18:	e92d40e0 	push	{r5, r6, r7, lr}
    1c1c:	e3a0702b 	mov	r7, #43	; 0x2b
    1c20:	e3a06000 	mov	r6, #0
    1c24:	ef000000 	svc	0x00000000
    1c28:	e8bd80e0 	pop	{r5, r6, r7, pc}

00001c2c <utee_storage_obj_rename>:
utee_storage_obj_rename():
/home/yin/imx-optee/imx-optee-os/lib/libutee/arch/arm/utee_syscalls_asm.S:101
    1c2c:	e92d40e0 	push	{r5, r6, r7, lr}
    1c30:	e3a0702c 	mov	r7, #44	; 0x2c
    1c34:	e3a06000 	mov	r6, #0
    1c38:	ef000000 	svc	0x00000000
    1c3c:	e8bd80e0 	pop	{r5, r6, r7, pc}

00001c40 <utee_storage_alloc_enum>:
utee_storage_alloc_enum():
/home/yin/imx-optee/imx-optee-os/lib/libutee/arch/arm/utee_syscalls_asm.S:103
    1c40:	e92d40e0 	push	{r5, r6, r7, lr}
    1c44:	e3a0702d 	mov	r7, #45	; 0x2d
    1c48:	e3a06000 	mov	r6, #0
    1c4c:	ef000000 	svc	0x00000000
    1c50:	e8bd80e0 	pop	{r5, r6, r7, pc}

00001c54 <utee_storage_free_enum>:
utee_storage_free_enum():
/home/yin/imx-optee/imx-optee-os/lib/libutee/arch/arm/utee_syscalls_asm.S:105
    1c54:	e92d40e0 	push	{r5, r6, r7, lr}
    1c58:	e3a0702e 	mov	r7, #46	; 0x2e
    1c5c:	e3a06000 	mov	r6, #0
    1c60:	ef000000 	svc	0x00000000
    1c64:	e8bd80e0 	pop	{r5, r6, r7, pc}

00001c68 <utee_storage_reset_enum>:
utee_storage_reset_enum():
/home/yin/imx-optee/imx-optee-os/lib/libutee/arch/arm/utee_syscalls_asm.S:107
    1c68:	e92d40e0 	push	{r5, r6, r7, lr}
    1c6c:	e3a0702f 	mov	r7, #47	; 0x2f
    1c70:	e3a06000 	mov	r6, #0
    1c74:	ef000000 	svc	0x00000000
    1c78:	e8bd80e0 	pop	{r5, r6, r7, pc}

00001c7c <utee_storage_start_enum>:
utee_storage_start_enum():
/home/yin/imx-optee/imx-optee-os/lib/libutee/arch/arm/utee_syscalls_asm.S:109
    1c7c:	e92d40e0 	push	{r5, r6, r7, lr}
    1c80:	e3a07030 	mov	r7, #48	; 0x30
    1c84:	e3a06000 	mov	r6, #0
    1c88:	ef000000 	svc	0x00000000
    1c8c:	e8bd80e0 	pop	{r5, r6, r7, pc}

00001c90 <utee_storage_next_enum>:
utee_storage_next_enum():
/home/yin/imx-optee/imx-optee-os/lib/libutee/arch/arm/utee_syscalls_asm.S:111
    1c90:	e92d40e0 	push	{r5, r6, r7, lr}
    1c94:	e3a07031 	mov	r7, #49	; 0x31
    1c98:	e3a06000 	mov	r6, #0
    1c9c:	ef000000 	svc	0x00000000
    1ca0:	e8bd80e0 	pop	{r5, r6, r7, pc}

00001ca4 <utee_storage_obj_read>:
utee_storage_obj_read():
/home/yin/imx-optee/imx-optee-os/lib/libutee/arch/arm/utee_syscalls_asm.S:113
    1ca4:	e92d40e0 	push	{r5, r6, r7, lr}
    1ca8:	e3a07032 	mov	r7, #50	; 0x32
    1cac:	e3a06000 	mov	r6, #0
    1cb0:	ef000000 	svc	0x00000000
    1cb4:	e8bd80e0 	pop	{r5, r6, r7, pc}

00001cb8 <utee_storage_obj_write>:
utee_storage_obj_write():
/home/yin/imx-optee/imx-optee-os/lib/libutee/arch/arm/utee_syscalls_asm.S:115
    1cb8:	e92d40e0 	push	{r5, r6, r7, lr}
    1cbc:	e3a07033 	mov	r7, #51	; 0x33
    1cc0:	e3a06000 	mov	r6, #0
    1cc4:	ef000000 	svc	0x00000000
    1cc8:	e8bd80e0 	pop	{r5, r6, r7, pc}

00001ccc <utee_storage_obj_trunc>:
utee_storage_obj_trunc():
/home/yin/imx-optee/imx-optee-os/lib/libutee/arch/arm/utee_syscalls_asm.S:117
    1ccc:	e92d40e0 	push	{r5, r6, r7, lr}
    1cd0:	e3a07034 	mov	r7, #52	; 0x34
    1cd4:	e3a06000 	mov	r6, #0
    1cd8:	ef000000 	svc	0x00000000
    1cdc:	e8bd80e0 	pop	{r5, r6, r7, pc}

00001ce0 <utee_storage_obj_seek>:
utee_storage_obj_seek():
/home/yin/imx-optee/imx-optee-os/lib/libutee/arch/arm/utee_syscalls_asm.S:119
    1ce0:	e92d40e0 	push	{r5, r6, r7, lr}
    1ce4:	e3a07035 	mov	r7, #53	; 0x35
    1ce8:	e3a06000 	mov	r6, #0
    1cec:	ef000000 	svc	0x00000000
    1cf0:	e8bd80e0 	pop	{r5, r6, r7, pc}

00001cf4 <utee_cryp_obj_generate_key>:
utee_cryp_obj_generate_key():
/home/yin/imx-optee/imx-optee-os/lib/libutee/arch/arm/utee_syscalls_asm.S:121
    1cf4:	e92d40e0 	push	{r5, r6, r7, lr}
    1cf8:	e3a07036 	mov	r7, #54	; 0x36
    1cfc:	e3a06000 	mov	r6, #0
    1d00:	ef000000 	svc	0x00000000
    1d04:	e8bd80e0 	pop	{r5, r6, r7, pc}

00001d08 <utee_se_service_open>:
utee_se_service_open():
/home/yin/imx-optee/imx-optee-os/lib/libutee/arch/arm/utee_syscalls_asm.S:124
    1d08:	e92d40e0 	push	{r5, r6, r7, lr}
    1d0c:	e3a07037 	mov	r7, #55	; 0x37
    1d10:	e3a06000 	mov	r6, #0
    1d14:	ef000000 	svc	0x00000000
    1d18:	e8bd80e0 	pop	{r5, r6, r7, pc}

00001d1c <utee_se_service_close>:
utee_se_service_close():
/home/yin/imx-optee/imx-optee-os/lib/libutee/arch/arm/utee_syscalls_asm.S:126
    1d1c:	e92d40e0 	push	{r5, r6, r7, lr}
    1d20:	e3a07038 	mov	r7, #56	; 0x38
    1d24:	e3a06000 	mov	r6, #0
    1d28:	ef000000 	svc	0x00000000
    1d2c:	e8bd80e0 	pop	{r5, r6, r7, pc}

00001d30 <utee_se_service_get_readers>:
utee_se_service_get_readers():
/home/yin/imx-optee/imx-optee-os/lib/libutee/arch/arm/utee_syscalls_asm.S:128
    1d30:	e92d40e0 	push	{r5, r6, r7, lr}
    1d34:	e3a07039 	mov	r7, #57	; 0x39
    1d38:	e3a06000 	mov	r6, #0
    1d3c:	ef000000 	svc	0x00000000
    1d40:	e8bd80e0 	pop	{r5, r6, r7, pc}

00001d44 <utee_se_reader_get_prop>:
utee_se_reader_get_prop():
/home/yin/imx-optee/imx-optee-os/lib/libutee/arch/arm/utee_syscalls_asm.S:131
    1d44:	e92d40e0 	push	{r5, r6, r7, lr}
    1d48:	e3a0703a 	mov	r7, #58	; 0x3a
    1d4c:	e3a06000 	mov	r6, #0
    1d50:	ef000000 	svc	0x00000000
    1d54:	e8bd80e0 	pop	{r5, r6, r7, pc}

00001d58 <utee_se_reader_get_name>:
utee_se_reader_get_name():
/home/yin/imx-optee/imx-optee-os/lib/libutee/arch/arm/utee_syscalls_asm.S:134
    1d58:	e92d40e0 	push	{r5, r6, r7, lr}
    1d5c:	e3a0703b 	mov	r7, #59	; 0x3b
    1d60:	e3a06000 	mov	r6, #0
    1d64:	ef000000 	svc	0x00000000
    1d68:	e8bd80e0 	pop	{r5, r6, r7, pc}

00001d6c <utee_se_reader_open_session>:
utee_se_reader_open_session():
/home/yin/imx-optee/imx-optee-os/lib/libutee/arch/arm/utee_syscalls_asm.S:137
    1d6c:	e92d40e0 	push	{r5, r6, r7, lr}
    1d70:	e3a0703c 	mov	r7, #60	; 0x3c
    1d74:	e3a06000 	mov	r6, #0
    1d78:	ef000000 	svc	0x00000000
    1d7c:	e8bd80e0 	pop	{r5, r6, r7, pc}

00001d80 <utee_se_reader_close_sessions>:
utee_se_reader_close_sessions():
/home/yin/imx-optee/imx-optee-os/lib/libutee/arch/arm/utee_syscalls_asm.S:140
    1d80:	e92d40e0 	push	{r5, r6, r7, lr}
    1d84:	e3a0703d 	mov	r7, #61	; 0x3d
    1d88:	e3a06000 	mov	r6, #0
    1d8c:	ef000000 	svc	0x00000000
    1d90:	e8bd80e0 	pop	{r5, r6, r7, pc}

00001d94 <utee_se_session_is_closed>:
utee_se_session_is_closed():
/home/yin/imx-optee/imx-optee-os/lib/libutee/arch/arm/utee_syscalls_asm.S:143
    1d94:	e92d40e0 	push	{r5, r6, r7, lr}
    1d98:	e3a0703e 	mov	r7, #62	; 0x3e
    1d9c:	e3a06000 	mov	r6, #0
    1da0:	ef000000 	svc	0x00000000
    1da4:	e8bd80e0 	pop	{r5, r6, r7, pc}

00001da8 <utee_se_session_get_atr>:
utee_se_session_get_atr():
/home/yin/imx-optee/imx-optee-os/lib/libutee/arch/arm/utee_syscalls_asm.S:146
    1da8:	e92d40e0 	push	{r5, r6, r7, lr}
    1dac:	e3a0703f 	mov	r7, #63	; 0x3f
    1db0:	e3a06000 	mov	r6, #0
    1db4:	ef000000 	svc	0x00000000
    1db8:	e8bd80e0 	pop	{r5, r6, r7, pc}

00001dbc <utee_se_session_open_channel>:
utee_se_session_open_channel():
/home/yin/imx-optee/imx-optee-os/lib/libutee/arch/arm/utee_syscalls_asm.S:149
    1dbc:	e92d40e0 	push	{r5, r6, r7, lr}
    1dc0:	e3a07040 	mov	r7, #64	; 0x40
    1dc4:	e3a06001 	mov	r6, #1
    1dc8:	e28d5010 	add	r5, sp, #16
    1dcc:	ef000000 	svc	0x00000000
    1dd0:	e8bd80e0 	pop	{r5, r6, r7, pc}

00001dd4 <utee_se_session_close>:
utee_se_session_close():
/home/yin/imx-optee/imx-optee-os/lib/libutee/arch/arm/utee_syscalls_asm.S:152
    1dd4:	e92d40e0 	push	{r5, r6, r7, lr}
    1dd8:	e3a07041 	mov	r7, #65	; 0x41
    1ddc:	e3a06000 	mov	r6, #0
    1de0:	ef000000 	svc	0x00000000
    1de4:	e8bd80e0 	pop	{r5, r6, r7, pc}

00001de8 <utee_se_channel_select_next>:
utee_se_channel_select_next():
/home/yin/imx-optee/imx-optee-os/lib/libutee/arch/arm/utee_syscalls_asm.S:155
    1de8:	e92d40e0 	push	{r5, r6, r7, lr}
    1dec:	e3a07042 	mov	r7, #66	; 0x42
    1df0:	e3a06000 	mov	r6, #0
    1df4:	ef000000 	svc	0x00000000
    1df8:	e8bd80e0 	pop	{r5, r6, r7, pc}

00001dfc <utee_se_channel_get_select_resp>:
utee_se_channel_get_select_resp():
/home/yin/imx-optee/imx-optee-os/lib/libutee/arch/arm/utee_syscalls_asm.S:158
    1dfc:	e92d40e0 	push	{r5, r6, r7, lr}
    1e00:	e3a07043 	mov	r7, #67	; 0x43
    1e04:	e3a06000 	mov	r6, #0
    1e08:	ef000000 	svc	0x00000000
    1e0c:	e8bd80e0 	pop	{r5, r6, r7, pc}

00001e10 <utee_se_channel_transmit>:
utee_se_channel_transmit():
/home/yin/imx-optee/imx-optee-os/lib/libutee/arch/arm/utee_syscalls_asm.S:161
    1e10:	e92d40e0 	push	{r5, r6, r7, lr}
    1e14:	e3a07044 	mov	r7, #68	; 0x44
    1e18:	e3a06001 	mov	r6, #1
    1e1c:	e28d5010 	add	r5, sp, #16
    1e20:	ef000000 	svc	0x00000000
    1e24:	e8bd80e0 	pop	{r5, r6, r7, pc}

00001e28 <utee_se_channel_close>:
utee_se_channel_close():
/home/yin/imx-optee/imx-optee-os/lib/libutee/arch/arm/utee_syscalls_asm.S:164
    1e28:	e92d40e0 	push	{r5, r6, r7, lr}
    1e2c:	e3a07045 	mov	r7, #69	; 0x45
    1e30:	e3a06000 	mov	r6, #0
    1e34:	ef000000 	svc	0x00000000
    1e38:	e8bd80e0 	pop	{r5, r6, r7, pc}

00001e3c <utee_cache_operation>:
utee_cache_operation():
/home/yin/imx-optee/imx-optee-os/lib/libutee/arch/arm/utee_syscalls_asm.S:167
    1e3c:	e92d40e0 	push	{r5, r6, r7, lr}
    1e40:	e3a07046 	mov	r7, #70	; 0x46
    1e44:	e3a06000 	mov	r6, #0
    1e48:	ef000000 	svc	0x00000000
    1e4c:	e8bd80e0 	pop	{r5, r6, r7, pc}

00001e50 <__utee_mcount>:
__utee_mcount():
/home/yin/imx-optee/imx-optee-os/lib/libutee/arch/arm/gprof/gprof_a32.S:49
    1e50:	e52de004 	push	{lr}		; (str lr, [sp, #-4]!)
/home/yin/imx-optee/imx-optee-os/lib/libutee/arch/arm/gprof/gprof_a32.S:50
    1e54:	e8bd5000 	pop	{ip, lr}
/home/yin/imx-optee/imx-optee-os/lib/libutee/arch/arm/gprof/gprof_a32.S:51
    1e58:	e12fff1c 	bx	ip

00001e5c <_TEE_MathAPI_Init>:
_TEE_MathAPI_Init():
/home/yin/imx-optee/imx-optee-os/lib/libutee/tee_api_arith.c:53
    1e5c:	480a      	ldr	r0, [pc, #40]	; (1e88 <_TEE_MathAPI_Init+0x2c>)
    1e5e:	2200      	movs	r2, #0
/home/yin/imx-optee/imx-optee-os/lib/libutee/tee_api_arith.c:50
    1e60:	b508      	push	{r3, lr}
/home/yin/imx-optee/imx-optee-os/lib/libutee/tee_api_arith.c:53
    1e62:	f641 01f0 	movw	r1, #6384	; 0x18f0
    1e66:	4478      	add	r0, pc
    1e68:	f002 f9c2 	bl	41f0 <mempool_alloc_pool>
    1e6c:	4a07      	ldr	r2, [pc, #28]	; (1e8c <_TEE_MathAPI_Init+0x30>)
    1e6e:	447a      	add	r2, pc
    1e70:	6010      	str	r0, [r2, #0]
/home/yin/imx-optee/imx-optee-os/lib/libutee/tee_api_arith.c:54
    1e72:	b908      	cbnz	r0, 1e78 <_TEE_MathAPI_Init+0x1c>
/home/yin/imx-optee/imx-optee-os/lib/libutee/tee_api_arith.c:55
    1e74:	f003 f806 	bl	4e84 <TEE_Panic>
/home/yin/imx-optee/imx-optee-os/lib/libutee/tee_api_arith.c:61
    1e78:	4b05      	ldr	r3, [pc, #20]	; (1e90 <_TEE_MathAPI_Init+0x34>)
    1e7a:	f44f 5280 	mov.w	r2, #4096	; 0x1000
    1e7e:	447b      	add	r3, pc
    1e80:	605a      	str	r2, [r3, #4]
/home/yin/imx-optee/imx-optee-os/lib/libutee/tee_api_arith.c:62
    1e82:	609b      	str	r3, [r3, #8]
    1e84:	bd08      	pop	{r3, pc}
    1e86:	bf00      	nop
    1e88:	00007256 	.word	0x00007256
    1e8c:	00007242 	.word	0x00007242
    1e90:	00007232 	.word	0x00007232

00001e94 <TEE_BigIntInit>:
TEE_BigIntInit():
/home/yin/imx-optee/imx-optee-os/lib/libutee/tee_api_arith.c:70
    1e94:	f004 bda0 	b.w	69d8 <mpa_init_static>

00001e98 <TEE_BigIntInitFMM>:
TEE_BigIntInitFMM():
/home/yin/imx-optee/imx-optee-os/lib/libutee/tee_api_arith.c:80
    1e98:	0089      	lsls	r1, r1, #2
/home/yin/imx-optee/imx-optee-os/lib/libutee/tee_api_arith.c:81
    1e9a:	2300      	movs	r3, #0
    1e9c:	6043      	str	r3, [r0, #4]
/home/yin/imx-optee/imx-optee-os/lib/libutee/tee_api_arith.c:80
    1e9e:	3905      	subs	r1, #5
    1ea0:	0889      	lsrs	r1, r1, #2
    1ea2:	6001      	str	r1, [r0, #0]
/home/yin/imx-optee/imx-optee-os/lib/libutee/tee_api_arith.c:81
    1ea4:	4770      	bx	lr

00001ea6 <TEE_BigIntInitFMMContext>:
TEE_BigIntInitFMMContext():
/home/yin/imx-optee/imx-optee-os/lib/libutee/tee_api_arith.c:89
    1ea6:	b537      	push	{r0, r1, r2, r4, r5, lr}
    1ea8:	4604      	mov	r4, r0
    1eaa:	4615      	mov	r5, r2
/home/yin/imx-optee/imx-optee-os/lib/libutee/tee_api_arith.c:93
    1eac:	f004 fd9d 	bl	69ea <mpa_init_static_fmm_context>
/home/yin/imx-optee/imx-optee-os/lib/libutee/tee_api_arith.c:94
    1eb0:	4b06      	ldr	r3, [pc, #24]	; (1ecc <TEE_BigIntInitFMMContext+0x26>)
    1eb2:	4628      	mov	r0, r5
    1eb4:	e894 0006 	ldmia.w	r4, {r1, r2}
    1eb8:	447b      	add	r3, pc
    1eba:	689b      	ldr	r3, [r3, #8]
    1ebc:	9300      	str	r3, [sp, #0]
    1ebe:	f104 0308 	add.w	r3, r4, #8
    1ec2:	f002 fb2d 	bl	4520 <mpa_compute_fmm_context>
/home/yin/imx-optee/imx-optee-os/lib/libutee/tee_api_arith.c:97
    1ec6:	b003      	add	sp, #12
    1ec8:	bd30      	pop	{r4, r5, pc}
    1eca:	bf00      	nop
    1ecc:	000071f8 	.word	0x000071f8

00001ed0 <TEE_BigIntFMMSizeInU32>:
TEE_BigIntFMMSizeInU32():
/home/yin/imx-optee/imx-optee-os/lib/libutee/tee_api_arith.c:108
    1ed0:	301f      	adds	r0, #31
    1ed2:	0940      	lsrs	r0, r0, #5
/home/yin/imx-optee/imx-optee-os/lib/libutee/tee_api_arith.c:109
    1ed4:	3003      	adds	r0, #3
    1ed6:	4770      	bx	lr

00001ed8 <TEE_BigIntFMMContextSizeInU32>:
TEE_BigIntFMMContextSizeInU32():
/home/yin/imx-optee/imx-optee-os/lib/libutee/tee_api_arith.c:116
    1ed8:	301f      	adds	r0, #31
    1eda:	0940      	lsrs	r0, r0, #5
    1edc:	0040      	lsls	r0, r0, #1
/home/yin/imx-optee/imx-optee-os/lib/libutee/tee_api_arith.c:117
    1ede:	300b      	adds	r0, #11
    1ee0:	4770      	bx	lr

00001ee2 <TEE_BigIntConvertFromOctetString>:
TEE_BigIntConvertFromOctetString():
/home/yin/imx-optee/imx-optee-os/lib/libutee/tee_api_arith.c:130
    1ee2:	b508      	push	{r3, lr}
/home/yin/imx-optee/imx-optee-os/lib/libutee/tee_api_arith.c:135
    1ee4:	0fdb      	lsrs	r3, r3, #31
    1ee6:	f002 fef5 	bl	4cd4 <mpa_set_oct_str>
    1eea:	2800      	cmp	r0, #0
/home/yin/imx-optee/imx-optee-os/lib/libutee/tee_api_arith.c:145
    1eec:	4801      	ldr	r0, [pc, #4]	; (1ef4 <TEE_BigIntConvertFromOctetString+0x12>)
    1eee:	bf08      	it	eq
    1ef0:	2000      	moveq	r0, #0
    1ef2:	bd08      	pop	{r3, pc}
    1ef4:	ffff300f 	.word	0xffff300f

00001ef8 <TEE_BigIntConvertToOctetString>:
TEE_BigIntConvertToOctetString():
/home/yin/imx-optee/imx-optee-os/lib/libutee/tee_api_arith.c:155
    1ef8:	680b      	ldr	r3, [r1, #0]
/home/yin/imx-optee/imx-optee-os/lib/libutee/tee_api_arith.c:153
    1efa:	b537      	push	{r0, r1, r2, r4, r5, lr}
    1efc:	460d      	mov	r5, r1
/home/yin/imx-optee/imx-optee-os/lib/libutee/tee_api_arith.c:155
    1efe:	a902      	add	r1, sp, #8
    1f00:	f841 3d04 	str.w	r3, [r1, #-4]!
/home/yin/imx-optee/imx-optee-os/lib/libutee/tee_api_arith.c:158
    1f04:	f002 ff34 	bl	4d70 <mpa_get_oct_str>
/home/yin/imx-optee/imx-optee-os/lib/libutee/tee_api_arith.c:161
    1f08:	4b07      	ldr	r3, [pc, #28]	; (1f28 <TEE_BigIntConvertToOctetString+0x30>)
    1f0a:	2800      	cmp	r0, #0
/home/yin/imx-optee/imx-optee-os/lib/libutee/tee_api_arith.c:163
    1f0c:	9a01      	ldr	r2, [sp, #4]
/home/yin/imx-optee/imx-optee-os/lib/libutee/tee_api_arith.c:161
    1f0e:	bf0c      	ite	eq
    1f10:	2400      	moveq	r4, #0
    1f12:	461c      	movne	r4, r3
/home/yin/imx-optee/imx-optee-os/lib/libutee/tee_api_arith.c:163
    1f14:	602a      	str	r2, [r5, #0]
/home/yin/imx-optee/imx-optee-os/lib/libutee/tee_api_arith.c:165
    1f16:	b124      	cbz	r4, 1f22 <TEE_BigIntConvertToOctetString+0x2a>
/home/yin/imx-optee/imx-optee-os/lib/libutee/tee_api_arith.c:165 (discriminator 1)
    1f18:	429c      	cmp	r4, r3
    1f1a:	d002      	beq.n	1f22 <TEE_BigIntConvertToOctetString+0x2a>
/home/yin/imx-optee/imx-optee-os/lib/libutee/tee_api_arith.c:167
    1f1c:	4620      	mov	r0, r4
    1f1e:	f002 ffb1 	bl	4e84 <TEE_Panic>
/home/yin/imx-optee/imx-optee-os/lib/libutee/tee_api_arith.c:170
    1f22:	4620      	mov	r0, r4
    1f24:	b003      	add	sp, #12
    1f26:	bd30      	pop	{r4, r5, pc}
    1f28:	ffff0010 	.word	0xffff0010

00001f2c <TEE_BigIntConvertFromS32>:
TEE_BigIntConvertFromS32():
/home/yin/imx-optee/imx-optee-os/lib/libutee/tee_api_arith.c:180
    1f2c:	f003 b9b8 	b.w	52a0 <mpa_set_S32>

00001f30 <TEE_BigIntConvertToS32>:
TEE_BigIntConvertToS32():
/home/yin/imx-optee/imx-optee-os/lib/libutee/tee_api_arith.c:190
    1f30:	b508      	push	{r3, lr}
/home/yin/imx-optee/imx-optee-os/lib/libutee/tee_api_arith.c:194
    1f32:	f003 f9c3 	bl	52bc <mpa_get_S32>
    1f36:	2800      	cmp	r0, #0
/home/yin/imx-optee/imx-optee-os/lib/libutee/tee_api_arith.c:204
    1f38:	4801      	ldr	r0, [pc, #4]	; (1f40 <TEE_BigIntConvertToS32+0x10>)
    1f3a:	bf08      	it	eq
    1f3c:	2000      	moveq	r0, #0
    1f3e:	bd08      	pop	{r3, pc}
    1f40:	ffff300f 	.word	0xffff300f

00001f44 <TEE_BigIntCmp>:
TEE_BigIntCmp():
/home/yin/imx-optee/imx-optee-os/lib/libutee/tee_api_arith.c:218
    1f44:	f004 bcf8 	b.w	6938 <mpa_cmp>

00001f48 <TEE_BigIntCmpS32>:
TEE_BigIntCmpS32():
/home/yin/imx-optee/imx-optee-os/lib/libutee/tee_api_arith.c:228
    1f48:	f004 bd19 	b.w	697e <mpa_cmp_short>

00001f4c <TEE_BigIntShiftRight>:
TEE_BigIntShiftRight():
/home/yin/imx-optee/imx-optee-os/lib/libutee/tee_api_arith.c:240
    1f4c:	f004 b994 	b.w	6278 <mpa_shift_right>

00001f50 <TEE_BigIntGetBit>:
TEE_BigIntGetBit():
/home/yin/imx-optee/imx-optee-os/lib/libutee/tee_api_arith.c:247
    1f50:	b508      	push	{r3, lr}
/home/yin/imx-optee/imx-optee-os/lib/libutee/tee_api_arith.c:250
    1f52:	f002 fa0f 	bl	4374 <mpa_get_bit>
/home/yin/imx-optee/imx-optee-os/lib/libutee/tee_api_arith.c:251
    1f56:	3000      	adds	r0, #0
    1f58:	bf18      	it	ne
    1f5a:	2001      	movne	r0, #1
    1f5c:	bd08      	pop	{r3, pc}

00001f5e <TEE_BigIntGetBitCount>:
TEE_BigIntGetBitCount():
/home/yin/imx-optee/imx-optee-os/lib/libutee/tee_api_arith.c:257
    1f5e:	b508      	push	{r3, lr}
/home/yin/imx-optee/imx-optee-os/lib/libutee/tee_api_arith.c:260
    1f60:	f002 f9f3 	bl	434a <mpa_highest_bit_index>
/home/yin/imx-optee/imx-optee-os/lib/libutee/tee_api_arith.c:261
    1f64:	3001      	adds	r0, #1
    1f66:	bd08      	pop	{r3, pc}

00001f68 <TEE_BigIntAdd>:
TEE_BigIntAdd():
/home/yin/imx-optee/imx-optee-os/lib/libutee/tee_api_arith.c:277
    1f68:	4b02      	ldr	r3, [pc, #8]	; (1f74 <TEE_BigIntAdd+0xc>)
    1f6a:	447b      	add	r3, pc
    1f6c:	689b      	ldr	r3, [r3, #8]
    1f6e:	f004 baec 	b.w	654a <mpa_add>
    1f72:	bf00      	nop
    1f74:	00007146 	.word	0x00007146

00001f78 <TEE_BigIntSub>:
TEE_BigIntSub():
/home/yin/imx-optee/imx-optee-os/lib/libutee/tee_api_arith.c:290
    1f78:	4b02      	ldr	r3, [pc, #8]	; (1f84 <TEE_BigIntSub+0xc>)
    1f7a:	447b      	add	r3, pc
    1f7c:	689b      	ldr	r3, [r3, #8]
    1f7e:	f004 bb5b 	b.w	6638 <mpa_sub>
    1f82:	bf00      	nop
    1f84:	00007136 	.word	0x00007136

00001f88 <TEE_BigIntNeg>:
TEE_BigIntNeg():
/home/yin/imx-optee/imx-optee-os/lib/libutee/tee_api_arith.c:301
    1f88:	f004 bbd8 	b.w	673c <mpa_neg>

00001f8c <TEE_BigIntMul>:
TEE_BigIntMul():
/home/yin/imx-optee/imx-optee-os/lib/libutee/tee_api_arith.c:314
    1f8c:	4b02      	ldr	r3, [pc, #8]	; (1f98 <TEE_BigIntMul+0xc>)
    1f8e:	447b      	add	r3, pc
    1f90:	689b      	ldr	r3, [r3, #8]
    1f92:	f003 bfcd 	b.w	5f30 <mpa_mul>
    1f96:	bf00      	nop
    1f98:	00007122 	.word	0x00007122

00001f9c <TEE_BigIntSquare>:
TEE_BigIntSquare():
/home/yin/imx-optee/imx-optee-os/lib/libutee/tee_api_arith.c:325
    1f9c:	4b02      	ldr	r3, [pc, #8]	; (1fa8 <TEE_BigIntSquare+0xc>)
    1f9e:	460a      	mov	r2, r1
    1fa0:	447b      	add	r3, pc
    1fa2:	689b      	ldr	r3, [r3, #8]
    1fa4:	f003 bfc4 	b.w	5f30 <mpa_mul>
    1fa8:	00007110 	.word	0x00007110

00001fac <TEE_BigIntDiv>:
TEE_BigIntDiv():
/home/yin/imx-optee/imx-optee-os/lib/libutee/tee_api_arith.c:333
    1fac:	b5f7      	push	{r0, r1, r2, r4, r5, r6, r7, lr}
    1fae:	4605      	mov	r5, r0
    1fb0:	460e      	mov	r6, r1
TEE_BigIntCmpS32():
/home/yin/imx-optee/imx-optee-os/lib/libutee/tee_api_arith.c:228
    1fb2:	4618      	mov	r0, r3
    1fb4:	2100      	movs	r1, #0
TEE_BigIntDiv():
/home/yin/imx-optee/imx-optee-os/lib/libutee/tee_api_arith.c:333
    1fb6:	4617      	mov	r7, r2
    1fb8:	461c      	mov	r4, r3
TEE_BigIntCmpS32():
/home/yin/imx-optee/imx-optee-os/lib/libutee/tee_api_arith.c:228
    1fba:	f004 fce0 	bl	697e <mpa_cmp_short>
TEE_BigIntDiv():
/home/yin/imx-optee/imx-optee-os/lib/libutee/tee_api_arith.c:339
    1fbe:	b918      	cbnz	r0, 1fc8 <TEE_BigIntDiv+0x1c>
/home/yin/imx-optee/imx-optee-os/lib/libutee/tee_api_arith.c:340
    1fc0:	4807      	ldr	r0, [pc, #28]	; (1fe0 <TEE_BigIntDiv+0x34>)
    1fc2:	4478      	add	r0, pc
    1fc4:	f000 f986 	bl	22d4 <TEE_BigInt_Panic>
/home/yin/imx-optee/imx-optee-os/lib/libutee/tee_api_arith.c:342
    1fc8:	4b06      	ldr	r3, [pc, #24]	; (1fe4 <TEE_BigIntDiv+0x38>)
    1fca:	463a      	mov	r2, r7
    1fcc:	4631      	mov	r1, r6
    1fce:	4628      	mov	r0, r5
    1fd0:	447b      	add	r3, pc
    1fd2:	689b      	ldr	r3, [r3, #8]
    1fd4:	9300      	str	r3, [sp, #0]
    1fd6:	4623      	mov	r3, r4
    1fd8:	f003 fc1a 	bl	5810 <mpa_div>
/home/yin/imx-optee/imx-optee-os/lib/libutee/tee_api_arith.c:343
    1fdc:	b003      	add	sp, #12
    1fde:	bdf0      	pop	{r4, r5, r6, r7, pc}
    1fe0:	00005af4 	.word	0x00005af4
    1fe4:	000070e0 	.word	0x000070e0

00001fe8 <TEE_BigIntMod>:
TEE_BigIntMod():
/home/yin/imx-optee/imx-optee-os/lib/libutee/tee_api_arith.c:354
    1fe8:	e92d 41f0 	stmdb	sp!, {r4, r5, r6, r7, r8, lr}
    1fec:	4604      	mov	r4, r0
    1fee:	460f      	mov	r7, r1
TEE_BigIntCmpS32():
/home/yin/imx-optee/imx-optee-os/lib/libutee/tee_api_arith.c:228
    1ff0:	4610      	mov	r0, r2
    1ff2:	2102      	movs	r1, #2
TEE_BigIntMod():
/home/yin/imx-optee/imx-optee-os/lib/libutee/tee_api_arith.c:354
    1ff4:	4615      	mov	r5, r2
TEE_BigIntCmpS32():
/home/yin/imx-optee/imx-optee-os/lib/libutee/tee_api_arith.c:228
    1ff6:	f004 fcc2 	bl	697e <mpa_cmp_short>
TEE_BigIntMod():
/home/yin/imx-optee/imx-optee-os/lib/libutee/tee_api_arith.c:359
    1ffa:	2800      	cmp	r0, #0
    1ffc:	da03      	bge.n	2006 <TEE_BigIntMod+0x1e>
/home/yin/imx-optee/imx-optee-os/lib/libutee/tee_api_arith.c:360
    1ffe:	480e      	ldr	r0, [pc, #56]	; (2038 <TEE_BigIntMod+0x50>)
    2000:	4478      	add	r0, pc
    2002:	f000 f967 	bl	22d4 <TEE_BigInt_Panic>
/home/yin/imx-optee/imx-optee-os/lib/libutee/tee_api_arith.c:362
    2006:	4e0d      	ldr	r6, [pc, #52]	; (203c <TEE_BigIntMod+0x54>)
    2008:	462a      	mov	r2, r5
    200a:	4639      	mov	r1, r7
    200c:	4620      	mov	r0, r4
    200e:	447e      	add	r6, pc
    2010:	68b3      	ldr	r3, [r6, #8]
    2012:	f004 fd05 	bl	6a20 <mpa_mod>
/home/yin/imx-optee/imx-optee-os/lib/libutee/tee_api_arith.c:364
    2016:	2100      	movs	r1, #0
    2018:	4620      	mov	r0, r4
    201a:	f004 fcb0 	bl	697e <mpa_cmp_short>
    201e:	2800      	cmp	r0, #0
    2020:	da07      	bge.n	2032 <TEE_BigIntMod+0x4a>
/home/yin/imx-optee/imx-optee-os/lib/libutee/tee_api_arith.c:365
    2022:	68b3      	ldr	r3, [r6, #8]
    2024:	462a      	mov	r2, r5
    2026:	4621      	mov	r1, r4
    2028:	4620      	mov	r0, r4
/home/yin/imx-optee/imx-optee-os/lib/libutee/tee_api_arith.c:366
    202a:	e8bd 41f0 	ldmia.w	sp!, {r4, r5, r6, r7, r8, lr}
/home/yin/imx-optee/imx-optee-os/lib/libutee/tee_api_arith.c:365
    202e:	f004 ba8c 	b.w	654a <mpa_add>
    2032:	e8bd 81f0 	ldmia.w	sp!, {r4, r5, r6, r7, r8, pc}
    2036:	bf00      	nop
    2038:	00005ac6 	.word	0x00005ac6
    203c:	000070a2 	.word	0x000070a2

00002040 <TEE_BigIntAddMod>:
TEE_BigIntAddMod():
/home/yin/imx-optee/imx-optee-os/lib/libutee/tee_api_arith.c:373
    2040:	e92d 41f3 	stmdb	sp!, {r0, r1, r4, r5, r6, r7, r8, lr}
    2044:	4604      	mov	r4, r0
    2046:	460f      	mov	r7, r1
TEE_BigIntCmpS32():
/home/yin/imx-optee/imx-optee-os/lib/libutee/tee_api_arith.c:228
    2048:	4618      	mov	r0, r3
    204a:	2102      	movs	r1, #2
TEE_BigIntAddMod():
/home/yin/imx-optee/imx-optee-os/lib/libutee/tee_api_arith.c:373
    204c:	4690      	mov	r8, r2
    204e:	461d      	mov	r5, r3
TEE_BigIntCmpS32():
/home/yin/imx-optee/imx-optee-os/lib/libutee/tee_api_arith.c:228
    2050:	f004 fc95 	bl	697e <mpa_cmp_short>
TEE_BigIntAddMod():
/home/yin/imx-optee/imx-optee-os/lib/libutee/tee_api_arith.c:379
    2054:	2800      	cmp	r0, #0
    2056:	da03      	bge.n	2060 <TEE_BigIntAddMod+0x20>
/home/yin/imx-optee/imx-optee-os/lib/libutee/tee_api_arith.c:380
    2058:	480f      	ldr	r0, [pc, #60]	; (2098 <TEE_BigIntAddMod+0x58>)
    205a:	4478      	add	r0, pc
    205c:	f000 f93a 	bl	22d4 <TEE_BigInt_Panic>
/home/yin/imx-optee/imx-optee-os/lib/libutee/tee_api_arith.c:382
    2060:	4e0e      	ldr	r6, [pc, #56]	; (209c <TEE_BigIntAddMod+0x5c>)
    2062:	4642      	mov	r2, r8
    2064:	4639      	mov	r1, r7
    2066:	4620      	mov	r0, r4
    2068:	447e      	add	r6, pc
    206a:	68b3      	ldr	r3, [r6, #8]
    206c:	9300      	str	r3, [sp, #0]
    206e:	462b      	mov	r3, r5
    2070:	f004 fce1 	bl	6a36 <mpa_add_mod>
/home/yin/imx-optee/imx-optee-os/lib/libutee/tee_api_arith.c:383
    2074:	2100      	movs	r1, #0
    2076:	4620      	mov	r0, r4
    2078:	f004 fc81 	bl	697e <mpa_cmp_short>
    207c:	2800      	cmp	r0, #0
    207e:	da08      	bge.n	2092 <TEE_BigIntAddMod+0x52>
/home/yin/imx-optee/imx-optee-os/lib/libutee/tee_api_arith.c:384
    2080:	68b3      	ldr	r3, [r6, #8]
    2082:	462a      	mov	r2, r5
    2084:	4621      	mov	r1, r4
    2086:	4620      	mov	r0, r4
/home/yin/imx-optee/imx-optee-os/lib/libutee/tee_api_arith.c:385
    2088:	b002      	add	sp, #8
    208a:	e8bd 41f0 	ldmia.w	sp!, {r4, r5, r6, r7, r8, lr}
/home/yin/imx-optee/imx-optee-os/lib/libutee/tee_api_arith.c:384
    208e:	f004 ba5c 	b.w	654a <mpa_add>
/home/yin/imx-optee/imx-optee-os/lib/libutee/tee_api_arith.c:385
    2092:	b002      	add	sp, #8
    2094:	e8bd 81f0 	ldmia.w	sp!, {r4, r5, r6, r7, r8, pc}
    2098:	00005a6c 	.word	0x00005a6c
    209c:	00007048 	.word	0x00007048

000020a0 <TEE_BigIntSubMod>:
TEE_BigIntSubMod():
/home/yin/imx-optee/imx-optee-os/lib/libutee/tee_api_arith.c:392
    20a0:	e92d 41f3 	stmdb	sp!, {r0, r1, r4, r5, r6, r7, r8, lr}
    20a4:	4604      	mov	r4, r0
    20a6:	460f      	mov	r7, r1
TEE_BigIntCmpS32():
/home/yin/imx-optee/imx-optee-os/lib/libutee/tee_api_arith.c:228
    20a8:	4618      	mov	r0, r3
    20aa:	2102      	movs	r1, #2
TEE_BigIntSubMod():
/home/yin/imx-optee/imx-optee-os/lib/libutee/tee_api_arith.c:392
    20ac:	4690      	mov	r8, r2
    20ae:	461d      	mov	r5, r3
TEE_BigIntCmpS32():
/home/yin/imx-optee/imx-optee-os/lib/libutee/tee_api_arith.c:228
    20b0:	f004 fc65 	bl	697e <mpa_cmp_short>
TEE_BigIntSubMod():
/home/yin/imx-optee/imx-optee-os/lib/libutee/tee_api_arith.c:398
    20b4:	2800      	cmp	r0, #0
    20b6:	da03      	bge.n	20c0 <TEE_BigIntSubMod+0x20>
/home/yin/imx-optee/imx-optee-os/lib/libutee/tee_api_arith.c:399
    20b8:	480f      	ldr	r0, [pc, #60]	; (20f8 <TEE_BigIntSubMod+0x58>)
    20ba:	4478      	add	r0, pc
    20bc:	f000 f90a 	bl	22d4 <TEE_BigInt_Panic>
/home/yin/imx-optee/imx-optee-os/lib/libutee/tee_api_arith.c:401
    20c0:	4e0e      	ldr	r6, [pc, #56]	; (20fc <TEE_BigIntSubMod+0x5c>)
    20c2:	4642      	mov	r2, r8
    20c4:	4639      	mov	r1, r7
    20c6:	4620      	mov	r0, r4
    20c8:	447e      	add	r6, pc
    20ca:	68b3      	ldr	r3, [r6, #8]
    20cc:	9300      	str	r3, [sp, #0]
    20ce:	462b      	mov	r3, r5
    20d0:	f004 fcd2 	bl	6a78 <mpa_sub_mod>
/home/yin/imx-optee/imx-optee-os/lib/libutee/tee_api_arith.c:402
    20d4:	2100      	movs	r1, #0
    20d6:	4620      	mov	r0, r4
    20d8:	f004 fc51 	bl	697e <mpa_cmp_short>
    20dc:	2800      	cmp	r0, #0
    20de:	da08      	bge.n	20f2 <TEE_BigIntSubMod+0x52>
/home/yin/imx-optee/imx-optee-os/lib/libutee/tee_api_arith.c:403
    20e0:	68b3      	ldr	r3, [r6, #8]
    20e2:	462a      	mov	r2, r5
    20e4:	4621      	mov	r1, r4
    20e6:	4620      	mov	r0, r4
/home/yin/imx-optee/imx-optee-os/lib/libutee/tee_api_arith.c:404
    20e8:	b002      	add	sp, #8
    20ea:	e8bd 41f0 	ldmia.w	sp!, {r4, r5, r6, r7, r8, lr}
/home/yin/imx-optee/imx-optee-os/lib/libutee/tee_api_arith.c:403
    20ee:	f004 ba2c 	b.w	654a <mpa_add>
/home/yin/imx-optee/imx-optee-os/lib/libutee/tee_api_arith.c:404
    20f2:	b002      	add	sp, #8
    20f4:	e8bd 81f0 	ldmia.w	sp!, {r4, r5, r6, r7, r8, pc}
    20f8:	00005a0c 	.word	0x00005a0c
    20fc:	00006fe8 	.word	0x00006fe8

00002100 <TEE_BigIntMulMod>:
TEE_BigIntMulMod():
/home/yin/imx-optee/imx-optee-os/lib/libutee/tee_api_arith.c:411
    2100:	e92d 43f0 	stmdb	sp!, {r4, r5, r6, r7, r8, r9, lr}
    2104:	4607      	mov	r7, r0
    2106:	b085      	sub	sp, #20
    2108:	4688      	mov	r8, r1
TEE_BigIntCmpS32():
/home/yin/imx-optee/imx-optee-os/lib/libutee/tee_api_arith.c:228
    210a:	4618      	mov	r0, r3
    210c:	2102      	movs	r1, #2
TEE_BigIntMulMod():
/home/yin/imx-optee/imx-optee-os/lib/libutee/tee_api_arith.c:411
    210e:	4691      	mov	r9, r2
    2110:	461c      	mov	r4, r3
TEE_BigIntCmpS32():
/home/yin/imx-optee/imx-optee-os/lib/libutee/tee_api_arith.c:228
    2112:	f004 fc34 	bl	697e <mpa_cmp_short>
TEE_BigIntMulMod():
/home/yin/imx-optee/imx-optee-os/lib/libutee/tee_api_arith.c:418
    2116:	2800      	cmp	r0, #0
    2118:	da03      	bge.n	2122 <TEE_BigIntMulMod+0x22>
/home/yin/imx-optee/imx-optee-os/lib/libutee/tee_api_arith.c:419
    211a:	4816      	ldr	r0, [pc, #88]	; (2174 <TEE_BigIntMulMod+0x74>)
    211c:	4478      	add	r0, pc
    211e:	f000 f8d9 	bl	22d4 <TEE_BigInt_Panic>
/home/yin/imx-optee/imx-optee-os/lib/libutee/tee_api_arith.c:429
    2122:	4d15      	ldr	r5, [pc, #84]	; (2178 <TEE_BigIntMulMod+0x78>)
    2124:	ae03      	add	r6, sp, #12
    2126:	4630      	mov	r0, r6
    2128:	447d      	add	r5, pc
    212a:	68a9      	ldr	r1, [r5, #8]
    212c:	f003 fe70 	bl	5e10 <mpa_alloc_static_temp_var>
/home/yin/imx-optee/imx-optee-os/lib/libutee/tee_api_arith.c:430
    2130:	68ab      	ldr	r3, [r5, #8]
    2132:	464a      	mov	r2, r9
    2134:	4641      	mov	r1, r8
    2136:	9803      	ldr	r0, [sp, #12]
    2138:	9300      	str	r3, [sp, #0]
    213a:	4623      	mov	r3, r4
    213c:	f004 fcbd 	bl	6aba <mpa_mul_mod>
/home/yin/imx-optee/imx-optee-os/lib/libutee/tee_api_arith.c:431
    2140:	2100      	movs	r1, #0
    2142:	9803      	ldr	r0, [sp, #12]
    2144:	f004 fc1b 	bl	697e <mpa_cmp_short>
    2148:	2800      	cmp	r0, #0
    214a:	da05      	bge.n	2158 <TEE_BigIntMulMod+0x58>
/home/yin/imx-optee/imx-optee-os/lib/libutee/tee_api_arith.c:432
    214c:	9903      	ldr	r1, [sp, #12]
    214e:	4622      	mov	r2, r4
    2150:	68ab      	ldr	r3, [r5, #8]
    2152:	4608      	mov	r0, r1
    2154:	f004 f9f9 	bl	654a <mpa_add>
/home/yin/imx-optee/imx-optee-os/lib/libutee/tee_api_arith.c:433
    2158:	9903      	ldr	r1, [sp, #12]
    215a:	4638      	mov	r0, r7
    215c:	f002 f8da 	bl	4314 <mpa_copy>
/home/yin/imx-optee/imx-optee-os/lib/libutee/tee_api_arith.c:434
    2160:	4b06      	ldr	r3, [pc, #24]	; (217c <TEE_BigIntMulMod+0x7c>)
    2162:	4630      	mov	r0, r6
    2164:	447b      	add	r3, pc
    2166:	6899      	ldr	r1, [r3, #8]
    2168:	f003 fe57 	bl	5e1a <mpa_free_static_temp_var>
/home/yin/imx-optee/imx-optee-os/lib/libutee/tee_api_arith.c:435
    216c:	b005      	add	sp, #20
    216e:	e8bd 83f0 	ldmia.w	sp!, {r4, r5, r6, r7, r8, r9, pc}
    2172:	bf00      	nop
    2174:	000059aa 	.word	0x000059aa
    2178:	00006f88 	.word	0x00006f88
    217c:	00006f4c 	.word	0x00006f4c

00002180 <TEE_BigIntSquareMod>:
TEE_BigIntSquareMod():
/home/yin/imx-optee/imx-optee-os/lib/libutee/tee_api_arith.c:443
    2180:	4613      	mov	r3, r2
    2182:	460a      	mov	r2, r1
    2184:	f7ff bfbc 	b.w	2100 <TEE_BigIntMulMod>

00002188 <TEE_BigIntInvMod>:
TEE_BigIntInvMod():
/home/yin/imx-optee/imx-optee-os/lib/libutee/tee_api_arith.c:451
    2188:	b570      	push	{r4, r5, r6, lr}
    218a:	4606      	mov	r6, r0
    218c:	460c      	mov	r4, r1
TEE_BigIntCmpS32():
/home/yin/imx-optee/imx-optee-os/lib/libutee/tee_api_arith.c:228
    218e:	4610      	mov	r0, r2
    2190:	2102      	movs	r1, #2
TEE_BigIntInvMod():
/home/yin/imx-optee/imx-optee-os/lib/libutee/tee_api_arith.c:451
    2192:	4615      	mov	r5, r2
TEE_BigIntCmpS32():
/home/yin/imx-optee/imx-optee-os/lib/libutee/tee_api_arith.c:228
    2194:	f004 fbf3 	bl	697e <mpa_cmp_short>
TEE_BigIntInvMod():
/home/yin/imx-optee/imx-optee-os/lib/libutee/tee_api_arith.c:456
    2198:	2800      	cmp	r0, #0
    219a:	da03      	bge.n	21a4 <TEE_BigIntInvMod+0x1c>
/home/yin/imx-optee/imx-optee-os/lib/libutee/tee_api_arith.c:457
    219c:	4809      	ldr	r0, [pc, #36]	; (21c4 <TEE_BigIntInvMod+0x3c>)
    219e:	4478      	add	r0, pc
    21a0:	f000 f898 	bl	22d4 <TEE_BigInt_Panic>
TEE_BigIntCmpS32():
/home/yin/imx-optee/imx-optee-os/lib/libutee/tee_api_arith.c:228
    21a4:	2100      	movs	r1, #0
    21a6:	4620      	mov	r0, r4
    21a8:	f004 fbe9 	bl	697e <mpa_cmp_short>
TEE_BigIntInvMod():
/home/yin/imx-optee/imx-optee-os/lib/libutee/tee_api_arith.c:456
    21ac:	2800      	cmp	r0, #0
    21ae:	d0f5      	beq.n	219c <TEE_BigIntInvMod+0x14>
/home/yin/imx-optee/imx-optee-os/lib/libutee/tee_api_arith.c:459
    21b0:	4b05      	ldr	r3, [pc, #20]	; (21c8 <TEE_BigIntInvMod+0x40>)
    21b2:	462a      	mov	r2, r5
    21b4:	4621      	mov	r1, r4
    21b6:	4630      	mov	r0, r6
/home/yin/imx-optee/imx-optee-os/lib/libutee/tee_api_arith.c:460
    21b8:	e8bd 4070 	ldmia.w	sp!, {r4, r5, r6, lr}
/home/yin/imx-optee/imx-optee-os/lib/libutee/tee_api_arith.c:459
    21bc:	447b      	add	r3, pc
    21be:	689b      	ldr	r3, [r3, #8]
    21c0:	f004 bc9c 	b.w	6afc <mpa_inv_mod>
    21c4:	0000593d 	.word	0x0000593d
    21c8:	00006ef4 	.word	0x00006ef4

000021cc <TEE_BigIntRelativePrime>:
TEE_BigIntRelativePrime():
/home/yin/imx-optee/imx-optee-os/lib/libutee/tee_api_arith.c:470
    21cc:	b5f7      	push	{r0, r1, r2, r4, r5, r6, r7, lr}
/home/yin/imx-optee/imx-optee-os/lib/libutee/tee_api_arith.c:476
    21ce:	ad01      	add	r5, sp, #4
    21d0:	4c0d      	ldr	r4, [pc, #52]	; (2208 <TEE_BigIntRelativePrime+0x3c>)
/home/yin/imx-optee/imx-optee-os/lib/libutee/tee_api_arith.c:470
    21d2:	4606      	mov	r6, r0
    21d4:	460f      	mov	r7, r1
/home/yin/imx-optee/imx-optee-os/lib/libutee/tee_api_arith.c:476
    21d6:	4628      	mov	r0, r5
    21d8:	447c      	add	r4, pc
    21da:	68a1      	ldr	r1, [r4, #8]
    21dc:	f003 fe18 	bl	5e10 <mpa_alloc_static_temp_var>
/home/yin/imx-optee/imx-optee-os/lib/libutee/tee_api_arith.c:478
    21e0:	68a3      	ldr	r3, [r4, #8]
    21e2:	463a      	mov	r2, r7
    21e4:	4631      	mov	r1, r6
    21e6:	9801      	ldr	r0, [sp, #4]
    21e8:	f003 fd0c 	bl	5c04 <mpa_gcd>
/home/yin/imx-optee/imx-optee-os/lib/libutee/tee_api_arith.c:479
    21ec:	2101      	movs	r1, #1
    21ee:	9801      	ldr	r0, [sp, #4]
    21f0:	f004 fbc5 	bl	697e <mpa_cmp_short>
/home/yin/imx-optee/imx-optee-os/lib/libutee/tee_api_arith.c:481
    21f4:	68a1      	ldr	r1, [r4, #8]
/home/yin/imx-optee/imx-optee-os/lib/libutee/tee_api_arith.c:479
    21f6:	4606      	mov	r6, r0
/home/yin/imx-optee/imx-optee-os/lib/libutee/tee_api_arith.c:481
    21f8:	4628      	mov	r0, r5
    21fa:	f003 fe0e 	bl	5e1a <mpa_free_static_temp_var>
/home/yin/imx-optee/imx-optee-os/lib/libutee/tee_api_arith.c:484
    21fe:	fab6 f086 	clz	r0, r6
    2202:	0940      	lsrs	r0, r0, #5
    2204:	b003      	add	sp, #12
    2206:	bdf0      	pop	{r4, r5, r6, r7, pc}
    2208:	00006ed8 	.word	0x00006ed8

0000220c <TEE_BigIntComputeExtendedGcd>:
TEE_BigIntComputeExtendedGcd():
/home/yin/imx-optee/imx-optee-os/lib/libutee/tee_api_arith.c:492
    220c:	b513      	push	{r0, r1, r4, lr}
/home/yin/imx-optee/imx-optee-os/lib/libutee/tee_api_arith.c:499
    220e:	4c05      	ldr	r4, [pc, #20]	; (2224 <TEE_BigIntComputeExtendedGcd+0x18>)
    2210:	447c      	add	r4, pc
    2212:	68a4      	ldr	r4, [r4, #8]
    2214:	9401      	str	r4, [sp, #4]
    2216:	9c04      	ldr	r4, [sp, #16]
    2218:	9400      	str	r4, [sp, #0]
    221a:	f003 fd48 	bl	5cae <mpa_extended_gcd>
/home/yin/imx-optee/imx-optee-os/lib/libutee/tee_api_arith.c:500
    221e:	b002      	add	sp, #8
    2220:	bd10      	pop	{r4, pc}
    2222:	bf00      	nop
    2224:	00006ea0 	.word	0x00006ea0

00002228 <TEE_BigIntIsProbablePrime>:
TEE_BigIntIsProbablePrime():
/home/yin/imx-optee/imx-optee-os/lib/libutee/tee_api_arith.c:516
    2228:	4b06      	ldr	r3, [pc, #24]	; (2244 <TEE_BigIntIsProbablePrime+0x1c>)
    222a:	f5b1 7f80 	cmp.w	r1, #256	; 0x100
    222e:	bf28      	it	cs
    2230:	f44f 7180 	movcs.w	r1, #256	; 0x100
    2234:	2950      	cmp	r1, #80	; 0x50
    2236:	447b      	add	r3, pc
    2238:	bf38      	it	cc
    223a:	2150      	movcc	r1, #80	; 0x50
    223c:	689a      	ldr	r2, [r3, #8]
    223e:	f002 b9f5 	b.w	462c <mpa_is_prob_prime>
    2242:	bf00      	nop
    2244:	00006e7a 	.word	0x00006e7a

00002248 <TEE_BigIntConvertToFMM>:
TEE_BigIntConvertToFMM():
/home/yin/imx-optee/imx-optee-os/lib/libutee/tee_api_arith.c:530
    2248:	b513      	push	{r0, r1, r4, lr}
    224a:	461c      	mov	r4, r3
/home/yin/imx-optee/imx-optee-os/lib/libutee/tee_api_arith.c:537
    224c:	4b05      	ldr	r3, [pc, #20]	; (2264 <TEE_BigIntConvertToFMM+0x1c>)
    224e:	447b      	add	r3, pc
    2250:	689b      	ldr	r3, [r3, #8]
    2252:	9301      	str	r3, [sp, #4]
    2254:	68a3      	ldr	r3, [r4, #8]
    2256:	9300      	str	r3, [sp, #0]
    2258:	4613      	mov	r3, r2
    225a:	6862      	ldr	r2, [r4, #4]
    225c:	f002 f9c8 	bl	45f0 <mpa_montgomery_mul>
/home/yin/imx-optee/imx-optee-os/lib/libutee/tee_api_arith.c:539
    2260:	b002      	add	sp, #8
    2262:	bd10      	pop	{r4, pc}
    2264:	00006e62 	.word	0x00006e62

00002268 <TEE_BigIntConvertFromFMM>:
TEE_BigIntConvertFromFMM():
/home/yin/imx-optee/imx-optee-os/lib/libutee/tee_api_arith.c:548
    2268:	e92d 47ff 	stmdb	sp!, {r0, r1, r2, r3, r4, r5, r6, r7, r8, r9, sl, lr}
/home/yin/imx-optee/imx-optee-os/lib/libutee/tee_api_arith.c:560
    226c:	ac03      	add	r4, sp, #12
    226e:	4d11      	ldr	r5, [pc, #68]	; (22b4 <TEE_BigIntConvertFromFMM+0x4c>)
/home/yin/imx-optee/imx-optee-os/lib/libutee/tee_api_arith.c:548
    2270:	4606      	mov	r6, r0
    2272:	4688      	mov	r8, r1
/home/yin/imx-optee/imx-optee-os/lib/libutee/tee_api_arith.c:560
    2274:	4620      	mov	r0, r4
/home/yin/imx-optee/imx-optee-os/lib/libutee/tee_api_arith.c:548
    2276:	4691      	mov	r9, r2
    2278:	469a      	mov	sl, r3
/home/yin/imx-optee/imx-optee-os/lib/libutee/tee_api_arith.c:560
    227a:	447d      	add	r5, pc
    227c:	68a9      	ldr	r1, [r5, #8]
    227e:	f003 fdc7 	bl	5e10 <mpa_alloc_static_temp_var>
/home/yin/imx-optee/imx-optee-os/lib/libutee/tee_api_arith.c:563
    2282:	9f03      	ldr	r7, [sp, #12]
    2284:	f002 f89a 	bl	43bc <mpa_constant_one>
    2288:	68ab      	ldr	r3, [r5, #8]
    228a:	4642      	mov	r2, r8
    228c:	4601      	mov	r1, r0
    228e:	4638      	mov	r0, r7
    2290:	9301      	str	r3, [sp, #4]
    2292:	f8da 3008 	ldr.w	r3, [sl, #8]
    2296:	9300      	str	r3, [sp, #0]
    2298:	464b      	mov	r3, r9
    229a:	f002 f9a9 	bl	45f0 <mpa_montgomery_mul>
/home/yin/imx-optee/imx-optee-os/lib/libutee/tee_api_arith.c:566
    229e:	9903      	ldr	r1, [sp, #12]
    22a0:	4630      	mov	r0, r6
    22a2:	f002 f837 	bl	4314 <mpa_copy>
/home/yin/imx-optee/imx-optee-os/lib/libutee/tee_api_arith.c:567
    22a6:	68a9      	ldr	r1, [r5, #8]
    22a8:	4620      	mov	r0, r4
    22aa:	f003 fdb6 	bl	5e1a <mpa_free_static_temp_var>
/home/yin/imx-optee/imx-optee-os/lib/libutee/tee_api_arith.c:568
    22ae:	b004      	add	sp, #16
    22b0:	e8bd 87f0 	ldmia.w	sp!, {r4, r5, r6, r7, r8, r9, sl, pc}
    22b4:	00006e36 	.word	0x00006e36

000022b8 <TEE_BigIntComputeFMM>:
TEE_BigIntComputeFMM():
/home/yin/imx-optee/imx-optee-os/lib/libutee/tee_api_arith.c:578
    22b8:	b513      	push	{r0, r1, r4, lr}
/home/yin/imx-optee/imx-optee-os/lib/libutee/tee_api_arith.c:585
    22ba:	4c05      	ldr	r4, [pc, #20]	; (22d0 <TEE_BigIntComputeFMM+0x18>)
    22bc:	447c      	add	r4, pc
    22be:	68a4      	ldr	r4, [r4, #8]
    22c0:	9401      	str	r4, [sp, #4]
    22c2:	9c04      	ldr	r4, [sp, #16]
    22c4:	68a4      	ldr	r4, [r4, #8]
    22c6:	9400      	str	r4, [sp, #0]
    22c8:	f002 f992 	bl	45f0 <mpa_montgomery_mul>
/home/yin/imx-optee/imx-optee-os/lib/libutee/tee_api_arith.c:587
    22cc:	b002      	add	sp, #8
    22ce:	bd10      	pop	{r4, pc}
    22d0:	00006df4 	.word	0x00006df4

000022d4 <TEE_BigInt_Panic>:
TEE_BigInt_Panic():
/home/yin/imx-optee/imx-optee-os/lib/libutee/tee_api_arith.c:36
    22d4:	4601      	mov	r1, r0
    22d6:	4805      	ldr	r0, [pc, #20]	; (22ec <TEE_BigInt_Panic+0x18>)
/home/yin/imx-optee/imx-optee-os/lib/libutee/tee_api_arith.c:35
    22d8:	b508      	push	{r3, lr}
/home/yin/imx-optee/imx-optee-os/lib/libutee/tee_api_arith.c:36
    22da:	4478      	add	r0, pc
    22dc:	f000 fd4f 	bl	2d7e <printf>
/home/yin/imx-optee/imx-optee-os/lib/libutee/tee_api_arith.c:37
    22e0:	4801      	ldr	r0, [pc, #4]	; (22e8 <TEE_BigInt_Panic+0x14>)
    22e2:	f002 fdcf 	bl	4e84 <TEE_Panic>
    22e6:	e7fe      	b.n	22e6 <TEE_BigInt_Panic+0x12>
    22e8:	00b16127 	.word	0x00b16127
    22ec:	000057d1 	.word	0x000057d1

000022f0 <__utee_from_param>:
__utee_from_param():
/home/yin/imx-optee/imx-optee-os/lib/libutee/tee_api.c:23
    22f0:	2300      	movs	r3, #0
/home/yin/imx-optee/imx-optee-os/lib/libutee/tee_api.c:20
    22f2:	b5f0      	push	{r4, r5, r6, r7, lr}
    22f4:	4694      	mov	ip, r2
    22f6:	4615      	mov	r5, r2
/home/yin/imx-optee/imx-optee-os/lib/libutee/tee_api.c:39
    22f8:	2600      	movs	r6, #0
    22fa:	2700      	movs	r7, #0
/home/yin/imx-optee/imx-optee-os/lib/libutee/tee_api.c:35
    22fc:	461a      	mov	r2, r3
/home/yin/imx-optee/imx-optee-os/lib/libutee/tee_api.c:23
    22fe:	e880 000a 	stmia.w	r0, {r1, r3}
/home/yin/imx-optee/imx-optee-os/lib/libutee/tee_api.c:25
    2302:	fa21 f403 	lsr.w	r4, r1, r3
    2306:	f004 040f 	and.w	r4, r4, #15
    230a:	3c01      	subs	r4, #1
    230c:	2c06      	cmp	r4, #6
    230e:	d813      	bhi.n	2338 <__utee_from_param+0x48>
    2310:	e8df f004 	tbb	[pc, r4]
    2314:	12040404 	.word	0x12040404
    2318:	0404      	.short	0x0404
    231a:	04          	.byte	0x04
    231b:	00          	.byte	0x00
/home/yin/imx-optee/imx-optee-os/lib/libutee/tee_api.c:35
    231c:	f85c 4013 	ldr.w	r4, [ip, r3, lsl #1]
    2320:	60c2      	str	r2, [r0, #12]
    2322:	6084      	str	r4, [r0, #8]
/home/yin/imx-optee/imx-optee-os/lib/libutee/tee_api.c:36
    2324:	686c      	ldr	r4, [r5, #4]
    2326:	6142      	str	r2, [r0, #20]
    2328:	6104      	str	r4, [r0, #16]
    232a:	3304      	adds	r3, #4
    232c:	3508      	adds	r5, #8
/home/yin/imx-optee/imx-optee-os/lib/libutee/tee_api.c:24 (discriminator 2)
    232e:	2b10      	cmp	r3, #16
    2330:	f100 0010 	add.w	r0, r0, #16
    2334:	d1e5      	bne.n	2302 <__utee_from_param+0x12>
/home/yin/imx-optee/imx-optee-os/lib/libutee/tee_api.c:44
    2336:	bdf0      	pop	{r4, r5, r6, r7, pc}
/home/yin/imx-optee/imx-optee-os/lib/libutee/tee_api.c:39
    2338:	e9c0 6702 	strd	r6, r7, [r0, #8]
/home/yin/imx-optee/imx-optee-os/lib/libutee/tee_api.c:40
    233c:	e9c0 6704 	strd	r6, r7, [r0, #16]
/home/yin/imx-optee/imx-optee-os/lib/libutee/tee_api.c:41
    2340:	e7f3      	b.n	232a <__utee_from_param+0x3a>

00002342 <__utee_to_param>:
__utee_to_param():
/home/yin/imx-optee/imx-optee-os/lib/libutee/tee_api.c:48
    2342:	b5f0      	push	{r4, r5, r6, r7, lr}
/home/yin/imx-optee/imx-optee-os/lib/libutee/tee_api.c:50
    2344:	2300      	movs	r3, #0
    2346:	6816      	ldr	r6, [r2, #0]
    2348:	4605      	mov	r5, r0
/home/yin/imx-optee/imx-optee-os/lib/libutee/tee_api.c:56
    234a:	fa26 f403 	lsr.w	r4, r6, r3
/home/yin/imx-optee/imx-optee-os/lib/libutee/tee_api.c:53
    234e:	f8d2 c008 	ldr.w	ip, [r2, #8]
/home/yin/imx-optee/imx-optee-os/lib/libutee/tee_api.c:56
    2352:	f004 040f 	and.w	r4, r4, #15
/home/yin/imx-optee/imx-optee-os/lib/libutee/tee_api.c:54
    2356:	6917      	ldr	r7, [r2, #16]
/home/yin/imx-optee/imx-optee-os/lib/libutee/tee_api.c:56
    2358:	3c01      	subs	r4, #1
    235a:	2c06      	cmp	r4, #6
    235c:	d808      	bhi.n	2370 <__utee_to_param+0x2e>
    235e:	e8df f004 	tbb	[pc, r4]
    2362:	0404      	.short	0x0404
    2364:	04040704 	.word	0x04040704
    2368:	04          	.byte	0x04
    2369:	00          	.byte	0x00
/home/yin/imx-optee/imx-optee-os/lib/libutee/tee_api.c:66
    236a:	f840 c013 	str.w	ip, [r0, r3, lsl #1]
/home/yin/imx-optee/imx-optee-os/lib/libutee/tee_api.c:67
    236e:	606f      	str	r7, [r5, #4]
    2370:	3304      	adds	r3, #4
    2372:	3210      	adds	r2, #16
/home/yin/imx-optee/imx-optee-os/lib/libutee/tee_api.c:52 (discriminator 2)
    2374:	2b10      	cmp	r3, #16
    2376:	f105 0508 	add.w	r5, r5, #8
    237a:	d1e6      	bne.n	234a <__utee_to_param+0x8>
/home/yin/imx-optee/imx-optee-os/lib/libutee/tee_api.c:74
    237c:	b101      	cbz	r1, 2380 <__utee_to_param+0x3e>
/home/yin/imx-optee/imx-optee-os/lib/libutee/tee_api.c:75
    237e:	600e      	str	r6, [r1, #0]
    2380:	bdf0      	pop	{r4, r5, r6, r7, pc}

00002382 <TEE_OpenTASession>:
TEE_OpenTASession():
/home/yin/imx-optee/imx-optee-os/lib/libutee/tee_api.c:84
    2382:	b5f0      	push	{r4, r5, r6, r7, lr}
    2384:	b097      	sub	sp, #92	; 0x5c
/home/yin/imx-optee/imx-optee-os/lib/libutee/tee_api.c:89
    2386:	ac04      	add	r4, sp, #16
/home/yin/imx-optee/imx-optee-os/lib/libutee/tee_api.c:84
    2388:	4605      	mov	r5, r0
    238a:	460f      	mov	r7, r1
/home/yin/imx-optee/imx-optee-os/lib/libutee/tee_api.c:89
    238c:	4620      	mov	r0, r4
/home/yin/imx-optee/imx-optee-os/lib/libutee/tee_api.c:84
    238e:	4611      	mov	r1, r2
/home/yin/imx-optee/imx-optee-os/lib/libutee/tee_api.c:89
    2390:	461a      	mov	r2, r3
/home/yin/imx-optee/imx-optee-os/lib/libutee/tee_api.c:84
    2392:	461e      	mov	r6, r3
/home/yin/imx-optee/imx-optee-os/lib/libutee/tee_api.c:89
    2394:	f7ff ffac 	bl	22f0 <__utee_from_param>
/home/yin/imx-optee/imx-optee-os/lib/libutee/tee_api.c:90
    2398:	9b1d      	ldr	r3, [sp, #116]	; 0x74
    239a:	4622      	mov	r2, r4
    239c:	4639      	mov	r1, r7
    239e:	4628      	mov	r0, r5
    23a0:	9300      	str	r3, [sp, #0]
    23a2:	ab03      	add	r3, sp, #12
    23a4:	f7ff eaa0 	blx	18e8 <utee_open_ta_session>
    23a8:	4605      	mov	r5, r0
/home/yin/imx-optee/imx-optee-os/lib/libutee/tee_api.c:92
    23aa:	4622      	mov	r2, r4
    23ac:	2100      	movs	r1, #0
    23ae:	4630      	mov	r0, r6
    23b0:	f7ff ffc7 	bl	2342 <__utee_to_param>
/home/yin/imx-optee/imx-optee-os/lib/libutee/tee_api.c:98
    23b4:	b10d      	cbz	r5, 23ba <TEE_OpenTASession+0x38>
/home/yin/imx-optee/imx-optee-os/lib/libutee/tee_api.c:99
    23b6:	2300      	movs	r3, #0
    23b8:	9303      	str	r3, [sp, #12]
/home/yin/imx-optee/imx-optee-os/lib/libutee/tee_api.c:101
    23ba:	9a03      	ldr	r2, [sp, #12]
/home/yin/imx-optee/imx-optee-os/lib/libutee/tee_api.c:103
    23bc:	4628      	mov	r0, r5
/home/yin/imx-optee/imx-optee-os/lib/libutee/tee_api.c:101
    23be:	9b1c      	ldr	r3, [sp, #112]	; 0x70
    23c0:	601a      	str	r2, [r3, #0]
/home/yin/imx-optee/imx-optee-os/lib/libutee/tee_api.c:103
    23c2:	b017      	add	sp, #92	; 0x5c
    23c4:	bdf0      	pop	{r4, r5, r6, r7, pc}

000023c6 <TEE_CloseTASession>:
TEE_CloseTASession():
/home/yin/imx-optee/imx-optee-os/lib/libutee/tee_api.c:106
    23c6:	b508      	push	{r3, lr}
/home/yin/imx-optee/imx-optee-os/lib/libutee/tee_api.c:107
    23c8:	b130      	cbz	r0, 23d8 <TEE_CloseTASession+0x12>
/home/yin/imx-optee/imx-optee-os/lib/libutee/tee_api.c:108
    23ca:	f7ff ea9a 	blx	1900 <utee_close_ta_session>
/home/yin/imx-optee/imx-optee-os/lib/libutee/tee_api.c:110
    23ce:	b118      	cbz	r0, 23d8 <TEE_CloseTASession+0x12>
/home/yin/imx-optee/imx-optee-os/lib/libutee/tee_api.c:113
    23d0:	e8bd 4008 	ldmia.w	sp!, {r3, lr}
/home/yin/imx-optee/imx-optee-os/lib/libutee/tee_api.c:111
    23d4:	f002 bd56 	b.w	4e84 <TEE_Panic>
    23d8:	bd08      	pop	{r3, pc}

000023da <TEE_InvokeTACommand>:
TEE_InvokeTACommand():
/home/yin/imx-optee/imx-optee-os/lib/libutee/tee_api.c:120
    23da:	e92d 41f0 	stmdb	sp!, {r4, r5, r6, r7, r8, lr}
    23de:	b096      	sub	sp, #88	; 0x58
/home/yin/imx-optee/imx-optee-os/lib/libutee/tee_api.c:125
    23e0:	ad04      	add	r5, sp, #16
/home/yin/imx-optee/imx-optee-os/lib/libutee/tee_api.c:120
    23e2:	4604      	mov	r4, r0
    23e4:	460f      	mov	r7, r1
    23e6:	4690      	mov	r8, r2
/home/yin/imx-optee/imx-optee-os/lib/libutee/tee_api.c:125
    23e8:	4619      	mov	r1, r3
    23ea:	9a1c      	ldr	r2, [sp, #112]	; 0x70
    23ec:	4628      	mov	r0, r5
/home/yin/imx-optee/imx-optee-os/lib/libutee/tee_api.c:120
    23ee:	9e1d      	ldr	r6, [sp, #116]	; 0x74
/home/yin/imx-optee/imx-optee-os/lib/libutee/tee_api.c:125
    23f0:	f7ff ff7e 	bl	22f0 <__utee_from_param>
/home/yin/imx-optee/imx-optee-os/lib/libutee/tee_api.c:126
    23f4:	ab03      	add	r3, sp, #12
    23f6:	4642      	mov	r2, r8
    23f8:	9300      	str	r3, [sp, #0]
    23fa:	4639      	mov	r1, r7
    23fc:	462b      	mov	r3, r5
    23fe:	4620      	mov	r0, r4
    2400:	f7ff ea88 	blx	1914 <utee_invoke_ta_command>
/home/yin/imx-optee/imx-optee-os/lib/libutee/tee_api.c:129
    2404:	462a      	mov	r2, r5
/home/yin/imx-optee/imx-optee-os/lib/libutee/tee_api.c:126
    2406:	4604      	mov	r4, r0
/home/yin/imx-optee/imx-optee-os/lib/libutee/tee_api.c:129
    2408:	2100      	movs	r1, #0
    240a:	981c      	ldr	r0, [sp, #112]	; 0x70
    240c:	f7ff ff99 	bl	2342 <__utee_to_param>
    2410:	9b03      	ldr	r3, [sp, #12]
/home/yin/imx-optee/imx-optee-os/lib/libutee/tee_api.c:131
    2412:	b106      	cbz	r6, 2416 <TEE_InvokeTACommand+0x3c>
/home/yin/imx-optee/imx-optee-os/lib/libutee/tee_api.c:132
    2414:	6033      	str	r3, [r6, #0]
/home/yin/imx-optee/imx-optee-os/lib/libutee/tee_api.c:134
    2416:	2b04      	cmp	r3, #4
    2418:	d009      	beq.n	242e <TEE_InvokeTACommand+0x54>
/home/yin/imx-optee/imx-optee-os/lib/libutee/tee_api.c:137
    241a:	b144      	cbz	r4, 242e <TEE_InvokeTACommand+0x54>
/home/yin/imx-optee/imx-optee-os/lib/libutee/tee_api.c:137 (discriminator 1)
    241c:	4b06      	ldr	r3, [pc, #24]	; (2438 <TEE_InvokeTACommand+0x5e>)
    241e:	429c      	cmp	r4, r3
    2420:	d005      	beq.n	242e <TEE_InvokeTACommand+0x54>
/home/yin/imx-optee/imx-optee-os/lib/libutee/tee_api.c:138
    2422:	4b06      	ldr	r3, [pc, #24]	; (243c <TEE_InvokeTACommand+0x62>)
    2424:	429c      	cmp	r4, r3
    2426:	d002      	beq.n	242e <TEE_InvokeTACommand+0x54>
/home/yin/imx-optee/imx-optee-os/lib/libutee/tee_api.c:140
    2428:	4620      	mov	r0, r4
    242a:	f002 fd2b 	bl	4e84 <TEE_Panic>
/home/yin/imx-optee/imx-optee-os/lib/libutee/tee_api.c:143
    242e:	4620      	mov	r0, r4
    2430:	b016      	add	sp, #88	; 0x58
    2432:	e8bd 81f0 	ldmia.w	sp!, {r4, r5, r6, r7, r8, pc}
    2436:	bf00      	nop
    2438:	ffff000c 	.word	0xffff000c
    243c:	ffff3024 	.word	0xffff3024

00002440 <TEE_GetCancellationFlag>:
TEE_GetCancellationFlag():
/home/yin/imx-optee/imx-optee-os/lib/libutee/tee_api.c:148
    2440:	b507      	push	{r0, r1, r2, lr}
/home/yin/imx-optee/imx-optee-os/lib/libutee/tee_api.c:150
    2442:	a801      	add	r0, sp, #4
    2444:	f7ff ea72 	blx	192c <utee_get_cancellation_flag>
/home/yin/imx-optee/imx-optee-os/lib/libutee/tee_api.c:152
    2448:	b108      	cbz	r0, 244e <TEE_GetCancellationFlag+0xe>
/home/yin/imx-optee/imx-optee-os/lib/libutee/tee_api.c:153
    244a:	2300      	movs	r3, #0
    244c:	9301      	str	r3, [sp, #4]
/home/yin/imx-optee/imx-optee-os/lib/libutee/tee_api.c:155
    244e:	9801      	ldr	r0, [sp, #4]
    2450:	3000      	adds	r0, #0
    2452:	bf18      	it	ne
    2454:	2001      	movne	r0, #1
    2456:	b003      	add	sp, #12
    2458:	f85d fb04 	ldr.w	pc, [sp], #4

0000245c <TEE_UnmaskCancellation>:
TEE_UnmaskCancellation():
/home/yin/imx-optee/imx-optee-os/lib/libutee/tee_api.c:158
    245c:	b507      	push	{r0, r1, r2, lr}
/home/yin/imx-optee/imx-optee-os/lib/libutee/tee_api.c:160
    245e:	a801      	add	r0, sp, #4
    2460:	f7ff ea78 	blx	1954 <utee_unmask_cancellation>
/home/yin/imx-optee/imx-optee-os/lib/libutee/tee_api.c:162
    2464:	b108      	cbz	r0, 246a <TEE_UnmaskCancellation+0xe>
/home/yin/imx-optee/imx-optee-os/lib/libutee/tee_api.c:163
    2466:	f002 fd0d 	bl	4e84 <TEE_Panic>
/home/yin/imx-optee/imx-optee-os/lib/libutee/tee_api.c:165
    246a:	9801      	ldr	r0, [sp, #4]
    246c:	3000      	adds	r0, #0
    246e:	bf18      	it	ne
    2470:	2001      	movne	r0, #1
    2472:	b003      	add	sp, #12
    2474:	f85d fb04 	ldr.w	pc, [sp], #4

00002478 <TEE_MaskCancellation>:
TEE_MaskCancellation():
/home/yin/imx-optee/imx-optee-os/lib/libutee/tee_api.c:168
    2478:	b507      	push	{r0, r1, r2, lr}
/home/yin/imx-optee/imx-optee-os/lib/libutee/tee_api.c:170
    247a:	a801      	add	r0, sp, #4
    247c:	f7ff ea74 	blx	1968 <utee_mask_cancellation>
/home/yin/imx-optee/imx-optee-os/lib/libutee/tee_api.c:172
    2480:	b108      	cbz	r0, 2486 <TEE_MaskCancellation+0xe>
/home/yin/imx-optee/imx-optee-os/lib/libutee/tee_api.c:173
    2482:	f002 fcff 	bl	4e84 <TEE_Panic>
/home/yin/imx-optee/imx-optee-os/lib/libutee/tee_api.c:175
    2486:	9801      	ldr	r0, [sp, #4]
    2488:	3000      	adds	r0, #0
    248a:	bf18      	it	ne
    248c:	2001      	movne	r0, #1
    248e:	b003      	add	sp, #12
    2490:	f85d fb04 	ldr.w	pc, [sp], #4

00002494 <TEE_CheckMemoryAccessRights>:
TEE_CheckMemoryAccessRights():
/home/yin/imx-optee/imx-optee-os/lib/libutee/tee_api.c:184
    2494:	b10a      	cbz	r2, 249a <TEE_CheckMemoryAccessRights+0x6>
/home/yin/imx-optee/imx-optee-os/lib/libutee/tee_api.c:188
    2496:	f004 bb83 	b.w	6ba0 <__utee_check_access_rights_from_thumb>
/home/yin/imx-optee/imx-optee-os/lib/libutee/tee_api.c:200
    249a:	4610      	mov	r0, r2
    249c:	4770      	bx	lr

0000249e <TEE_SetInstanceData>:
TEE_SetInstanceData():
/home/yin/imx-optee/imx-optee-os/lib/libutee/tee_api.c:204
    249e:	4b02      	ldr	r3, [pc, #8]	; (24a8 <TEE_SetInstanceData+0xa>)
    24a0:	447b      	add	r3, pc
    24a2:	6018      	str	r0, [r3, #0]
    24a4:	4770      	bx	lr
    24a6:	bf00      	nop
    24a8:	0000850c 	.word	0x0000850c

000024ac <TEE_GetInstanceData>:
TEE_GetInstanceData():
/home/yin/imx-optee/imx-optee-os/lib/libutee/tee_api.c:210
    24ac:	4b01      	ldr	r3, [pc, #4]	; (24b4 <TEE_GetInstanceData+0x8>)
    24ae:	447b      	add	r3, pc
    24b0:	6818      	ldr	r0, [r3, #0]
    24b2:	4770      	bx	lr
    24b4:	000084fe 	.word	0x000084fe

000024b8 <TEE_MemMove>:
TEE_MemMove():
/home/yin/imx-optee/imx-optee-os/lib/libutee/tee_api.c:214
    24b8:	f002 bd16 	b.w	4ee8 <memmove>

000024bc <TEE_MemCompare>:
TEE_MemCompare():
/home/yin/imx-optee/imx-optee-os/lib/libutee/tee_api.c:219
    24bc:	f002 bcfa 	b.w	4eb4 <memcmp>

000024c0 <TEE_MemFill>:
TEE_MemFill():
/home/yin/imx-optee/imx-optee-os/lib/libutee/tee_api.c:224
    24c0:	f002 bd2c 	b.w	4f1c <memset>

000024c4 <TEE_GetSystemTime>:
TEE_GetSystemTime():
/home/yin/imx-optee/imx-optee-os/lib/libutee/tee_api.c:230
    24c4:	b508      	push	{r3, lr}
/home/yin/imx-optee/imx-optee-os/lib/libutee/tee_api.c:231
    24c6:	4601      	mov	r1, r0
    24c8:	2000      	movs	r0, #0
    24ca:	f7ff ea62 	blx	1990 <utee_get_time>
/home/yin/imx-optee/imx-optee-os/lib/libutee/tee_api.c:233
    24ce:	b118      	cbz	r0, 24d8 <TEE_GetSystemTime+0x14>
/home/yin/imx-optee/imx-optee-os/lib/libutee/tee_api.c:235
    24d0:	e8bd 4008 	ldmia.w	sp!, {r3, lr}
/home/yin/imx-optee/imx-optee-os/lib/libutee/tee_api.c:234
    24d4:	f002 bcd6 	b.w	4e84 <TEE_Panic>
    24d8:	bd08      	pop	{r3, pc}

000024da <TEE_Wait>:
TEE_Wait():
/home/yin/imx-optee/imx-optee-os/lib/libutee/tee_api.c:238
    24da:	b510      	push	{r4, lr}
/home/yin/imx-optee/imx-optee-os/lib/libutee/tee_api.c:239
    24dc:	f7ff ea4e 	blx	197c <utee_wait>
/home/yin/imx-optee/imx-optee-os/lib/libutee/tee_api.c:241
    24e0:	4604      	mov	r4, r0
    24e2:	b120      	cbz	r0, 24ee <TEE_Wait+0x14>
/home/yin/imx-optee/imx-optee-os/lib/libutee/tee_api.c:241 (discriminator 1)
    24e4:	4b03      	ldr	r3, [pc, #12]	; (24f4 <TEE_Wait+0x1a>)
    24e6:	4298      	cmp	r0, r3
    24e8:	d001      	beq.n	24ee <TEE_Wait+0x14>
/home/yin/imx-optee/imx-optee-os/lib/libutee/tee_api.c:242
    24ea:	f002 fccb 	bl	4e84 <TEE_Panic>
/home/yin/imx-optee/imx-optee-os/lib/libutee/tee_api.c:245
    24ee:	4620      	mov	r0, r4
    24f0:	bd10      	pop	{r4, pc}
    24f2:	bf00      	nop
    24f4:	ffff0002 	.word	0xffff0002

000024f8 <TEE_GetTAPersistentTime>:
TEE_GetTAPersistentTime():
/home/yin/imx-optee/imx-optee-os/lib/libutee/tee_api.c:248
    24f8:	b538      	push	{r3, r4, r5, lr}
/home/yin/imx-optee/imx-optee-os/lib/libutee/tee_api.c:251
    24fa:	4601      	mov	r1, r0
/home/yin/imx-optee/imx-optee-os/lib/libutee/tee_api.c:248
    24fc:	4605      	mov	r5, r0
/home/yin/imx-optee/imx-optee-os/lib/libutee/tee_api.c:251
    24fe:	2001      	movs	r0, #1
    2500:	f7ff ea46 	blx	1990 <utee_get_time>
/home/yin/imx-optee/imx-optee-os/lib/libutee/tee_api.c:253
    2504:	4604      	mov	r4, r0
    2506:	b170      	cbz	r0, 2526 <TEE_GetTAPersistentTime+0x2e>
/home/yin/imx-optee/imx-optee-os/lib/libutee/tee_api.c:253 (discriminator 1)
    2508:	4b08      	ldr	r3, [pc, #32]	; (252c <TEE_GetTAPersistentTime+0x34>)
    250a:	4298      	cmp	r0, r3
    250c:	d00b      	beq.n	2526 <TEE_GetTAPersistentTime+0x2e>
/home/yin/imx-optee/imx-optee-os/lib/libutee/tee_api.c:254
    250e:	2300      	movs	r3, #0
    2510:	602b      	str	r3, [r5, #0]
/home/yin/imx-optee/imx-optee-os/lib/libutee/tee_api.c:255
    2512:	606b      	str	r3, [r5, #4]
/home/yin/imx-optee/imx-optee-os/lib/libutee/tee_api.c:258
    2514:	f500 4330 	add.w	r3, r0, #45056	; 0xb000
    2518:	2b01      	cmp	r3, #1
    251a:	d904      	bls.n	2526 <TEE_GetTAPersistentTime+0x2e>
/home/yin/imx-optee/imx-optee-os/lib/libutee/tee_api.c:261
    251c:	4b04      	ldr	r3, [pc, #16]	; (2530 <TEE_GetTAPersistentTime+0x38>)
    251e:	4298      	cmp	r0, r3
    2520:	d001      	beq.n	2526 <TEE_GetTAPersistentTime+0x2e>
/home/yin/imx-optee/imx-optee-os/lib/libutee/tee_api.c:263
    2522:	f002 fcaf 	bl	4e84 <TEE_Panic>
/home/yin/imx-optee/imx-optee-os/lib/libutee/tee_api.c:266
    2526:	4620      	mov	r0, r4
    2528:	bd38      	pop	{r3, r4, r5, pc}
    252a:	bf00      	nop
    252c:	ffff300f 	.word	0xffff300f
    2530:	ffff000c 	.word	0xffff000c

00002534 <TEE_SetTAPersistentTime>:
TEE_SetTAPersistentTime():
/home/yin/imx-optee/imx-optee-os/lib/libutee/tee_api.c:269
    2534:	b510      	push	{r4, lr}
/home/yin/imx-optee/imx-optee-os/lib/libutee/tee_api.c:272
    2536:	f7ff ea36 	blx	19a4 <utee_set_ta_time>
/home/yin/imx-optee/imx-optee-os/lib/libutee/tee_api.c:274
    253a:	4604      	mov	r4, r0
    253c:	b138      	cbz	r0, 254e <TEE_SetTAPersistentTime+0x1a>
/home/yin/imx-optee/imx-optee-os/lib/libutee/tee_api.c:274 (discriminator 1)
    253e:	4b05      	ldr	r3, [pc, #20]	; (2554 <TEE_SetTAPersistentTime+0x20>)
    2540:	4298      	cmp	r0, r3
    2542:	d004      	beq.n	254e <TEE_SetTAPersistentTime+0x1a>
/home/yin/imx-optee/imx-optee-os/lib/libutee/tee_api.c:275
    2544:	4b04      	ldr	r3, [pc, #16]	; (2558 <TEE_SetTAPersistentTime+0x24>)
    2546:	4298      	cmp	r0, r3
    2548:	d001      	beq.n	254e <TEE_SetTAPersistentTime+0x1a>
/home/yin/imx-optee/imx-optee-os/lib/libutee/tee_api.c:277
    254a:	f002 fc9b 	bl	4e84 <TEE_Panic>
/home/yin/imx-optee/imx-optee-os/lib/libutee/tee_api.c:280
    254e:	4620      	mov	r0, r4
    2550:	bd10      	pop	{r4, pc}
    2552:	bf00      	nop
    2554:	ffff000c 	.word	0xffff000c
    2558:	ffff3041 	.word	0xffff3041

0000255c <TEE_GetREETime>:
TEE_GetREETime():
/home/yin/imx-optee/imx-optee-os/lib/libutee/tee_api.c:283
    255c:	b508      	push	{r3, lr}
/home/yin/imx-optee/imx-optee-os/lib/libutee/tee_api.c:284
    255e:	4601      	mov	r1, r0
    2560:	2002      	movs	r0, #2
    2562:	f7ff ea16 	blx	1990 <utee_get_time>
/home/yin/imx-optee/imx-optee-os/lib/libutee/tee_api.c:286
    2566:	b118      	cbz	r0, 2570 <TEE_GetREETime+0x14>
/home/yin/imx-optee/imx-optee-os/lib/libutee/tee_api.c:288
    2568:	e8bd 4008 	ldmia.w	sp!, {r3, lr}
/home/yin/imx-optee/imx-optee-os/lib/libutee/tee_api.c:287
    256c:	f002 bc8a 	b.w	4e84 <TEE_Panic>
    2570:	bd08      	pop	{r3, pc}

00002572 <TEE_Malloc>:
TEE_Malloc():
/home/yin/imx-optee/imx-optee-os/lib/libutee/tee_api.c:291
    2572:	b507      	push	{r0, r1, r2, lr}
/home/yin/imx-optee/imx-optee-os/lib/libutee/tee_api.c:292
    2574:	b931      	cbnz	r1, 2584 <TEE_Malloc+0x12>
/home/yin/imx-optee/imx-optee-os/lib/libutee/tee_api.c:293
    2576:	4601      	mov	r1, r0
    2578:	2001      	movs	r0, #1
/home/yin/imx-optee/imx-optee-os/lib/libutee/tee_api.c:300
    257a:	b003      	add	sp, #12
    257c:	f85d eb04 	ldr.w	lr, [sp], #4
/home/yin/imx-optee/imx-optee-os/lib/libutee/tee_api.c:293
    2580:	f000 beea 	b.w	3358 <calloc>
/home/yin/imx-optee/imx-optee-os/lib/libutee/tee_api.c:294
    2584:	f1b1 4f00 	cmp.w	r1, #2147483648	; 0x80000000
    2588:	d104      	bne.n	2594 <TEE_Malloc+0x22>
/home/yin/imx-optee/imx-optee-os/lib/libutee/tee_api.c:300
    258a:	b003      	add	sp, #12
    258c:	f85d eb04 	ldr.w	lr, [sp], #4
/home/yin/imx-optee/imx-optee-os/lib/libutee/tee_api.c:295
    2590:	f000 bece 	b.w	3330 <malloc>
/home/yin/imx-optee/imx-optee-os/lib/libutee/tee_api.c:297
    2594:	4b07      	ldr	r3, [pc, #28]	; (25b4 <TEE_Malloc+0x42>)
    2596:	4808      	ldr	r0, [pc, #32]	; (25b8 <TEE_Malloc+0x46>)
    2598:	9101      	str	r1, [sp, #4]
    259a:	f240 1129 	movw	r1, #297	; 0x129
    259e:	447b      	add	r3, pc
    25a0:	9300      	str	r3, [sp, #0]
    25a2:	2301      	movs	r3, #1
    25a4:	461a      	mov	r2, r3
    25a6:	4478      	add	r0, pc
    25a8:	f001 fd02 	bl	3fb0 <trace_printf>
/home/yin/imx-optee/imx-optee-os/lib/libutee/tee_api.c:300
    25ac:	2000      	movs	r0, #0
    25ae:	b003      	add	sp, #12
    25b0:	f85d fb04 	ldr.w	pc, [sp], #4
    25b4:	00005573 	.word	0x00005573
    25b8:	00005560 	.word	0x00005560

000025bc <TEE_Realloc>:
TEE_Realloc():
/home/yin/imx-optee/imx-optee-os/lib/libutee/tee_api.c:304
    25bc:	f000 bee0 	b.w	3380 <realloc>

000025c0 <TEE_Free>:
TEE_Free():
/home/yin/imx-optee/imx-optee-os/lib/libutee/tee_api.c:309
    25c0:	f000 bec2 	b.w	3348 <free>

000025c4 <TEE_CacheClean>:
TEE_CacheClean():
/home/yin/imx-optee/imx-optee-os/lib/libutee/tee_api.c:315
    25c4:	2200      	movs	r2, #0
    25c6:	f004 bafb 	b.w	6bc0 <__utee_cache_operation_from_thumb>

000025ca <TEE_CacheFlush>:
TEE_CacheFlush():
/home/yin/imx-optee/imx-optee-os/lib/libutee/tee_api.c:319
    25ca:	2201      	movs	r2, #1
    25cc:	f004 baf8 	b.w	6bc0 <__utee_cache_operation_from_thumb>

000025d0 <TEE_CacheInvalidate>:
TEE_CacheInvalidate():
/home/yin/imx-optee/imx-optee-os/lib/libutee/tee_api.c:324
    25d0:	2202      	movs	r2, #2
    25d2:	f004 baf5 	b.w	6bc0 <__utee_cache_operation_from_thumb>
    25d6:	bf00      	nop

000025d8 <__utee_from_attr>:
__utee_from_attr():
/home/yin/imx-optee/imx-optee-os/lib/libutee/tee_api_objects.c:19
    25d8:	2318      	movs	r3, #24
    25da:	b530      	push	{r4, r5, lr}
    25dc:	fb03 0202 	mla	r2, r3, r2, r0
/home/yin/imx-optee/imx-optee-os/lib/libutee/tee_api_objects.c:25
    25e0:	2400      	movs	r4, #0
/home/yin/imx-optee/imx-optee-os/lib/libutee/tee_api_objects.c:22 (discriminator 1)
    25e2:	4290      	cmp	r0, r2
    25e4:	d100      	bne.n	25e8 <__utee_from_attr+0x10>
/home/yin/imx-optee/imx-optee-os/lib/libutee/tee_api_objects.c:32
    25e6:	bd30      	pop	{r4, r5, pc}
/home/yin/imx-optee/imx-optee-os/lib/libutee/tee_api_objects.c:23
    25e8:	680b      	ldr	r3, [r1, #0]
    25ea:	6103      	str	r3, [r0, #16]
/home/yin/imx-optee/imx-optee-os/lib/libutee/tee_api_objects.c:24
    25ec:	f013 5300 	ands.w	r3, r3, #536870912	; 0x20000000
    25f0:	d008      	beq.n	2604 <__utee_from_attr+0x2c>
/home/yin/imx-optee/imx-optee-os/lib/libutee/tee_api_objects.c:25
    25f2:	684b      	ldr	r3, [r1, #4]
    25f4:	e880 0018 	stmia.w	r0, {r3, r4}
/home/yin/imx-optee/imx-optee-os/lib/libutee/tee_api_objects.c:26
    25f8:	688b      	ldr	r3, [r1, #8]
    25fa:	60c4      	str	r4, [r0, #12]
    25fc:	6083      	str	r3, [r0, #8]
    25fe:	310c      	adds	r1, #12
    2600:	3018      	adds	r0, #24
    2602:	e7ee      	b.n	25e2 <__utee_from_attr+0xa>
/home/yin/imx-optee/imx-optee-os/lib/libutee/tee_api_objects.c:28
    2604:	684d      	ldr	r5, [r1, #4]
    2606:	6043      	str	r3, [r0, #4]
    2608:	6005      	str	r5, [r0, #0]
/home/yin/imx-optee/imx-optee-os/lib/libutee/tee_api_objects.c:29
    260a:	688d      	ldr	r5, [r1, #8]
    260c:	60c3      	str	r3, [r0, #12]
    260e:	6085      	str	r5, [r0, #8]
    2610:	e7f5      	b.n	25fe <__utee_from_attr+0x26>

00002612 <TEE_GetObjectInfo>:
TEE_GetObjectInfo():
/home/yin/imx-optee/imx-optee-os/lib/libutee/tee_api_objects.c:42
    2612:	b510      	push	{r4, lr}
    2614:	460c      	mov	r4, r1
/home/yin/imx-optee/imx-optee-os/lib/libutee/tee_api_objects.c:45
    2616:	f7ff ea32 	blx	1a7c <utee_cryp_obj_get_info>
/home/yin/imx-optee/imx-optee-os/lib/libutee/tee_api_objects.c:47
    261a:	b108      	cbz	r0, 2620 <TEE_GetObjectInfo+0xe>
/home/yin/imx-optee/imx-optee-os/lib/libutee/tee_api_objects.c:48
    261c:	f002 fc32 	bl	4e84 <TEE_Panic>
/home/yin/imx-optee/imx-optee-os/lib/libutee/tee_api_objects.c:50
    2620:	6822      	ldr	r2, [r4, #0]
    2622:	4b05      	ldr	r3, [pc, #20]	; (2638 <TEE_GetObjectInfo+0x26>)
    2624:	429a      	cmp	r2, r3
    2626:	d106      	bne.n	2636 <TEE_GetObjectInfo+0x24>
/home/yin/imx-optee/imx-optee-os/lib/libutee/tee_api_objects.c:51
    2628:	2300      	movs	r3, #0
    262a:	6063      	str	r3, [r4, #4]
/home/yin/imx-optee/imx-optee-os/lib/libutee/tee_api_objects.c:52
    262c:	60a3      	str	r3, [r4, #8]
/home/yin/imx-optee/imx-optee-os/lib/libutee/tee_api_objects.c:53
    262e:	60e3      	str	r3, [r4, #12]
/home/yin/imx-optee/imx-optee-os/lib/libutee/tee_api_objects.c:54
    2630:	6123      	str	r3, [r4, #16]
/home/yin/imx-optee/imx-optee-os/lib/libutee/tee_api_objects.c:55
    2632:	6163      	str	r3, [r4, #20]
/home/yin/imx-optee/imx-optee-os/lib/libutee/tee_api_objects.c:56
    2634:	61a3      	str	r3, [r4, #24]
    2636:	bd10      	pop	{r4, pc}
    2638:	a00000be 	.word	0xa00000be

0000263c <TEE_GetObjectInfo1>:
TEE_GetObjectInfo1():
/home/yin/imx-optee/imx-optee-os/lib/libutee/tee_api_objects.c:61
    263c:	b510      	push	{r4, lr}
/home/yin/imx-optee/imx-optee-os/lib/libutee/tee_api_objects.c:64
    263e:	f7ff ea1e 	blx	1a7c <utee_cryp_obj_get_info>
/home/yin/imx-optee/imx-optee-os/lib/libutee/tee_api_objects.c:66
    2642:	4604      	mov	r4, r0
    2644:	b130      	cbz	r0, 2654 <TEE_GetObjectInfo1+0x18>
/home/yin/imx-optee/imx-optee-os/lib/libutee/tee_api_objects.c:66 (discriminator 1)
    2646:	4b04      	ldr	r3, [pc, #16]	; (2658 <TEE_GetObjectInfo1+0x1c>)
    2648:	f020 0202 	bic.w	r2, r0, #2
    264c:	429a      	cmp	r2, r3
    264e:	d001      	beq.n	2654 <TEE_GetObjectInfo1+0x18>
/home/yin/imx-optee/imx-optee-os/lib/libutee/tee_api_objects.c:69
    2650:	f002 fc18 	bl	4e84 <TEE_Panic>
/home/yin/imx-optee/imx-optee-os/lib/libutee/tee_api_objects.c:72
    2654:	4620      	mov	r0, r4
    2656:	bd10      	pop	{r4, pc}
    2658:	f0100001 	.word	0xf0100001

0000265c <TEE_RestrictObjectUsage1>:
TEE_RestrictObjectUsage1():
/home/yin/imx-optee/imx-optee-os/lib/libutee/tee_api_objects.c:96
    265c:	b510      	push	{r4, lr}
/home/yin/imx-optee/imx-optee-os/lib/libutee/tee_api_objects.c:99
    265e:	f7ff ea18 	blx	1a90 <utee_cryp_obj_restrict_usage>
/home/yin/imx-optee/imx-optee-os/lib/libutee/tee_api_objects.c:101
    2662:	4604      	mov	r4, r0
    2664:	b130      	cbz	r0, 2674 <TEE_RestrictObjectUsage1+0x18>
/home/yin/imx-optee/imx-optee-os/lib/libutee/tee_api_objects.c:101 (discriminator 1)
    2666:	4b04      	ldr	r3, [pc, #16]	; (2678 <TEE_RestrictObjectUsage1+0x1c>)
    2668:	f020 0202 	bic.w	r2, r0, #2
    266c:	429a      	cmp	r2, r3
    266e:	d001      	beq.n	2674 <TEE_RestrictObjectUsage1+0x18>
/home/yin/imx-optee/imx-optee-os/lib/libutee/tee_api_objects.c:104
    2670:	f002 fc08 	bl	4e84 <TEE_Panic>
/home/yin/imx-optee/imx-optee-os/lib/libutee/tee_api_objects.c:107
    2674:	4620      	mov	r0, r4
    2676:	bd10      	pop	{r4, pc}
    2678:	f0100001 	.word	0xf0100001

0000267c <TEE_RestrictObjectUsage>:
TEE_RestrictObjectUsage():
/home/yin/imx-optee/imx-optee-os/lib/libutee/tee_api_objects.c:81
    267c:	b530      	push	{r4, r5, lr}
    267e:	b089      	sub	sp, #36	; 0x24
    2680:	460d      	mov	r5, r1
/home/yin/imx-optee/imx-optee-os/lib/libutee/tee_api_objects.c:85
    2682:	a901      	add	r1, sp, #4
/home/yin/imx-optee/imx-optee-os/lib/libutee/tee_api_objects.c:81
    2684:	4604      	mov	r4, r0
/home/yin/imx-optee/imx-optee-os/lib/libutee/tee_api_objects.c:85
    2686:	f7ff e9fa 	blx	1a7c <utee_cryp_obj_get_info>
/home/yin/imx-optee/imx-optee-os/lib/libutee/tee_api_objects.c:86
    268a:	9a01      	ldr	r2, [sp, #4]
    268c:	4b05      	ldr	r3, [pc, #20]	; (26a4 <TEE_RestrictObjectUsage+0x28>)
    268e:	429a      	cmp	r2, r3
    2690:	d006      	beq.n	26a0 <TEE_RestrictObjectUsage+0x24>
/home/yin/imx-optee/imx-optee-os/lib/libutee/tee_api_objects.c:89
    2692:	4629      	mov	r1, r5
    2694:	4620      	mov	r0, r4
    2696:	f7ff ffe1 	bl	265c <TEE_RestrictObjectUsage1>
/home/yin/imx-optee/imx-optee-os/lib/libutee/tee_api_objects.c:91
    269a:	b108      	cbz	r0, 26a0 <TEE_RestrictObjectUsage+0x24>
/home/yin/imx-optee/imx-optee-os/lib/libutee/tee_api_objects.c:92
    269c:	f002 fbf2 	bl	4e84 <TEE_Panic>
/home/yin/imx-optee/imx-optee-os/lib/libutee/tee_api_objects.c:93
    26a0:	b009      	add	sp, #36	; 0x24
    26a2:	bd30      	pop	{r4, r5, pc}
    26a4:	a00000be 	.word	0xa00000be

000026a8 <TEE_GetObjectBufferAttribute>:
TEE_GetObjectBufferAttribute():
/home/yin/imx-optee/imx-optee-os/lib/libutee/tee_api_objects.c:112
    26a8:	e92d 41f0 	stmdb	sp!, {r4, r5, r6, r7, r8, lr}
    26ac:	b08a      	sub	sp, #40	; 0x28
    26ae:	460e      	mov	r6, r1
/home/yin/imx-optee/imx-optee-os/lib/libutee/tee_api_objects.c:117
    26b0:	a903      	add	r1, sp, #12
/home/yin/imx-optee/imx-optee-os/lib/libutee/tee_api_objects.c:112
    26b2:	4607      	mov	r7, r0
    26b4:	4690      	mov	r8, r2
    26b6:	461d      	mov	r5, r3
/home/yin/imx-optee/imx-optee-os/lib/libutee/tee_api_objects.c:117
    26b8:	f7ff e9e0 	blx	1a7c <utee_cryp_obj_get_info>
/home/yin/imx-optee/imx-optee-os/lib/libutee/tee_api_objects.c:118
    26bc:	4604      	mov	r4, r0
    26be:	b970      	cbnz	r0, 26de <TEE_GetObjectBufferAttribute+0x36>
/home/yin/imx-optee/imx-optee-os/lib/libutee/tee_api_objects.c:122
    26c0:	00b3      	lsls	r3, r6, #2
    26c2:	d422      	bmi.n	270a <TEE_GetObjectBufferAttribute+0x62>
/home/yin/imx-optee/imx-optee-os/lib/libutee/tee_api_objects.c:127
    26c4:	682b      	ldr	r3, [r5, #0]
/home/yin/imx-optee/imx-optee-os/lib/libutee/tee_api_objects.c:128
    26c6:	4642      	mov	r2, r8
    26c8:	4631      	mov	r1, r6
    26ca:	4638      	mov	r0, r7
/home/yin/imx-optee/imx-optee-os/lib/libutee/tee_api_objects.c:127
    26cc:	e88d 0018 	stmia.w	sp, {r3, r4}
/home/yin/imx-optee/imx-optee-os/lib/libutee/tee_api_objects.c:128
    26d0:	466b      	mov	r3, sp
    26d2:	f7ff e9e8 	blx	1aa4 <utee_cryp_obj_get_attr>
/home/yin/imx-optee/imx-optee-os/lib/libutee/tee_api_objects.c:130
    26d6:	9b00      	ldr	r3, [sp, #0]
/home/yin/imx-optee/imx-optee-os/lib/libutee/tee_api_objects.c:133
    26d8:	4604      	mov	r4, r0
/home/yin/imx-optee/imx-optee-os/lib/libutee/tee_api_objects.c:130
    26da:	602b      	str	r3, [r5, #0]
/home/yin/imx-optee/imx-optee-os/lib/libutee/tee_api_objects.c:133
    26dc:	b188      	cbz	r0, 2702 <TEE_GetObjectBufferAttribute+0x5a>
/home/yin/imx-optee/imx-optee-os/lib/libutee/tee_api_objects.c:133 (discriminator 1)
    26de:	4b0c      	ldr	r3, [pc, #48]	; (2710 <TEE_GetObjectBufferAttribute+0x68>)
    26e0:	429c      	cmp	r4, r3
    26e2:	d00e      	beq.n	2702 <TEE_GetObjectBufferAttribute+0x5a>
/home/yin/imx-optee/imx-optee-os/lib/libutee/tee_api_objects.c:134
    26e4:	3308      	adds	r3, #8
    26e6:	429c      	cmp	r4, r3
    26e8:	d00b      	beq.n	2702 <TEE_GetObjectBufferAttribute+0x5a>
/home/yin/imx-optee/imx-optee-os/lib/libutee/tee_api_objects.c:135
    26ea:	f1a3 637e 	sub.w	r3, r3, #266338304	; 0xfe00000
    26ee:	f1a3 130f 	sub.w	r3, r3, #983055	; 0xf000f
    26f2:	429c      	cmp	r4, r3
    26f4:	d005      	beq.n	2702 <TEE_GetObjectBufferAttribute+0x5a>
/home/yin/imx-optee/imx-optee-os/lib/libutee/tee_api_objects.c:136
    26f6:	3302      	adds	r3, #2
    26f8:	429c      	cmp	r4, r3
    26fa:	d002      	beq.n	2702 <TEE_GetObjectBufferAttribute+0x5a>
/home/yin/imx-optee/imx-optee-os/lib/libutee/tee_api_objects.c:138
    26fc:	4620      	mov	r0, r4
    26fe:	f002 fbc1 	bl	4e84 <TEE_Panic>
/home/yin/imx-optee/imx-optee-os/lib/libutee/tee_api_objects.c:141
    2702:	4620      	mov	r0, r4
    2704:	b00a      	add	sp, #40	; 0x28
    2706:	e8bd 81f0 	ldmia.w	sp!, {r4, r5, r6, r7, r8, pc}
/home/yin/imx-optee/imx-optee-os/lib/libutee/tee_api_objects.c:123
    270a:	4c02      	ldr	r4, [pc, #8]	; (2714 <TEE_GetObjectBufferAttribute+0x6c>)
    270c:	e7f6      	b.n	26fc <TEE_GetObjectBufferAttribute+0x54>
    270e:	bf00      	nop
    2710:	ffff0008 	.word	0xffff0008
    2714:	ffff0006 	.word	0xffff0006

00002718 <TEE_GetObjectValueAttribute>:
TEE_GetObjectValueAttribute():
/home/yin/imx-optee/imx-optee-os/lib/libutee/tee_api_objects.c:146
    2718:	e92d 41f0 	stmdb	sp!, {r4, r5, r6, r7, r8, lr}
    271c:	b08c      	sub	sp, #48	; 0x30
    271e:	460f      	mov	r7, r1
    2720:	4616      	mov	r6, r2
    2722:	461d      	mov	r5, r3
/home/yin/imx-optee/imx-optee-os/lib/libutee/tee_api_objects.c:150
    2724:	2208      	movs	r2, #8
    2726:	2300      	movs	r3, #0
/home/yin/imx-optee/imx-optee-os/lib/libutee/tee_api_objects.c:152
    2728:	a905      	add	r1, sp, #20
/home/yin/imx-optee/imx-optee-os/lib/libutee/tee_api_objects.c:146
    272a:	4680      	mov	r8, r0
/home/yin/imx-optee/imx-optee-os/lib/libutee/tee_api_objects.c:150
    272c:	e9cd 2300 	strd	r2, r3, [sp]
/home/yin/imx-optee/imx-optee-os/lib/libutee/tee_api_objects.c:152
    2730:	f7ff e9a4 	blx	1a7c <utee_cryp_obj_get_info>
/home/yin/imx-optee/imx-optee-os/lib/libutee/tee_api_objects.c:153
    2734:	4604      	mov	r4, r0
    2736:	b948      	cbnz	r0, 274c <TEE_GetObjectValueAttribute+0x34>
/home/yin/imx-optee/imx-optee-os/lib/libutee/tee_api_objects.c:157
    2738:	00bb      	lsls	r3, r7, #2
    273a:	d527      	bpl.n	278c <TEE_GetObjectValueAttribute+0x74>
/home/yin/imx-optee/imx-optee-os/lib/libutee/tee_api_objects.c:162
    273c:	466b      	mov	r3, sp
    273e:	aa03      	add	r2, sp, #12
    2740:	4639      	mov	r1, r7
    2742:	4640      	mov	r0, r8
    2744:	f7ff e9ae 	blx	1aa4 <utee_cryp_obj_get_attr>
/home/yin/imx-optee/imx-optee-os/lib/libutee/tee_api_objects.c:166
    2748:	4604      	mov	r4, r0
    274a:	b158      	cbz	r0, 2764 <TEE_GetObjectValueAttribute+0x4c>
/home/yin/imx-optee/imx-optee-os/lib/libutee/tee_api_objects.c:166 (discriminator 1)
    274c:	4b10      	ldr	r3, [pc, #64]	; (2790 <TEE_GetObjectValueAttribute+0x78>)
    274e:	429c      	cmp	r4, r3
    2750:	d008      	beq.n	2764 <TEE_GetObjectValueAttribute+0x4c>
/home/yin/imx-optee/imx-optee-os/lib/libutee/tee_api_objects.c:167
    2752:	4b10      	ldr	r3, [pc, #64]	; (2794 <TEE_GetObjectValueAttribute+0x7c>)
    2754:	429c      	cmp	r4, r3
    2756:	d005      	beq.n	2764 <TEE_GetObjectValueAttribute+0x4c>
/home/yin/imx-optee/imx-optee-os/lib/libutee/tee_api_objects.c:168
    2758:	3302      	adds	r3, #2
    275a:	429c      	cmp	r4, r3
    275c:	d002      	beq.n	2764 <TEE_GetObjectValueAttribute+0x4c>
/home/yin/imx-optee/imx-optee-os/lib/libutee/tee_api_objects.c:170
    275e:	4620      	mov	r0, r4
    2760:	f002 fb90 	bl	4e84 <TEE_Panic>
/home/yin/imx-optee/imx-optee-os/lib/libutee/tee_api_objects.c:172
    2764:	e9dd 2300 	ldrd	r2, r3, [sp]
    2768:	2b00      	cmp	r3, #0
    276a:	bf08      	it	eq
    276c:	2a08      	cmpeq	r2, #8
    276e:	d002      	beq.n	2776 <TEE_GetObjectValueAttribute+0x5e>
/home/yin/imx-optee/imx-optee-os/lib/libutee/tee_api_objects.c:173
    2770:	2000      	movs	r0, #0
    2772:	f002 fb87 	bl	4e84 <TEE_Panic>
/home/yin/imx-optee/imx-optee-os/lib/libutee/tee_api_objects.c:175
    2776:	b92c      	cbnz	r4, 2784 <TEE_GetObjectValueAttribute+0x6c>
/home/yin/imx-optee/imx-optee-os/lib/libutee/tee_api_objects.c:176
    2778:	b10e      	cbz	r6, 277e <TEE_GetObjectValueAttribute+0x66>
/home/yin/imx-optee/imx-optee-os/lib/libutee/tee_api_objects.c:177
    277a:	9b03      	ldr	r3, [sp, #12]
    277c:	6033      	str	r3, [r6, #0]
/home/yin/imx-optee/imx-optee-os/lib/libutee/tee_api_objects.c:178
    277e:	b10d      	cbz	r5, 2784 <TEE_GetObjectValueAttribute+0x6c>
/home/yin/imx-optee/imx-optee-os/lib/libutee/tee_api_objects.c:179
    2780:	9b04      	ldr	r3, [sp, #16]
    2782:	602b      	str	r3, [r5, #0]
/home/yin/imx-optee/imx-optee-os/lib/libutee/tee_api_objects.c:183
    2784:	4620      	mov	r0, r4
    2786:	b00c      	add	sp, #48	; 0x30
    2788:	e8bd 81f0 	ldmia.w	sp!, {r4, r5, r6, r7, r8, pc}
/home/yin/imx-optee/imx-optee-os/lib/libutee/tee_api_objects.c:158
    278c:	4c02      	ldr	r4, [pc, #8]	; (2798 <TEE_GetObjectValueAttribute+0x80>)
    278e:	e7e6      	b.n	275e <TEE_GetObjectValueAttribute+0x46>
    2790:	ffff0008 	.word	0xffff0008
    2794:	f0100001 	.word	0xf0100001
    2798:	ffff0006 	.word	0xffff0006

0000279c <TEE_CloseObject>:
TEE_CloseObject():
/home/yin/imx-optee/imx-optee-os/lib/libutee/tee_api_objects.c:186
    279c:	b508      	push	{r3, lr}
/home/yin/imx-optee/imx-optee-os/lib/libutee/tee_api_objects.c:189
    279e:	b130      	cbz	r0, 27ae <TEE_CloseObject+0x12>
/home/yin/imx-optee/imx-optee-os/lib/libutee/tee_api_objects.c:192
    27a0:	f7ff e994 	blx	1acc <utee_cryp_obj_close>
/home/yin/imx-optee/imx-optee-os/lib/libutee/tee_api_objects.c:193
    27a4:	b118      	cbz	r0, 27ae <TEE_CloseObject+0x12>
/home/yin/imx-optee/imx-optee-os/lib/libutee/tee_api_objects.c:195
    27a6:	e8bd 4008 	ldmia.w	sp!, {r3, lr}
/home/yin/imx-optee/imx-optee-os/lib/libutee/tee_api_objects.c:194
    27aa:	f002 bb6b 	b.w	4e84 <TEE_Panic>
    27ae:	bd08      	pop	{r3, pc}

000027b0 <TEE_AllocateTransientObject>:
TEE_AllocateTransientObject():
/home/yin/imx-optee/imx-optee-os/lib/libutee/tee_api_objects.c:202
    27b0:	b537      	push	{r0, r1, r2, r4, r5, lr}
    27b2:	4615      	mov	r5, r2
/home/yin/imx-optee/imx-optee-os/lib/libutee/tee_api_objects.c:206
    27b4:	aa01      	add	r2, sp, #4
    27b6:	f7ff e980 	blx	1ab8 <utee_cryp_obj_alloc>
/home/yin/imx-optee/imx-optee-os/lib/libutee/tee_api_objects.c:208
    27ba:	4604      	mov	r4, r0
    27bc:	b150      	cbz	r0, 27d4 <TEE_AllocateTransientObject+0x24>
/home/yin/imx-optee/imx-optee-os/lib/libutee/tee_api_objects.c:208 (discriminator 1)
    27be:	4b07      	ldr	r3, [pc, #28]	; (27dc <TEE_AllocateTransientObject+0x2c>)
    27c0:	4298      	cmp	r0, r3
    27c2:	d004      	beq.n	27ce <TEE_AllocateTransientObject+0x1e>
/home/yin/imx-optee/imx-optee-os/lib/libutee/tee_api_objects.c:209
    27c4:	3b02      	subs	r3, #2
    27c6:	4298      	cmp	r0, r3
    27c8:	d001      	beq.n	27ce <TEE_AllocateTransientObject+0x1e>
/home/yin/imx-optee/imx-optee-os/lib/libutee/tee_api_objects.c:211
    27ca:	f002 fb5b 	bl	4e84 <TEE_Panic>
/home/yin/imx-optee/imx-optee-os/lib/libutee/tee_api_objects.c:217
    27ce:	4620      	mov	r0, r4
    27d0:	b003      	add	sp, #12
    27d2:	bd30      	pop	{r4, r5, pc}
/home/yin/imx-optee/imx-optee-os/lib/libutee/tee_api_objects.c:214
    27d4:	9b01      	ldr	r3, [sp, #4]
    27d6:	602b      	str	r3, [r5, #0]
    27d8:	e7f9      	b.n	27ce <TEE_AllocateTransientObject+0x1e>
    27da:	bf00      	nop
    27dc:	ffff000c 	.word	0xffff000c

000027e0 <TEE_FreeTransientObject>:
TEE_FreeTransientObject():
/home/yin/imx-optee/imx-optee-os/lib/libutee/tee_api_objects.c:220
    27e0:	b510      	push	{r4, lr}
/home/yin/imx-optee/imx-optee-os/lib/libutee/tee_api_objects.c:224
    27e2:	4604      	mov	r4, r0
/home/yin/imx-optee/imx-optee-os/lib/libutee/tee_api_objects.c:220
    27e4:	b088      	sub	sp, #32
/home/yin/imx-optee/imx-optee-os/lib/libutee/tee_api_objects.c:224
    27e6:	b188      	cbz	r0, 280c <TEE_FreeTransientObject+0x2c>
/home/yin/imx-optee/imx-optee-os/lib/libutee/tee_api_objects.c:227
    27e8:	a901      	add	r1, sp, #4
    27ea:	f7ff e948 	blx	1a7c <utee_cryp_obj_get_info>
/home/yin/imx-optee/imx-optee-os/lib/libutee/tee_api_objects.c:228
    27ee:	b108      	cbz	r0, 27f4 <TEE_FreeTransientObject+0x14>
/home/yin/imx-optee/imx-optee-os/lib/libutee/tee_api_objects.c:229
    27f0:	f002 fb48 	bl	4e84 <TEE_Panic>
/home/yin/imx-optee/imx-optee-os/lib/libutee/tee_api_objects.c:231
    27f4:	9b07      	ldr	r3, [sp, #28]
    27f6:	03db      	lsls	r3, r3, #15
    27f8:	d502      	bpl.n	2800 <TEE_FreeTransientObject+0x20>
/home/yin/imx-optee/imx-optee-os/lib/libutee/tee_api_objects.c:232
    27fa:	2000      	movs	r0, #0
    27fc:	f002 fb42 	bl	4e84 <TEE_Panic>
/home/yin/imx-optee/imx-optee-os/lib/libutee/tee_api_objects.c:234
    2800:	4620      	mov	r0, r4
    2802:	f7ff e964 	blx	1acc <utee_cryp_obj_close>
/home/yin/imx-optee/imx-optee-os/lib/libutee/tee_api_objects.c:235
    2806:	b108      	cbz	r0, 280c <TEE_FreeTransientObject+0x2c>
/home/yin/imx-optee/imx-optee-os/lib/libutee/tee_api_objects.c:236
    2808:	f002 fb3c 	bl	4e84 <TEE_Panic>
/home/yin/imx-optee/imx-optee-os/lib/libutee/tee_api_objects.c:237
    280c:	b008      	add	sp, #32
    280e:	bd10      	pop	{r4, pc}

00002810 <TEE_ResetTransientObject>:
TEE_ResetTransientObject():
/home/yin/imx-optee/imx-optee-os/lib/libutee/tee_api_objects.c:240
    2810:	b510      	push	{r4, lr}
/home/yin/imx-optee/imx-optee-os/lib/libutee/tee_api_objects.c:244
    2812:	4604      	mov	r4, r0
/home/yin/imx-optee/imx-optee-os/lib/libutee/tee_api_objects.c:240
    2814:	b088      	sub	sp, #32
/home/yin/imx-optee/imx-optee-os/lib/libutee/tee_api_objects.c:244
    2816:	b188      	cbz	r0, 283c <TEE_ResetTransientObject+0x2c>
/home/yin/imx-optee/imx-optee-os/lib/libutee/tee_api_objects.c:247
    2818:	a901      	add	r1, sp, #4
    281a:	f7ff e930 	blx	1a7c <utee_cryp_obj_get_info>
/home/yin/imx-optee/imx-optee-os/lib/libutee/tee_api_objects.c:248
    281e:	b108      	cbz	r0, 2824 <TEE_ResetTransientObject+0x14>
/home/yin/imx-optee/imx-optee-os/lib/libutee/tee_api_objects.c:249
    2820:	f002 fb30 	bl	4e84 <TEE_Panic>
/home/yin/imx-optee/imx-optee-os/lib/libutee/tee_api_objects.c:251
    2824:	9b07      	ldr	r3, [sp, #28]
    2826:	03db      	lsls	r3, r3, #15
    2828:	d502      	bpl.n	2830 <TEE_ResetTransientObject+0x20>
/home/yin/imx-optee/imx-optee-os/lib/libutee/tee_api_objects.c:252
    282a:	2000      	movs	r0, #0
    282c:	f002 fb2a 	bl	4e84 <TEE_Panic>
/home/yin/imx-optee/imx-optee-os/lib/libutee/tee_api_objects.c:254
    2830:	4620      	mov	r0, r4
    2832:	f7ff e956 	blx	1ae0 <utee_cryp_obj_reset>
/home/yin/imx-optee/imx-optee-os/lib/libutee/tee_api_objects.c:255
    2836:	b108      	cbz	r0, 283c <TEE_ResetTransientObject+0x2c>
/home/yin/imx-optee/imx-optee-os/lib/libutee/tee_api_objects.c:256
    2838:	f002 fb24 	bl	4e84 <TEE_Panic>
/home/yin/imx-optee/imx-optee-os/lib/libutee/tee_api_objects.c:257
    283c:	b008      	add	sp, #32
    283e:	bd10      	pop	{r4, pc}

00002840 <TEE_PopulateTransientObject>:
TEE_PopulateTransientObject():
/home/yin/imx-optee/imx-optee-os/lib/libutee/tee_api_objects.c:265
    2840:	2318      	movs	r3, #24
/home/yin/imx-optee/imx-optee-os/lib/libutee/tee_api_objects.c:262
    2842:	e92d 41f0 	stmdb	sp!, {r4, r5, r6, r7, r8, lr}
/home/yin/imx-optee/imx-optee-os/lib/libutee/tee_api_objects.c:265
    2846:	4353      	muls	r3, r2
/home/yin/imx-optee/imx-optee-os/lib/libutee/tee_api_objects.c:262
    2848:	b088      	sub	sp, #32
    284a:	af00      	add	r7, sp, #0
    284c:	4688      	mov	r8, r1
/home/yin/imx-optee/imx-optee-os/lib/libutee/tee_api_objects.c:267
    284e:	1d39      	adds	r1, r7, #4
/home/yin/imx-optee/imx-optee-os/lib/libutee/tee_api_objects.c:262
    2850:	4606      	mov	r6, r0
/home/yin/imx-optee/imx-optee-os/lib/libutee/tee_api_objects.c:265
    2852:	3308      	adds	r3, #8
/home/yin/imx-optee/imx-optee-os/lib/libutee/tee_api_objects.c:262
    2854:	4614      	mov	r4, r2
/home/yin/imx-optee/imx-optee-os/lib/libutee/tee_api_objects.c:265
    2856:	ebad 0d03 	sub.w	sp, sp, r3
    285a:	466d      	mov	r5, sp
/home/yin/imx-optee/imx-optee-os/lib/libutee/tee_api_objects.c:267
    285c:	f7ff e90e 	blx	1a7c <utee_cryp_obj_get_info>
/home/yin/imx-optee/imx-optee-os/lib/libutee/tee_api_objects.c:268
    2860:	b108      	cbz	r0, 2866 <TEE_PopulateTransientObject+0x26>
/home/yin/imx-optee/imx-optee-os/lib/libutee/tee_api_objects.c:269
    2862:	f002 fb0f 	bl	4e84 <TEE_Panic>
/home/yin/imx-optee/imx-optee-os/lib/libutee/tee_api_objects.c:272
    2866:	69fb      	ldr	r3, [r7, #28]
    2868:	03da      	lsls	r2, r3, #15
    286a:	d502      	bpl.n	2872 <TEE_PopulateTransientObject+0x32>
/home/yin/imx-optee/imx-optee-os/lib/libutee/tee_api_objects.c:273
    286c:	2000      	movs	r0, #0
    286e:	f002 fb09 	bl	4e84 <TEE_Panic>
/home/yin/imx-optee/imx-optee-os/lib/libutee/tee_api_objects.c:276
    2872:	69fb      	ldr	r3, [r7, #28]
    2874:	039b      	lsls	r3, r3, #14
    2876:	d502      	bpl.n	287e <TEE_PopulateTransientObject+0x3e>
/home/yin/imx-optee/imx-optee-os/lib/libutee/tee_api_objects.c:277
    2878:	2000      	movs	r0, #0
    287a:	f002 fb03 	bl	4e84 <TEE_Panic>
/home/yin/imx-optee/imx-optee-os/lib/libutee/tee_api_objects.c:279
    287e:	4622      	mov	r2, r4
    2880:	4641      	mov	r1, r8
    2882:	4628      	mov	r0, r5
    2884:	f7ff fea8 	bl	25d8 <__utee_from_attr>
/home/yin/imx-optee/imx-optee-os/lib/libutee/tee_api_objects.c:280
    2888:	4622      	mov	r2, r4
    288a:	4629      	mov	r1, r5
    288c:	4630      	mov	r0, r6
    288e:	f7ff e932 	blx	1af4 <utee_cryp_obj_populate>
/home/yin/imx-optee/imx-optee-os/lib/libutee/tee_api_objects.c:281
    2892:	4604      	mov	r4, r0
    2894:	b120      	cbz	r0, 28a0 <TEE_PopulateTransientObject+0x60>
/home/yin/imx-optee/imx-optee-os/lib/libutee/tee_api_objects.c:281 (discriminator 1)
    2896:	4b05      	ldr	r3, [pc, #20]	; (28ac <TEE_PopulateTransientObject+0x6c>)
    2898:	4298      	cmp	r0, r3
    289a:	d001      	beq.n	28a0 <TEE_PopulateTransientObject+0x60>
/home/yin/imx-optee/imx-optee-os/lib/libutee/tee_api_objects.c:282
    289c:	f002 faf2 	bl	4e84 <TEE_Panic>
/home/yin/imx-optee/imx-optee-os/lib/libutee/tee_api_objects.c:284
    28a0:	4620      	mov	r0, r4
    28a2:	3720      	adds	r7, #32
    28a4:	46bd      	mov	sp, r7
    28a6:	e8bd 81f0 	ldmia.w	sp!, {r4, r5, r6, r7, r8, pc}
    28aa:	bf00      	nop
    28ac:	ffff0006 	.word	0xffff0006

000028b0 <TEE_InitRefAttribute>:
TEE_InitRefAttribute():
/home/yin/imx-optee/imx-optee-os/lib/libutee/tee_api_objects.c:288
    28b0:	b5f8      	push	{r3, r4, r5, r6, r7, lr}
    28b2:	460d      	mov	r5, r1
    28b4:	4617      	mov	r7, r2
    28b6:	461e      	mov	r6, r3
/home/yin/imx-optee/imx-optee-os/lib/libutee/tee_api_objects.c:289
    28b8:	4604      	mov	r4, r0
    28ba:	b908      	cbnz	r0, 28c0 <TEE_InitRefAttribute+0x10>
/home/yin/imx-optee/imx-optee-os/lib/libutee/tee_api_objects.c:290
    28bc:	f002 fae2 	bl	4e84 <TEE_Panic>
/home/yin/imx-optee/imx-optee-os/lib/libutee/tee_api_objects.c:291
    28c0:	00ab      	lsls	r3, r5, #2
    28c2:	d502      	bpl.n	28ca <TEE_InitRefAttribute+0x1a>
/home/yin/imx-optee/imx-optee-os/lib/libutee/tee_api_objects.c:292
    28c4:	2000      	movs	r0, #0
    28c6:	f002 fadd 	bl	4e84 <TEE_Panic>
/home/yin/imx-optee/imx-optee-os/lib/libutee/tee_api_objects.c:294
    28ca:	e884 00a0 	stmia.w	r4, {r5, r7}
/home/yin/imx-optee/imx-optee-os/lib/libutee/tee_api_objects.c:295
    28ce:	60a6      	str	r6, [r4, #8]
    28d0:	bdf8      	pop	{r3, r4, r5, r6, r7, pc}

000028d2 <TEE_InitValueAttribute>:
TEE_InitValueAttribute():
/home/yin/imx-optee/imx-optee-os/lib/libutee/tee_api_objects.c:300
    28d2:	b5f8      	push	{r3, r4, r5, r6, r7, lr}
    28d4:	460d      	mov	r5, r1
    28d6:	4617      	mov	r7, r2
    28d8:	461e      	mov	r6, r3
/home/yin/imx-optee/imx-optee-os/lib/libutee/tee_api_objects.c:301
    28da:	4604      	mov	r4, r0
    28dc:	b908      	cbnz	r0, 28e2 <TEE_InitValueAttribute+0x10>
/home/yin/imx-optee/imx-optee-os/lib/libutee/tee_api_objects.c:302
    28de:	f002 fad1 	bl	4e84 <TEE_Panic>
/home/yin/imx-optee/imx-optee-os/lib/libutee/tee_api_objects.c:303
    28e2:	f015 5000 	ands.w	r0, r5, #536870912	; 0x20000000
    28e6:	d101      	bne.n	28ec <TEE_InitValueAttribute+0x1a>
/home/yin/imx-optee/imx-optee-os/lib/libutee/tee_api_objects.c:304
    28e8:	f002 facc 	bl	4e84 <TEE_Panic>
/home/yin/imx-optee/imx-optee-os/lib/libutee/tee_api_objects.c:306
    28ec:	e884 00a0 	stmia.w	r4, {r5, r7}
/home/yin/imx-optee/imx-optee-os/lib/libutee/tee_api_objects.c:307
    28f0:	60a6      	str	r6, [r4, #8]
    28f2:	bdf8      	pop	{r3, r4, r5, r6, r7, pc}

000028f4 <TEE_CopyObjectAttributes1>:
TEE_CopyObjectAttributes1():
/home/yin/imx-optee/imx-optee-os/lib/libutee/tee_api_objects.c:333
    28f4:	b570      	push	{r4, r5, r6, lr}
    28f6:	b08e      	sub	sp, #56	; 0x38
    28f8:	460d      	mov	r5, r1
/home/yin/imx-optee/imx-optee-os/lib/libutee/tee_api_objects.c:338
    28fa:	4669      	mov	r1, sp
/home/yin/imx-optee/imx-optee-os/lib/libutee/tee_api_objects.c:333
    28fc:	4606      	mov	r6, r0
/home/yin/imx-optee/imx-optee-os/lib/libutee/tee_api_objects.c:338
    28fe:	f7ff e8be 	blx	1a7c <utee_cryp_obj_get_info>
/home/yin/imx-optee/imx-optee-os/lib/libutee/tee_api_objects.c:339
    2902:	4604      	mov	r4, r0
    2904:	b9e0      	cbnz	r0, 2940 <TEE_CopyObjectAttributes1+0x4c>
/home/yin/imx-optee/imx-optee-os/lib/libutee/tee_api_objects.c:342
    2906:	a907      	add	r1, sp, #28
    2908:	4628      	mov	r0, r5
    290a:	f7ff e8b8 	blx	1a7c <utee_cryp_obj_get_info>
/home/yin/imx-optee/imx-optee-os/lib/libutee/tee_api_objects.c:343
    290e:	4604      	mov	r4, r0
    2910:	b9b0      	cbnz	r0, 2940 <TEE_CopyObjectAttributes1+0x4c>
/home/yin/imx-optee/imx-optee-os/lib/libutee/tee_api_objects.c:346
    2912:	9b0d      	ldr	r3, [sp, #52]	; 0x34
    2914:	0399      	lsls	r1, r3, #14
    2916:	d401      	bmi.n	291c <TEE_CopyObjectAttributes1+0x28>
/home/yin/imx-optee/imx-optee-os/lib/libutee/tee_api_objects.c:347
    2918:	f002 fab4 	bl	4e84 <TEE_Panic>
/home/yin/imx-optee/imx-optee-os/lib/libutee/tee_api_objects.c:349
    291c:	9b06      	ldr	r3, [sp, #24]
    291e:	03da      	lsls	r2, r3, #15
    2920:	d502      	bpl.n	2928 <TEE_CopyObjectAttributes1+0x34>
/home/yin/imx-optee/imx-optee-os/lib/libutee/tee_api_objects.c:350
    2922:	2000      	movs	r0, #0
    2924:	f002 faae 	bl	4e84 <TEE_Panic>
/home/yin/imx-optee/imx-optee-os/lib/libutee/tee_api_objects.c:352
    2928:	9b06      	ldr	r3, [sp, #24]
    292a:	039b      	lsls	r3, r3, #14
    292c:	d502      	bpl.n	2934 <TEE_CopyObjectAttributes1+0x40>
/home/yin/imx-optee/imx-optee-os/lib/libutee/tee_api_objects.c:353
    292e:	2000      	movs	r0, #0
    2930:	f002 faa8 	bl	4e84 <TEE_Panic>
/home/yin/imx-optee/imx-optee-os/lib/libutee/tee_api_objects.c:355
    2934:	4629      	mov	r1, r5
    2936:	4630      	mov	r0, r6
    2938:	f7ff e8e6 	blx	1b08 <utee_cryp_obj_copy>
/home/yin/imx-optee/imx-optee-os/lib/libutee/tee_api_objects.c:359
    293c:	4604      	mov	r4, r0
    293e:	b140      	cbz	r0, 2952 <TEE_CopyObjectAttributes1+0x5e>
/home/yin/imx-optee/imx-optee-os/lib/libutee/tee_api_objects.c:359 (discriminator 1)
    2940:	4b05      	ldr	r3, [pc, #20]	; (2958 <TEE_CopyObjectAttributes1+0x64>)
    2942:	429c      	cmp	r4, r3
    2944:	d005      	beq.n	2952 <TEE_CopyObjectAttributes1+0x5e>
/home/yin/imx-optee/imx-optee-os/lib/libutee/tee_api_objects.c:360
    2946:	3302      	adds	r3, #2
    2948:	429c      	cmp	r4, r3
    294a:	d002      	beq.n	2952 <TEE_CopyObjectAttributes1+0x5e>
/home/yin/imx-optee/imx-optee-os/lib/libutee/tee_api_objects.c:362
    294c:	4620      	mov	r0, r4
    294e:	f002 fa99 	bl	4e84 <TEE_Panic>
/home/yin/imx-optee/imx-optee-os/lib/libutee/tee_api_objects.c:365
    2952:	4620      	mov	r0, r4
    2954:	b00e      	add	sp, #56	; 0x38
    2956:	bd70      	pop	{r4, r5, r6, pc}
    2958:	f0100001 	.word	0xf0100001

0000295c <TEE_CopyObjectAttributes>:
TEE_CopyObjectAttributes():
/home/yin/imx-optee/imx-optee-os/lib/libutee/tee_api_objects.c:318
    295c:	b530      	push	{r4, r5, lr}
    295e:	460c      	mov	r4, r1
    2960:	b089      	sub	sp, #36	; 0x24
    2962:	4605      	mov	r5, r0
/home/yin/imx-optee/imx-optee-os/lib/libutee/tee_api_objects.c:322
    2964:	a901      	add	r1, sp, #4
    2966:	4620      	mov	r0, r4
    2968:	f7ff e888 	blx	1a7c <utee_cryp_obj_get_info>
/home/yin/imx-optee/imx-optee-os/lib/libutee/tee_api_objects.c:323
    296c:	9a01      	ldr	r2, [sp, #4]
    296e:	4b06      	ldr	r3, [pc, #24]	; (2988 <TEE_CopyObjectAttributes+0x2c>)
    2970:	429a      	cmp	r2, r3
    2972:	d006      	beq.n	2982 <TEE_CopyObjectAttributes+0x26>
/home/yin/imx-optee/imx-optee-os/lib/libutee/tee_api_objects.c:326
    2974:	4621      	mov	r1, r4
    2976:	4628      	mov	r0, r5
    2978:	f7ff ffbc 	bl	28f4 <TEE_CopyObjectAttributes1>
/home/yin/imx-optee/imx-optee-os/lib/libutee/tee_api_objects.c:327
    297c:	b108      	cbz	r0, 2982 <TEE_CopyObjectAttributes+0x26>
/home/yin/imx-optee/imx-optee-os/lib/libutee/tee_api_objects.c:328
    297e:	f002 fa81 	bl	4e84 <TEE_Panic>
/home/yin/imx-optee/imx-optee-os/lib/libutee/tee_api_objects.c:329
    2982:	b009      	add	sp, #36	; 0x24
    2984:	bd30      	pop	{r4, r5, pc}
    2986:	bf00      	nop
    2988:	a00000be 	.word	0xa00000be

0000298c <TEE_GenerateKey>:
TEE_GenerateKey():
/home/yin/imx-optee/imx-optee-os/lib/libutee/tee_api_objects.c:369
    298c:	e92d 41f0 	stmdb	sp!, {r4, r5, r6, r7, r8, lr}
    2990:	4688      	mov	r8, r1
    2992:	4611      	mov	r1, r2
/home/yin/imx-optee/imx-optee-os/lib/libutee/tee_api_objects.c:371
    2994:	2218      	movs	r2, #24
    2996:	435a      	muls	r2, r3
/home/yin/imx-optee/imx-optee-os/lib/libutee/tee_api_objects.c:369
    2998:	af00      	add	r7, sp, #0
    299a:	461c      	mov	r4, r3
    299c:	4606      	mov	r6, r0
/home/yin/imx-optee/imx-optee-os/lib/libutee/tee_api_objects.c:371
    299e:	3208      	adds	r2, #8
    29a0:	ebad 0d02 	sub.w	sp, sp, r2
/home/yin/imx-optee/imx-optee-os/lib/libutee/tee_api_objects.c:373
    29a4:	461a      	mov	r2, r3
    29a6:	4668      	mov	r0, sp
    29a8:	f7ff fe16 	bl	25d8 <__utee_from_attr>
/home/yin/imx-optee/imx-optee-os/lib/libutee/tee_api_objects.c:374
    29ac:	4623      	mov	r3, r4
    29ae:	466a      	mov	r2, sp
    29b0:	4641      	mov	r1, r8
    29b2:	4630      	mov	r0, r6
    29b4:	f7ff e99e 	blx	1cf4 <utee_cryp_obj_generate_key>
/home/yin/imx-optee/imx-optee-os/lib/libutee/tee_api_objects.c:377
    29b8:	4604      	mov	r4, r0
    29ba:	b120      	cbz	r0, 29c6 <TEE_GenerateKey+0x3a>
/home/yin/imx-optee/imx-optee-os/lib/libutee/tee_api_objects.c:377 (discriminator 1)
    29bc:	4b04      	ldr	r3, [pc, #16]	; (29d0 <TEE_GenerateKey+0x44>)
    29be:	4298      	cmp	r0, r3
    29c0:	d001      	beq.n	29c6 <TEE_GenerateKey+0x3a>
/home/yin/imx-optee/imx-optee-os/lib/libutee/tee_api_objects.c:378
    29c2:	f002 fa5f 	bl	4e84 <TEE_Panic>
/home/yin/imx-optee/imx-optee-os/lib/libutee/tee_api_objects.c:381
    29c6:	4620      	mov	r0, r4
    29c8:	46bd      	mov	sp, r7
    29ca:	e8bd 81f0 	ldmia.w	sp!, {r4, r5, r6, r7, r8, pc}
    29ce:	bf00      	nop
    29d0:	ffff0006 	.word	0xffff0006

000029d4 <TEE_OpenPersistentObject>:
TEE_OpenPersistentObject():
/home/yin/imx-optee/imx-optee-os/lib/libutee/tee_api_objects.c:388
    29d4:	b530      	push	{r4, r5, lr}
    29d6:	b085      	sub	sp, #20
    29d8:	9d08      	ldr	r5, [sp, #32]
/home/yin/imx-optee/imx-optee-os/lib/libutee/tee_api_objects.c:392
    29da:	b919      	cbnz	r1, 29e4 <TEE_OpenPersistentObject+0x10>
    29dc:	4c12      	ldr	r4, [pc, #72]	; (2a28 <TEE_OpenPersistentObject+0x54>)
/home/yin/imx-optee/imx-optee-os/lib/libutee/tee_api_objects.c:422
    29de:	4620      	mov	r0, r4
    29e0:	b005      	add	sp, #20
    29e2:	bd30      	pop	{r4, r5, pc}
/home/yin/imx-optee/imx-optee-os/lib/libutee/tee_api_objects.c:397
    29e4:	2a40      	cmp	r2, #64	; 0x40
    29e6:	d809      	bhi.n	29fc <TEE_OpenPersistentObject+0x28>
/home/yin/imx-optee/imx-optee-os/lib/libutee/tee_api_objects.c:402
    29e8:	b145      	cbz	r5, 29fc <TEE_OpenPersistentObject+0x28>
/home/yin/imx-optee/imx-optee-os/lib/libutee/tee_api_objects.c:407
    29ea:	ac03      	add	r4, sp, #12
    29ec:	9400      	str	r4, [sp, #0]
    29ee:	f7ff e8fc 	blx	1be8 <utee_storage_obj_open>
/home/yin/imx-optee/imx-optee-os/lib/libutee/tee_api_objects.c:409
    29f2:	4604      	mov	r4, r0
    29f4:	b920      	cbnz	r0, 2a00 <TEE_OpenPersistentObject+0x2c>
/home/yin/imx-optee/imx-optee-os/lib/libutee/tee_api_objects.c:410
    29f6:	9b03      	ldr	r3, [sp, #12]
    29f8:	602b      	str	r3, [r5, #0]
    29fa:	e7f0      	b.n	29de <TEE_OpenPersistentObject+0xa>
    29fc:	4c0b      	ldr	r4, [pc, #44]	; (2a2c <TEE_OpenPersistentObject+0x58>)
    29fe:	e00e      	b.n	2a1e <TEE_OpenPersistentObject+0x4a>
/home/yin/imx-optee/imx-optee-os/lib/libutee/tee_api_objects.c:413
    2a00:	4b09      	ldr	r3, [pc, #36]	; (2a28 <TEE_OpenPersistentObject+0x54>)
    2a02:	4298      	cmp	r0, r3
    2a04:	d0ea      	beq.n	29dc <TEE_OpenPersistentObject+0x8>
/home/yin/imx-optee/imx-optee-os/lib/libutee/tee_api_objects.c:414
    2a06:	4b0a      	ldr	r3, [pc, #40]	; (2a30 <TEE_OpenPersistentObject+0x5c>)
    2a08:	429c      	cmp	r4, r3
    2a0a:	d0e8      	beq.n	29de <TEE_OpenPersistentObject+0xa>
/home/yin/imx-optee/imx-optee-os/lib/libutee/tee_api_objects.c:415
    2a0c:	3309      	adds	r3, #9
    2a0e:	429c      	cmp	r4, r3
    2a10:	d0e5      	beq.n	29de <TEE_OpenPersistentObject+0xa>
/home/yin/imx-optee/imx-optee-os/lib/libutee/tee_api_objects.c:416
    2a12:	4b08      	ldr	r3, [pc, #32]	; (2a34 <TEE_OpenPersistentObject+0x60>)
    2a14:	429c      	cmp	r4, r3
    2a16:	d0e2      	beq.n	29de <TEE_OpenPersistentObject+0xa>
/home/yin/imx-optee/imx-optee-os/lib/libutee/tee_api_objects.c:417
    2a18:	3302      	adds	r3, #2
    2a1a:	429c      	cmp	r4, r3
    2a1c:	d0df      	beq.n	29de <TEE_OpenPersistentObject+0xa>
/home/yin/imx-optee/imx-optee-os/lib/libutee/tee_api_objects.c:419
    2a1e:	4620      	mov	r0, r4
    2a20:	f002 fa30 	bl	4e84 <TEE_Panic>
/home/yin/imx-optee/imx-optee-os/lib/libutee/tee_api_objects.c:421
    2a24:	e7db      	b.n	29de <TEE_OpenPersistentObject+0xa>
    2a26:	bf00      	nop
    2a28:	ffff0008 	.word	0xffff0008
    2a2c:	ffff0006 	.word	0xffff0006
    2a30:	ffff0003 	.word	0xffff0003
    2a34:	f0100001 	.word	0xf0100001

00002a38 <TEE_CreatePersistentObject>:
TEE_CreatePersistentObject():
/home/yin/imx-optee/imx-optee-os/lib/libutee/tee_api_objects.c:430
    2a38:	b530      	push	{r4, r5, lr}
    2a3a:	b087      	sub	sp, #28
    2a3c:	9c0d      	ldr	r4, [sp, #52]	; 0x34
/home/yin/imx-optee/imx-optee-os/lib/libutee/tee_api_objects.c:434
    2a3e:	2900      	cmp	r1, #0
    2a40:	d033      	beq.n	2aaa <TEE_CreatePersistentObject+0x72>
/home/yin/imx-optee/imx-optee-os/lib/libutee/tee_api_objects.c:439
    2a42:	2a40      	cmp	r2, #64	; 0x40
    2a44:	d835      	bhi.n	2ab2 <TEE_CreatePersistentObject+0x7a>
/home/yin/imx-optee/imx-optee-os/lib/libutee/tee_api_objects.c:444
    2a46:	ad05      	add	r5, sp, #20
    2a48:	9503      	str	r5, [sp, #12]
    2a4a:	9d0c      	ldr	r5, [sp, #48]	; 0x30
    2a4c:	9502      	str	r5, [sp, #8]
    2a4e:	9d0b      	ldr	r5, [sp, #44]	; 0x2c
    2a50:	9501      	str	r5, [sp, #4]
    2a52:	9d0a      	ldr	r5, [sp, #40]	; 0x28
    2a54:	9500      	str	r5, [sp, #0]
    2a56:	f7ff e8d4 	blx	1c00 <utee_storage_obj_create>
/home/yin/imx-optee/imx-optee-os/lib/libutee/tee_api_objects.c:447
    2a5a:	b970      	cbnz	r0, 2a7a <TEE_CreatePersistentObject+0x42>
/home/yin/imx-optee/imx-optee-os/lib/libutee/tee_api_objects.c:448
    2a5c:	b11c      	cbz	r4, 2a66 <TEE_CreatePersistentObject+0x2e>
/home/yin/imx-optee/imx-optee-os/lib/libutee/tee_api_objects.c:449
    2a5e:	9b05      	ldr	r3, [sp, #20]
    2a60:	6023      	str	r3, [r4, #0]
/home/yin/imx-optee/imx-optee-os/lib/libutee/tee_api_objects.c:468
    2a62:	b007      	add	sp, #28
    2a64:	bd30      	pop	{r4, r5, pc}
/home/yin/imx-optee/imx-optee-os/lib/libutee/tee_api_objects.c:451
    2a66:	9805      	ldr	r0, [sp, #20]
    2a68:	f7ff e830 	blx	1acc <utee_cryp_obj_close>
/home/yin/imx-optee/imx-optee-os/lib/libutee/tee_api_objects.c:452
    2a6c:	2800      	cmp	r0, #0
    2a6e:	d0f8      	beq.n	2a62 <TEE_CreatePersistentObject+0x2a>
/home/yin/imx-optee/imx-optee-os/lib/libutee/tee_api_objects.c:458
    2a70:	4b12      	ldr	r3, [pc, #72]	; (2abc <TEE_CreatePersistentObject+0x84>)
    2a72:	4298      	cmp	r0, r3
    2a74:	d106      	bne.n	2a84 <TEE_CreatePersistentObject+0x4c>
/home/yin/imx-optee/imx-optee-os/lib/libutee/tee_api_objects.c:467
    2a76:	4811      	ldr	r0, [pc, #68]	; (2abc <TEE_CreatePersistentObject+0x84>)
    2a78:	e7f3      	b.n	2a62 <TEE_CreatePersistentObject+0x2a>
/home/yin/imx-optee/imx-optee-os/lib/libutee/tee_api_objects.c:456
    2a7a:	2c00      	cmp	r4, #0
    2a7c:	d0f8      	beq.n	2a70 <TEE_CreatePersistentObject+0x38>
/home/yin/imx-optee/imx-optee-os/lib/libutee/tee_api_objects.c:457
    2a7e:	2300      	movs	r3, #0
    2a80:	6023      	str	r3, [r4, #0]
    2a82:	e7f5      	b.n	2a70 <TEE_CreatePersistentObject+0x38>
/home/yin/imx-optee/imx-optee-os/lib/libutee/tee_api_objects.c:458 (discriminator 1)
    2a84:	4b0e      	ldr	r3, [pc, #56]	; (2ac0 <TEE_CreatePersistentObject+0x88>)
    2a86:	4298      	cmp	r0, r3
    2a88:	d0eb      	beq.n	2a62 <TEE_CreatePersistentObject+0x2a>
/home/yin/imx-optee/imx-optee-os/lib/libutee/tee_api_objects.c:459
    2a8a:	3309      	adds	r3, #9
    2a8c:	4298      	cmp	r0, r3
    2a8e:	d0e8      	beq.n	2a62 <TEE_CreatePersistentObject+0x2a>
/home/yin/imx-optee/imx-optee-os/lib/libutee/tee_api_objects.c:460
    2a90:	4b0c      	ldr	r3, [pc, #48]	; (2ac4 <TEE_CreatePersistentObject+0x8c>)
    2a92:	4298      	cmp	r0, r3
    2a94:	d0e5      	beq.n	2a62 <TEE_CreatePersistentObject+0x2a>
/home/yin/imx-optee/imx-optee-os/lib/libutee/tee_api_objects.c:461
    2a96:	4b0c      	ldr	r3, [pc, #48]	; (2ac8 <TEE_CreatePersistentObject+0x90>)
    2a98:	4298      	cmp	r0, r3
    2a9a:	d0e2      	beq.n	2a62 <TEE_CreatePersistentObject+0x2a>
/home/yin/imx-optee/imx-optee-os/lib/libutee/tee_api_objects.c:462
    2a9c:	3302      	adds	r3, #2
    2a9e:	4298      	cmp	r0, r3
    2aa0:	d0df      	beq.n	2a62 <TEE_CreatePersistentObject+0x2a>
/home/yin/imx-optee/imx-optee-os/lib/libutee/tee_api_objects.c:465
    2aa2:	f002 f9ef 	bl	4e84 <TEE_Panic>
/home/yin/imx-optee/imx-optee-os/lib/libutee/tee_api_objects.c:467
    2aa6:	2000      	movs	r0, #0
    2aa8:	e7db      	b.n	2a62 <TEE_CreatePersistentObject+0x2a>
/home/yin/imx-optee/imx-optee-os/lib/libutee/tee_api_objects.c:456
    2aaa:	2c00      	cmp	r4, #0
    2aac:	d0e3      	beq.n	2a76 <TEE_CreatePersistentObject+0x3e>
/home/yin/imx-optee/imx-optee-os/lib/libutee/tee_api_objects.c:435
    2aae:	4803      	ldr	r0, [pc, #12]	; (2abc <TEE_CreatePersistentObject+0x84>)
    2ab0:	e7e5      	b.n	2a7e <TEE_CreatePersistentObject+0x46>
/home/yin/imx-optee/imx-optee-os/lib/libutee/tee_api_objects.c:440
    2ab2:	4806      	ldr	r0, [pc, #24]	; (2acc <TEE_CreatePersistentObject+0x94>)
/home/yin/imx-optee/imx-optee-os/lib/libutee/tee_api_objects.c:456
    2ab4:	2c00      	cmp	r4, #0
    2ab6:	d1e2      	bne.n	2a7e <TEE_CreatePersistentObject+0x46>
    2ab8:	e7f3      	b.n	2aa2 <TEE_CreatePersistentObject+0x6a>
    2aba:	bf00      	nop
    2abc:	ffff0008 	.word	0xffff0008
    2ac0:	ffff0003 	.word	0xffff0003
    2ac4:	ffff3041 	.word	0xffff3041
    2ac8:	f0100001 	.word	0xf0100001
    2acc:	ffff0006 	.word	0xffff0006

00002ad0 <TEE_CloseAndDeletePersistentObject1>:
TEE_CloseAndDeletePersistentObject1():
/home/yin/imx-optee/imx-optee-os/lib/libutee/tee_api_objects.c:490
    2ad0:	b510      	push	{r4, lr}
/home/yin/imx-optee/imx-optee-os/lib/libutee/tee_api_objects.c:493
    2ad2:	b150      	cbz	r0, 2aea <TEE_CloseAndDeletePersistentObject1+0x1a>
/home/yin/imx-optee/imx-optee-os/lib/libutee/tee_api_objects.c:496
    2ad4:	f7ff e8a0 	blx	1c18 <utee_storage_obj_del>
/home/yin/imx-optee/imx-optee-os/lib/libutee/tee_api_objects.c:498
    2ad8:	4604      	mov	r4, r0
    2ada:	b120      	cbz	r0, 2ae6 <TEE_CloseAndDeletePersistentObject1+0x16>
    2adc:	4b04      	ldr	r3, [pc, #16]	; (2af0 <TEE_CloseAndDeletePersistentObject1+0x20>)
    2ade:	4298      	cmp	r0, r3
    2ae0:	d001      	beq.n	2ae6 <TEE_CloseAndDeletePersistentObject1+0x16>
/home/yin/imx-optee/imx-optee-os/lib/libutee/tee_api_objects.c:499
    2ae2:	f002 f9cf 	bl	4e84 <TEE_Panic>
/home/yin/imx-optee/imx-optee-os/lib/libutee/tee_api_objects.c:502
    2ae6:	4620      	mov	r0, r4
    2ae8:	bd10      	pop	{r4, pc}
/home/yin/imx-optee/imx-optee-os/lib/libutee/tee_api_objects.c:494
    2aea:	4c01      	ldr	r4, [pc, #4]	; (2af0 <TEE_CloseAndDeletePersistentObject1+0x20>)
    2aec:	e7fb      	b.n	2ae6 <TEE_CloseAndDeletePersistentObject1+0x16>
    2aee:	bf00      	nop
    2af0:	f0100003 	.word	0xf0100003

00002af4 <TEE_CloseAndDeletePersistentObject>:
TEE_CloseAndDeletePersistentObject():
/home/yin/imx-optee/imx-optee-os/lib/libutee/tee_api_objects.c:477
    2af4:	b508      	push	{r3, lr}
/home/yin/imx-optee/imx-optee-os/lib/libutee/tee_api_objects.c:480
    2af6:	b138      	cbz	r0, 2b08 <TEE_CloseAndDeletePersistentObject+0x14>
/home/yin/imx-optee/imx-optee-os/lib/libutee/tee_api_objects.c:483
    2af8:	f7ff ffea 	bl	2ad0 <TEE_CloseAndDeletePersistentObject1>
/home/yin/imx-optee/imx-optee-os/lib/libutee/tee_api_objects.c:485
    2afc:	b120      	cbz	r0, 2b08 <TEE_CloseAndDeletePersistentObject+0x14>
/home/yin/imx-optee/imx-optee-os/lib/libutee/tee_api_objects.c:486
    2afe:	2000      	movs	r0, #0
/home/yin/imx-optee/imx-optee-os/lib/libutee/tee_api_objects.c:487
    2b00:	e8bd 4008 	ldmia.w	sp!, {r3, lr}
/home/yin/imx-optee/imx-optee-os/lib/libutee/tee_api_objects.c:486
    2b04:	f002 b9be 	b.w	4e84 <TEE_Panic>
    2b08:	bd08      	pop	{r3, pc}

00002b0a <TEE_RenamePersistentObject>:
TEE_RenamePersistentObject():
/home/yin/imx-optee/imx-optee-os/lib/libutee/tee_api_objects.c:508
    2b0a:	b510      	push	{r4, lr}
/home/yin/imx-optee/imx-optee-os/lib/libutee/tee_api_objects.c:511
    2b0c:	b1a0      	cbz	r0, 2b38 <TEE_RenamePersistentObject+0x2e>
/home/yin/imx-optee/imx-optee-os/lib/libutee/tee_api_objects.c:516
    2b0e:	b1a9      	cbz	r1, 2b3c <TEE_RenamePersistentObject+0x32>
/home/yin/imx-optee/imx-optee-os/lib/libutee/tee_api_objects.c:521
    2b10:	2a40      	cmp	r2, #64	; 0x40
    2b12:	d813      	bhi.n	2b3c <TEE_RenamePersistentObject+0x32>
/home/yin/imx-optee/imx-optee-os/lib/libutee/tee_api_objects.c:526
    2b14:	f7ff e88a 	blx	1c2c <utee_storage_obj_rename>
/home/yin/imx-optee/imx-optee-os/lib/libutee/tee_api_objects.c:530
    2b18:	4604      	mov	r4, r0
    2b1a:	b158      	cbz	r0, 2b34 <TEE_RenamePersistentObject+0x2a>
/home/yin/imx-optee/imx-optee-os/lib/libutee/tee_api_objects.c:530 (discriminator 1)
    2b1c:	4b08      	ldr	r3, [pc, #32]	; (2b40 <TEE_RenamePersistentObject+0x36>)
    2b1e:	4298      	cmp	r0, r3
    2b20:	d008      	beq.n	2b34 <TEE_RenamePersistentObject+0x2a>
/home/yin/imx-optee/imx-optee-os/lib/libutee/tee_api_objects.c:531
    2b22:	4b08      	ldr	r3, [pc, #32]	; (2b44 <TEE_RenamePersistentObject+0x3a>)
    2b24:	4298      	cmp	r0, r3
    2b26:	d005      	beq.n	2b34 <TEE_RenamePersistentObject+0x2a>
/home/yin/imx-optee/imx-optee-os/lib/libutee/tee_api_objects.c:532
    2b28:	3302      	adds	r3, #2
    2b2a:	4298      	cmp	r0, r3
    2b2c:	d002      	beq.n	2b34 <TEE_RenamePersistentObject+0x2a>
/home/yin/imx-optee/imx-optee-os/lib/libutee/tee_api_objects.c:534
    2b2e:	4620      	mov	r0, r4
    2b30:	f002 f9a8 	bl	4e84 <TEE_Panic>
/home/yin/imx-optee/imx-optee-os/lib/libutee/tee_api_objects.c:537
    2b34:	4620      	mov	r0, r4
    2b36:	bd10      	pop	{r4, pc}
/home/yin/imx-optee/imx-optee-os/lib/libutee/tee_api_objects.c:512
    2b38:	4c03      	ldr	r4, [pc, #12]	; (2b48 <TEE_RenamePersistentObject+0x3e>)
    2b3a:	e7f8      	b.n	2b2e <TEE_RenamePersistentObject+0x24>
/home/yin/imx-optee/imx-optee-os/lib/libutee/tee_api_objects.c:517
    2b3c:	4c03      	ldr	r4, [pc, #12]	; (2b4c <TEE_RenamePersistentObject+0x42>)
    2b3e:	e7f6      	b.n	2b2e <TEE_RenamePersistentObject+0x24>
    2b40:	ffff0003 	.word	0xffff0003
    2b44:	f0100001 	.word	0xf0100001
    2b48:	ffff0008 	.word	0xffff0008
    2b4c:	ffff0006 	.word	0xffff0006

00002b50 <TEE_AllocatePersistentObjectEnumerator>:
TEE_AllocatePersistentObjectEnumerator():
/home/yin/imx-optee/imx-optee-os/lib/libutee/tee_api_objects.c:541
    2b50:	b537      	push	{r0, r1, r2, r4, r5, lr}
/home/yin/imx-optee/imx-optee-os/lib/libutee/tee_api_objects.c:545
    2b52:	4605      	mov	r5, r0
    2b54:	b190      	cbz	r0, 2b7c <TEE_AllocatePersistentObjectEnumerator+0x2c>
/home/yin/imx-optee/imx-optee-os/lib/libutee/tee_api_objects.c:548
    2b56:	a801      	add	r0, sp, #4
    2b58:	f7ff e872 	blx	1c40 <utee_storage_alloc_enum>
/home/yin/imx-optee/imx-optee-os/lib/libutee/tee_api_objects.c:550
    2b5c:	4604      	mov	r4, r0
    2b5e:	b108      	cbz	r0, 2b64 <TEE_AllocatePersistentObjectEnumerator+0x14>
/home/yin/imx-optee/imx-optee-os/lib/libutee/tee_api_objects.c:551
    2b60:	2300      	movs	r3, #0
    2b62:	9301      	str	r3, [sp, #4]
/home/yin/imx-optee/imx-optee-os/lib/libutee/tee_api_objects.c:553
    2b64:	9b01      	ldr	r3, [sp, #4]
    2b66:	602b      	str	r3, [r5, #0]
/home/yin/imx-optee/imx-optee-os/lib/libutee/tee_api_objects.c:555
    2b68:	b12c      	cbz	r4, 2b76 <TEE_AllocatePersistentObjectEnumerator+0x26>
/home/yin/imx-optee/imx-optee-os/lib/libutee/tee_api_objects.c:555 (discriminator 1)
    2b6a:	4b05      	ldr	r3, [pc, #20]	; (2b80 <TEE_AllocatePersistentObjectEnumerator+0x30>)
    2b6c:	429c      	cmp	r4, r3
    2b6e:	d002      	beq.n	2b76 <TEE_AllocatePersistentObjectEnumerator+0x26>
/home/yin/imx-optee/imx-optee-os/lib/libutee/tee_api_objects.c:557
    2b70:	4620      	mov	r0, r4
    2b72:	f002 f987 	bl	4e84 <TEE_Panic>
/home/yin/imx-optee/imx-optee-os/lib/libutee/tee_api_objects.c:560
    2b76:	4620      	mov	r0, r4
    2b78:	b003      	add	sp, #12
    2b7a:	bd30      	pop	{r4, r5, pc}
/home/yin/imx-optee/imx-optee-os/lib/libutee/tee_api_objects.c:546
    2b7c:	4c01      	ldr	r4, [pc, #4]	; (2b84 <TEE_AllocatePersistentObjectEnumerator+0x34>)
    2b7e:	e7fa      	b.n	2b76 <TEE_AllocatePersistentObjectEnumerator+0x26>
    2b80:	ffff0003 	.word	0xffff0003
    2b84:	ffff0006 	.word	0xffff0006

00002b88 <TEE_FreePersistentObjectEnumerator>:
TEE_FreePersistentObjectEnumerator():
/home/yin/imx-optee/imx-optee-os/lib/libutee/tee_api_objects.c:563
    2b88:	b508      	push	{r3, lr}
/home/yin/imx-optee/imx-optee-os/lib/libutee/tee_api_objects.c:566
    2b8a:	b130      	cbz	r0, 2b9a <TEE_FreePersistentObjectEnumerator+0x12>
/home/yin/imx-optee/imx-optee-os/lib/libutee/tee_api_objects.c:569
    2b8c:	f7ff e862 	blx	1c54 <utee_storage_free_enum>
/home/yin/imx-optee/imx-optee-os/lib/libutee/tee_api_objects.c:571
    2b90:	b118      	cbz	r0, 2b9a <TEE_FreePersistentObjectEnumerator+0x12>
/home/yin/imx-optee/imx-optee-os/lib/libutee/tee_api_objects.c:573
    2b92:	e8bd 4008 	ldmia.w	sp!, {r3, lr}
/home/yin/imx-optee/imx-optee-os/lib/libutee/tee_api_objects.c:572
    2b96:	f002 b975 	b.w	4e84 <TEE_Panic>
    2b9a:	bd08      	pop	{r3, pc}

00002b9c <TEE_ResetPersistentObjectEnumerator>:
TEE_ResetPersistentObjectEnumerator():
/home/yin/imx-optee/imx-optee-os/lib/libutee/tee_api_objects.c:576
    2b9c:	b508      	push	{r3, lr}
/home/yin/imx-optee/imx-optee-os/lib/libutee/tee_api_objects.c:579
    2b9e:	b130      	cbz	r0, 2bae <TEE_ResetPersistentObjectEnumerator+0x12>
/home/yin/imx-optee/imx-optee-os/lib/libutee/tee_api_objects.c:582
    2ba0:	f7ff e862 	blx	1c68 <utee_storage_reset_enum>
/home/yin/imx-optee/imx-optee-os/lib/libutee/tee_api_objects.c:584
    2ba4:	b118      	cbz	r0, 2bae <TEE_ResetPersistentObjectEnumerator+0x12>
/home/yin/imx-optee/imx-optee-os/lib/libutee/tee_api_objects.c:586
    2ba6:	e8bd 4008 	ldmia.w	sp!, {r3, lr}
/home/yin/imx-optee/imx-optee-os/lib/libutee/tee_api_objects.c:585
    2baa:	f002 b96b 	b.w	4e84 <TEE_Panic>
    2bae:	bd08      	pop	{r3, pc}

00002bb0 <TEE_StartPersistentObjectEnumerator>:
TEE_StartPersistentObjectEnumerator():
/home/yin/imx-optee/imx-optee-os/lib/libutee/tee_api_objects.c:591
    2bb0:	b510      	push	{r4, lr}
/home/yin/imx-optee/imx-optee-os/lib/libutee/tee_api_objects.c:594
    2bb2:	f7ff e864 	blx	1c7c <utee_storage_start_enum>
/home/yin/imx-optee/imx-optee-os/lib/libutee/tee_api_objects.c:597
    2bb6:	4604      	mov	r4, r0
    2bb8:	b148      	cbz	r0, 2bce <TEE_StartPersistentObjectEnumerator+0x1e>
/home/yin/imx-optee/imx-optee-os/lib/libutee/tee_api_objects.c:597 (discriminator 1)
    2bba:	4b06      	ldr	r3, [pc, #24]	; (2bd4 <TEE_StartPersistentObjectEnumerator+0x24>)
    2bbc:	4298      	cmp	r0, r3
    2bbe:	d006      	beq.n	2bce <TEE_StartPersistentObjectEnumerator+0x1e>
/home/yin/imx-optee/imx-optee-os/lib/libutee/tee_api_objects.c:598
    2bc0:	4b05      	ldr	r3, [pc, #20]	; (2bd8 <TEE_StartPersistentObjectEnumerator+0x28>)
    2bc2:	f020 0202 	bic.w	r2, r0, #2
    2bc6:	429a      	cmp	r2, r3
    2bc8:	d001      	beq.n	2bce <TEE_StartPersistentObjectEnumerator+0x1e>
/home/yin/imx-optee/imx-optee-os/lib/libutee/tee_api_objects.c:601
    2bca:	f002 f95b 	bl	4e84 <TEE_Panic>
/home/yin/imx-optee/imx-optee-os/lib/libutee/tee_api_objects.c:604
    2bce:	4620      	mov	r0, r4
    2bd0:	bd10      	pop	{r4, pc}
    2bd2:	bf00      	nop
    2bd4:	ffff0008 	.word	0xffff0008
    2bd8:	f0100001 	.word	0xf0100001

00002bdc <TEE_GetNextPersistentObject>:
TEE_GetNextPersistentObject():
/home/yin/imx-optee/imx-optee-os/lib/libutee/tee_api_objects.c:609
    2bdc:	b510      	push	{r4, lr}
    2bde:	461c      	mov	r4, r3
    2be0:	b08a      	sub	sp, #40	; 0x28
/home/yin/imx-optee/imx-optee-os/lib/libutee/tee_api_objects.c:615
    2be2:	b1e2      	cbz	r2, 2c1e <TEE_GetNextPersistentObject+0x42>
/home/yin/imx-optee/imx-optee-os/lib/libutee/tee_api_objects.c:620
    2be4:	b1db      	cbz	r3, 2c1e <TEE_GetNextPersistentObject+0x42>
/home/yin/imx-optee/imx-optee-os/lib/libutee/tee_api_objects.c:625
    2be6:	b901      	cbnz	r1, 2bea <TEE_GetNextPersistentObject+0xe>
/home/yin/imx-optee/imx-optee-os/lib/libutee/tee_api_objects.c:628
    2be8:	a903      	add	r1, sp, #12
/home/yin/imx-optee/imx-optee-os/lib/libutee/tee_api_objects.c:629
    2bea:	6823      	ldr	r3, [r4, #0]
    2bec:	9300      	str	r3, [sp, #0]
    2bee:	2300      	movs	r3, #0
    2bf0:	9301      	str	r3, [sp, #4]
/home/yin/imx-optee/imx-optee-os/lib/libutee/tee_api_objects.c:630
    2bf2:	466b      	mov	r3, sp
    2bf4:	f7ff e84c 	blx	1c90 <utee_storage_next_enum>
/home/yin/imx-optee/imx-optee-os/lib/libutee/tee_api_objects.c:632
    2bf8:	9b00      	ldr	r3, [sp, #0]
    2bfa:	6023      	str	r3, [r4, #0]
/home/yin/imx-optee/imx-optee-os/lib/libutee/tee_api_objects.c:635
    2bfc:	4604      	mov	r4, r0
    2bfe:	b158      	cbz	r0, 2c18 <TEE_GetNextPersistentObject+0x3c>
/home/yin/imx-optee/imx-optee-os/lib/libutee/tee_api_objects.c:635 (discriminator 1)
    2c00:	4b08      	ldr	r3, [pc, #32]	; (2c24 <TEE_GetNextPersistentObject+0x48>)
    2c02:	4298      	cmp	r0, r3
    2c04:	d008      	beq.n	2c18 <TEE_GetNextPersistentObject+0x3c>
/home/yin/imx-optee/imx-optee-os/lib/libutee/tee_api_objects.c:636
    2c06:	4b08      	ldr	r3, [pc, #32]	; (2c28 <TEE_GetNextPersistentObject+0x4c>)
    2c08:	4298      	cmp	r0, r3
    2c0a:	d005      	beq.n	2c18 <TEE_GetNextPersistentObject+0x3c>
/home/yin/imx-optee/imx-optee-os/lib/libutee/tee_api_objects.c:637
    2c0c:	3302      	adds	r3, #2
    2c0e:	4298      	cmp	r0, r3
    2c10:	d002      	beq.n	2c18 <TEE_GetNextPersistentObject+0x3c>
/home/yin/imx-optee/imx-optee-os/lib/libutee/tee_api_objects.c:639
    2c12:	4620      	mov	r0, r4
    2c14:	f002 f936 	bl	4e84 <TEE_Panic>
/home/yin/imx-optee/imx-optee-os/lib/libutee/tee_api_objects.c:642
    2c18:	4620      	mov	r0, r4
    2c1a:	b00a      	add	sp, #40	; 0x28
    2c1c:	bd10      	pop	{r4, pc}
    2c1e:	4c03      	ldr	r4, [pc, #12]	; (2c2c <TEE_GetNextPersistentObject+0x50>)
    2c20:	e7f7      	b.n	2c12 <TEE_GetNextPersistentObject+0x36>
    2c22:	bf00      	nop
    2c24:	ffff0008 	.word	0xffff0008
    2c28:	f0100001 	.word	0xf0100001
    2c2c:	ffff0006 	.word	0xffff0006

00002c30 <TEE_ReadObjectData>:
TEE_ReadObjectData():
/home/yin/imx-optee/imx-optee-os/lib/libutee/tee_api_objects.c:648
    2c30:	b513      	push	{r0, r1, r4, lr}
    2c32:	461c      	mov	r4, r3
/home/yin/imx-optee/imx-optee-os/lib/libutee/tee_api_objects.c:652
    2c34:	b1b0      	cbz	r0, 2c64 <TEE_ReadObjectData+0x34>
/home/yin/imx-optee/imx-optee-os/lib/libutee/tee_api_objects.c:657
    2c36:	681b      	ldr	r3, [r3, #0]
    2c38:	9300      	str	r3, [sp, #0]
    2c3a:	2300      	movs	r3, #0
    2c3c:	9301      	str	r3, [sp, #4]
/home/yin/imx-optee/imx-optee-os/lib/libutee/tee_api_objects.c:658
    2c3e:	466b      	mov	r3, sp
    2c40:	f7ff e830 	blx	1ca4 <utee_storage_obj_read>
/home/yin/imx-optee/imx-optee-os/lib/libutee/tee_api_objects.c:660
    2c44:	9b00      	ldr	r3, [sp, #0]
    2c46:	6023      	str	r3, [r4, #0]
/home/yin/imx-optee/imx-optee-os/lib/libutee/tee_api_objects.c:663
    2c48:	4604      	mov	r4, r0
    2c4a:	b140      	cbz	r0, 2c5e <TEE_ReadObjectData+0x2e>
/home/yin/imx-optee/imx-optee-os/lib/libutee/tee_api_objects.c:663 (discriminator 1)
    2c4c:	4b06      	ldr	r3, [pc, #24]	; (2c68 <TEE_ReadObjectData+0x38>)
    2c4e:	4298      	cmp	r0, r3
    2c50:	d005      	beq.n	2c5e <TEE_ReadObjectData+0x2e>
/home/yin/imx-optee/imx-optee-os/lib/libutee/tee_api_objects.c:664
    2c52:	3302      	adds	r3, #2
    2c54:	4298      	cmp	r0, r3
    2c56:	d002      	beq.n	2c5e <TEE_ReadObjectData+0x2e>
/home/yin/imx-optee/imx-optee-os/lib/libutee/tee_api_objects.c:666
    2c58:	4620      	mov	r0, r4
    2c5a:	f002 f913 	bl	4e84 <TEE_Panic>
/home/yin/imx-optee/imx-optee-os/lib/libutee/tee_api_objects.c:669
    2c5e:	4620      	mov	r0, r4
    2c60:	b002      	add	sp, #8
    2c62:	bd10      	pop	{r4, pc}
/home/yin/imx-optee/imx-optee-os/lib/libutee/tee_api_objects.c:653
    2c64:	4c01      	ldr	r4, [pc, #4]	; (2c6c <TEE_ReadObjectData+0x3c>)
    2c66:	e7f7      	b.n	2c58 <TEE_ReadObjectData+0x28>
    2c68:	f0100001 	.word	0xf0100001
    2c6c:	ffff0006 	.word	0xffff0006

00002c70 <TEE_WriteObjectData>:
TEE_WriteObjectData():
/home/yin/imx-optee/imx-optee-os/lib/libutee/tee_api_objects.c:673
    2c70:	b510      	push	{r4, lr}
/home/yin/imx-optee/imx-optee-os/lib/libutee/tee_api_objects.c:676
    2c72:	b1a0      	cbz	r0, 2c9e <TEE_WriteObjectData+0x2e>
/home/yin/imx-optee/imx-optee-os/lib/libutee/tee_api_objects.c:686
    2c74:	f7ff e820 	blx	1cb8 <utee_storage_obj_write>
/home/yin/imx-optee/imx-optee-os/lib/libutee/tee_api_objects.c:689
    2c78:	4604      	mov	r4, r0
    2c7a:	b170      	cbz	r0, 2c9a <TEE_WriteObjectData+0x2a>
/home/yin/imx-optee/imx-optee-os/lib/libutee/tee_api_objects.c:689 (discriminator 1)
    2c7c:	4b09      	ldr	r3, [pc, #36]	; (2ca4 <TEE_WriteObjectData+0x34>)
    2c7e:	4298      	cmp	r0, r3
    2c80:	d00b      	beq.n	2c9a <TEE_WriteObjectData+0x2a>
/home/yin/imx-optee/imx-optee-os/lib/libutee/tee_api_objects.c:690
    2c82:	3b32      	subs	r3, #50	; 0x32
    2c84:	4298      	cmp	r0, r3
    2c86:	d008      	beq.n	2c9a <TEE_WriteObjectData+0x2a>
/home/yin/imx-optee/imx-optee-os/lib/libutee/tee_api_objects.c:691
    2c88:	4b07      	ldr	r3, [pc, #28]	; (2ca8 <TEE_WriteObjectData+0x38>)
    2c8a:	4298      	cmp	r0, r3
    2c8c:	d005      	beq.n	2c9a <TEE_WriteObjectData+0x2a>
/home/yin/imx-optee/imx-optee-os/lib/libutee/tee_api_objects.c:692
    2c8e:	3302      	adds	r3, #2
    2c90:	4298      	cmp	r0, r3
    2c92:	d002      	beq.n	2c9a <TEE_WriteObjectData+0x2a>
/home/yin/imx-optee/imx-optee-os/lib/libutee/tee_api_objects.c:694
    2c94:	4620      	mov	r0, r4
    2c96:	f002 f8f5 	bl	4e84 <TEE_Panic>
/home/yin/imx-optee/imx-optee-os/lib/libutee/tee_api_objects.c:697
    2c9a:	4620      	mov	r0, r4
    2c9c:	bd10      	pop	{r4, pc}
/home/yin/imx-optee/imx-optee-os/lib/libutee/tee_api_objects.c:677
    2c9e:	4c03      	ldr	r4, [pc, #12]	; (2cac <TEE_WriteObjectData+0x3c>)
    2ca0:	e7f8      	b.n	2c94 <TEE_WriteObjectData+0x24>
    2ca2:	bf00      	nop
    2ca4:	ffff3041 	.word	0xffff3041
    2ca8:	f0100001 	.word	0xf0100001
    2cac:	ffff0006 	.word	0xffff0006

00002cb0 <TEE_TruncateObjectData>:
TEE_TruncateObjectData():
/home/yin/imx-optee/imx-optee-os/lib/libutee/tee_api_objects.c:700
    2cb0:	b510      	push	{r4, lr}
/home/yin/imx-optee/imx-optee-os/lib/libutee/tee_api_objects.c:703
    2cb2:	b188      	cbz	r0, 2cd8 <TEE_TruncateObjectData+0x28>
/home/yin/imx-optee/imx-optee-os/lib/libutee/tee_api_objects.c:708
    2cb4:	f7ff e80a 	blx	1ccc <utee_storage_obj_trunc>
/home/yin/imx-optee/imx-optee-os/lib/libutee/tee_api_objects.c:711
    2cb8:	4604      	mov	r4, r0
    2cba:	b158      	cbz	r0, 2cd4 <TEE_TruncateObjectData+0x24>
/home/yin/imx-optee/imx-optee-os/lib/libutee/tee_api_objects.c:711 (discriminator 1)
    2cbc:	4b07      	ldr	r3, [pc, #28]	; (2cdc <TEE_TruncateObjectData+0x2c>)
    2cbe:	4298      	cmp	r0, r3
    2cc0:	d008      	beq.n	2cd4 <TEE_TruncateObjectData+0x24>
/home/yin/imx-optee/imx-optee-os/lib/libutee/tee_api_objects.c:712
    2cc2:	4b07      	ldr	r3, [pc, #28]	; (2ce0 <TEE_TruncateObjectData+0x30>)
    2cc4:	4298      	cmp	r0, r3
    2cc6:	d005      	beq.n	2cd4 <TEE_TruncateObjectData+0x24>
/home/yin/imx-optee/imx-optee-os/lib/libutee/tee_api_objects.c:713
    2cc8:	3302      	adds	r3, #2
    2cca:	4298      	cmp	r0, r3
    2ccc:	d002      	beq.n	2cd4 <TEE_TruncateObjectData+0x24>
/home/yin/imx-optee/imx-optee-os/lib/libutee/tee_api_objects.c:715
    2cce:	4620      	mov	r0, r4
    2cd0:	f002 f8d8 	bl	4e84 <TEE_Panic>
/home/yin/imx-optee/imx-optee-os/lib/libutee/tee_api_objects.c:718
    2cd4:	4620      	mov	r0, r4
    2cd6:	bd10      	pop	{r4, pc}
/home/yin/imx-optee/imx-optee-os/lib/libutee/tee_api_objects.c:704
    2cd8:	4c02      	ldr	r4, [pc, #8]	; (2ce4 <TEE_TruncateObjectData+0x34>)
    2cda:	e7f8      	b.n	2cce <TEE_TruncateObjectData+0x1e>
    2cdc:	ffff3041 	.word	0xffff3041
    2ce0:	f0100001 	.word	0xf0100001
    2ce4:	ffff0006 	.word	0xffff0006

00002ce8 <TEE_SeekObjectData>:
TEE_SeekObjectData():
/home/yin/imx-optee/imx-optee-os/lib/libutee/tee_api_objects.c:722
    2ce8:	b5f0      	push	{r4, r5, r6, r7, lr}
    2cea:	460d      	mov	r5, r1
    2cec:	b089      	sub	sp, #36	; 0x24
    2cee:	4616      	mov	r6, r2
/home/yin/imx-optee/imx-optee-os/lib/libutee/tee_api_objects.c:726
    2cf0:	4607      	mov	r7, r0
    2cf2:	b368      	cbz	r0, 2d50 <TEE_SeekObjectData+0x68>
/home/yin/imx-optee/imx-optee-os/lib/libutee/tee_api_objects.c:731
    2cf4:	a901      	add	r1, sp, #4
    2cf6:	f7fe eec2 	blx	1a7c <utee_cryp_obj_get_info>
/home/yin/imx-optee/imx-optee-os/lib/libutee/tee_api_objects.c:732
    2cfa:	4604      	mov	r4, r0
    2cfc:	b9d8      	cbnz	r0, 2d36 <TEE_SeekObjectData+0x4e>
/home/yin/imx-optee/imx-optee-os/lib/libutee/tee_api_objects.c:735
    2cfe:	2e01      	cmp	r6, #1
    2d00:	d004      	beq.n	2d0c <TEE_SeekObjectData+0x24>
    2d02:	d310      	bcc.n	2d26 <TEE_SeekObjectData+0x3e>
    2d04:	2e02      	cmp	r6, #2
    2d06:	d00a      	beq.n	2d1e <TEE_SeekObjectData+0x36>
/home/yin/imx-optee/imx-optee-os/lib/libutee/tee_api_objects.c:761
    2d08:	4c12      	ldr	r4, [pc, #72]	; (2d54 <TEE_SeekObjectData+0x6c>)
    2d0a:	e017      	b.n	2d3c <TEE_SeekObjectData+0x54>
/home/yin/imx-optee/imx-optee-os/lib/libutee/tee_api_objects.c:743
    2d0c:	2d00      	cmp	r5, #0
    2d0e:	dd0a      	ble.n	2d26 <TEE_SeekObjectData+0x3e>
/home/yin/imx-optee/imx-optee-os/lib/libutee/tee_api_objects.c:743 (discriminator 1)
    2d10:	9b06      	ldr	r3, [sp, #24]
    2d12:	42dd      	cmn	r5, r3
    2d14:	d307      	bcc.n	2d26 <TEE_SeekObjectData+0x3e>
/home/yin/imx-optee/imx-optee-os/lib/libutee/tee_api_objects.c:727
    2d16:	4c10      	ldr	r4, [pc, #64]	; (2d58 <TEE_SeekObjectData+0x70>)
/home/yin/imx-optee/imx-optee-os/lib/libutee/tee_api_objects.c:775
    2d18:	4620      	mov	r0, r4
    2d1a:	b009      	add	sp, #36	; 0x24
    2d1c:	bdf0      	pop	{r4, r5, r6, r7, pc}
/home/yin/imx-optee/imx-optee-os/lib/libutee/tee_api_objects.c:753
    2d1e:	2d00      	cmp	r5, #0
    2d20:	dd01      	ble.n	2d26 <TEE_SeekObjectData+0x3e>
/home/yin/imx-optee/imx-optee-os/lib/libutee/tee_api_objects.c:753 (discriminator 1)
    2d22:	9b05      	ldr	r3, [sp, #20]
    2d24:	e7f5      	b.n	2d12 <TEE_SeekObjectData+0x2a>
/home/yin/imx-optee/imx-optee-os/lib/libutee/tee_api_objects.c:765
    2d26:	4632      	mov	r2, r6
    2d28:	4629      	mov	r1, r5
    2d2a:	4638      	mov	r0, r7
    2d2c:	f7fe efd8 	blx	1ce0 <utee_storage_obj_seek>
/home/yin/imx-optee/imx-optee-os/lib/libutee/tee_api_objects.c:768
    2d30:	4604      	mov	r4, r0
    2d32:	2800      	cmp	r0, #0
    2d34:	d0f0      	beq.n	2d18 <TEE_SeekObjectData+0x30>
/home/yin/imx-optee/imx-optee-os/lib/libutee/tee_api_objects.c:768 (discriminator 1)
    2d36:	4b08      	ldr	r3, [pc, #32]	; (2d58 <TEE_SeekObjectData+0x70>)
    2d38:	429c      	cmp	r4, r3
    2d3a:	d0ec      	beq.n	2d16 <TEE_SeekObjectData+0x2e>
/home/yin/imx-optee/imx-optee-os/lib/libutee/tee_api_objects.c:769
    2d3c:	4b07      	ldr	r3, [pc, #28]	; (2d5c <TEE_SeekObjectData+0x74>)
    2d3e:	429c      	cmp	r4, r3
    2d40:	d0ea      	beq.n	2d18 <TEE_SeekObjectData+0x30>
/home/yin/imx-optee/imx-optee-os/lib/libutee/tee_api_objects.c:770
    2d42:	3302      	adds	r3, #2
    2d44:	429c      	cmp	r4, r3
    2d46:	d0e7      	beq.n	2d18 <TEE_SeekObjectData+0x30>
/home/yin/imx-optee/imx-optee-os/lib/libutee/tee_api_objects.c:772
    2d48:	4620      	mov	r0, r4
    2d4a:	f002 f89b 	bl	4e84 <TEE_Panic>
/home/yin/imx-optee/imx-optee-os/lib/libutee/tee_api_objects.c:774
    2d4e:	e7e3      	b.n	2d18 <TEE_SeekObjectData+0x30>
/home/yin/imx-optee/imx-optee-os/lib/libutee/tee_api_objects.c:727
    2d50:	4c03      	ldr	r4, [pc, #12]	; (2d60 <TEE_SeekObjectData+0x78>)
    2d52:	e7f9      	b.n	2d48 <TEE_SeekObjectData+0x60>
    2d54:	ffff0008 	.word	0xffff0008
    2d58:	ffff300f 	.word	0xffff300f
    2d5c:	f0100001 	.word	0xf0100001
    2d60:	ffff0006 	.word	0xffff0006

00002d64 <trace_ext_puts>:
trace_ext_puts():
/home/yin/imx-optee/imx-optee-os/lib/libutee/trace_ext.c:17
    2d64:	b510      	push	{r4, lr}
    2d66:	4604      	mov	r4, r0
/home/yin/imx-optee/imx-optee-os/lib/libutee/trace_ext.c:18
    2d68:	f002 f8e0 	bl	4f2c <strlen>
    2d6c:	4601      	mov	r1, r0
    2d6e:	4620      	mov	r0, r4
/home/yin/imx-optee/imx-optee-os/lib/libutee/trace_ext.c:19
    2d70:	e8bd 4010 	ldmia.w	sp!, {r4, lr}
/home/yin/imx-optee/imx-optee-os/lib/libutee/trace_ext.c:18
    2d74:	f003 bf1c 	b.w	6bb0 <__utee_log_from_thumb>

00002d78 <trace_ext_get_thread_id>:
trace_ext_get_thread_id():
/home/yin/imx-optee/imx-optee-os/lib/libutee/trace_ext.c:24
    2d78:	f04f 30ff 	mov.w	r0, #4294967295	; 0xffffffff
    2d7c:	4770      	bx	lr

00002d7e <printf>:
printf():
/home/yin/imx-optee/imx-optee-os/lib/libutee/trace_ext.c:32
    2d7e:	b40f      	push	{r0, r1, r2, r3}
    2d80:	b530      	push	{r4, r5, lr}
    2d82:	b0c3      	sub	sp, #268	; 0x10c
/home/yin/imx-optee/imx-optee-os/lib/libutee/trace_ext.c:37
    2d84:	f001 f90a 	bl	3f9c <trace_get_level>
    2d88:	2800      	cmp	r0, #0
    2d8a:	dd13      	ble.n	2db4 <printf+0x36>
/home/yin/imx-optee/imx-optee-os/lib/libutee/trace_ext.c:41
    2d8c:	ad02      	add	r5, sp, #8
/home/yin/imx-optee/imx-optee-os/lib/libutee/trace_ext.c:40
    2d8e:	ab47      	add	r3, sp, #284	; 0x11c
/home/yin/imx-optee/imx-optee-os/lib/libutee/trace_ext.c:41
    2d90:	9a46      	ldr	r2, [sp, #280]	; 0x118
    2d92:	f44f 7180 	mov.w	r1, #256	; 0x100
    2d96:	4628      	mov	r0, r5
/home/yin/imx-optee/imx-optee-os/lib/libutee/trace_ext.c:40
    2d98:	9301      	str	r3, [sp, #4]
/home/yin/imx-optee/imx-optee-os/lib/libutee/trace_ext.c:41
    2d9a:	f002 f884 	bl	4ea6 <vsnprintf>
/home/yin/imx-optee/imx-optee-os/lib/libutee/trace_ext.c:44
    2d9e:	1e04      	subs	r4, r0, #0
    2da0:	db02      	blt.n	2da8 <printf+0x2a>
/home/yin/imx-optee/imx-optee-os/lib/libutee/trace_ext.c:47
    2da2:	4628      	mov	r0, r5
    2da4:	f7ff ffde 	bl	2d64 <trace_ext_puts>
/home/yin/imx-optee/imx-optee-os/lib/libutee/trace_ext.c:50
    2da8:	4620      	mov	r0, r4
    2daa:	b043      	add	sp, #268	; 0x10c
    2dac:	e8bd 4030 	ldmia.w	sp!, {r4, r5, lr}
    2db0:	b004      	add	sp, #16
    2db2:	4770      	bx	lr
/home/yin/imx-optee/imx-optee-os/lib/libutee/trace_ext.c:38
    2db4:	2400      	movs	r4, #0
    2db6:	e7f7      	b.n	2da8 <printf+0x2a>

00002db8 <puts>:
puts():
/home/yin/imx-optee/imx-optee-os/lib/libutee/trace_ext.c:53
    2db8:	b510      	push	{r4, lr}
    2dba:	4604      	mov	r4, r0
/home/yin/imx-optee/imx-optee-os/lib/libutee/trace_ext.c:54
    2dbc:	f001 f8ee 	bl	3f9c <trace_get_level>
    2dc0:	2800      	cmp	r0, #0
    2dc2:	dd06      	ble.n	2dd2 <puts+0x1a>
/home/yin/imx-optee/imx-optee-os/lib/libutee/trace_ext.c:55
    2dc4:	4620      	mov	r0, r4
    2dc6:	f7ff ffcd 	bl	2d64 <trace_ext_puts>
/home/yin/imx-optee/imx-optee-os/lib/libutee/trace_ext.c:56
    2dca:	4803      	ldr	r0, [pc, #12]	; (2dd8 <puts+0x20>)
    2dcc:	4478      	add	r0, pc
    2dce:	f7ff ffc9 	bl	2d64 <trace_ext_puts>
/home/yin/imx-optee/imx-optee-os/lib/libutee/trace_ext.c:59
    2dd2:	2001      	movs	r0, #1
    2dd4:	bd10      	pop	{r4, pc}
    2dd6:	bf00      	nop
    2dd8:	00004ce8 	.word	0x00004ce8

00002ddc <putchar>:
putchar():
/home/yin/imx-optee/imx-optee-os/lib/libutee/trace_ext.c:62
    2ddc:	b513      	push	{r0, r1, r4, lr}
/home/yin/imx-optee/imx-optee-os/lib/libutee/trace_ext.c:63
    2dde:	2300      	movs	r3, #0
/home/yin/imx-optee/imx-optee-os/lib/libutee/trace_ext.c:62
    2de0:	4604      	mov	r4, r0
/home/yin/imx-optee/imx-optee-os/lib/libutee/trace_ext.c:63
    2de2:	f88d 0004 	strb.w	r0, [sp, #4]
    2de6:	f88d 3005 	strb.w	r3, [sp, #5]
/home/yin/imx-optee/imx-optee-os/lib/libutee/trace_ext.c:65
    2dea:	f001 f8d7 	bl	3f9c <trace_get_level>
    2dee:	2800      	cmp	r0, #0
    2df0:	dd02      	ble.n	2df8 <putchar+0x1c>
/home/yin/imx-optee/imx-optee-os/lib/libutee/trace_ext.c:66
    2df2:	a801      	add	r0, sp, #4
    2df4:	f7ff ffb6 	bl	2d64 <trace_ext_puts>
/home/yin/imx-optee/imx-optee-os/lib/libutee/trace_ext.c:73
    2df8:	b2e0      	uxtb	r0, r4
    2dfa:	b002      	add	sp, #8
    2dfc:	bd10      	pop	{r4, pc}
    2dfe:	bf00      	nop

00002e00 <create_free_block.constprop.11>:
create_free_block():
/home/yin/imx-optee/imx-optee-os/lib/libutils/isoc/bget_malloc.c:380
    2e00:	b508      	push	{r3, lr}
/home/yin/imx-optee/imx-optee-os/lib/libutils/isoc/bget_malloc.c:383
    2e02:	1843      	adds	r3, r0, r1
    2e04:	4293      	cmp	r3, r2
    2e06:	d00b      	beq.n	2e20 <create_free_block.constprop.11+0x20>
    2e08:	4b23      	ldr	r3, [pc, #140]	; (2e98 <create_free_block.constprop.11+0x98>)
    2e0a:	f240 127f 	movw	r2, #383	; 0x17f
    2e0e:	4923      	ldr	r1, [pc, #140]	; (2e9c <create_free_block.constprop.11+0x9c>)
    2e10:	4823      	ldr	r0, [pc, #140]	; (2ea0 <create_free_block.constprop.11+0xa0>)
    2e12:	447b      	add	r3, pc
    2e14:	4479      	add	r1, pc
    2e16:	4478      	add	r0, pc
/home/yin/imx-optee/imx-optee-os/lib/libutils/isoc/bget_malloc.c:384
    2e18:	f002 f816 	bl	4e48 <_assert_log>
    2e1c:	f002 f828 	bl	4e70 <_assert_break>
    2e20:	685b      	ldr	r3, [r3, #4]
    2e22:	2b00      	cmp	r3, #0
    2e24:	db08      	blt.n	2e38 <create_free_block.constprop.11+0x38>
    2e26:	4b1f      	ldr	r3, [pc, #124]	; (2ea4 <create_free_block.constprop.11+0xa4>)
    2e28:	f44f 72c0 	mov.w	r2, #384	; 0x180
    2e2c:	491e      	ldr	r1, [pc, #120]	; (2ea8 <create_free_block.constprop.11+0xa8>)
    2e2e:	481f      	ldr	r0, [pc, #124]	; (2eac <create_free_block.constprop.11+0xac>)
    2e30:	447b      	add	r3, pc
    2e32:	4479      	add	r1, pc
    2e34:	4478      	add	r0, pc
    2e36:	e7ef      	b.n	2e18 <create_free_block.constprop.11+0x18>
/home/yin/imx-optee/imx-optee-os/lib/libutils/isoc/bget_malloc.c:386
    2e38:	5843      	ldr	r3, [r0, r1]
    2e3a:	b143      	cbz	r3, 2e4e <create_free_block.constprop.11+0x4e>
    2e3c:	4b1c      	ldr	r3, [pc, #112]	; (2eb0 <create_free_block.constprop.11+0xb0>)
    2e3e:	f44f 72c1 	mov.w	r2, #386	; 0x182
    2e42:	491c      	ldr	r1, [pc, #112]	; (2eb4 <create_free_block.constprop.11+0xb4>)
    2e44:	481c      	ldr	r0, [pc, #112]	; (2eb8 <create_free_block.constprop.11+0xb8>)
    2e46:	447b      	add	r3, pc
    2e48:	4479      	add	r1, pc
    2e4a:	4478      	add	r0, pc
    2e4c:	e7e4      	b.n	2e18 <create_free_block.constprop.11+0x18>
/home/yin/imx-optee/imx-optee-os/lib/libutils/isoc/bget_malloc.c:390
    2e4e:	6003      	str	r3, [r0, #0]
/home/yin/imx-optee/imx-optee-os/lib/libutils/isoc/bget_malloc.c:396
    2e50:	4b1a      	ldr	r3, [pc, #104]	; (2ebc <create_free_block.constprop.11+0xbc>)
/home/yin/imx-optee/imx-optee-os/lib/libutils/isoc/bget_malloc.c:389
    2e52:	6041      	str	r1, [r0, #4]
/home/yin/imx-optee/imx-optee-os/lib/libutils/isoc/bget_malloc.c:393
    2e54:	5041      	str	r1, [r0, r1]
/home/yin/imx-optee/imx-optee-os/lib/libutils/isoc/bget_malloc.c:396
    2e56:	447b      	add	r3, pc
    2e58:	68d9      	ldr	r1, [r3, #12]
    2e5a:	688a      	ldr	r2, [r1, #8]
    2e5c:	429a      	cmp	r2, r3
    2e5e:	d008      	beq.n	2e72 <create_free_block.constprop.11+0x72>
    2e60:	4b17      	ldr	r3, [pc, #92]	; (2ec0 <create_free_block.constprop.11+0xc0>)
    2e62:	f44f 72c6 	mov.w	r2, #396	; 0x18c
    2e66:	4917      	ldr	r1, [pc, #92]	; (2ec4 <create_free_block.constprop.11+0xc4>)
    2e68:	4817      	ldr	r0, [pc, #92]	; (2ec8 <create_free_block.constprop.11+0xc8>)
    2e6a:	447b      	add	r3, pc
    2e6c:	4479      	add	r1, pc
    2e6e:	4478      	add	r0, pc
    2e70:	e7d2      	b.n	2e18 <create_free_block.constprop.11+0x18>
/home/yin/imx-optee/imx-optee-os/lib/libutils/isoc/bget_malloc.c:397
    2e72:	6893      	ldr	r3, [r2, #8]
    2e74:	68db      	ldr	r3, [r3, #12]
    2e76:	4293      	cmp	r3, r2
    2e78:	d008      	beq.n	2e8c <create_free_block.constprop.11+0x8c>
    2e7a:	4b14      	ldr	r3, [pc, #80]	; (2ecc <create_free_block.constprop.11+0xcc>)
    2e7c:	f240 128d 	movw	r2, #397	; 0x18d
    2e80:	4913      	ldr	r1, [pc, #76]	; (2ed0 <create_free_block.constprop.11+0xd0>)
    2e82:	4814      	ldr	r0, [pc, #80]	; (2ed4 <create_free_block.constprop.11+0xd4>)
    2e84:	447b      	add	r3, pc
    2e86:	4479      	add	r1, pc
    2e88:	4478      	add	r0, pc
    2e8a:	e7c5      	b.n	2e18 <create_free_block.constprop.11+0x18>
/home/yin/imx-optee/imx-optee-os/lib/libutils/isoc/bget_malloc.c:398
    2e8c:	6083      	str	r3, [r0, #8]
/home/yin/imx-optee/imx-optee-os/lib/libutils/isoc/bget_malloc.c:399
    2e8e:	60c1      	str	r1, [r0, #12]
/home/yin/imx-optee/imx-optee-os/lib/libutils/isoc/bget_malloc.c:400
    2e90:	60d8      	str	r0, [r3, #12]
/home/yin/imx-optee/imx-optee-os/lib/libutils/isoc/bget_malloc.c:401
    2e92:	68c3      	ldr	r3, [r0, #12]
    2e94:	6098      	str	r0, [r3, #8]
    2e96:	bd08      	pop	{r3, pc}
    2e98:	00004d10 	.word	0x00004d10
    2e9c:	00004d91 	.word	0x00004d91
    2ea0:	00004daf 	.word	0x00004daf
    2ea4:	00004cf2 	.word	0x00004cf2
    2ea8:	00004d73 	.word	0x00004d73
    2eac:	00004dad 	.word	0x00004dad
    2eb0:	00004cdc 	.word	0x00004cdc
    2eb4:	00004d5d 	.word	0x00004d5d
    2eb8:	00004da5 	.word	0x00004da5
    2ebc:	00006222 	.word	0x00006222
    2ec0:	00004cb8 	.word	0x00004cb8
    2ec4:	00004d39 	.word	0x00004d39
    2ec8:	00004d93 	.word	0x00004d93
    2ecc:	00004c9e 	.word	0x00004c9e
    2ed0:	00004d1f 	.word	0x00004d1f
    2ed4:	00004db4 	.word	0x00004db4

00002ed8 <bget>:
bget():
/home/yin/imx-optee/imx-optee-os/lib/libutils/isoc/bget.c:576
    2ed8:	b538      	push	{r3, r4, r5, lr}
/home/yin/imx-optee/imx-optee-os/lib/libutils/isoc/bget.c:587
    2eda:	1e03      	subs	r3, r0, #0
    2edc:	dc0c      	bgt.n	2ef8 <bget+0x20>
/home/yin/imx-optee/imx-optee-os/lib/libutils/isoc/bget.c:587 (discriminator 1)
    2ede:	4b36      	ldr	r3, [pc, #216]	; (2fb8 <bget+0xe0>)
    2ee0:	f240 224b 	movw	r2, #587	; 0x24b
    2ee4:	4935      	ldr	r1, [pc, #212]	; (2fbc <bget+0xe4>)
    2ee6:	4836      	ldr	r0, [pc, #216]	; (2fc0 <bget+0xe8>)
    2ee8:	447b      	add	r3, pc
    2eea:	3312      	adds	r3, #18
    2eec:	4479      	add	r1, pc
    2eee:	4478      	add	r0, pc
/home/yin/imx-optee/imx-optee-os/lib/libutils/isoc/bget.c:647 (discriminator 1)
    2ef0:	f001 ffaa 	bl	4e48 <_assert_log>
    2ef4:	f001 ffbc 	bl	4e70 <_assert_break>
/home/yin/imx-optee/imx-optee-os/lib/libutils/isoc/bget.c:594
    2ef8:	2b08      	cmp	r3, #8
/home/yin/imx-optee/imx-optee-os/lib/libutils/isoc/bget.c:608
    2efa:	6888      	ldr	r0, [r1, #8]
/home/yin/imx-optee/imx-optee-os/lib/libutils/isoc/bget.c:594
    2efc:	bfb8      	it	lt
    2efe:	2308      	movlt	r3, #8
    2f00:	3307      	adds	r3, #7
    2f02:	f023 0307 	bic.w	r3, r3, #7
/home/yin/imx-optee/imx-optee-os/lib/libutils/isoc/bget.c:598
    2f06:	3308      	adds	r3, #8
/home/yin/imx-optee/imx-optee-os/lib/libutils/isoc/bget.c:630
    2f08:	4288      	cmp	r0, r1
    2f0a:	d101      	bne.n	2f10 <bget+0x38>
/home/yin/imx-optee/imx-optee-os/lib/libutils/isoc/bget.c:758
    2f0c:	2000      	movs	r0, #0
/home/yin/imx-optee/imx-optee-os/lib/libutils/isoc/bget.c:759
    2f0e:	bd38      	pop	{r3, r4, r5, pc}
/home/yin/imx-optee/imx-optee-os/lib/libutils/isoc/bget.c:631
    2f10:	6842      	ldr	r2, [r0, #4]
    2f12:	4293      	cmp	r3, r2
    2f14:	dc4d      	bgt.n	2fb2 <bget+0xda>
/home/yin/imx-optee/imx-optee-os/lib/libutils/isoc/bget.c:642
    2f16:	1ad1      	subs	r1, r2, r3
    2f18:	2910      	cmp	r1, #16
    2f1a:	dd16      	ble.n	2f4a <bget+0x72>
/home/yin/imx-optee/imx-optee-os/lib/libutils/isoc/bget.c:645
    2f1c:	1844      	adds	r4, r0, r1
/home/yin/imx-optee/imx-optee-os/lib/libutils/isoc/bget.c:647
    2f1e:	58e5      	ldr	r5, [r4, r3]
    2f20:	42aa      	cmp	r2, r5
    2f22:	d009      	beq.n	2f38 <bget+0x60>
/home/yin/imx-optee/imx-optee-os/lib/libutils/isoc/bget.c:647 (discriminator 1)
    2f24:	4b27      	ldr	r3, [pc, #156]	; (2fc4 <bget+0xec>)
    2f26:	f240 2287 	movw	r2, #647	; 0x287
    2f2a:	4927      	ldr	r1, [pc, #156]	; (2fc8 <bget+0xf0>)
    2f2c:	4827      	ldr	r0, [pc, #156]	; (2fcc <bget+0xf4>)
    2f2e:	447b      	add	r3, pc
    2f30:	3312      	adds	r3, #18
    2f32:	4479      	add	r1, pc
    2f34:	4478      	add	r0, pc
    2f36:	e7db      	b.n	2ef0 <bget+0x18>
/home/yin/imx-optee/imx-optee-os/lib/libutils/isoc/bget.c:653
    2f38:	425a      	negs	r2, r3
/home/yin/imx-optee/imx-optee-os/lib/libutils/isoc/bget.c:649
    2f3a:	6041      	str	r1, [r0, #4]
/home/yin/imx-optee/imx-optee-os/lib/libutils/isoc/bget.c:651
    2f3c:	5041      	str	r1, [r0, r1]
/home/yin/imx-optee/imx-optee-os/lib/libutils/isoc/bget.c:661
    2f3e:	f104 0008 	add.w	r0, r4, #8
/home/yin/imx-optee/imx-optee-os/lib/libutils/isoc/bget.c:653
    2f42:	6062      	str	r2, [r4, #4]
/home/yin/imx-optee/imx-optee-os/lib/libutils/isoc/bget.c:655
    2f44:	2200      	movs	r2, #0
    2f46:	50e2      	str	r2, [r4, r3]
/home/yin/imx-optee/imx-optee-os/lib/libutils/isoc/bget.c:663
    2f48:	bd38      	pop	{r3, r4, r5, pc}
/home/yin/imx-optee/imx-optee-os/lib/libutils/isoc/bget.c:668
    2f4a:	5883      	ldr	r3, [r0, r2]
/home/yin/imx-optee/imx-optee-os/lib/libutils/isoc/bget.c:667
    2f4c:	1884      	adds	r4, r0, r2
/home/yin/imx-optee/imx-optee-os/lib/libutils/isoc/bget.c:668
    2f4e:	429a      	cmp	r2, r3
    2f50:	d009      	beq.n	2f66 <bget+0x8e>
/home/yin/imx-optee/imx-optee-os/lib/libutils/isoc/bget.c:668 (discriminator 1)
    2f52:	4b1f      	ldr	r3, [pc, #124]	; (2fd0 <bget+0xf8>)
    2f54:	f44f 7227 	mov.w	r2, #668	; 0x29c
    2f58:	491e      	ldr	r1, [pc, #120]	; (2fd4 <bget+0xfc>)
    2f5a:	481f      	ldr	r0, [pc, #124]	; (2fd8 <bget+0x100>)
    2f5c:	447b      	add	r3, pc
    2f5e:	3312      	adds	r3, #18
    2f60:	4479      	add	r1, pc
    2f62:	4478      	add	r0, pc
    2f64:	e7c4      	b.n	2ef0 <bget+0x18>
/home/yin/imx-optee/imx-optee-os/lib/libutils/isoc/bget.c:673
    2f66:	68c3      	ldr	r3, [r0, #12]
    2f68:	6899      	ldr	r1, [r3, #8]
    2f6a:	4288      	cmp	r0, r1
    2f6c:	d009      	beq.n	2f82 <bget+0xaa>
/home/yin/imx-optee/imx-optee-os/lib/libutils/isoc/bget.c:673 (discriminator 1)
    2f6e:	4b1b      	ldr	r3, [pc, #108]	; (2fdc <bget+0x104>)
    2f70:	f240 22a1 	movw	r2, #673	; 0x2a1
    2f74:	491a      	ldr	r1, [pc, #104]	; (2fe0 <bget+0x108>)
    2f76:	481b      	ldr	r0, [pc, #108]	; (2fe4 <bget+0x10c>)
    2f78:	447b      	add	r3, pc
    2f7a:	3312      	adds	r3, #18
    2f7c:	4479      	add	r1, pc
    2f7e:	4478      	add	r0, pc
    2f80:	e7b6      	b.n	2ef0 <bget+0x18>
/home/yin/imx-optee/imx-optee-os/lib/libutils/isoc/bget.c:674
    2f82:	6881      	ldr	r1, [r0, #8]
    2f84:	68cd      	ldr	r5, [r1, #12]
    2f86:	42a8      	cmp	r0, r5
    2f88:	d009      	beq.n	2f9e <bget+0xc6>
/home/yin/imx-optee/imx-optee-os/lib/libutils/isoc/bget.c:674 (discriminator 1)
    2f8a:	4b17      	ldr	r3, [pc, #92]	; (2fe8 <bget+0x110>)
    2f8c:	f240 22a2 	movw	r2, #674	; 0x2a2
    2f90:	4916      	ldr	r1, [pc, #88]	; (2fec <bget+0x114>)
    2f92:	4817      	ldr	r0, [pc, #92]	; (2ff0 <bget+0x118>)
    2f94:	447b      	add	r3, pc
    2f96:	3312      	adds	r3, #18
    2f98:	4479      	add	r1, pc
    2f9a:	4478      	add	r0, pc
    2f9c:	e7a8      	b.n	2ef0 <bget+0x18>
/home/yin/imx-optee/imx-optee-os/lib/libutils/isoc/bget.c:675
    2f9e:	6099      	str	r1, [r3, #8]
/home/yin/imx-optee/imx-optee-os/lib/libutils/isoc/bget.c:683
    2fa0:	4252      	negs	r2, r2
/home/yin/imx-optee/imx-optee-os/lib/libutils/isoc/bget.c:676
    2fa2:	6881      	ldr	r1, [r0, #8]
/home/yin/imx-optee/imx-optee-os/lib/libutils/isoc/bget.c:690
    2fa4:	3008      	adds	r0, #8
/home/yin/imx-optee/imx-optee-os/lib/libutils/isoc/bget.c:676
    2fa6:	60cb      	str	r3, [r1, #12]
/home/yin/imx-optee/imx-optee-os/lib/libutils/isoc/bget.c:687
    2fa8:	2300      	movs	r3, #0
/home/yin/imx-optee/imx-optee-os/lib/libutils/isoc/bget.c:683
    2faa:	f840 2c04 	str.w	r2, [r0, #-4]
/home/yin/imx-optee/imx-optee-os/lib/libutils/isoc/bget.c:687
    2fae:	6023      	str	r3, [r4, #0]
/home/yin/imx-optee/imx-optee-os/lib/libutils/isoc/bget.c:692
    2fb0:	bd38      	pop	{r3, r4, r5, pc}
/home/yin/imx-optee/imx-optee-os/lib/libutils/isoc/bget.c:695
    2fb2:	6880      	ldr	r0, [r0, #8]
    2fb4:	e7a8      	b.n	2f08 <bget+0x30>
    2fb6:	bf00      	nop
    2fb8:	00004c3a 	.word	0x00004c3a
    2fbc:	00004d8b 	.word	0x00004d8b
    2fc0:	00004f24 	.word	0x00004f24
    2fc4:	00004bf4 	.word	0x00004bf4
    2fc8:	00004d45 	.word	0x00004d45
    2fcc:	00004d5c 	.word	0x00004d5c
    2fd0:	00004bc6 	.word	0x00004bc6
    2fd4:	00004d17 	.word	0x00004d17
    2fd8:	00004d4a 	.word	0x00004d4a
    2fdc:	00004baa 	.word	0x00004baa
    2fe0:	00004cfb 	.word	0x00004cfb
    2fe4:	00004d4a 	.word	0x00004d4a
    2fe8:	00004b8e 	.word	0x00004b8e
    2fec:	00004cdf 	.word	0x00004cdf
    2ff0:	00004d49 	.word	0x00004d49

00002ff4 <bgetz>:
bgetz():
/home/yin/imx-optee/imx-optee-os/lib/libutils/isoc/bget.c:768
    2ff4:	b538      	push	{r3, r4, r5, lr}
    2ff6:	4605      	mov	r5, r0
/home/yin/imx-optee/imx-optee-os/lib/libutils/isoc/bget.c:769
    2ff8:	f7ff ff6e 	bl	2ed8 <bget>
/home/yin/imx-optee/imx-optee-os/lib/libutils/isoc/bget.c:771
    2ffc:	4604      	mov	r4, r0
    2ffe:	b1f0      	cbz	r0, 303e <bgetz+0x4a>
/home/yin/imx-optee/imx-optee-os/lib/libutils/isoc/bget.c:776
    3000:	f850 2c04 	ldr.w	r2, [r0, #-4]
/home/yin/imx-optee/imx-optee-os/lib/libutils/isoc/bget.c:777
    3004:	b98a      	cbnz	r2, 302a <bgetz+0x36>
/home/yin/imx-optee/imx-optee-os/lib/libutils/isoc/bget.c:781
    3006:	f850 2c0c 	ldr.w	r2, [r0, #-12]
    300a:	3a0c      	subs	r2, #12
/home/yin/imx-optee/imx-optee-os/lib/libutils/isoc/bget.c:785
    300c:	42aa      	cmp	r2, r5
    300e:	da12      	bge.n	3036 <bgetz+0x42>
    3010:	4b0c      	ldr	r3, [pc, #48]	; (3044 <bgetz+0x50>)
    3012:	f240 3211 	movw	r2, #785	; 0x311
    3016:	490c      	ldr	r1, [pc, #48]	; (3048 <bgetz+0x54>)
    3018:	480c      	ldr	r0, [pc, #48]	; (304c <bgetz+0x58>)
    301a:	447b      	add	r3, pc
    301c:	3317      	adds	r3, #23
    301e:	4479      	add	r1, pc
    3020:	4478      	add	r0, pc
    3022:	f001 ff11 	bl	4e48 <_assert_log>
    3026:	f001 ff23 	bl	4e70 <_assert_break>
/home/yin/imx-optee/imx-optee-os/lib/libutils/isoc/bget.c:783
    302a:	f1c2 22ff 	rsb	r2, r2, #4278255360	; 0xff00ff00
    302e:	f502 027f 	add.w	r2, r2, #16711680	; 0xff0000
    3032:	32f8      	adds	r2, #248	; 0xf8
    3034:	e7ea      	b.n	300c <bgetz+0x18>
memset_unchecked():
/home/yin/imx-optee/imx-optee-os/lib/libutils/isoc/bget_malloc.c:141
    3036:	2100      	movs	r1, #0
    3038:	4620      	mov	r0, r4
    303a:	f001 ff6f 	bl	4f1c <memset>
bgetz():
/home/yin/imx-optee/imx-optee-os/lib/libutils/isoc/bget.c:789
    303e:	4620      	mov	r0, r4
    3040:	bd38      	pop	{r3, r4, r5, pc}
    3042:	bf00      	nop
    3044:	00004b08 	.word	0x00004b08
    3048:	00004c59 	.word	0x00004c59
    304c:	00004cde 	.word	0x00004cde

00003050 <brel>:
brel():
/home/yin/imx-optee/imx-optee-os/lib/libutils/isoc/bget.c:840
    3050:	b570      	push	{r4, r5, r6, lr}
/home/yin/imx-optee/imx-optee-os/lib/libutils/isoc/bget.c:844
    3052:	f1a0 0308 	sub.w	r3, r0, #8
/home/yin/imx-optee/imx-optee-os/lib/libutils/isoc/bget.c:848
    3056:	b960      	cbnz	r0, 3072 <brel+0x22>
/home/yin/imx-optee/imx-optee-os/lib/libutils/isoc/bget.c:848 (discriminator 1)
    3058:	4b51      	ldr	r3, [pc, #324]	; (31a0 <brel+0x150>)
    305a:	f44f 7254 	mov.w	r2, #848	; 0x350
    305e:	4951      	ldr	r1, [pc, #324]	; (31a4 <brel+0x154>)
    3060:	4851      	ldr	r0, [pc, #324]	; (31a8 <brel+0x158>)
    3062:	447b      	add	r3, pc
    3064:	331d      	adds	r3, #29
    3066:	4479      	add	r1, pc
    3068:	4478      	add	r0, pc
/home/yin/imx-optee/imx-optee-os/lib/libutils/isoc/bget.c:879 (discriminator 1)
    306a:	f001 feed 	bl	4e48 <_assert_log>
    306e:	f001 feff 	bl	4e70 <_assert_break>
/home/yin/imx-optee/imx-optee-os/lib/libutils/isoc/bget.c:876
    3072:	f850 2c04 	ldr.w	r2, [r0, #-4]
/home/yin/imx-optee/imx-optee-os/lib/libutils/isoc/bget.c:879
    3076:	2a00      	cmp	r2, #0
    3078:	db09      	blt.n	308e <brel+0x3e>
/home/yin/imx-optee/imx-optee-os/lib/libutils/isoc/bget.c:879 (discriminator 1)
    307a:	4b4c      	ldr	r3, [pc, #304]	; (31ac <brel+0x15c>)
    307c:	f240 326f 	movw	r2, #879	; 0x36f
    3080:	494b      	ldr	r1, [pc, #300]	; (31b0 <brel+0x160>)
    3082:	484c      	ldr	r0, [pc, #304]	; (31b4 <brel+0x164>)
    3084:	447b      	add	r3, pc
    3086:	331d      	adds	r3, #29
    3088:	4479      	add	r1, pc
    308a:	4478      	add	r0, pc
    308c:	e7ed      	b.n	306a <brel+0x1a>
/home/yin/imx-optee/imx-optee-os/lib/libutils/isoc/bget.c:885
    308e:	1a9c      	subs	r4, r3, r2
    3090:	6824      	ldr	r4, [r4, #0]
    3092:	b14c      	cbz	r4, 30a8 <brel+0x58>
/home/yin/imx-optee/imx-optee-os/lib/libutils/isoc/bget.c:885 (discriminator 1)
    3094:	4b48      	ldr	r3, [pc, #288]	; (31b8 <brel+0x168>)
    3096:	f240 3275 	movw	r2, #885	; 0x375
    309a:	4948      	ldr	r1, [pc, #288]	; (31bc <brel+0x16c>)
    309c:	4848      	ldr	r0, [pc, #288]	; (31c0 <brel+0x170>)
    309e:	447b      	add	r3, pc
    30a0:	331d      	adds	r3, #29
    30a2:	4479      	add	r1, pc
    30a4:	4478      	add	r0, pc
    30a6:	e7e0      	b.n	306a <brel+0x1a>
/home/yin/imx-optee/imx-optee-os/lib/libutils/isoc/bget.c:894
    30a8:	f850 4c08 	ldr.w	r4, [r0, #-8]
    30ac:	b30c      	cbz	r4, 30f2 <brel+0xa2>
/home/yin/imx-optee/imx-optee-os/lib/libutils/isoc/bget.c:905
    30ae:	1b1b      	subs	r3, r3, r4
    30b0:	6859      	ldr	r1, [r3, #4]
    30b2:	428c      	cmp	r4, r1
    30b4:	d009      	beq.n	30ca <brel+0x7a>
/home/yin/imx-optee/imx-optee-os/lib/libutils/isoc/bget.c:905 (discriminator 1)
    30b6:	4b43      	ldr	r3, [pc, #268]	; (31c4 <brel+0x174>)
    30b8:	f240 3289 	movw	r2, #905	; 0x389
    30bc:	4942      	ldr	r1, [pc, #264]	; (31c8 <brel+0x178>)
    30be:	4843      	ldr	r0, [pc, #268]	; (31cc <brel+0x17c>)
    30c0:	447b      	add	r3, pc
    30c2:	331d      	adds	r3, #29
    30c4:	4479      	add	r1, pc
    30c6:	4478      	add	r0, pc
    30c8:	e7cf      	b.n	306a <brel+0x1a>
/home/yin/imx-optee/imx-optee-os/lib/libutils/isoc/bget.c:907
    30ca:	1aa2      	subs	r2, r4, r2
    30cc:	605a      	str	r2, [r3, #4]
/home/yin/imx-optee/imx-optee-os/lib/libutils/isoc/bget.c:927
    30ce:	6859      	ldr	r1, [r3, #4]
    30d0:	185a      	adds	r2, r3, r1
/home/yin/imx-optee/imx-optee-os/lib/libutils/isoc/bget.c:928
    30d2:	6850      	ldr	r0, [r2, #4]
    30d4:	2800      	cmp	r0, #0
    30d6:	dd53      	ble.n	3180 <brel+0x130>
/home/yin/imx-optee/imx-optee-os/lib/libutils/isoc/bget.c:933
    30d8:	5814      	ldr	r4, [r2, r0]
    30da:	42a0      	cmp	r0, r4
    30dc:	d02e      	beq.n	313c <brel+0xec>
/home/yin/imx-optee/imx-optee-os/lib/libutils/isoc/bget.c:933 (discriminator 1)
    30de:	4b3c      	ldr	r3, [pc, #240]	; (31d0 <brel+0x180>)
    30e0:	f240 32a5 	movw	r2, #933	; 0x3a5
    30e4:	493b      	ldr	r1, [pc, #236]	; (31d4 <brel+0x184>)
    30e6:	483c      	ldr	r0, [pc, #240]	; (31d8 <brel+0x188>)
    30e8:	447b      	add	r3, pc
    30ea:	331d      	adds	r3, #29
    30ec:	4479      	add	r1, pc
    30ee:	4478      	add	r0, pc
    30f0:	e7bb      	b.n	306a <brel+0x1a>
/home/yin/imx-optee/imx-optee-os/lib/libutils/isoc/bget.c:913
    30f2:	68cd      	ldr	r5, [r1, #12]
    30f4:	68ac      	ldr	r4, [r5, #8]
    30f6:	428c      	cmp	r4, r1
    30f8:	d009      	beq.n	310e <brel+0xbe>
/home/yin/imx-optee/imx-optee-os/lib/libutils/isoc/bget.c:913 (discriminator 1)
    30fa:	4b38      	ldr	r3, [pc, #224]	; (31dc <brel+0x18c>)
    30fc:	f240 3291 	movw	r2, #913	; 0x391
    3100:	4937      	ldr	r1, [pc, #220]	; (31e0 <brel+0x190>)
    3102:	4838      	ldr	r0, [pc, #224]	; (31e4 <brel+0x194>)
    3104:	447b      	add	r3, pc
    3106:	331d      	adds	r3, #29
    3108:	4479      	add	r1, pc
    310a:	4478      	add	r0, pc
    310c:	e7ad      	b.n	306a <brel+0x1a>
/home/yin/imx-optee/imx-optee-os/lib/libutils/isoc/bget.c:914
    310e:	68a1      	ldr	r1, [r4, #8]
    3110:	68c9      	ldr	r1, [r1, #12]
    3112:	428c      	cmp	r4, r1
    3114:	d009      	beq.n	312a <brel+0xda>
/home/yin/imx-optee/imx-optee-os/lib/libutils/isoc/bget.c:914 (discriminator 1)
    3116:	4b34      	ldr	r3, [pc, #208]	; (31e8 <brel+0x198>)
    3118:	f240 3292 	movw	r2, #914	; 0x392
    311c:	4933      	ldr	r1, [pc, #204]	; (31ec <brel+0x19c>)
    311e:	4834      	ldr	r0, [pc, #208]	; (31f0 <brel+0x1a0>)
    3120:	447b      	add	r3, pc
    3122:	331d      	adds	r3, #29
    3124:	4479      	add	r1, pc
    3126:	4478      	add	r0, pc
    3128:	e79f      	b.n	306a <brel+0x1a>
/home/yin/imx-optee/imx-optee-os/lib/libutils/isoc/bget.c:916
    312a:	e880 0030 	stmia.w	r0, {r4, r5}
/home/yin/imx-optee/imx-optee-os/lib/libutils/isoc/bget.c:880
    312e:	4252      	negs	r2, r2
/home/yin/imx-optee/imx-optee-os/lib/libutils/isoc/bget.c:917
    3130:	60e3      	str	r3, [r4, #12]
/home/yin/imx-optee/imx-optee-os/lib/libutils/isoc/bget.c:918
    3132:	6841      	ldr	r1, [r0, #4]
    3134:	608b      	str	r3, [r1, #8]
/home/yin/imx-optee/imx-optee-os/lib/libutils/isoc/bget.c:919
    3136:	f840 2c04 	str.w	r2, [r0, #-4]
    313a:	e7c8      	b.n	30ce <brel+0x7e>
/home/yin/imx-optee/imx-optee-os/lib/libutils/isoc/bget.c:934
    313c:	68d4      	ldr	r4, [r2, #12]
    313e:	68a5      	ldr	r5, [r4, #8]
    3140:	42aa      	cmp	r2, r5
    3142:	d009      	beq.n	3158 <brel+0x108>
/home/yin/imx-optee/imx-optee-os/lib/libutils/isoc/bget.c:934 (discriminator 1)
    3144:	4b2b      	ldr	r3, [pc, #172]	; (31f4 <brel+0x1a4>)
    3146:	f240 32a6 	movw	r2, #934	; 0x3a6
    314a:	492b      	ldr	r1, [pc, #172]	; (31f8 <brel+0x1a8>)
    314c:	482b      	ldr	r0, [pc, #172]	; (31fc <brel+0x1ac>)
    314e:	447b      	add	r3, pc
    3150:	331d      	adds	r3, #29
    3152:	4479      	add	r1, pc
    3154:	4478      	add	r0, pc
    3156:	e788      	b.n	306a <brel+0x1a>
/home/yin/imx-optee/imx-optee-os/lib/libutils/isoc/bget.c:935
    3158:	6895      	ldr	r5, [r2, #8]
    315a:	68ee      	ldr	r6, [r5, #12]
    315c:	42b2      	cmp	r2, r6
    315e:	d009      	beq.n	3174 <brel+0x124>
/home/yin/imx-optee/imx-optee-os/lib/libutils/isoc/bget.c:935 (discriminator 1)
    3160:	4b27      	ldr	r3, [pc, #156]	; (3200 <brel+0x1b0>)
    3162:	f240 32a7 	movw	r2, #935	; 0x3a7
    3166:	4927      	ldr	r1, [pc, #156]	; (3204 <brel+0x1b4>)
    3168:	4827      	ldr	r0, [pc, #156]	; (3208 <brel+0x1b8>)
    316a:	447b      	add	r3, pc
    316c:	331d      	adds	r3, #29
    316e:	4479      	add	r1, pc
    3170:	4478      	add	r0, pc
    3172:	e77a      	b.n	306a <brel+0x1a>
/home/yin/imx-optee/imx-optee-os/lib/libutils/isoc/bget.c:936
    3174:	60a5      	str	r5, [r4, #8]
/home/yin/imx-optee/imx-optee-os/lib/libutils/isoc/bget.c:937
    3176:	6892      	ldr	r2, [r2, #8]
    3178:	60d4      	str	r4, [r2, #12]
/home/yin/imx-optee/imx-optee-os/lib/libutils/isoc/bget.c:938
    317a:	180a      	adds	r2, r1, r0
    317c:	605a      	str	r2, [r3, #4]
/home/yin/imx-optee/imx-optee-os/lib/libutils/isoc/bget.c:947
    317e:	441a      	add	r2, r3
/home/yin/imx-optee/imx-optee-os/lib/libutils/isoc/bget.c:953
    3180:	6851      	ldr	r1, [r2, #4]
    3182:	2900      	cmp	r1, #0
    3184:	db09      	blt.n	319a <brel+0x14a>
/home/yin/imx-optee/imx-optee-os/lib/libutils/isoc/bget.c:953 (discriminator 1)
    3186:	4b21      	ldr	r3, [pc, #132]	; (320c <brel+0x1bc>)
    3188:	f240 32b9 	movw	r2, #953	; 0x3b9
    318c:	4920      	ldr	r1, [pc, #128]	; (3210 <brel+0x1c0>)
    318e:	4821      	ldr	r0, [pc, #132]	; (3214 <brel+0x1c4>)
    3190:	447b      	add	r3, pc
    3192:	331d      	adds	r3, #29
    3194:	4479      	add	r1, pc
    3196:	4478      	add	r0, pc
    3198:	e767      	b.n	306a <brel+0x1a>
/home/yin/imx-optee/imx-optee-os/lib/libutils/isoc/bget.c:958
    319a:	685b      	ldr	r3, [r3, #4]
    319c:	6013      	str	r3, [r2, #0]
    319e:	bd70      	pop	{r4, r5, r6, pc}
    31a0:	00004ac0 	.word	0x00004ac0
    31a4:	00004c11 	.word	0x00004c11
    31a8:	00004ca4 	.word	0x00004ca4
    31ac:	00004a9e 	.word	0x00004a9e
    31b0:	00004bef 	.word	0x00004bef
    31b4:	00004c8e 	.word	0x00004c8e
    31b8:	00004a84 	.word	0x00004a84
    31bc:	00004bd5 	.word	0x00004bd5
    31c0:	00004c84 	.word	0x00004c84
    31c4:	00004a62 	.word	0x00004a62
    31c8:	00004bb3 	.word	0x00004bb3
    31cc:	00004c8e 	.word	0x00004c8e
    31d0:	00004a3a 	.word	0x00004a3a
    31d4:	00004b8b 	.word	0x00004b8b
    31d8:	00004c9f 	.word	0x00004c9f
    31dc:	00004a1e 	.word	0x00004a1e
    31e0:	00004b6f 	.word	0x00004b6f
    31e4:	00004af7 	.word	0x00004af7
    31e8:	00004a02 	.word	0x00004a02
    31ec:	00004b53 	.word	0x00004b53
    31f0:	00004b16 	.word	0x00004b16
    31f4:	000049d4 	.word	0x000049d4
    31f8:	00004b25 	.word	0x00004b25
    31fc:	00004c72 	.word	0x00004c72
    3200:	000049b8 	.word	0x000049b8
    3204:	00004b09 	.word	0x00004b09
    3208:	00004c73 	.word	0x00004c73
    320c:	00004992 	.word	0x00004992
    3210:	00004ae3 	.word	0x00004ae3
    3214:	00004c6a 	.word	0x00004c6a

00003218 <bgetr>:
bgetr():
/home/yin/imx-optee/imx-optee-os/lib/libutils/isoc/bget.c:800
    3218:	e92d 41f0 	stmdb	sp!, {r4, r5, r6, r7, r8, lr}
    321c:	460e      	mov	r6, r1
    321e:	4605      	mov	r5, r0
/home/yin/imx-optee/imx-optee-os/lib/libutils/isoc/bget.c:805
    3220:	4611      	mov	r1, r2
    3222:	4630      	mov	r0, r6
/home/yin/imx-optee/imx-optee-os/lib/libutils/isoc/bget.c:800
    3224:	4690      	mov	r8, r2
/home/yin/imx-optee/imx-optee-os/lib/libutils/isoc/bget.c:805
    3226:	f7ff fe57 	bl	2ed8 <bget>
    322a:	4607      	mov	r7, r0
    322c:	b340      	cbz	r0, 3280 <bgetr+0x68>
/home/yin/imx-optee/imx-optee-os/lib/libutils/isoc/bget.c:808
    322e:	b33d      	cbz	r5, 3280 <bgetr+0x68>
    3230:	f855 4c04 	ldr.w	r4, [r5, #-4]
    3234:	f1c4 24ff 	rsb	r4, r4, #4278255360	; 0xff00ff00
    3238:	f504 047f 	add.w	r4, r4, #16711680	; 0xff0000
    323c:	34f8      	adds	r4, #248	; 0xf8
/home/yin/imx-optee/imx-optee-os/lib/libutils/isoc/bget.c:823
    323e:	2c00      	cmp	r4, #0
    3240:	dc0c      	bgt.n	325c <bgetr+0x44>
    3242:	4b11      	ldr	r3, [pc, #68]	; (3288 <bgetr+0x70>)
    3244:	f240 3237 	movw	r2, #823	; 0x337
    3248:	4910      	ldr	r1, [pc, #64]	; (328c <bgetr+0x74>)
    324a:	4811      	ldr	r0, [pc, #68]	; (3290 <bgetr+0x78>)
    324c:	447b      	add	r3, pc
    324e:	3322      	adds	r3, #34	; 0x22
    3250:	4479      	add	r1, pc
    3252:	4478      	add	r0, pc
    3254:	f001 fdf8 	bl	4e48 <_assert_log>
    3258:	f001 fe0a 	bl	4e70 <_assert_break>
/home/yin/imx-optee/imx-optee-os/lib/libutils/isoc/bget.c:824
    325c:	42a6      	cmp	r6, r4
    325e:	4632      	mov	r2, r6
    3260:	4629      	mov	r1, r5
    3262:	bfa8      	it	ge
    3264:	4622      	movge	r2, r4
    3266:	f001 fe34 	bl	4ed2 <memcpy>
/home/yin/imx-optee/imx-optee-os/lib/libutils/isoc/bget.c:828
    326a:	42a6      	cmp	r6, r4
    326c:	dd04      	ble.n	3278 <bgetr+0x60>
/home/yin/imx-optee/imx-optee-os/lib/libutils/isoc/bget.c:829
    326e:	1b32      	subs	r2, r6, r4
    3270:	2100      	movs	r1, #0
    3272:	1938      	adds	r0, r7, r4
    3274:	f001 fe52 	bl	4f1c <memset>
/home/yin/imx-optee/imx-optee-os/lib/libutils/isoc/bget.c:831
    3278:	4641      	mov	r1, r8
    327a:	4628      	mov	r0, r5
    327c:	f7ff fee8 	bl	3050 <brel>
/home/yin/imx-optee/imx-optee-os/lib/libutils/isoc/bget.c:833
    3280:	4638      	mov	r0, r7
    3282:	e8bd 81f0 	ldmia.w	sp!, {r4, r5, r6, r7, r8, pc}
    3286:	bf00      	nop
    3288:	000048d6 	.word	0x000048d6
    328c:	00004a27 	.word	0x00004a27
    3290:	00004bbf 	.word	0x00004bbf

00003294 <bpool>:
bpool():
/home/yin/imx-optee/imx-optee-os/lib/libutils/isoc/bget.c:1017
    3294:	f021 0107 	bic.w	r1, r1, #7
/home/yin/imx-optee/imx-optee-os/lib/libutils/isoc/bget.c:1012
    3298:	b510      	push	{r4, lr}
/home/yin/imx-optee/imx-optee-os/lib/libutils/isoc/bget.c:1036
    329a:	3908      	subs	r1, #8
    329c:	d50c      	bpl.n	32b8 <bpool+0x24>
    329e:	4b1b      	ldr	r3, [pc, #108]	; (330c <bpool+0x78>)
    32a0:	f240 420c 	movw	r2, #1036	; 0x40c
    32a4:	491a      	ldr	r1, [pc, #104]	; (3310 <bpool+0x7c>)
    32a6:	481b      	ldr	r0, [pc, #108]	; (3314 <bpool+0x80>)
    32a8:	447b      	add	r3, pc
    32aa:	3328      	adds	r3, #40	; 0x28
    32ac:	4479      	add	r1, pc
    32ae:	4478      	add	r0, pc
/home/yin/imx-optee/imx-optee-os/lib/libutils/isoc/bget.c:1046 (discriminator 1)
    32b0:	f001 fdca 	bl	4e48 <_assert_log>
    32b4:	f001 fddc 	bl	4e70 <_assert_break>
/home/yin/imx-optee/imx-optee-os/lib/libutils/isoc/bget.c:1046
    32b8:	68d4      	ldr	r4, [r2, #12]
/home/yin/imx-optee/imx-optee-os/lib/libutils/isoc/bget.c:1042
    32ba:	2300      	movs	r3, #0
    32bc:	6003      	str	r3, [r0, #0]
/home/yin/imx-optee/imx-optee-os/lib/libutils/isoc/bget.c:1046
    32be:	68a3      	ldr	r3, [r4, #8]
    32c0:	4293      	cmp	r3, r2
    32c2:	d009      	beq.n	32d8 <bpool+0x44>
/home/yin/imx-optee/imx-optee-os/lib/libutils/isoc/bget.c:1046 (discriminator 1)
    32c4:	4b14      	ldr	r3, [pc, #80]	; (3318 <bpool+0x84>)
    32c6:	f240 4216 	movw	r2, #1046	; 0x416
    32ca:	4914      	ldr	r1, [pc, #80]	; (331c <bpool+0x88>)
    32cc:	4814      	ldr	r0, [pc, #80]	; (3320 <bpool+0x8c>)
    32ce:	447b      	add	r3, pc
    32d0:	3328      	adds	r3, #40	; 0x28
    32d2:	4479      	add	r1, pc
    32d4:	4478      	add	r0, pc
    32d6:	e7eb      	b.n	32b0 <bpool+0x1c>
/home/yin/imx-optee/imx-optee-os/lib/libutils/isoc/bget.c:1047
    32d8:	689a      	ldr	r2, [r3, #8]
    32da:	68d2      	ldr	r2, [r2, #12]
    32dc:	4293      	cmp	r3, r2
    32de:	d009      	beq.n	32f4 <bpool+0x60>
/home/yin/imx-optee/imx-optee-os/lib/libutils/isoc/bget.c:1047 (discriminator 1)
    32e0:	4b10      	ldr	r3, [pc, #64]	; (3324 <bpool+0x90>)
    32e2:	f240 4217 	movw	r2, #1047	; 0x417
    32e6:	4910      	ldr	r1, [pc, #64]	; (3328 <bpool+0x94>)
    32e8:	4810      	ldr	r0, [pc, #64]	; (332c <bpool+0x98>)
    32ea:	447b      	add	r3, pc
    32ec:	3328      	adds	r3, #40	; 0x28
    32ee:	4479      	add	r1, pc
    32f0:	4478      	add	r0, pc
    32f2:	e7dd      	b.n	32b0 <bpool+0x1c>
/home/yin/imx-optee/imx-optee-os/lib/libutils/isoc/bget.c:1048
    32f4:	6083      	str	r3, [r0, #8]
/home/yin/imx-optee/imx-optee-os/lib/libutils/isoc/bget.c:1071
    32f6:	f04f 4200 	mov.w	r2, #2147483648	; 0x80000000
/home/yin/imx-optee/imx-optee-os/lib/libutils/isoc/bget.c:1049
    32fa:	60c4      	str	r4, [r0, #12]
/home/yin/imx-optee/imx-optee-os/lib/libutils/isoc/bget.c:1050
    32fc:	60d8      	str	r0, [r3, #12]
/home/yin/imx-optee/imx-optee-os/lib/libutils/isoc/bget.c:1051
    32fe:	68c3      	ldr	r3, [r0, #12]
    3300:	6098      	str	r0, [r3, #8]
/home/yin/imx-optee/imx-optee-os/lib/libutils/isoc/bget.c:1067
    3302:	1843      	adds	r3, r0, r1
/home/yin/imx-optee/imx-optee-os/lib/libutils/isoc/bget.c:1062
    3304:	6041      	str	r1, [r0, #4]
/home/yin/imx-optee/imx-optee-os/lib/libutils/isoc/bget.c:1068
    3306:	5041      	str	r1, [r0, r1]
/home/yin/imx-optee/imx-optee-os/lib/libutils/isoc/bget.c:1071
    3308:	605a      	str	r2, [r3, #4]
    330a:	bd10      	pop	{r4, pc}
    330c:	0000487a 	.word	0x0000487a
    3310:	000049cb 	.word	0x000049cb
    3314:	00004b6d 	.word	0x00004b6d
    3318:	00004854 	.word	0x00004854
    331c:	000049a5 	.word	0x000049a5
    3320:	0000492d 	.word	0x0000492d
    3324:	00004838 	.word	0x00004838
    3328:	00004989 	.word	0x00004989
    332c:	0000494c 	.word	0x0000494c

00003330 <malloc>:
raw_malloc():
/home/yin/imx-optee/imx-optee-os/lib/libutils/isoc/bget_malloc.c:304
    3330:	2800      	cmp	r0, #0
    3332:	db05      	blt.n	3340 <malloc+0x10>
/home/yin/imx-optee/imx-optee-os/lib/libutils/isoc/bget_malloc.c:313
    3334:	4903      	ldr	r1, [pc, #12]	; (3344 <malloc+0x14>)
    3336:	bf08      	it	eq
    3338:	2001      	moveq	r0, #1
    333a:	4479      	add	r1, pc
    333c:	f7ff bdcc 	b.w	2ed8 <bget>
malloc():
/home/yin/imx-optee/imx-optee-os/lib/libutils/isoc/bget_malloc.c:825
    3340:	2000      	movs	r0, #0
    3342:	4770      	bx	lr
    3344:	00005d3e 	.word	0x00005d3e

00003348 <free>:
raw_free():
/home/yin/imx-optee/imx-optee-os/lib/libutils/isoc/bget_malloc.c:324
    3348:	b118      	cbz	r0, 3352 <free+0xa>
/home/yin/imx-optee/imx-optee-os/lib/libutils/isoc/bget_malloc.c:325
    334a:	4902      	ldr	r1, [pc, #8]	; (3354 <free+0xc>)
    334c:	4479      	add	r1, pc
    334e:	f7ff be7f 	b.w	3050 <brel>
    3352:	4770      	bx	lr
    3354:	00005d2c 	.word	0x00005d2c

00003358 <calloc>:
raw_calloc():
/home/yin/imx-optee/imx-optee-os/lib/libutils/isoc/bget_malloc.c:337
    3358:	fba0 2301 	umull	r2, r3, r0, r1
    335c:	2a00      	cmp	r2, #0
    335e:	bfa8      	it	ge
    3360:	2b00      	cmpge	r3, #0
    3362:	4610      	mov	r0, r2
    3364:	d107      	bne.n	3376 <calloc+0x1e>
/home/yin/imx-optee/imx-optee-os/lib/libutils/isoc/bget_malloc.c:348
    3366:	4905      	ldr	r1, [pc, #20]	; (337c <calloc+0x24>)
/home/yin/imx-optee/imx-optee-os/lib/libutils/isoc/bget_malloc.c:345
    3368:	2a00      	cmp	r2, #0
/home/yin/imx-optee/imx-optee-os/lib/libutils/isoc/bget_malloc.c:348
    336a:	bf14      	ite	ne
    336c:	4610      	movne	r0, r2
    336e:	2001      	moveq	r0, #1
    3370:	4479      	add	r1, pc
    3372:	f7ff be3f 	b.w	2ff4 <bgetz>
calloc():
/home/yin/imx-optee/imx-optee-os/lib/libutils/isoc/bget_malloc.c:843
    3376:	2000      	movs	r0, #0
    3378:	4770      	bx	lr
    337a:	bf00      	nop
    337c:	00005d08 	.word	0x00005d08

00003380 <realloc>:
raw_realloc():
/home/yin/imx-optee/imx-optee-os/lib/libutils/isoc/bget_malloc.c:362
    3380:	2900      	cmp	r1, #0
    3382:	db05      	blt.n	3390 <realloc+0x10>
/home/yin/imx-optee/imx-optee-os/lib/libutils/isoc/bget_malloc.c:373
    3384:	4a03      	ldr	r2, [pc, #12]	; (3394 <realloc+0x14>)
    3386:	bf08      	it	eq
    3388:	2101      	moveq	r1, #1
    338a:	447a      	add	r2, pc
    338c:	f7ff bf44 	b.w	3218 <bgetr>
realloc():
/home/yin/imx-optee/imx-optee-os/lib/libutils/isoc/bget_malloc.c:858
    3390:	2000      	movs	r0, #0
    3392:	4770      	bx	lr
    3394:	00005cee 	.word	0x00005cee

00003398 <memalign>:
memalign():
/home/yin/imx-optee/imx-optee-os/lib/libutils/isoc/bget_malloc.c:861
    3398:	b5f8      	push	{r3, r4, r5, r6, r7, lr}
    339a:	460c      	mov	r4, r1
raw_memalign():
/home/yin/imx-optee/imx-optee-os/lib/libutils/isoc/bget_malloc.c:536
    339c:	4605      	mov	r5, r0
    339e:	b1b0      	cbz	r0, 33ce <memalign+0x36>
    33a0:	4246      	negs	r6, r0
    33a2:	ea30 0306 	bics.w	r3, r0, r6
    33a6:	d112      	bne.n	33ce <memalign+0x36>
/home/yin/imx-optee/imx-optee-os/lib/libutils/isoc/bget_malloc.c:543
    33a8:	2808      	cmp	r0, #8
    33aa:	d80a      	bhi.n	33c2 <memalign+0x2a>
raw_malloc():
/home/yin/imx-optee/imx-optee-os/lib/libutils/isoc/bget_malloc.c:304
    33ac:	2900      	cmp	r1, #0
    33ae:	db0e      	blt.n	33ce <memalign+0x36>
/home/yin/imx-optee/imx-optee-os/lib/libutils/isoc/bget_malloc.c:313
    33b0:	496f      	ldr	r1, [pc, #444]	; (3570 <memalign+0x1d8>)
    33b2:	bf14      	ite	ne
    33b4:	4620      	movne	r0, r4
    33b6:	2001      	moveq	r0, #1
memalign():
/home/yin/imx-optee/imx-optee-os/lib/libutils/isoc/bget_malloc.c:868
    33b8:	e8bd 40f8 	ldmia.w	sp!, {r3, r4, r5, r6, r7, lr}
raw_malloc():
/home/yin/imx-optee/imx-optee-os/lib/libutils/isoc/bget_malloc.c:313
    33bc:	4479      	add	r1, pc
    33be:	f7ff bd8b 	b.w	2ed8 <bget>
    33c2:	f101 0710 	add.w	r7, r1, #16
    33c6:	19c7      	adds	r7, r0, r7
    33c8:	d201      	bcs.n	33ce <memalign+0x36>
raw_memalign():
/home/yin/imx-optee/imx-optee-os/lib/libutils/isoc/bget_malloc.c:550
    33ca:	42b9      	cmp	r1, r7
    33cc:	d901      	bls.n	33d2 <memalign+0x3a>
/home/yin/imx-optee/imx-optee-os/lib/libutils/isoc/bget_malloc.c:537
    33ce:	2000      	movs	r0, #0
memalign():
/home/yin/imx-optee/imx-optee-os/lib/libutils/isoc/bget_malloc.c:868
    33d0:	bdf8      	pop	{r3, r4, r5, r6, r7, pc}
raw_memalign():
/home/yin/imx-optee/imx-optee-os/lib/libutils/isoc/bget_malloc.c:553
    33d2:	4968      	ldr	r1, [pc, #416]	; (3574 <memalign+0x1dc>)
    33d4:	4638      	mov	r0, r7
    33d6:	4479      	add	r1, pc
    33d8:	f7ff fd7e 	bl	2ed8 <bget>
/home/yin/imx-optee/imx-optee-os/lib/libutils/isoc/bget_malloc.c:554
    33dc:	4603      	mov	r3, r0
    33de:	2800      	cmp	r0, #0
    33e0:	f000 80c3 	beq.w	356a <memalign+0x1d2>
/home/yin/imx-optee/imx-optee-os/lib/libutils/isoc/bget_malloc.c:557
    33e4:	1e6a      	subs	r2, r5, #1
    33e6:	4210      	tst	r0, r2
    33e8:	d068      	beq.n	34bc <memalign+0x124>
/home/yin/imx-optee/imx-optee-os/lib/libutils/isoc/bget_malloc.c:570
    33ea:	1828      	adds	r0, r5, r0
/home/yin/imx-optee/imx-optee-os/lib/libutils/isoc/bget_malloc.c:575
    33ec:	441f      	add	r7, r3
/home/yin/imx-optee/imx-optee-os/lib/libutils/isoc/bget_malloc.c:571
    33ee:	4006      	ands	r6, r0
/home/yin/imx-optee/imx-optee-os/lib/libutils/isoc/bget_malloc.c:573
    33f0:	1af2      	subs	r2, r6, r3
    33f2:	2a0f      	cmp	r2, #15
/home/yin/imx-optee/imx-optee-os/lib/libutils/isoc/bget_malloc.c:574
    33f4:	bf98      	it	ls
    33f6:	1976      	addls	r6, r6, r5
/home/yin/imx-optee/imx-optee-os/lib/libutils/isoc/bget_malloc.c:575
    33f8:	19a2      	adds	r2, r4, r6
    33fa:	42ba      	cmp	r2, r7
    33fc:	d90c      	bls.n	3418 <memalign+0x80>
    33fe:	4b5e      	ldr	r3, [pc, #376]	; (3578 <memalign+0x1e0>)
    3400:	f240 223f 	movw	r2, #575	; 0x23f
    3404:	495d      	ldr	r1, [pc, #372]	; (357c <memalign+0x1e4>)
    3406:	485e      	ldr	r0, [pc, #376]	; (3580 <memalign+0x1e8>)
    3408:	447b      	add	r3, pc
    340a:	332e      	adds	r3, #46	; 0x2e
    340c:	4479      	add	r1, pc
    340e:	4478      	add	r0, pc
brel_after():
/home/yin/imx-optee/imx-optee-os/lib/libutils/isoc/bget_malloc.c:507
    3410:	f001 fd1a 	bl	4e48 <_assert_log>
    3414:	f001 fd2c 	bl	4e70 <_assert_break>
brel_before():
/home/yin/imx-optee/imx-optee-os/lib/libutils/isoc/bget_malloc.c:411
    3418:	42b3      	cmp	r3, r6
    341a:	d309      	bcc.n	3430 <memalign+0x98>
    341c:	4b59      	ldr	r3, [pc, #356]	; (3584 <memalign+0x1ec>)
    341e:	f240 129b 	movw	r2, #411	; 0x19b
    3422:	4959      	ldr	r1, [pc, #356]	; (3588 <memalign+0x1f0>)
    3424:	4859      	ldr	r0, [pc, #356]	; (358c <memalign+0x1f4>)
    3426:	447b      	add	r3, pc
    3428:	333b      	adds	r3, #59	; 0x3b
    342a:	4479      	add	r1, pc
    342c:	4478      	add	r0, pc
    342e:	e7ef      	b.n	3410 <memalign+0x78>
/home/yin/imx-optee/imx-optee-os/lib/libutils/isoc/bget_malloc.c:413
    3430:	1af1      	subs	r1, r6, r3
/home/yin/imx-optee/imx-optee-os/lib/libutils/isoc/bget_malloc.c:414
    3432:	290f      	cmp	r1, #15
    3434:	d809      	bhi.n	344a <memalign+0xb2>
    3436:	4b56      	ldr	r3, [pc, #344]	; (3590 <memalign+0x1f8>)
    3438:	f44f 72cf 	mov.w	r2, #414	; 0x19e
    343c:	4955      	ldr	r1, [pc, #340]	; (3594 <memalign+0x1fc>)
    343e:	4856      	ldr	r0, [pc, #344]	; (3598 <memalign+0x200>)
    3440:	447b      	add	r3, pc
    3442:	333b      	adds	r3, #59	; 0x3b
    3444:	4479      	add	r1, pc
    3446:	4478      	add	r0, pc
    3448:	e7e2      	b.n	3410 <memalign+0x78>
/home/yin/imx-optee/imx-optee-os/lib/libutils/isoc/bget_malloc.c:418
    344a:	f853 2c04 	ldr.w	r2, [r3, #-4]
/home/yin/imx-optee/imx-optee-os/lib/libutils/isoc/bget_malloc.c:417
    344e:	f1a3 0008 	sub.w	r0, r3, #8
/home/yin/imx-optee/imx-optee-os/lib/libutils/isoc/bget_malloc.c:423
    3452:	f853 3c08 	ldr.w	r3, [r3, #-8]
    3456:	440a      	add	r2, r1
    3458:	b343      	cbz	r3, 34ac <memalign+0x114>
/home/yin/imx-optee/imx-optee-os/lib/libutils/isoc/bget_malloc.c:428
    345a:	1ac0      	subs	r0, r0, r3
/home/yin/imx-optee/imx-optee-os/lib/libutils/isoc/bget_malloc.c:429
    345c:	6845      	ldr	r5, [r0, #4]
    345e:	42ab      	cmp	r3, r5
    3460:	d009      	beq.n	3476 <memalign+0xde>
    3462:	4b4e      	ldr	r3, [pc, #312]	; (359c <memalign+0x204>)
    3464:	f240 12ad 	movw	r2, #429	; 0x1ad
    3468:	494d      	ldr	r1, [pc, #308]	; (35a0 <memalign+0x208>)
    346a:	484e      	ldr	r0, [pc, #312]	; (35a4 <memalign+0x20c>)
    346c:	447b      	add	r3, pc
    346e:	333b      	adds	r3, #59	; 0x3b
    3470:	4479      	add	r1, pc
    3472:	4478      	add	r0, pc
    3474:	e7cc      	b.n	3410 <memalign+0x78>
/home/yin/imx-optee/imx-optee-os/lib/libutils/isoc/bget_malloc.c:430
    3476:	4419      	add	r1, r3
    3478:	6041      	str	r1, [r0, #4]
/home/yin/imx-optee/imx-optee-os/lib/libutils/isoc/bget_malloc.c:435
    347a:	e906 0006 	stmdb	r6, {r1, r2}
brel_after():
/home/yin/imx-optee/imx-optee-os/lib/libutils/isoc/bget_malloc.c:467
    347e:	2c08      	cmp	r4, #8
    3480:	bf38      	it	cc
    3482:	2408      	movcc	r4, #8
    3484:	1de0      	adds	r0, r4, #7
/home/yin/imx-optee/imx-optee-os/lib/libutils/isoc/bget_malloc.c:471
    3486:	f856 4c04 	ldr.w	r4, [r6, #-4]
/home/yin/imx-optee/imx-optee-os/lib/libutils/isoc/bget_malloc.c:467
    348a:	f020 0007 	bic.w	r0, r0, #7
/home/yin/imx-optee/imx-optee-os/lib/libutils/isoc/bget_malloc.c:470
    348e:	f100 0308 	add.w	r3, r0, #8
/home/yin/imx-optee/imx-optee-os/lib/libutils/isoc/bget_malloc.c:471
    3492:	4261      	negs	r1, r4
    3494:	428b      	cmp	r3, r1
    3496:	dd13      	ble.n	34c0 <memalign+0x128>
    3498:	4b43      	ldr	r3, [pc, #268]	; (35a8 <memalign+0x210>)
    349a:	f240 12d7 	movw	r2, #471	; 0x1d7
    349e:	4943      	ldr	r1, [pc, #268]	; (35ac <memalign+0x214>)
    34a0:	4843      	ldr	r0, [pc, #268]	; (35b0 <memalign+0x218>)
    34a2:	447b      	add	r3, pc
    34a4:	3347      	adds	r3, #71	; 0x47
    34a6:	4479      	add	r1, pc
    34a8:	4478      	add	r0, pc
    34aa:	e7b1      	b.n	3410 <memalign+0x78>
brel_before():
/home/yin/imx-optee/imx-optee-os/lib/libutils/isoc/bget_malloc.c:443
    34ac:	f846 2c04 	str.w	r2, [r6, #-4]
/home/yin/imx-optee/imx-optee-os/lib/libutils/isoc/bget_malloc.c:444
    34b0:	4632      	mov	r2, r6
    34b2:	f842 3d08 	str.w	r3, [r2, #-8]!
/home/yin/imx-optee/imx-optee-os/lib/libutils/isoc/bget_malloc.c:446
    34b6:	f7ff fca3 	bl	2e00 <create_free_block.constprop.11>
    34ba:	e7e0      	b.n	347e <memalign+0xe6>
raw_memalign():
/home/yin/imx-optee/imx-optee-os/lib/libutils/isoc/bget_malloc.c:557
    34bc:	4606      	mov	r6, r0
    34be:	e7de      	b.n	347e <memalign+0xe6>
brel_after():
/home/yin/imx-optee/imx-optee-os/lib/libutils/isoc/bget_malloc.c:477
    34c0:	1ac9      	subs	r1, r1, r3
/home/yin/imx-optee/imx-optee-os/lib/libutils/isoc/bget_malloc.c:478
    34c2:	290f      	cmp	r1, #15
    34c4:	dd4c      	ble.n	3560 <memalign+0x1c8>
/home/yin/imx-optee/imx-optee-os/lib/libutils/isoc/bget_malloc.c:481
    34c6:	f1c4 24ff 	rsb	r4, r4, #4278255360	; 0xff00ff00
/home/yin/imx-optee/imx-optee-os/lib/libutils/isoc/bget_malloc.c:485
    34ca:	425b      	negs	r3, r3
/home/yin/imx-optee/imx-optee-os/lib/libutils/isoc/bget_malloc.c:481
    34cc:	f504 047f 	add.w	r4, r4, #16711680	; 0xff0000
/home/yin/imx-optee/imx-optee-os/lib/libutils/isoc/bget_malloc.c:485
    34d0:	f846 3c04 	str.w	r3, [r6, #-4]
/home/yin/imx-optee/imx-optee-os/lib/libutils/isoc/bget_malloc.c:481
    34d4:	34f8      	adds	r4, #248	; 0xf8
    34d6:	4430      	add	r0, r6
    34d8:	1932      	adds	r2, r6, r4
/home/yin/imx-optee/imx-optee-os/lib/libutils/isoc/bget_malloc.c:486
    34da:	6853      	ldr	r3, [r2, #4]
    34dc:	2b00      	cmp	r3, #0
    34de:	dd41      	ble.n	3564 <memalign+0x1cc>
/home/yin/imx-optee/imx-optee-os/lib/libutils/isoc/bget_malloc.c:492
    34e0:	5934      	ldr	r4, [r6, r4]
    34e2:	b14c      	cbz	r4, 34f8 <memalign+0x160>
    34e4:	4b33      	ldr	r3, [pc, #204]	; (35b4 <memalign+0x21c>)
    34e6:	f44f 72f6 	mov.w	r2, #492	; 0x1ec
    34ea:	4933      	ldr	r1, [pc, #204]	; (35b8 <memalign+0x220>)
    34ec:	4833      	ldr	r0, [pc, #204]	; (35bc <memalign+0x224>)
    34ee:	447b      	add	r3, pc
    34f0:	3347      	adds	r3, #71	; 0x47
    34f2:	4479      	add	r1, pc
    34f4:	4478      	add	r0, pc
    34f6:	e78b      	b.n	3410 <memalign+0x78>
/home/yin/imx-optee/imx-optee-os/lib/libutils/isoc/bget_malloc.c:493
    34f8:	58d5      	ldr	r5, [r2, r3]
    34fa:	42ab      	cmp	r3, r5
    34fc:	d009      	beq.n	3512 <memalign+0x17a>
    34fe:	4b30      	ldr	r3, [pc, #192]	; (35c0 <memalign+0x228>)
    3500:	f240 12ed 	movw	r2, #493	; 0x1ed
    3504:	492f      	ldr	r1, [pc, #188]	; (35c4 <memalign+0x22c>)
    3506:	4830      	ldr	r0, [pc, #192]	; (35c8 <memalign+0x230>)
    3508:	447b      	add	r3, pc
    350a:	3347      	adds	r3, #71	; 0x47
    350c:	4479      	add	r1, pc
    350e:	4478      	add	r0, pc
    3510:	e77e      	b.n	3410 <memalign+0x78>
/home/yin/imx-optee/imx-optee-os/lib/libutils/isoc/bget_malloc.c:496
    3512:	6004      	str	r4, [r0, #0]
/home/yin/imx-optee/imx-optee-os/lib/libutils/isoc/bget_malloc.c:497
    3514:	18cc      	adds	r4, r1, r3
    3516:	6044      	str	r4, [r0, #4]
/home/yin/imx-optee/imx-optee-os/lib/libutils/isoc/bget_malloc.c:500
    3518:	58d4      	ldr	r4, [r2, r3]
    351a:	4421      	add	r1, r4
    351c:	50d1      	str	r1, [r2, r3]
/home/yin/imx-optee/imx-optee-os/lib/libutils/isoc/bget_malloc.c:506
    351e:	68d3      	ldr	r3, [r2, #12]
    3520:	6899      	ldr	r1, [r3, #8]
    3522:	428a      	cmp	r2, r1
    3524:	d009      	beq.n	353a <memalign+0x1a2>
    3526:	4b29      	ldr	r3, [pc, #164]	; (35cc <memalign+0x234>)
    3528:	f44f 72fd 	mov.w	r2, #506	; 0x1fa
    352c:	4928      	ldr	r1, [pc, #160]	; (35d0 <memalign+0x238>)
    352e:	4829      	ldr	r0, [pc, #164]	; (35d4 <memalign+0x23c>)
    3530:	447b      	add	r3, pc
    3532:	3347      	adds	r3, #71	; 0x47
    3534:	4479      	add	r1, pc
    3536:	4478      	add	r0, pc
    3538:	e76a      	b.n	3410 <memalign+0x78>
/home/yin/imx-optee/imx-optee-os/lib/libutils/isoc/bget_malloc.c:507
    353a:	6891      	ldr	r1, [r2, #8]
    353c:	68cc      	ldr	r4, [r1, #12]
    353e:	42a2      	cmp	r2, r4
    3540:	d009      	beq.n	3556 <memalign+0x1be>
    3542:	4b25      	ldr	r3, [pc, #148]	; (35d8 <memalign+0x240>)
    3544:	f240 12fb 	movw	r2, #507	; 0x1fb
    3548:	4924      	ldr	r1, [pc, #144]	; (35dc <memalign+0x244>)
    354a:	4825      	ldr	r0, [pc, #148]	; (35e0 <memalign+0x248>)
    354c:	447b      	add	r3, pc
    354e:	3347      	adds	r3, #71	; 0x47
    3550:	4479      	add	r1, pc
    3552:	4478      	add	r0, pc
    3554:	e75c      	b.n	3410 <memalign+0x78>
/home/yin/imx-optee/imx-optee-os/lib/libutils/isoc/bget_malloc.c:510
    3556:	60c3      	str	r3, [r0, #12]
/home/yin/imx-optee/imx-optee-os/lib/libutils/isoc/bget_malloc.c:511
    3558:	6081      	str	r1, [r0, #8]
/home/yin/imx-optee/imx-optee-os/lib/libutils/isoc/bget_malloc.c:514
    355a:	6098      	str	r0, [r3, #8]
/home/yin/imx-optee/imx-optee-os/lib/libutils/isoc/bget_malloc.c:515
    355c:	6883      	ldr	r3, [r0, #8]
    355e:	60d8      	str	r0, [r3, #12]
raw_memalign():
/home/yin/imx-optee/imx-optee-os/lib/libutils/isoc/bget_malloc.c:590
    3560:	4630      	mov	r0, r6
    3562:	bdf8      	pop	{r3, r4, r5, r6, r7, pc}
brel_after():
/home/yin/imx-optee/imx-optee-os/lib/libutils/isoc/bget_malloc.c:518
    3564:	f7ff fc4c 	bl	2e00 <create_free_block.constprop.11>
    3568:	e7fa      	b.n	3560 <memalign+0x1c8>
raw_memalign():
/home/yin/imx-optee/imx-optee-os/lib/libutils/isoc/bget_malloc.c:554
    356a:	4606      	mov	r6, r0
    356c:	e7f8      	b.n	3560 <memalign+0x1c8>
    356e:	bf00      	nop
    3570:	00005cbc 	.word	0x00005cbc
    3574:	00005ca2 	.word	0x00005ca2
    3578:	0000471a 	.word	0x0000471a
    357c:	00004799 	.word	0x00004799
    3580:	00004a42 	.word	0x00004a42
    3584:	000046fc 	.word	0x000046fc
    3588:	0000477b 	.word	0x0000477b
    358c:	00004a50 	.word	0x00004a50
    3590:	000046e2 	.word	0x000046e2
    3594:	00004761 	.word	0x00004761
    3598:	00004a49 	.word	0x00004a49
    359c:	000046b6 	.word	0x000046b6
    35a0:	00004735 	.word	0x00004735
    35a4:	00004a44 	.word	0x00004a44
    35a8:	00004680 	.word	0x00004680
    35ac:	000046ff 	.word	0x000046ff
    35b0:	00004a2f 	.word	0x00004a2f
    35b4:	00004634 	.word	0x00004634
    35b8:	000046b3 	.word	0x000046b3
    35bc:	000049f9 	.word	0x000049f9
    35c0:	0000461a 	.word	0x0000461a
    35c4:	00004699 	.word	0x00004699
    35c8:	000049f5 	.word	0x000049f5
    35cc:	000045f2 	.word	0x000045f2
    35d0:	00004671 	.word	0x00004671
    35d4:	000049ec 	.word	0x000049ec
    35d8:	000045d6 	.word	0x000045d6
    35dc:	00004655 	.word	0x00004655
    35e0:	000049ef 	.word	0x000049ef

000035e4 <malloc_add_pool>:
malloc_add_pool():
/home/yin/imx-optee/imx-optee-os/lib/libutils/isoc/bget_malloc.c:879
    35e4:	e92d 41f3 	stmdb	sp!, {r0, r1, r4, r5, r6, r7, r8, lr}
/home/yin/imx-optee/imx-optee-os/lib/libutils/isoc/bget_malloc.c:884
    35e8:	1845      	adds	r5, r0, r1
/home/yin/imx-optee/imx-optee-os/lib/libutils/isoc/bget_malloc.c:890
    35ea:	3007      	adds	r0, #7
/home/yin/imx-optee/imx-optee-os/lib/libutils/isoc/bget_malloc.c:891
    35ec:	f025 0507 	bic.w	r5, r5, #7
/home/yin/imx-optee/imx-optee-os/lib/libutils/isoc/bget_malloc.c:890
    35f0:	f020 0407 	bic.w	r4, r0, #7
/home/yin/imx-optee/imx-optee-os/lib/libutils/isoc/bget_malloc.c:892
    35f4:	42ac      	cmp	r4, r5
    35f6:	d30c      	bcc.n	3612 <malloc_add_pool+0x2e>
/home/yin/imx-optee/imx-optee-os/lib/libutils/isoc/bget_malloc.c:892 (discriminator 1)
    35f8:	4b24      	ldr	r3, [pc, #144]	; (368c <malloc_add_pool+0xa8>)
    35fa:	f44f 725f 	mov.w	r2, #892	; 0x37c
    35fe:	4924      	ldr	r1, [pc, #144]	; (3690 <malloc_add_pool+0xac>)
    3600:	4824      	ldr	r0, [pc, #144]	; (3694 <malloc_add_pool+0xb0>)
    3602:	447b      	add	r3, pc
    3604:	3352      	adds	r3, #82	; 0x52
    3606:	4479      	add	r1, pc
    3608:	4478      	add	r0, pc
/home/yin/imx-optee/imx-optee-os/lib/libutils/isoc/bget_malloc.c:905
    360a:	f001 fc1d 	bl	4e48 <_assert_log>
    360e:	f001 fc2f 	bl	4e70 <_assert_break>
/home/yin/imx-optee/imx-optee-os/lib/libutils/isoc/bget_malloc.c:894
    3612:	1b2d      	subs	r5, r5, r4
    3614:	2d17      	cmp	r5, #23
    3616:	d80e      	bhi.n	3636 <malloc_add_pool+0x52>
/home/yin/imx-optee/imx-optee-os/lib/libutils/isoc/bget_malloc.c:895
    3618:	4b1f      	ldr	r3, [pc, #124]	; (3698 <malloc_add_pool+0xb4>)
    361a:	2203      	movs	r2, #3
    361c:	481f      	ldr	r0, [pc, #124]	; (369c <malloc_add_pool+0xb8>)
    361e:	f240 317f 	movw	r1, #895	; 0x37f
    3622:	447b      	add	r3, pc
    3624:	4478      	add	r0, pc
    3626:	9300      	str	r3, [sp, #0]
    3628:	3052      	adds	r0, #82	; 0x52
    362a:	2301      	movs	r3, #1
    362c:	f000 fcc0 	bl	3fb0 <trace_printf>
/home/yin/imx-optee/imx-optee-os/lib/libutils/isoc/bget_malloc.c:914
    3630:	b002      	add	sp, #8
    3632:	e8bd 81f0 	ldmia.w	sp!, {r4, r5, r6, r7, r8, pc}
/home/yin/imx-optee/imx-optee-os/lib/libutils/isoc/bget_malloc.c:902
    3636:	f8df 8068 	ldr.w	r8, [pc, #104]	; 36a0 <malloc_add_pool+0xbc>
    363a:	4629      	mov	r1, r5
/home/yin/imx-optee/imx-optee-os/lib/libutils/isoc/bget_malloc.c:903
    363c:	4e19      	ldr	r6, [pc, #100]	; (36a4 <malloc_add_pool+0xc0>)
/home/yin/imx-optee/imx-optee-os/lib/libutils/isoc/bget_malloc.c:902
    363e:	4620      	mov	r0, r4
    3640:	44f8      	add	r8, pc
/home/yin/imx-optee/imx-optee-os/lib/libutils/isoc/bget_malloc.c:903
    3642:	447e      	add	r6, pc
/home/yin/imx-optee/imx-optee-os/lib/libutils/isoc/bget_malloc.c:902
    3644:	4642      	mov	r2, r8
    3646:	f7ff fe25 	bl	3294 <bpool>
/home/yin/imx-optee/imx-optee-os/lib/libutils/isoc/bget_malloc.c:903
    364a:	6837      	ldr	r7, [r6, #0]
/home/yin/imx-optee/imx-optee-os/lib/libutils/isoc/bget_malloc.c:904
    364c:	6870      	ldr	r0, [r6, #4]
/home/yin/imx-optee/imx-optee-os/lib/libutils/isoc/bget_malloc.c:903
    364e:	3701      	adds	r7, #1
raw_realloc():
/home/yin/imx-optee/imx-optee-os/lib/libutils/isoc/bget_malloc.c:362
    3650:	00f9      	lsls	r1, r7, #3
    3652:	d509      	bpl.n	3668 <malloc_add_pool+0x84>
malloc_add_pool():
/home/yin/imx-optee/imx-optee-os/lib/libutils/isoc/bget_malloc.c:905
    3654:	4b14      	ldr	r3, [pc, #80]	; (36a8 <malloc_add_pool+0xc4>)
    3656:	f240 3289 	movw	r2, #905	; 0x389
    365a:	4914      	ldr	r1, [pc, #80]	; (36ac <malloc_add_pool+0xc8>)
    365c:	4814      	ldr	r0, [pc, #80]	; (36b0 <malloc_add_pool+0xcc>)
    365e:	447b      	add	r3, pc
    3660:	3352      	adds	r3, #82	; 0x52
    3662:	4479      	add	r1, pc
    3664:	4478      	add	r0, pc
    3666:	e7d0      	b.n	360a <malloc_add_pool+0x26>
raw_realloc():
/home/yin/imx-optee/imx-optee-os/lib/libutils/isoc/bget_malloc.c:371
    3668:	2900      	cmp	r1, #0
/home/yin/imx-optee/imx-optee-os/lib/libutils/isoc/bget_malloc.c:373
    366a:	4642      	mov	r2, r8
    366c:	bf08      	it	eq
    366e:	2101      	moveq	r1, #1
    3670:	f7ff fdd2 	bl	3218 <bgetr>
malloc_add_pool():
/home/yin/imx-optee/imx-optee-os/lib/libutils/isoc/bget_malloc.c:905
    3674:	2800      	cmp	r0, #0
    3676:	d0ed      	beq.n	3654 <malloc_add_pool+0x70>
/home/yin/imx-optee/imx-optee-os/lib/libutils/isoc/bget_malloc.c:907
    3678:	6833      	ldr	r3, [r6, #0]
/home/yin/imx-optee/imx-optee-os/lib/libutils/isoc/bget_malloc.c:906
    367a:	6070      	str	r0, [r6, #4]
/home/yin/imx-optee/imx-optee-os/lib/libutils/isoc/bget_malloc.c:912
    367c:	6037      	str	r7, [r6, #0]
/home/yin/imx-optee/imx-optee-os/lib/libutils/isoc/bget_malloc.c:907
    367e:	f840 4033 	str.w	r4, [r0, r3, lsl #3]
    3682:	eb00 02c3 	add.w	r2, r0, r3, lsl #3
/home/yin/imx-optee/imx-optee-os/lib/libutils/isoc/bget_malloc.c:908
    3686:	6055      	str	r5, [r2, #4]
    3688:	e7d2      	b.n	3630 <malloc_add_pool+0x4c>
    368a:	bf00      	nop
    368c:	00004520 	.word	0x00004520
    3690:	0000459f 	.word	0x0000459f
    3694:	00004958 	.word	0x00004958
    3698:	0000494a 	.word	0x0000494a
    369c:	000044fe 	.word	0x000044fe
    36a0:	00005a38 	.word	0x00005a38
    36a4:	0000736e 	.word	0x0000736e
    36a8:	000044c4 	.word	0x000044c4
    36ac:	00004543 	.word	0x00004543
    36b0:	00004920 	.word	0x00004920

000036b4 <malloc_buffer_is_within_alloced>:
malloc_buffer_is_within_alloced():
/home/yin/imx-optee/imx-optee-os/lib/libutils/isoc/bget_malloc.c:928
    36b4:	1841      	adds	r1, r0, r1
/home/yin/imx-optee/imx-optee-os/lib/libutils/isoc/bget_malloc.c:917
    36b6:	b5f8      	push	{r3, r4, r5, r6, r7, lr}
/home/yin/imx-optee/imx-optee-os/lib/libutils/isoc/bget_malloc.c:928
    36b8:	d253      	bcs.n	3762 <malloc_buffer_is_within_alloced+0xae>
bpool_foreach_iterator_init():
/home/yin/imx-optee/imx-optee-os/lib/libutils/isoc/bget_malloc.c:230
    36ba:	4b2b      	ldr	r3, [pc, #172]	; (3768 <malloc_buffer_is_within_alloced+0xb4>)
/home/yin/imx-optee/imx-optee-os/lib/libutils/isoc/bget_malloc.c:229
    36bc:	2500      	movs	r5, #0
    36be:	f06f 0707 	mvn.w	r7, #7
/home/yin/imx-optee/imx-optee-os/lib/libutils/isoc/bget_malloc.c:230
    36c2:	447b      	add	r3, pc
    36c4:	685e      	ldr	r6, [r3, #4]
bpool_foreach():
/home/yin/imx-optee/imx-optee-os/lib/libutils/isoc/bget_malloc.c:275
    36c6:	f8d3 c000 	ldr.w	ip, [r3]
bpool_foreach_iterator_init():
/home/yin/imx-optee/imx-optee-os/lib/libutils/isoc/bget_malloc.c:230
    36ca:	6833      	ldr	r3, [r6, #0]
bpool_foreach_pool():
/home/yin/imx-optee/imx-optee-os/lib/libutils/isoc/bget_malloc.c:237
    36cc:	685a      	ldr	r2, [r3, #4]
/home/yin/imx-optee/imx-optee-os/lib/libutils/isoc/bget_malloc.c:239
    36ce:	f1b2 4f00 	cmp.w	r2, #2147483648	; 0x80000000
    36d2:	d043      	beq.n	375c <malloc_buffer_is_within_alloced+0xa8>
/home/yin/imx-optee/imx-optee-os/lib/libutils/isoc/bget_malloc.c:242
    36d4:	2a00      	cmp	r2, #0
    36d6:	da1e      	bge.n	3716 <malloc_buffer_is_within_alloced+0x62>
/home/yin/imx-optee/imx-optee-os/lib/libutils/isoc/bget_malloc.c:244
    36d8:	4254      	negs	r4, r2
/home/yin/imx-optee/imx-optee-os/lib/libutils/isoc/bget_malloc.c:246
    36da:	f04f 0e00 	mov.w	lr, #0
/home/yin/imx-optee/imx-optee-os/lib/libutils/isoc/bget_malloc.c:259
    36de:	441c      	add	r4, r3
bpool_foreach():
/home/yin/imx-optee/imx-optee-os/lib/libutils/isoc/bget_malloc.c:270
    36e0:	f1be 0f00 	cmp.w	lr, #0
    36e4:	d115      	bne.n	3712 <malloc_buffer_is_within_alloced+0x5e>
    36e6:	1aba      	subs	r2, r7, r2
bget_buf_size():
/home/yin/imx-optee/imx-optee-os/lib/libutils/isoc/bget_malloc.c:613
    36e8:	2a00      	cmp	r2, #0
    36ea:	dc0c      	bgt.n	3706 <malloc_buffer_is_within_alloced+0x52>
    36ec:	4b1f      	ldr	r3, [pc, #124]	; (376c <malloc_buffer_is_within_alloced+0xb8>)
    36ee:	f240 2265 	movw	r2, #613	; 0x265
    36f2:	491f      	ldr	r1, [pc, #124]	; (3770 <malloc_buffer_is_within_alloced+0xbc>)
    36f4:	481f      	ldr	r0, [pc, #124]	; (3774 <malloc_buffer_is_within_alloced+0xc0>)
    36f6:	447b      	add	r3, pc
    36f8:	3362      	adds	r3, #98	; 0x62
    36fa:	4479      	add	r1, pc
    36fc:	4478      	add	r0, pc
bpool_foreach_pool():
/home/yin/imx-optee/imx-optee-os/lib/libutils/isoc/bget_malloc.c:252
    36fe:	f001 fba3 	bl	4e48 <_assert_log>
    3702:	f001 fbb5 	bl	4e70 <_assert_break>
/home/yin/imx-optee/imx-optee-os/lib/libutils/isoc/bget_malloc.c:256
    3706:	3308      	adds	r3, #8
malloc_buffer_is_within_alloced():
/home/yin/imx-optee/imx-optee-os/lib/libutils/isoc/bget_malloc.c:939
    3708:	4298      	cmp	r0, r3
    370a:	d302      	bcc.n	3712 <malloc_buffer_is_within_alloced+0x5e>
/home/yin/imx-optee/imx-optee-os/lib/libutils/isoc/bget_malloc.c:937 (discriminator 1)
    370c:	441a      	add	r2, r3
/home/yin/imx-optee/imx-optee-os/lib/libutils/isoc/bget_malloc.c:939 (discriminator 1)
    370e:	4291      	cmp	r1, r2
    3710:	d922      	bls.n	3758 <malloc_buffer_is_within_alloced+0xa4>
bpool_foreach():
/home/yin/imx-optee/imx-optee-os/lib/libutils/isoc/bget_malloc.c:279
    3712:	4623      	mov	r3, r4
    3714:	e7da      	b.n	36cc <malloc_buffer_is_within_alloced+0x18>
bpool_foreach_pool():
/home/yin/imx-optee/imx-optee-os/lib/libutils/isoc/bget_malloc.c:252
    3716:	68dc      	ldr	r4, [r3, #12]
    3718:	68a4      	ldr	r4, [r4, #8]
    371a:	429c      	cmp	r4, r3
    371c:	d008      	beq.n	3730 <malloc_buffer_is_within_alloced+0x7c>
    371e:	4b16      	ldr	r3, [pc, #88]	; (3778 <malloc_buffer_is_within_alloced+0xc4>)
    3720:	22fc      	movs	r2, #252	; 0xfc
    3722:	4916      	ldr	r1, [pc, #88]	; (377c <malloc_buffer_is_within_alloced+0xc8>)
    3724:	4816      	ldr	r0, [pc, #88]	; (3780 <malloc_buffer_is_within_alloced+0xcc>)
    3726:	447b      	add	r3, pc
    3728:	3370      	adds	r3, #112	; 0x70
    372a:	4479      	add	r1, pc
    372c:	4478      	add	r0, pc
    372e:	e7e6      	b.n	36fe <malloc_buffer_is_within_alloced+0x4a>
/home/yin/imx-optee/imx-optee-os/lib/libutils/isoc/bget_malloc.c:253
    3730:	689c      	ldr	r4, [r3, #8]
    3732:	68e4      	ldr	r4, [r4, #12]
    3734:	429c      	cmp	r4, r3
    3736:	d008      	beq.n	374a <malloc_buffer_is_within_alloced+0x96>
    3738:	4b12      	ldr	r3, [pc, #72]	; (3784 <malloc_buffer_is_within_alloced+0xd0>)
    373a:	22fd      	movs	r2, #253	; 0xfd
    373c:	4912      	ldr	r1, [pc, #72]	; (3788 <malloc_buffer_is_within_alloced+0xd4>)
    373e:	4813      	ldr	r0, [pc, #76]	; (378c <malloc_buffer_is_within_alloced+0xd8>)
    3740:	447b      	add	r3, pc
    3742:	3370      	adds	r3, #112	; 0x70
    3744:	4479      	add	r1, pc
    3746:	4478      	add	r0, pc
    3748:	e7d9      	b.n	36fe <malloc_buffer_is_within_alloced+0x4a>
    374a:	4614      	mov	r4, r2
/home/yin/imx-optee/imx-optee-os/lib/libutils/isoc/bget_malloc.c:249
    374c:	f04f 0e01 	mov.w	lr, #1
    3750:	e7c5      	b.n	36de <malloc_buffer_is_within_alloced+0x2a>
bpool_foreach():
/home/yin/imx-optee/imx-optee-os/lib/libutils/isoc/bget_malloc.c:279
    3752:	f856 4035 	ldr.w	r4, [r6, r5, lsl #3]
    3756:	e7dc      	b.n	3712 <malloc_buffer_is_within_alloced+0x5e>
malloc_buffer_is_within_alloced():
/home/yin/imx-optee/imx-optee-os/lib/libutils/isoc/bget_malloc.c:940
    3758:	2001      	movs	r0, #1
/home/yin/imx-optee/imx-optee-os/lib/libutils/isoc/bget_malloc.c:948
    375a:	bdf8      	pop	{r3, r4, r5, r6, r7, pc}
bpool_foreach():
/home/yin/imx-optee/imx-optee-os/lib/libutils/isoc/bget_malloc.c:275
    375c:	3501      	adds	r5, #1
    375e:	4565      	cmp	r5, ip
    3760:	d3f7      	bcc.n	3752 <malloc_buffer_is_within_alloced+0x9e>
malloc_buffer_is_within_alloced():
/home/yin/imx-optee/imx-optee-os/lib/libutils/isoc/bget_malloc.c:922
    3762:	2000      	movs	r0, #0
    3764:	bdf8      	pop	{r3, r4, r5, r6, r7, pc}
    3766:	bf00      	nop
    3768:	000072ee 	.word	0x000072ee
    376c:	0000442c 	.word	0x0000442c
    3770:	000044ab 	.word	0x000044ab
    3774:	00004715 	.word	0x00004715
    3778:	000043fc 	.word	0x000043fc
    377c:	0000447b 	.word	0x0000447b
    3780:	0000459c 	.word	0x0000459c
    3784:	000043e2 	.word	0x000043e2
    3788:	00004461 	.word	0x00004461
    378c:	0000459d 	.word	0x0000459d

00003790 <malloc_buffer_overlaps_heap>:
malloc_buffer_overlaps_heap():
/home/yin/imx-optee/imx-optee-os/lib/libutils/isoc/bget_malloc.c:961
    3790:	4b10      	ldr	r3, [pc, #64]	; (37d4 <malloc_buffer_overlaps_heap+0x44>)
    3792:	eb10 0c01 	adds.w	ip, r0, r1
/home/yin/imx-optee/imx-optee-os/lib/libutils/isoc/bget_malloc.c:952
    3796:	b5f0      	push	{r4, r5, r6, r7, lr}
    3798:	bf2c      	ite	cs
    379a:	2101      	movcs	r1, #1
    379c:	2100      	movcc	r1, #0
/home/yin/imx-optee/imx-optee-os/lib/libutils/isoc/bget_malloc.c:961
    379e:	447b      	add	r3, pc
    37a0:	681f      	ldr	r7, [r3, #0]
/home/yin/imx-optee/imx-optee-os/lib/libutils/isoc/bget_malloc.c:962
    37a2:	685d      	ldr	r5, [r3, #4]
/home/yin/imx-optee/imx-optee-os/lib/libutils/isoc/bget_malloc.c:961
    37a4:	2300      	movs	r3, #0
/home/yin/imx-optee/imx-optee-os/lib/libutils/isoc/bget_malloc.c:961 (discriminator 1)
    37a6:	42bb      	cmp	r3, r7
    37a8:	d101      	bne.n	37ae <malloc_buffer_overlaps_heap+0x1e>
/home/yin/imx-optee/imx-optee-os/lib/libutils/isoc/bget_malloc.c:956
    37aa:	2000      	movs	r0, #0
    37ac:	bdf0      	pop	{r4, r5, r6, r7, pc}
/home/yin/imx-optee/imx-optee-os/lib/libutils/isoc/bget_malloc.c:963
    37ae:	eb05 02c3 	add.w	r2, r5, r3, lsl #3
/home/yin/imx-optee/imx-optee-os/lib/libutils/isoc/bget_malloc.c:962
    37b2:	f855 4033 	ldr.w	r4, [r5, r3, lsl #3]
    37b6:	2600      	movs	r6, #0
    37b8:	6852      	ldr	r2, [r2, #4]
    37ba:	18a2      	adds	r2, r4, r2
    37bc:	bf28      	it	cs
    37be:	2601      	movcs	r6, #1
/home/yin/imx-optee/imx-optee-os/lib/libutils/isoc/bget_malloc.c:965
    37c0:	b931      	cbnz	r1, 37d0 <malloc_buffer_overlaps_heap+0x40>
/home/yin/imx-optee/imx-optee-os/lib/libutils/isoc/bget_malloc.c:965 (discriminator 1)
    37c2:	b92e      	cbnz	r6, 37d0 <malloc_buffer_overlaps_heap+0x40>
/home/yin/imx-optee/imx-optee-os/lib/libutils/isoc/bget_malloc.c:970
    37c4:	45a4      	cmp	ip, r4
    37c6:	d803      	bhi.n	37d0 <malloc_buffer_overlaps_heap+0x40>
/home/yin/imx-optee/imx-optee-os/lib/libutils/isoc/bget_malloc.c:970 (discriminator 1)
    37c8:	4290      	cmp	r0, r2
    37ca:	d301      	bcc.n	37d0 <malloc_buffer_overlaps_heap+0x40>
/home/yin/imx-optee/imx-optee-os/lib/libutils/isoc/bget_malloc.c:961 (discriminator 2)
    37cc:	3301      	adds	r3, #1
    37ce:	e7ea      	b.n	37a6 <malloc_buffer_overlaps_heap+0x16>
/home/yin/imx-optee/imx-optee-os/lib/libutils/isoc/bget_malloc.c:966
    37d0:	2001      	movs	r0, #1
/home/yin/imx-optee/imx-optee-os/lib/libutils/isoc/bget_malloc.c:979
    37d2:	bdf0      	pop	{r4, r5, r6, r7, pc}
    37d4:	00007212 	.word	0x00007212

000037d8 <__vsnprintf>:
__vsnprintf():
/home/yin/imx-optee/imx-optee-os/lib/libutils/ext/snprintk.c:137
    37d8:	e92d 4ff0 	stmdb	sp!, {r4, r5, r6, r7, r8, r9, sl, fp, lr}
    37dc:	b09f      	sub	sp, #124	; 0x7c
    37de:	920b      	str	r2, [sp, #44]	; 0x2c
/home/yin/imx-optee/imx-optee-os/lib/libutils/ext/snprintk.c:141
    37e0:	4680      	mov	r8, r0
    37e2:	461f      	mov	r7, r3
kprintf():
/home/yin/imx-optee/imx-optee-os/lib/libutils/ext/snprintk.c:269
    37e4:	2300      	movs	r3, #0
__vsnprintf():
/home/yin/imx-optee/imx-optee-os/lib/libutils/ext/snprintk.c:137
    37e6:	f89d 20a0 	ldrb.w	r2, [sp, #160]	; 0xa0
    37ea:	9010      	str	r0, [sp, #64]	; 0x40
    37ec:	9112      	str	r1, [sp, #72]	; 0x48
    37ee:	9213      	str	r2, [sp, #76]	; 0x4c
/home/yin/imx-optee/imx-optee-os/lib/libutils/ext/snprintk.c:141
    37f0:	4602      	mov	r2, r0
    37f2:	440a      	add	r2, r1
kprintf():
/home/yin/imx-optee/imx-optee-os/lib/libutils/ext/snprintk.c:269
    37f4:	930f      	str	r3, [sp, #60]	; 0x3c
__vsnprintf():
/home/yin/imx-optee/imx-optee-os/lib/libutils/ext/snprintk.c:141
    37f6:	920e      	str	r2, [sp, #56]	; 0x38
kprintf():
/home/yin/imx-optee/imx-optee-os/lib/libutils/ext/snprintk.c:267
    37f8:	930c      	str	r3, [sp, #48]	; 0x30
/home/yin/imx-optee/imx-optee-os/lib/libutils/ext/snprintk.c:275
    37fa:	9b0b      	ldr	r3, [sp, #44]	; 0x2c
    37fc:	781b      	ldrb	r3, [r3, #0]
    37fe:	2b25      	cmp	r3, #37	; 0x25
    3800:	d026      	beq.n	3850 <__vsnprintf+0x78>
    3802:	b9a3      	cbnz	r3, 382e <__vsnprintf+0x56>
__vsnprintf():
/home/yin/imx-optee/imx-optee-os/lib/libutils/ext/snprintk.c:143
    3804:	9b10      	ldr	r3, [sp, #64]	; 0x40
    3806:	b173      	cbz	r3, 3826 <__vsnprintf+0x4e>
/home/yin/imx-optee/imx-optee-os/lib/libutils/ext/snprintk.c:143 (discriminator 1)
    3808:	9b12      	ldr	r3, [sp, #72]	; 0x48
    380a:	b163      	cbz	r3, 3826 <__vsnprintf+0x4e>
/home/yin/imx-optee/imx-optee-os/lib/libutils/ext/snprintk.c:145
    380c:	9a0c      	ldr	r2, [sp, #48]	; 0x30
    380e:	4293      	cmp	r3, r2
/home/yin/imx-optee/imx-optee-os/lib/libutils/ext/snprintk.c:146
    3810:	9a10      	ldr	r2, [sp, #64]	; 0x40
    3812:	bf98      	it	ls
    3814:	9912      	ldrls	r1, [sp, #72]	; 0x48
    3816:	f04f 0300 	mov.w	r3, #0
/home/yin/imx-optee/imx-optee-os/lib/libutils/ext/snprintk.c:148
    381a:	bf8d      	iteet	hi
    381c:	990c      	ldrhi	r1, [sp, #48]	; 0x30
/home/yin/imx-optee/imx-optee-os/lib/libutils/ext/snprintk.c:146
    381e:	1852      	addls	r2, r2, r1
    3820:	f802 3c01 	strbls.w	r3, [r2, #-1]
/home/yin/imx-optee/imx-optee-os/lib/libutils/ext/snprintk.c:148
    3824:	5453      	strbhi	r3, [r2, r1]
/home/yin/imx-optee/imx-optee-os/lib/libutils/ext/snprintk.c:151
    3826:	980c      	ldr	r0, [sp, #48]	; 0x30
    3828:	b01f      	add	sp, #124	; 0x7c
    382a:	e8bd 8ff0 	ldmia.w	sp!, {r4, r5, r6, r7, r8, r9, sl, fp, pc}
kprintf():
/home/yin/imx-optee/imx-optee-os/lib/libutils/ext/snprintk.c:276
    382e:	9a0c      	ldr	r2, [sp, #48]	; 0x30
    3830:	3201      	adds	r2, #1
    3832:	920c      	str	r2, [sp, #48]	; 0x30
/home/yin/imx-optee/imx-optee-os/lib/libutils/ext/snprintk.c:277
    3834:	f1b8 0f00 	cmp.w	r8, #0
    3838:	d006      	beq.n	3848 <__vsnprintf+0x70>
    383a:	9a0e      	ldr	r2, [sp, #56]	; 0x38
    383c:	4542      	cmp	r2, r8
    383e:	bf84      	itt	hi
    3840:	f888 3000 	strbhi.w	r3, [r8]
    3844:	f108 0801 	addhi.w	r8, r8, #1
/home/yin/imx-optee/imx-optee-os/lib/libutils/ext/snprintk.c:275
    3848:	9b0b      	ldr	r3, [sp, #44]	; 0x2c
    384a:	3301      	adds	r3, #1
    384c:	930b      	str	r3, [sp, #44]	; 0x2c
    384e:	e7d4      	b.n	37fa <__vsnprintf+0x22>
/home/yin/imx-optee/imx-optee-os/lib/libutils/ext/snprintk.c:282
    3850:	9b0b      	ldr	r3, [sp, #44]	; 0x2c
/home/yin/imx-optee/imx-optee-os/lib/libutils/ext/snprintk.c:288
    3852:	f04f 0a00 	mov.w	sl, #0
/home/yin/imx-optee/imx-optee-os/lib/libutils/ext/snprintk.c:282
    3856:	463a      	mov	r2, r7
/home/yin/imx-optee/imx-optee-os/lib/libutils/ext/snprintk.c:287
    3858:	f04f 3bff 	mov.w	fp, #4294967295	; 0xffffffff
/home/yin/imx-optee/imx-optee-os/lib/libutils/ext/snprintk.c:284
    385c:	4656      	mov	r6, sl
/home/yin/imx-optee/imx-optee-os/lib/libutils/ext/snprintk.c:286
    385e:	f8cd a034 	str.w	sl, [sp, #52]	; 0x34
/home/yin/imx-optee/imx-optee-os/lib/libutils/ext/snprintk.c:282
    3862:	3301      	adds	r3, #1
/home/yin/imx-optee/imx-optee-os/lib/libutils/ext/snprintk.c:290
    3864:	f893 9000 	ldrb.w	r9, [r3]
    3868:	1c59      	adds	r1, r3, #1
    386a:	910b      	str	r1, [sp, #44]	; 0x2c
/home/yin/imx-optee/imx-optee-os/lib/libutils/ext/snprintk.c:291
    386c:	f1b9 0f63 	cmp.w	r9, #99	; 0x63
    3870:	f000 8163 	beq.w	3b3a <__vsnprintf+0x362>
    3874:	f300 8096 	bgt.w	39a4 <__vsnprintf+0x1cc>
    3878:	f1b9 0f30 	cmp.w	r9, #48	; 0x30
    387c:	f000 8147 	beq.w	3b0e <__vsnprintf+0x336>
    3880:	dc26      	bgt.n	38d0 <__vsnprintf+0xf8>
    3882:	f1b9 0f2a 	cmp.w	r9, #42	; 0x2a
    3886:	f000 8119 	beq.w	3abc <__vsnprintf+0x2e4>
    388a:	dc13      	bgt.n	38b4 <__vsnprintf+0xdc>
    388c:	f1b9 0f20 	cmp.w	r9, #32
    3890:	f000 810b 	beq.w	3aaa <__vsnprintf+0x2d2>
    3894:	f1b9 0f23 	cmp.w	r9, #35	; 0x23
    3898:	f000 810d 	beq.w	3ab6 <__vsnprintf+0x2de>
/home/yin/imx-optee/imx-optee-os/lib/libutils/ext/snprintk.c:541
    389c:	f1b9 0f00 	cmp.w	r9, #0
    38a0:	d0b0      	beq.n	3804 <__vsnprintf+0x2c>
/home/yin/imx-optee/imx-optee-os/lib/libutils/ext/snprintk.c:545
    38a2:	ab1e      	add	r3, sp, #120	; 0x78
    38a4:	4617      	mov	r7, r2
    38a6:	f803 9d28 	strb.w	r9, [r3, #-40]!
/home/yin/imx-optee/imx-optee-os/lib/libutils/ext/snprintk.c:546
    38aa:	f04f 0b01 	mov.w	fp, #1
    38ae:	e0c1      	b.n	3a34 <__vsnprintf+0x25c>
/home/yin/imx-optee/imx-optee-os/lib/libutils/ext/snprintk.c:311
    38b0:	461a      	mov	r2, r3
    38b2:	e00b      	b.n	38cc <__vsnprintf+0xf4>
/home/yin/imx-optee/imx-optee-os/lib/libutils/ext/snprintk.c:291
    38b4:	f1b9 0f2d 	cmp.w	r9, #45	; 0x2d
    38b8:	f000 8109 	beq.w	3ace <__vsnprintf+0x2f6>
    38bc:	f1b9 0f2e 	cmp.w	r9, #46	; 0x2e
    38c0:	f000 8108 	beq.w	3ad4 <__vsnprintf+0x2fc>
    38c4:	f1b9 0f2b 	cmp.w	r9, #43	; 0x2b
    38c8:	d1e8      	bne.n	389c <__vsnprintf+0xc4>
/home/yin/imx-optee/imx-optee-os/lib/libutils/ext/snprintk.c:319
    38ca:	46ca      	mov	sl, r9
/home/yin/imx-optee/imx-optee-os/lib/libutils/ext/snprintk.c:322
    38cc:	9b0b      	ldr	r3, [sp, #44]	; 0x2c
    38ce:	e7c9      	b.n	3864 <__vsnprintf+0x8c>
/home/yin/imx-optee/imx-optee-os/lib/libutils/ext/snprintk.c:291
    38d0:	f1b9 0f44 	cmp.w	r9, #68	; 0x44
    38d4:	f000 818a 	beq.w	3bec <__vsnprintf+0x414>
    38d8:	dc14      	bgt.n	3904 <__vsnprintf+0x12c>
    38da:	f1b9 0f39 	cmp.w	r9, #57	; 0x39
    38de:	dcdd      	bgt.n	389c <__vsnprintf+0xc4>
    38e0:	2300      	movs	r3, #0
    38e2:	930d      	str	r3, [sp, #52]	; 0x34
/home/yin/imx-optee/imx-optee-os/lib/libutils/ext/snprintk.c:346
    38e4:	9b0d      	ldr	r3, [sp, #52]	; 0x34
    38e6:	f1a9 0930 	sub.w	r9, r9, #48	; 0x30
    38ea:	210a      	movs	r1, #10
    38ec:	fb01 9303 	mla	r3, r1, r3, r9
    38f0:	930d      	str	r3, [sp, #52]	; 0x34
/home/yin/imx-optee/imx-optee-os/lib/libutils/ext/snprintk.c:347
    38f2:	9b0b      	ldr	r3, [sp, #44]	; 0x2c
    38f4:	f813 9b01 	ldrb.w	r9, [r3], #1
    38f8:	930b      	str	r3, [sp, #44]	; 0x2c
/home/yin/imx-optee/imx-optee-os/lib/libutils/ext/snprintk.c:348
    38fa:	f1a9 0330 	sub.w	r3, r9, #48	; 0x30
    38fe:	2b09      	cmp	r3, #9
    3900:	d9f0      	bls.n	38e4 <__vsnprintf+0x10c>
    3902:	e7b3      	b.n	386c <__vsnprintf+0x94>
/home/yin/imx-optee/imx-optee-os/lib/libutils/ext/snprintk.c:291
    3904:	f1b9 0f55 	cmp.w	r9, #85	; 0x55
    3908:	f000 823d 	beq.w	3d86 <__vsnprintf+0x5ae>
    390c:	f1b9 0f58 	cmp.w	r9, #88	; 0x58
    3910:	f000 80ac 	beq.w	3a6c <__vsnprintf+0x294>
    3914:	f1b9 0f4f 	cmp.w	r9, #79	; 0x4f
    3918:	d1c0      	bne.n	389c <__vsnprintf+0xc4>
/home/yin/imx-optee/imx-optee-os/lib/libutils/ext/snprintk.c:408
    391a:	f046 0610 	orr.w	r6, r6, #16
/home/yin/imx-optee/imx-optee-os/lib/libutils/ext/snprintk.c:411
    391e:	0635      	lsls	r5, r6, #24
    3920:	f140 81c0 	bpl.w	3ca4 <__vsnprintf+0x4cc>
    3924:	3207      	adds	r2, #7
    3926:	f022 0207 	bic.w	r2, r2, #7
    392a:	e9d2 4500 	ldrd	r4, r5, [r2]
    392e:	f102 0708 	add.w	r7, r2, #8
/home/yin/imx-optee/imx-optee-os/lib/libutils/ext/snprintk.c:488
    3932:	f1bb 3fff 	cmp.w	fp, #4294967295	; 0xffffffff
    3936:	f04f 0a00 	mov.w	sl, #0
    393a:	d011      	beq.n	3960 <__vsnprintf+0x188>
    393c:	4653      	mov	r3, sl
/home/yin/imx-optee/imx-optee-os/lib/libutils/ext/snprintk.c:497
    393e:	ea54 0205 	orrs.w	r2, r4, r5
/home/yin/imx-optee/imx-optee-os/lib/libutils/ext/snprintk.c:489
    3942:	f426 6680 	bic.w	r6, r6, #1024	; 0x400
/home/yin/imx-optee/imx-optee-os/lib/libutils/ext/snprintk.c:497
    3946:	d105      	bne.n	3954 <__vsnprintf+0x17c>
    3948:	f1bb 0f00 	cmp.w	fp, #0
    394c:	f000 8269 	beq.w	3e22 <__vsnprintf+0x64a>
    3950:	2400      	movs	r4, #0
    3952:	2500      	movs	r5, #0
/home/yin/imx-optee/imx-optee-os/lib/libutils/ext/snprintk.c:503
    3954:	2b01      	cmp	r3, #1
    3956:	f000 8161 	beq.w	3c1c <__vsnprintf+0x444>
    395a:	2b02      	cmp	r3, #2
    395c:	f000 81f8 	beq.w	3d50 <__vsnprintf+0x578>
/home/yin/imx-optee/imx-optee-os/lib/libutils/ext/snprintk.c:488
    3960:	f10d 0275 	add.w	r2, sp, #117	; 0x75
/home/yin/imx-optee/imx-optee-os/lib/libutils/ext/snprintk.c:507
    3964:	08e0      	lsrs	r0, r4, #3
    3966:	ea4f 0cd5 	mov.w	ip, r5, lsr #3
    396a:	ea40 7045 	orr.w	r0, r0, r5, lsl #29
/home/yin/imx-optee/imx-optee-os/lib/libutils/ext/snprintk.c:506
    396e:	f004 0107 	and.w	r1, r4, #7
/home/yin/imx-optee/imx-optee-os/lib/libutils/ext/snprintk.c:507
    3972:	4665      	mov	r5, ip
    3974:	4604      	mov	r4, r0
/home/yin/imx-optee/imx-optee-os/lib/libutils/ext/snprintk.c:506
    3976:	3130      	adds	r1, #48	; 0x30
/home/yin/imx-optee/imx-optee-os/lib/libutils/ext/snprintk.c:508
    3978:	ea54 0005 	orrs.w	r0, r4, r5
/home/yin/imx-optee/imx-optee-os/lib/libutils/ext/snprintk.c:506
    397c:	f102 33ff 	add.w	r3, r2, #4294967295	; 0xffffffff
    3980:	f802 1c01 	strb.w	r1, [r2, #-1]
/home/yin/imx-optee/imx-optee-os/lib/libutils/ext/snprintk.c:508
    3984:	f040 8238 	bne.w	3df8 <__vsnprintf+0x620>
/home/yin/imx-optee/imx-optee-os/lib/libutils/ext/snprintk.c:510
    3988:	07f5      	lsls	r5, r6, #31
    398a:	d505      	bpl.n	3998 <__vsnprintf+0x1c0>
    398c:	2930      	cmp	r1, #48	; 0x30
    398e:	d003      	beq.n	3998 <__vsnprintf+0x1c0>
/home/yin/imx-optee/imx-optee-os/lib/libutils/ext/snprintk.c:511
    3990:	2130      	movs	r1, #48	; 0x30
    3992:	f803 1c01 	strb.w	r1, [r3, #-1]
    3996:	1e93      	subs	r3, r2, #2
/home/yin/imx-optee/imx-optee-os/lib/libutils/ext/snprintk.c:537
    3998:	f10d 0275 	add.w	r2, sp, #117	; 0x75
    399c:	4658      	mov	r0, fp
    399e:	eba2 0b03 	sub.w	fp, r2, r3
    39a2:	e0d4      	b.n	3b4e <__vsnprintf+0x376>
/home/yin/imx-optee/imx-optee-os/lib/libutils/ext/snprintk.c:291
    39a4:	f1b9 0f6f 	cmp.w	r9, #111	; 0x6f
    39a8:	d0b9      	beq.n	391e <__vsnprintf+0x146>
    39aa:	dc1e      	bgt.n	39ea <__vsnprintf+0x212>
    39ac:	f1b9 0f69 	cmp.w	r9, #105	; 0x69
    39b0:	f000 811e 	beq.w	3bf0 <__vsnprintf+0x418>
    39b4:	dc0a      	bgt.n	39cc <__vsnprintf+0x1f4>
    39b6:	f1b9 0f64 	cmp.w	r9, #100	; 0x64
    39ba:	f000 8119 	beq.w	3bf0 <__vsnprintf+0x418>
    39be:	f1b9 0f68 	cmp.w	r9, #104	; 0x68
    39c2:	f47f af6b 	bne.w	389c <__vsnprintf+0xc4>
/home/yin/imx-optee/imx-optee-os/lib/libutils/ext/snprintk.c:352
    39c6:	f046 0640 	orr.w	r6, r6, #64	; 0x40
    39ca:	e77f      	b.n	38cc <__vsnprintf+0xf4>
/home/yin/imx-optee/imx-optee-os/lib/libutils/ext/snprintk.c:291
    39cc:	f1b9 0f6c 	cmp.w	r9, #108	; 0x6c
    39d0:	f000 80a0 	beq.w	3b14 <__vsnprintf+0x33c>
    39d4:	f1b9 0f6e 	cmp.w	r9, #110	; 0x6e
    39d8:	f000 8145 	beq.w	3c66 <__vsnprintf+0x48e>
    39dc:	f1b9 0f6a 	cmp.w	r9, #106	; 0x6a
    39e0:	f47f af5c 	bne.w	389c <__vsnprintf+0xc4>
/home/yin/imx-optee/imx-optee-os/lib/libutils/ext/snprintk.c:355
    39e4:	f046 0680 	orr.w	r6, r6, #128	; 0x80
    39e8:	e770      	b.n	38cc <__vsnprintf+0xf4>
/home/yin/imx-optee/imx-optee-os/lib/libutils/ext/snprintk.c:291
    39ea:	f1b9 0f74 	cmp.w	r9, #116	; 0x74
    39ee:	f000 809e 	beq.w	3b2e <__vsnprintf+0x356>
    39f2:	dc22      	bgt.n	3a3a <__vsnprintf+0x262>
    39f4:	f1b9 0f71 	cmp.w	r9, #113	; 0x71
    39f8:	f000 8093 	beq.w	3b22 <__vsnprintf+0x34a>
    39fc:	f2c0 8166 	blt.w	3ccc <__vsnprintf+0x4f4>
    3a00:	f1b9 0f73 	cmp.w	r9, #115	; 0x73
    3a04:	f47f af4a 	bne.w	389c <__vsnprintf+0xc4>
/home/yin/imx-optee/imx-optee-os/lib/libutils/ext/snprintk.c:442
    3a08:	6813      	ldr	r3, [r2, #0]
    3a0a:	1d17      	adds	r7, r2, #4
    3a0c:	b913      	cbnz	r3, 3a14 <__vsnprintf+0x23c>
/home/yin/imx-optee/imx-optee-os/lib/libutils/ext/snprintk.c:444
    3a0e:	f8df 34e4 	ldr.w	r3, [pc, #1252]	; 3ef4 <__vsnprintf+0x71c>
    3a12:	447b      	add	r3, pc
/home/yin/imx-optee/imx-optee-os/lib/libutils/ext/snprintk.c:445
    3a14:	f1bb 3fff 	cmp.w	fp, #4294967295	; 0xffffffff
    3a18:	f000 81ac 	beq.w	3d74 <__vsnprintf+0x59c>
/home/yin/imx-optee/imx-optee-os/lib/libutils/ext/snprintk.c:451
    3a1c:	4618      	mov	r0, r3
    3a1e:	465a      	mov	r2, fp
    3a20:	2100      	movs	r1, #0
    3a22:	9311      	str	r3, [sp, #68]	; 0x44
    3a24:	f001 fb7e 	bl	5124 <memchr>
/home/yin/imx-optee/imx-optee-os/lib/libutils/ext/snprintk.c:453
    3a28:	9b11      	ldr	r3, [sp, #68]	; 0x44
    3a2a:	b120      	cbz	r0, 3a36 <__vsnprintf+0x25e>
/home/yin/imx-optee/imx-optee-os/lib/libutils/ext/snprintk.c:454
    3a2c:	1ac0      	subs	r0, r0, r3
    3a2e:	4583      	cmp	fp, r0
    3a30:	bfa8      	it	ge
    3a32:	4683      	movge	fp, r0
/home/yin/imx-optee/imx-optee-os/lib/libutils/ext/snprintk.c:285
    3a34:	2000      	movs	r0, #0
/home/yin/imx-optee/imx-optee-os/lib/libutils/ext/snprintk.c:461
    3a36:	4682      	mov	sl, r0
    3a38:	e089      	b.n	3b4e <__vsnprintf+0x376>
/home/yin/imx-optee/imx-optee-os/lib/libutils/ext/snprintk.c:291
    3a3a:	f1b9 0f78 	cmp.w	r9, #120	; 0x78
    3a3e:	f000 81c1 	beq.w	3dc4 <__vsnprintf+0x5ec>
    3a42:	f1b9 0f7a 	cmp.w	r9, #122	; 0x7a
    3a46:	d075      	beq.n	3b34 <__vsnprintf+0x35c>
    3a48:	f1b9 0f75 	cmp.w	r9, #117	; 0x75
    3a4c:	f47f af26 	bne.w	389c <__vsnprintf+0xc4>
/home/yin/imx-optee/imx-optee-os/lib/libutils/ext/snprintk.c:467
    3a50:	f016 0380 	ands.w	r3, r6, #128	; 0x80
    3a54:	f000 819a 	beq.w	3d8c <__vsnprintf+0x5b4>
    3a58:	3207      	adds	r2, #7
    3a5a:	f022 0207 	bic.w	r2, r2, #7
    3a5e:	e9d2 4500 	ldrd	r4, r5, [r2]
    3a62:	f102 0708 	add.w	r7, r2, #8
/home/yin/imx-optee/imx-optee-os/lib/libutils/ext/snprintk.c:482
    3a66:	f04f 0a00 	mov.w	sl, #0
    3a6a:	e0d3      	b.n	3c14 <__vsnprintf+0x43c>
/home/yin/imx-optee/imx-optee-os/lib/libutils/ext/snprintk.c:471
    3a6c:	f8df 3488 	ldr.w	r3, [pc, #1160]	; 3ef8 <__vsnprintf+0x720>
    3a70:	447b      	add	r3, pc
/home/yin/imx-optee/imx-optee-os/lib/libutils/ext/snprintk.c:475
    3a72:	0637      	lsls	r7, r6, #24
/home/yin/imx-optee/imx-optee-os/lib/libutils/ext/snprintk.c:474
    3a74:	930f      	str	r3, [sp, #60]	; 0x3c
/home/yin/imx-optee/imx-optee-os/lib/libutils/ext/snprintk.c:475
    3a76:	f140 81a9 	bpl.w	3dcc <__vsnprintf+0x5f4>
    3a7a:	3207      	adds	r2, #7
    3a7c:	f022 0207 	bic.w	r2, r2, #7
    3a80:	e9d2 4500 	ldrd	r4, r5, [r2]
    3a84:	f102 0708 	add.w	r7, r2, #8
/home/yin/imx-optee/imx-optee-os/lib/libutils/ext/snprintk.c:478
    3a88:	07f3      	lsls	r3, r6, #31
    3a8a:	f140 815b 	bpl.w	3d44 <__vsnprintf+0x56c>
    3a8e:	ea54 0305 	orrs.w	r3, r4, r5
    3a92:	f000 8228 	beq.w	3ee6 <__vsnprintf+0x70e>
/home/yin/imx-optee/imx-optee-os/lib/libutils/ext/snprintk.c:488
    3a96:	f1bb 3fff 	cmp.w	fp, #4294967295	; 0xffffffff
/home/yin/imx-optee/imx-optee-os/lib/libutils/ext/snprintk.c:479
    3a9a:	f046 0602 	orr.w	r6, r6, #2
/home/yin/imx-optee/imx-optee-os/lib/libutils/ext/snprintk.c:488
    3a9e:	f000 8225 	beq.w	3eec <__vsnprintf+0x714>
    3aa2:	f04f 0a00 	mov.w	sl, #0
    3aa6:	2302      	movs	r3, #2
    3aa8:	e749      	b.n	393e <__vsnprintf+0x166>
/home/yin/imx-optee/imx-optee-os/lib/libutils/ext/snprintk.c:299
    3aaa:	f1ba 0f00 	cmp.w	sl, #0
    3aae:	bf08      	it	eq
    3ab0:	f04f 0a20 	moveq.w	sl, #32
    3ab4:	e70a      	b.n	38cc <__vsnprintf+0xf4>
/home/yin/imx-optee/imx-optee-os/lib/libutils/ext/snprintk.c:302
    3ab6:	f046 0601 	orr.w	r6, r6, #1
    3aba:	e707      	b.n	38cc <__vsnprintf+0xf4>
/home/yin/imx-optee/imx-optee-os/lib/libutils/ext/snprintk.c:311
    3abc:	1d13      	adds	r3, r2, #4
    3abe:	6812      	ldr	r2, [r2, #0]
    3ac0:	2a00      	cmp	r2, #0
    3ac2:	920d      	str	r2, [sp, #52]	; 0x34
    3ac4:	f6bf aef4 	bge.w	38b0 <__vsnprintf+0xd8>
/home/yin/imx-optee/imx-optee-os/lib/libutils/ext/snprintk.c:313
    3ac8:	4252      	negs	r2, r2
    3aca:	920d      	str	r2, [sp, #52]	; 0x34
/home/yin/imx-optee/imx-optee-os/lib/libutils/ext/snprintk.c:311
    3acc:	461a      	mov	r2, r3
/home/yin/imx-optee/imx-optee-os/lib/libutils/ext/snprintk.c:316
    3ace:	f046 0604 	orr.w	r6, r6, #4
    3ad2:	e6fb      	b.n	38cc <__vsnprintf+0xf4>
/home/yin/imx-optee/imx-optee-os/lib/libutils/ext/snprintk.c:322
    3ad4:	990b      	ldr	r1, [sp, #44]	; 0x2c
    3ad6:	9b0b      	ldr	r3, [sp, #44]	; 0x2c
    3ad8:	f891 9000 	ldrb.w	r9, [r1]
    3adc:	3301      	adds	r3, #1
    3ade:	f1b9 0f2a 	cmp.w	r9, #42	; 0x2a
    3ae2:	d00e      	beq.n	3b02 <__vsnprintf+0x32a>
    3ae4:	f04f 0b00 	mov.w	fp, #0
/home/yin/imx-optee/imx-optee-os/lib/libutils/ext/snprintk.c:330
    3ae8:	930b      	str	r3, [sp, #44]	; 0x2c
/home/yin/imx-optee/imx-optee-os/lib/libutils/ext/snprintk.c:328
    3aea:	f1a9 0330 	sub.w	r3, r9, #48	; 0x30
    3aee:	2b09      	cmp	r3, #9
    3af0:	f63f aebc 	bhi.w	386c <__vsnprintf+0x94>
/home/yin/imx-optee/imx-optee-os/lib/libutils/ext/snprintk.c:329
    3af4:	210a      	movs	r1, #10
    3af6:	fb01 3b0b 	mla	fp, r1, fp, r3
/home/yin/imx-optee/imx-optee-os/lib/libutils/ext/snprintk.c:330
    3afa:	9b0b      	ldr	r3, [sp, #44]	; 0x2c
    3afc:	f813 9b01 	ldrb.w	r9, [r3], #1
    3b00:	e7f2      	b.n	3ae8 <__vsnprintf+0x310>
/home/yin/imx-optee/imx-optee-os/lib/libutils/ext/snprintk.c:324
    3b02:	6811      	ldr	r1, [r2, #0]
/home/yin/imx-optee/imx-optee-os/lib/libutils/ext/snprintk.c:323
    3b04:	3204      	adds	r2, #4
/home/yin/imx-optee/imx-optee-os/lib/libutils/ext/snprintk.c:322
    3b06:	930b      	str	r3, [sp, #44]	; 0x2c
/home/yin/imx-optee/imx-optee-os/lib/libutils/ext/snprintk.c:324
    3b08:	ea41 7be1 	orr.w	fp, r1, r1, asr #31
    3b0c:	e6de      	b.n	38cc <__vsnprintf+0xf4>
/home/yin/imx-optee/imx-optee-os/lib/libutils/ext/snprintk.c:340
    3b0e:	f446 6680 	orr.w	r6, r6, #1024	; 0x400
    3b12:	e6db      	b.n	38cc <__vsnprintf+0xf4>
/home/yin/imx-optee/imx-optee-os/lib/libutils/ext/snprintk.c:358
    3b14:	9b0b      	ldr	r3, [sp, #44]	; 0x2c
    3b16:	781b      	ldrb	r3, [r3, #0]
    3b18:	2b6c      	cmp	r3, #108	; 0x6c
    3b1a:	d105      	bne.n	3b28 <__vsnprintf+0x350>
/home/yin/imx-optee/imx-optee-os/lib/libutils/ext/snprintk.c:359
    3b1c:	9b0b      	ldr	r3, [sp, #44]	; 0x2c
    3b1e:	3301      	adds	r3, #1
    3b20:	930b      	str	r3, [sp, #44]	; 0x2c
/home/yin/imx-optee/imx-optee-os/lib/libutils/ext/snprintk.c:366
    3b22:	f046 0620 	orr.w	r6, r6, #32
    3b26:	e6d1      	b.n	38cc <__vsnprintf+0xf4>
/home/yin/imx-optee/imx-optee-os/lib/libutils/ext/snprintk.c:362
    3b28:	f046 0610 	orr.w	r6, r6, #16
    3b2c:	e6ce      	b.n	38cc <__vsnprintf+0xf4>
/home/yin/imx-optee/imx-optee-os/lib/libutils/ext/snprintk.c:369
    3b2e:	f446 7680 	orr.w	r6, r6, #256	; 0x100
    3b32:	e6cb      	b.n	38cc <__vsnprintf+0xf4>
/home/yin/imx-optee/imx-optee-os/lib/libutils/ext/snprintk.c:372
    3b34:	f446 7600 	orr.w	r6, r6, #512	; 0x200
    3b38:	e6c8      	b.n	38cc <__vsnprintf+0xf4>
/home/yin/imx-optee/imx-optee-os/lib/libutils/ext/snprintk.c:375
    3b3a:	1d17      	adds	r7, r2, #4
/home/yin/imx-optee/imx-optee-os/lib/libutils/ext/snprintk.c:285
    3b3c:	f04f 0a00 	mov.w	sl, #0
/home/yin/imx-optee/imx-optee-os/lib/libutils/ext/snprintk.c:375
    3b40:	6812      	ldr	r2, [r2, #0]
/home/yin/imx-optee/imx-optee-os/lib/libutils/ext/snprintk.c:376
    3b42:	f04f 0b01 	mov.w	fp, #1
/home/yin/imx-optee/imx-optee-os/lib/libutils/ext/snprintk.c:377
    3b46:	4650      	mov	r0, sl
/home/yin/imx-optee/imx-optee-os/lib/libutils/ext/snprintk.c:375
    3b48:	ab1e      	add	r3, sp, #120	; 0x78
    3b4a:	f803 2d28 	strb.w	r2, [r3, #-40]!
/home/yin/imx-optee/imx-optee-os/lib/libutils/ext/snprintk.c:565
    3b4e:	4558      	cmp	r0, fp
    3b50:	4602      	mov	r2, r0
    3b52:	bfb8      	it	lt
    3b54:	465a      	movlt	r2, fp
/home/yin/imx-optee/imx-optee-os/lib/libutils/ext/snprintk.c:566
    3b56:	f1ba 0f00 	cmp.w	sl, #0
    3b5a:	f000 8165 	beq.w	3e28 <__vsnprintf+0x650>
/home/yin/imx-optee/imx-optee-os/lib/libutils/ext/snprintk.c:567
    3b5e:	3201      	adds	r2, #1
/home/yin/imx-optee/imx-optee-os/lib/libutils/ext/snprintk.c:572
    3b60:	990c      	ldr	r1, [sp, #48]	; 0x30
    3b62:	9c0d      	ldr	r4, [sp, #52]	; 0x34
    3b64:	4294      	cmp	r4, r2
    3b66:	bfac      	ite	ge
    3b68:	1909      	addge	r1, r1, r4
    3b6a:	1889      	addlt	r1, r1, r2
    3b6c:	910c      	str	r1, [sp, #48]	; 0x30
/home/yin/imx-optee/imx-optee-os/lib/libutils/ext/snprintk.c:575
    3b6e:	f240 4104 	movw	r1, #1028	; 0x404
    3b72:	ea16 0401 	ands.w	r4, r6, r1
    3b76:	d106      	bne.n	3b86 <__vsnprintf+0x3ae>
/home/yin/imx-optee/imx-optee-os/lib/libutils/ext/snprintk.c:576
    3b78:	990d      	ldr	r1, [sp, #52]	; 0x34
/home/yin/imx-optee/imx-optee-os/lib/libutils/ext/snprintk.c:578
    3b7a:	f04f 0c20 	mov.w	ip, #32
/home/yin/imx-optee/imx-optee-os/lib/libutils/ext/snprintk.c:576
    3b7e:	1a89      	subs	r1, r1, r2
/home/yin/imx-optee/imx-optee-os/lib/libutils/ext/snprintk.c:577
    3b80:	2900      	cmp	r1, #0
    3b82:	f300 8155 	bgt.w	3e30 <__vsnprintf+0x658>
/home/yin/imx-optee/imx-optee-os/lib/libutils/ext/snprintk.c:582
    3b86:	f1ba 0f00 	cmp.w	sl, #0
    3b8a:	f000 8166 	beq.w	3e5a <__vsnprintf+0x682>
/home/yin/imx-optee/imx-optee-os/lib/libutils/ext/snprintk.c:583
    3b8e:	f1b8 0f00 	cmp.w	r8, #0
    3b92:	f040 8159 	bne.w	3e48 <__vsnprintf+0x670>
/home/yin/imx-optee/imx-optee-os/lib/libutils/ext/snprintk.c:586
    3b96:	f04f 0800 	mov.w	r8, #0
/home/yin/imx-optee/imx-optee-os/lib/libutils/ext/snprintk.c:590
    3b9a:	f5b4 6f80 	cmp.w	r4, #1024	; 0x400
    3b9e:	d105      	bne.n	3bac <__vsnprintf+0x3d4>
/home/yin/imx-optee/imx-optee-os/lib/libutils/ext/snprintk.c:591
    3ba0:	990d      	ldr	r1, [sp, #52]	; 0x34
/home/yin/imx-optee/imx-optee-os/lib/libutils/ext/snprintk.c:593
    3ba2:	2430      	movs	r4, #48	; 0x30
/home/yin/imx-optee/imx-optee-os/lib/libutils/ext/snprintk.c:591
    3ba4:	1a89      	subs	r1, r1, r2
/home/yin/imx-optee/imx-optee-os/lib/libutils/ext/snprintk.c:592
    3ba6:	2900      	cmp	r1, #0
    3ba8:	f300 8172 	bgt.w	3e90 <__vsnprintf+0x6b8>
/home/yin/imx-optee/imx-optee-os/lib/libutils/ext/snprintk.c:597
    3bac:	eba0 000b 	sub.w	r0, r0, fp
/home/yin/imx-optee/imx-optee-os/lib/libutils/ext/snprintk.c:599
    3bb0:	2130      	movs	r1, #48	; 0x30
/home/yin/imx-optee/imx-optee-os/lib/libutils/ext/snprintk.c:598
    3bb2:	2800      	cmp	r0, #0
    3bb4:	f300 8178 	bgt.w	3ea8 <__vsnprintf+0x6d0>
    3bb8:	eb03 010b 	add.w	r1, r3, fp
/home/yin/imx-optee/imx-optee-os/lib/libutils/ext/snprintk.c:602
    3bbc:	428b      	cmp	r3, r1
    3bbe:	f040 817f 	bne.w	3ec0 <__vsnprintf+0x6e8>
/home/yin/imx-optee/imx-optee-os/lib/libutils/ext/snprintk.c:605
    3bc2:	0773      	lsls	r3, r6, #29
    3bc4:	f57f ae19 	bpl.w	37fa <__vsnprintf+0x22>
/home/yin/imx-optee/imx-optee-os/lib/libutils/ext/snprintk.c:606
    3bc8:	9b0d      	ldr	r3, [sp, #52]	; 0x34
    3bca:	1a9b      	subs	r3, r3, r2
/home/yin/imx-optee/imx-optee-os/lib/libutils/ext/snprintk.c:608
    3bcc:	2220      	movs	r2, #32
/home/yin/imx-optee/imx-optee-os/lib/libutils/ext/snprintk.c:607
    3bce:	2b00      	cmp	r3, #0
    3bd0:	f77f ae13 	ble.w	37fa <__vsnprintf+0x22>
/home/yin/imx-optee/imx-optee-os/lib/libutils/ext/snprintk.c:608
    3bd4:	f1b8 0f00 	cmp.w	r8, #0
    3bd8:	d006      	beq.n	3be8 <__vsnprintf+0x410>
    3bda:	990e      	ldr	r1, [sp, #56]	; 0x38
    3bdc:	4541      	cmp	r1, r8
    3bde:	bf84      	itt	hi
    3be0:	f888 2000 	strbhi.w	r2, [r8]
    3be4:	f108 0801 	addhi.w	r8, r8, #1
    3be8:	3b01      	subs	r3, #1
    3bea:	e7f0      	b.n	3bce <__vsnprintf+0x3f6>
/home/yin/imx-optee/imx-optee-os/lib/libutils/ext/snprintk.c:380
    3bec:	f046 0610 	orr.w	r6, r6, #16
/home/yin/imx-optee/imx-optee-os/lib/libutils/ext/snprintk.c:384
    3bf0:	0631      	lsls	r1, r6, #24
    3bf2:	d523      	bpl.n	3c3c <__vsnprintf+0x464>
    3bf4:	3207      	adds	r2, #7
    3bf6:	f022 0207 	bic.w	r2, r2, #7
    3bfa:	e9d2 4500 	ldrd	r4, r5, [r2]
    3bfe:	f102 0708 	add.w	r7, r2, #8
/home/yin/imx-optee/imx-optee-os/lib/libutils/ext/snprintk.c:385
    3c02:	2c00      	cmp	r4, #0
    3c04:	f175 0300 	sbcs.w	r3, r5, #0
    3c08:	da04      	bge.n	3c14 <__vsnprintf+0x43c>
/home/yin/imx-optee/imx-optee-os/lib/libutils/ext/snprintk.c:386
    3c0a:	4264      	negs	r4, r4
/home/yin/imx-optee/imx-optee-os/lib/libutils/ext/snprintk.c:387
    3c0c:	f04f 0a2d 	mov.w	sl, #45	; 0x2d
/home/yin/imx-optee/imx-optee-os/lib/libutils/ext/snprintk.c:386
    3c10:	eb65 0545 	sbc.w	r5, r5, r5, lsl #1
/home/yin/imx-optee/imx-optee-os/lib/libutils/ext/snprintk.c:488
    3c14:	f1bb 3fff 	cmp.w	fp, #4294967295	; 0xffffffff
    3c18:	f040 80ec 	bne.w	3df4 <__vsnprintf+0x61c>
/home/yin/imx-optee/imx-optee-os/lib/libutils/ext/snprintk.c:508
    3c1c:	f10d 0375 	add.w	r3, sp, #117	; 0x75
    3c20:	9311      	str	r3, [sp, #68]	; 0x44
/home/yin/imx-optee/imx-optee-os/lib/libutils/ext/snprintk.c:516
    3c22:	2d00      	cmp	r5, #0
    3c24:	9b11      	ldr	r3, [sp, #68]	; 0x44
    3c26:	bf08      	it	eq
    3c28:	2c0a      	cmpeq	r4, #10
    3c2a:	f103 33ff 	add.w	r3, r3, #4294967295	; 0xffffffff
    3c2e:	f080 80e5 	bcs.w	3dfc <__vsnprintf+0x624>
/home/yin/imx-optee/imx-optee-os/lib/libutils/ext/snprintk.c:520
    3c32:	9a11      	ldr	r2, [sp, #68]	; 0x44
    3c34:	3430      	adds	r4, #48	; 0x30
    3c36:	f802 4c01 	strb.w	r4, [r2, #-1]
    3c3a:	e6ad      	b.n	3998 <__vsnprintf+0x1c0>
/home/yin/imx-optee/imx-optee-os/lib/libutils/ext/snprintk.c:384
    3c3c:	05f3      	lsls	r3, r6, #23
    3c3e:	d503      	bpl.n	3c48 <__vsnprintf+0x470>
    3c40:	1d17      	adds	r7, r2, #4
    3c42:	6814      	ldr	r4, [r2, #0]
    3c44:	17e5      	asrs	r5, r4, #31
    3c46:	e7dc      	b.n	3c02 <__vsnprintf+0x42a>
    3c48:	05b7      	lsls	r7, r6, #22
    3c4a:	d4f9      	bmi.n	3c40 <__vsnprintf+0x468>
    3c4c:	06b5      	lsls	r5, r6, #26
    3c4e:	d4d1      	bmi.n	3bf4 <__vsnprintf+0x41c>
    3c50:	f016 0f10 	tst.w	r6, #16
    3c54:	f102 0704 	add.w	r7, r2, #4
    3c58:	d1f3      	bne.n	3c42 <__vsnprintf+0x46a>
    3c5a:	6814      	ldr	r4, [r2, #0]
    3c5c:	f016 0f40 	tst.w	r6, #64	; 0x40
    3c60:	bf18      	it	ne
    3c62:	b224      	sxthne	r4, r4
    3c64:	e7ee      	b.n	3c44 <__vsnprintf+0x46c>
/home/yin/imx-optee/imx-optee-os/lib/libutils/ext/snprintk.c:392
    3c66:	f016 0f80 	tst.w	r6, #128	; 0x80
    3c6a:	f102 0704 	add.w	r7, r2, #4
    3c6e:	d006      	beq.n	3c7e <__vsnprintf+0x4a6>
/home/yin/imx-optee/imx-optee-os/lib/libutils/ext/snprintk.c:399
    3c70:	6813      	ldr	r3, [r2, #0]
    3c72:	9a0c      	ldr	r2, [sp, #48]	; 0x30
    3c74:	4610      	mov	r0, r2
    3c76:	17d1      	asrs	r1, r2, #31
    3c78:	e9c3 0100 	strd	r0, r1, [r3]
    3c7c:	e5bd      	b.n	37fa <__vsnprintf+0x22>
/home/yin/imx-optee/imx-optee-os/lib/libutils/ext/snprintk.c:394
    3c7e:	05f4      	lsls	r4, r6, #23
    3c80:	d503      	bpl.n	3c8a <__vsnprintf+0x4b2>
/home/yin/imx-optee/imx-optee-os/lib/libutils/ext/snprintk.c:405
    3c82:	6813      	ldr	r3, [r2, #0]
    3c84:	9a0c      	ldr	r2, [sp, #48]	; 0x30
    3c86:	601a      	str	r2, [r3, #0]
    3c88:	e5b7      	b.n	37fa <__vsnprintf+0x22>
/home/yin/imx-optee/imx-optee-os/lib/libutils/ext/snprintk.c:396
    3c8a:	05b0      	lsls	r0, r6, #22
    3c8c:	d4f9      	bmi.n	3c82 <__vsnprintf+0x4aa>
/home/yin/imx-optee/imx-optee-os/lib/libutils/ext/snprintk.c:398
    3c8e:	06b1      	lsls	r1, r6, #26
    3c90:	d4ee      	bmi.n	3c70 <__vsnprintf+0x498>
/home/yin/imx-optee/imx-optee-os/lib/libutils/ext/snprintk.c:400
    3c92:	06f3      	lsls	r3, r6, #27
    3c94:	d4f5      	bmi.n	3c82 <__vsnprintf+0x4aa>
/home/yin/imx-optee/imx-optee-os/lib/libutils/ext/snprintk.c:402
    3c96:	0676      	lsls	r6, r6, #25
    3c98:	d5f3      	bpl.n	3c82 <__vsnprintf+0x4aa>
/home/yin/imx-optee/imx-optee-os/lib/libutils/ext/snprintk.c:403
    3c9a:	6813      	ldr	r3, [r2, #0]
    3c9c:	f8bd 2030 	ldrh.w	r2, [sp, #48]	; 0x30
    3ca0:	801a      	strh	r2, [r3, #0]
    3ca2:	e5aa      	b.n	37fa <__vsnprintf+0x22>
/home/yin/imx-optee/imx-optee-os/lib/libutils/ext/snprintk.c:411
    3ca4:	05f4      	lsls	r4, r6, #23
    3ca6:	d502      	bpl.n	3cae <__vsnprintf+0x4d6>
    3ca8:	1d17      	adds	r7, r2, #4
    3caa:	6814      	ldr	r4, [r2, #0]
    3cac:	e00c      	b.n	3cc8 <__vsnprintf+0x4f0>
    3cae:	05b0      	lsls	r0, r6, #22
    3cb0:	d4fa      	bmi.n	3ca8 <__vsnprintf+0x4d0>
    3cb2:	06b1      	lsls	r1, r6, #26
    3cb4:	f53f ae36 	bmi.w	3924 <__vsnprintf+0x14c>
    3cb8:	f016 0f10 	tst.w	r6, #16
    3cbc:	f102 0704 	add.w	r7, r2, #4
    3cc0:	d1f3      	bne.n	3caa <__vsnprintf+0x4d2>
    3cc2:	0673      	lsls	r3, r6, #25
    3cc4:	d5f1      	bpl.n	3caa <__vsnprintf+0x4d2>
    3cc6:	8814      	ldrh	r4, [r2, #0]
    3cc8:	2500      	movs	r5, #0
    3cca:	e632      	b.n	3932 <__vsnprintf+0x15a>
/home/yin/imx-optee/imx-optee-os/lib/libutils/ext/snprintk.c:415
    3ccc:	9b13      	ldr	r3, [sp, #76]	; 0x4c
    3cce:	2b00      	cmp	r3, #0
    3cd0:	d02d      	beq.n	3d2e <__vsnprintf+0x556>
    3cd2:	9b0b      	ldr	r3, [sp, #44]	; 0x2c
    3cd4:	781b      	ldrb	r3, [r3, #0]
    3cd6:	2b55      	cmp	r3, #85	; 0x55
    3cd8:	d129      	bne.n	3d2e <__vsnprintf+0x556>
    3cda:	9b0b      	ldr	r3, [sp, #44]	; 0x2c
    3cdc:	785b      	ldrb	r3, [r3, #1]
    3cde:	2b6c      	cmp	r3, #108	; 0x6c
    3ce0:	d125      	bne.n	3d2e <__vsnprintf+0x556>
/home/yin/imx-optee/imx-optee-os/lib/libutils/ext/snprintk.c:420
    3ce2:	9b0b      	ldr	r3, [sp, #44]	; 0x2c
/home/yin/imx-optee/imx-optee-os/lib/libutils/ext/snprintk.c:421
    3ce4:	1d17      	adds	r7, r2, #4
uuid2str():
/home/yin/imx-optee/imx-optee-os/lib/libutils/ext/snprintk.c:223
    3ce6:	ac14      	add	r4, sp, #80	; 0x50
    3ce8:	2125      	movs	r1, #37	; 0x25
    3cea:	4620      	mov	r0, r4
kprintf():
/home/yin/imx-optee/imx-optee-os/lib/libutils/ext/snprintk.c:420
    3cec:	3302      	adds	r3, #2
    3cee:	930b      	str	r3, [sp, #44]	; 0x2c
/home/yin/imx-optee/imx-optee-os/lib/libutils/ext/snprintk.c:421
    3cf0:	6813      	ldr	r3, [r2, #0]
uuid2str():
/home/yin/imx-optee/imx-optee-os/lib/libutils/ext/snprintk.c:223
    3cf2:	7bda      	ldrb	r2, [r3, #15]
    3cf4:	9209      	str	r2, [sp, #36]	; 0x24
    3cf6:	7b9a      	ldrb	r2, [r3, #14]
    3cf8:	9208      	str	r2, [sp, #32]
    3cfa:	7b5a      	ldrb	r2, [r3, #13]
    3cfc:	9207      	str	r2, [sp, #28]
    3cfe:	7b1a      	ldrb	r2, [r3, #12]
    3d00:	9206      	str	r2, [sp, #24]
    3d02:	7ada      	ldrb	r2, [r3, #11]
    3d04:	9205      	str	r2, [sp, #20]
    3d06:	7a9a      	ldrb	r2, [r3, #10]
    3d08:	9204      	str	r2, [sp, #16]
    3d0a:	7a5a      	ldrb	r2, [r3, #9]
    3d0c:	9203      	str	r2, [sp, #12]
    3d0e:	7a1a      	ldrb	r2, [r3, #8]
    3d10:	9202      	str	r2, [sp, #8]
    3d12:	88da      	ldrh	r2, [r3, #6]
    3d14:	9201      	str	r2, [sp, #4]
    3d16:	889a      	ldrh	r2, [r3, #4]
    3d18:	9200      	str	r2, [sp, #0]
    3d1a:	4a78      	ldr	r2, [pc, #480]	; (3efc <__vsnprintf+0x724>)
    3d1c:	681b      	ldr	r3, [r3, #0]
    3d1e:	447a      	add	r2, pc
    3d20:	f000 f8f9 	bl	3f16 <snprintk>
    3d24:	4683      	mov	fp, r0
kprintf():
/home/yin/imx-optee/imx-optee-os/lib/libutils/ext/snprintk.c:285
    3d26:	2000      	movs	r0, #0
/home/yin/imx-optee/imx-optee-os/lib/libutils/ext/snprintk.c:424
    3d28:	4682      	mov	sl, r0
/home/yin/imx-optee/imx-optee-os/lib/libutils/ext/snprintk.c:423
    3d2a:	4623      	mov	r3, r4
    3d2c:	e70f      	b.n	3b4e <__vsnprintf+0x376>
/home/yin/imx-optee/imx-optee-os/lib/libutils/ext/snprintk.c:437
    3d2e:	4b74      	ldr	r3, [pc, #464]	; (3f00 <__vsnprintf+0x728>)
/home/yin/imx-optee/imx-optee-os/lib/libutils/ext/snprintk.c:435
    3d30:	1d17      	adds	r7, r2, #4
    3d32:	6814      	ldr	r4, [r2, #0]
    3d34:	2500      	movs	r5, #0
/home/yin/imx-optee/imx-optee-os/lib/libutils/ext/snprintk.c:438
    3d36:	f046 0602 	orr.w	r6, r6, #2
/home/yin/imx-optee/imx-optee-os/lib/libutils/ext/snprintk.c:439
    3d3a:	f04f 0978 	mov.w	r9, #120	; 0x78
/home/yin/imx-optee/imx-optee-os/lib/libutils/ext/snprintk.c:437
    3d3e:	447b      	add	r3, pc
    3d40:	3311      	adds	r3, #17
    3d42:	930f      	str	r3, [sp, #60]	; 0x3c
/home/yin/imx-optee/imx-optee-os/lib/libutils/ext/snprintk.c:488
    3d44:	f1bb 3fff 	cmp.w	fp, #4294967295	; 0xffffffff
    3d48:	f47f aeab 	bne.w	3aa2 <__vsnprintf+0x2ca>
    3d4c:	f04f 0a00 	mov.w	sl, #0
    3d50:	f10d 0375 	add.w	r3, sp, #117	; 0x75
/home/yin/imx-optee/imx-optee-os/lib/libutils/ext/snprintk.c:525
    3d54:	990f      	ldr	r1, [sp, #60]	; 0x3c
    3d56:	f004 020f 	and.w	r2, r4, #15
    3d5a:	5c8a      	ldrb	r2, [r1, r2]
/home/yin/imx-optee/imx-optee-os/lib/libutils/ext/snprintk.c:526
    3d5c:	0929      	lsrs	r1, r5, #4
/home/yin/imx-optee/imx-optee-os/lib/libutils/ext/snprintk.c:525
    3d5e:	f803 2d01 	strb.w	r2, [r3, #-1]!
/home/yin/imx-optee/imx-optee-os/lib/libutils/ext/snprintk.c:526
    3d62:	0922      	lsrs	r2, r4, #4
    3d64:	ea42 7205 	orr.w	r2, r2, r5, lsl #28
    3d68:	460d      	mov	r5, r1
    3d6a:	4614      	mov	r4, r2
/home/yin/imx-optee/imx-optee-os/lib/libutils/ext/snprintk.c:527
    3d6c:	ea54 0205 	orrs.w	r2, r4, r5
    3d70:	d1f0      	bne.n	3d54 <__vsnprintf+0x57c>
    3d72:	e611      	b.n	3998 <__vsnprintf+0x1c0>
/home/yin/imx-optee/imx-optee-os/lib/libutils/ext/snprintk.c:460
    3d74:	4618      	mov	r0, r3
    3d76:	9311      	str	r3, [sp, #68]	; 0x44
    3d78:	f001 f8d8 	bl	4f2c <strlen>
    3d7c:	4683      	mov	fp, r0
/home/yin/imx-optee/imx-optee-os/lib/libutils/ext/snprintk.c:285
    3d7e:	2000      	movs	r0, #0
/home/yin/imx-optee/imx-optee-os/lib/libutils/ext/snprintk.c:461
    3d80:	4682      	mov	sl, r0
    3d82:	9b11      	ldr	r3, [sp, #68]	; 0x44
    3d84:	e6e3      	b.n	3b4e <__vsnprintf+0x376>
/home/yin/imx-optee/imx-optee-os/lib/libutils/ext/snprintk.c:464
    3d86:	f046 0610 	orr.w	r6, r6, #16
    3d8a:	e661      	b.n	3a50 <__vsnprintf+0x278>
/home/yin/imx-optee/imx-optee-os/lib/libutils/ext/snprintk.c:467
    3d8c:	f416 7a80 	ands.w	sl, r6, #256	; 0x100
    3d90:	d003      	beq.n	3d9a <__vsnprintf+0x5c2>
    3d92:	6814      	ldr	r4, [r2, #0]
    3d94:	1d17      	adds	r7, r2, #4
    3d96:	2500      	movs	r5, #0
    3d98:	e665      	b.n	3a66 <__vsnprintf+0x28e>
    3d9a:	f416 7300 	ands.w	r3, r6, #512	; 0x200
    3d9e:	d003      	beq.n	3da8 <__vsnprintf+0x5d0>
    3da0:	1d17      	adds	r7, r2, #4
    3da2:	6814      	ldr	r4, [r2, #0]
    3da4:	2500      	movs	r5, #0
    3da6:	e735      	b.n	3c14 <__vsnprintf+0x43c>
    3da8:	f016 0a20 	ands.w	sl, r6, #32
    3dac:	f47f ae54 	bne.w	3a58 <__vsnprintf+0x280>
    3db0:	f016 0310 	ands.w	r3, r6, #16
    3db4:	f102 0704 	add.w	r7, r2, #4
    3db8:	d1f3      	bne.n	3da2 <__vsnprintf+0x5ca>
    3dba:	f016 0a40 	ands.w	sl, r6, #64	; 0x40
    3dbe:	d0f0      	beq.n	3da2 <__vsnprintf+0x5ca>
    3dc0:	8814      	ldrh	r4, [r2, #0]
    3dc2:	e7e8      	b.n	3d96 <__vsnprintf+0x5be>
/home/yin/imx-optee/imx-optee-os/lib/libutils/ext/snprintk.c:474
    3dc4:	4b4f      	ldr	r3, [pc, #316]	; (3f04 <__vsnprintf+0x72c>)
    3dc6:	447b      	add	r3, pc
    3dc8:	3311      	adds	r3, #17
    3dca:	e652      	b.n	3a72 <__vsnprintf+0x29a>
/home/yin/imx-optee/imx-optee-os/lib/libutils/ext/snprintk.c:475
    3dcc:	05f5      	lsls	r5, r6, #23
    3dce:	d502      	bpl.n	3dd6 <__vsnprintf+0x5fe>
    3dd0:	1d17      	adds	r7, r2, #4
    3dd2:	6814      	ldr	r4, [r2, #0]
    3dd4:	e00c      	b.n	3df0 <__vsnprintf+0x618>
    3dd6:	05b4      	lsls	r4, r6, #22
    3dd8:	d4fa      	bmi.n	3dd0 <__vsnprintf+0x5f8>
    3dda:	06b0      	lsls	r0, r6, #26
    3ddc:	f53f ae4d 	bmi.w	3a7a <__vsnprintf+0x2a2>
    3de0:	f016 0f10 	tst.w	r6, #16
    3de4:	f102 0704 	add.w	r7, r2, #4
    3de8:	d1f3      	bne.n	3dd2 <__vsnprintf+0x5fa>
    3dea:	0671      	lsls	r1, r6, #25
    3dec:	d5f1      	bpl.n	3dd2 <__vsnprintf+0x5fa>
    3dee:	8814      	ldrh	r4, [r2, #0]
    3df0:	2500      	movs	r5, #0
    3df2:	e649      	b.n	3a88 <__vsnprintf+0x2b0>
/home/yin/imx-optee/imx-optee-os/lib/libutils/ext/snprintk.c:488
    3df4:	2301      	movs	r3, #1
    3df6:	e5a2      	b.n	393e <__vsnprintf+0x166>
/home/yin/imx-optee/imx-optee-os/lib/libutils/ext/snprintk.c:508
    3df8:	461a      	mov	r2, r3
    3dfa:	e5b3      	b.n	3964 <__vsnprintf+0x18c>
/home/yin/imx-optee/imx-optee-os/lib/libutils/ext/snprintk.c:517
    3dfc:	9311      	str	r3, [sp, #68]	; 0x44
    3dfe:	4620      	mov	r0, r4
    3e00:	4629      	mov	r1, r5
    3e02:	220a      	movs	r2, #10
    3e04:	2300      	movs	r3, #0
    3e06:	f000 ea62 	blx	42cc <__aeabi_uldivmod>
    3e0a:	9b11      	ldr	r3, [sp, #68]	; 0x44
    3e0c:	3230      	adds	r2, #48	; 0x30
/home/yin/imx-optee/imx-optee-os/lib/libutils/ext/snprintk.c:518
    3e0e:	4620      	mov	r0, r4
    3e10:	4629      	mov	r1, r5
/home/yin/imx-optee/imx-optee-os/lib/libutils/ext/snprintk.c:517
    3e12:	701a      	strb	r2, [r3, #0]
/home/yin/imx-optee/imx-optee-os/lib/libutils/ext/snprintk.c:518
    3e14:	220a      	movs	r2, #10
    3e16:	2300      	movs	r3, #0
    3e18:	f000 ea58 	blx	42cc <__aeabi_uldivmod>
    3e1c:	4604      	mov	r4, r0
    3e1e:	460d      	mov	r5, r1
    3e20:	e6ff      	b.n	3c22 <__vsnprintf+0x44a>
/home/yin/imx-optee/imx-optee-os/lib/libutils/ext/snprintk.c:496
    3e22:	f10d 0375 	add.w	r3, sp, #117	; 0x75
    3e26:	e5b7      	b.n	3998 <__vsnprintf+0x1c0>
/home/yin/imx-optee/imx-optee-os/lib/libutils/ext/snprintk.c:568
    3e28:	07b4      	lsls	r4, r6, #30
/home/yin/imx-optee/imx-optee-os/lib/libutils/ext/snprintk.c:569
    3e2a:	bf48      	it	mi
    3e2c:	3202      	addmi	r2, #2
    3e2e:	e697      	b.n	3b60 <__vsnprintf+0x388>
/home/yin/imx-optee/imx-optee-os/lib/libutils/ext/snprintk.c:578
    3e30:	f1b8 0f00 	cmp.w	r8, #0
    3e34:	d006      	beq.n	3e44 <__vsnprintf+0x66c>
    3e36:	9d0e      	ldr	r5, [sp, #56]	; 0x38
    3e38:	4545      	cmp	r5, r8
    3e3a:	bf84      	itt	hi
    3e3c:	f888 c000 	strbhi.w	ip, [r8]
    3e40:	f108 0801 	addhi.w	r8, r8, #1
    3e44:	3901      	subs	r1, #1
    3e46:	e69b      	b.n	3b80 <__vsnprintf+0x3a8>
/home/yin/imx-optee/imx-optee-os/lib/libutils/ext/snprintk.c:583
    3e48:	990e      	ldr	r1, [sp, #56]	; 0x38
    3e4a:	4541      	cmp	r1, r8
    3e4c:	f67f aea5 	bls.w	3b9a <__vsnprintf+0x3c2>
    3e50:	f888 a000 	strb.w	sl, [r8]
    3e54:	f108 0801 	add.w	r8, r8, #1
    3e58:	e69f      	b.n	3b9a <__vsnprintf+0x3c2>
/home/yin/imx-optee/imx-optee-os/lib/libutils/ext/snprintk.c:584
    3e5a:	07b1      	lsls	r1, r6, #30
    3e5c:	f57f ae9d 	bpl.w	3b9a <__vsnprintf+0x3c2>
/home/yin/imx-optee/imx-optee-os/lib/libutils/ext/snprintk.c:585
    3e60:	f1b8 0f00 	cmp.w	r8, #0
    3e64:	f43f ae97 	beq.w	3b96 <__vsnprintf+0x3be>
    3e68:	990e      	ldr	r1, [sp, #56]	; 0x38
    3e6a:	4541      	cmp	r1, r8
    3e6c:	f67f ae95 	bls.w	3b9a <__vsnprintf+0x3c2>
    3e70:	2130      	movs	r1, #48	; 0x30
    3e72:	f888 1000 	strb.w	r1, [r8]
/home/yin/imx-optee/imx-optee-os/lib/libutils/ext/snprintk.c:586
    3e76:	f118 0101 	adds.w	r1, r8, #1
    3e7a:	f43f ae8c 	beq.w	3b96 <__vsnprintf+0x3be>
    3e7e:	9d0e      	ldr	r5, [sp, #56]	; 0x38
    3e80:	428d      	cmp	r5, r1
    3e82:	bf8a      	itet	hi
    3e84:	f888 9001 	strbhi.w	r9, [r8, #1]
    3e88:	4688      	movls	r8, r1
    3e8a:	f108 0802 	addhi.w	r8, r8, #2
    3e8e:	e684      	b.n	3b9a <__vsnprintf+0x3c2>
/home/yin/imx-optee/imx-optee-os/lib/libutils/ext/snprintk.c:593
    3e90:	f1b8 0f00 	cmp.w	r8, #0
    3e94:	d006      	beq.n	3ea4 <__vsnprintf+0x6cc>
    3e96:	9d0e      	ldr	r5, [sp, #56]	; 0x38
    3e98:	4545      	cmp	r5, r8
    3e9a:	bf84      	itt	hi
    3e9c:	f888 4000 	strbhi.w	r4, [r8]
    3ea0:	f108 0801 	addhi.w	r8, r8, #1
    3ea4:	3901      	subs	r1, #1
    3ea6:	e67e      	b.n	3ba6 <__vsnprintf+0x3ce>
/home/yin/imx-optee/imx-optee-os/lib/libutils/ext/snprintk.c:599
    3ea8:	f1b8 0f00 	cmp.w	r8, #0
    3eac:	d006      	beq.n	3ebc <__vsnprintf+0x6e4>
    3eae:	9c0e      	ldr	r4, [sp, #56]	; 0x38
    3eb0:	4544      	cmp	r4, r8
    3eb2:	bf84      	itt	hi
    3eb4:	f888 1000 	strbhi.w	r1, [r8]
    3eb8:	f108 0801 	addhi.w	r8, r8, #1
    3ebc:	3801      	subs	r0, #1
    3ebe:	e678      	b.n	3bb2 <__vsnprintf+0x3da>
/home/yin/imx-optee/imx-optee-os/lib/libutils/ext/snprintk.c:603
    3ec0:	f1b8 0f00 	cmp.w	r8, #0
    3ec4:	d007      	beq.n	3ed6 <__vsnprintf+0x6fe>
    3ec6:	980e      	ldr	r0, [sp, #56]	; 0x38
    3ec8:	4540      	cmp	r0, r8
    3eca:	bf82      	ittt	hi
    3ecc:	7818      	ldrbhi	r0, [r3, #0]
    3ece:	f888 0000 	strbhi.w	r0, [r8]
    3ed2:	f108 0801 	addhi.w	r8, r8, #1
/home/yin/imx-optee/imx-optee-os/lib/libutils/ext/snprintk.c:602
    3ed6:	3301      	adds	r3, #1
    3ed8:	e670      	b.n	3bbc <__vsnprintf+0x3e4>
/home/yin/imx-optee/imx-optee-os/lib/libutils/ext/snprintk.c:489
    3eda:	f426 6680 	bic.w	r6, r6, #1024	; 0x400
/home/yin/imx-optee/imx-optee-os/lib/libutils/ext/snprintk.c:482
    3ede:	f04f 0a00 	mov.w	sl, #0
/home/yin/imx-optee/imx-optee-os/lib/libutils/ext/snprintk.c:476
    3ee2:	2302      	movs	r3, #2
    3ee4:	e530      	b.n	3948 <__vsnprintf+0x170>
/home/yin/imx-optee/imx-optee-os/lib/libutils/ext/snprintk.c:488
    3ee6:	f1bb 3fff 	cmp.w	fp, #4294967295	; 0xffffffff
    3eea:	d1f6      	bne.n	3eda <__vsnprintf+0x702>
    3eec:	f04f 3bff 	mov.w	fp, #4294967295	; 0xffffffff
    3ef0:	e72c      	b.n	3d4c <__vsnprintf+0x574>
    3ef2:	bf00      	nop
    3ef4:	00004596 	.word	0x00004596
    3ef8:	00004516 	.word	0x00004516
    3efc:	00004291 	.word	0x00004291
    3f00:	00004248 	.word	0x00004248
    3f04:	000041c0 	.word	0x000041c0

00003f08 <vsnprintk>:
vsnprintk():
/home/yin/imx-optee/imx-optee-os/lib/libutils/ext/snprintk.c:129
    3f08:	b513      	push	{r0, r1, r4, lr}
/home/yin/imx-optee/imx-optee-os/lib/libutils/ext/snprintk.c:130
    3f0a:	2401      	movs	r4, #1
    3f0c:	9400      	str	r4, [sp, #0]
    3f0e:	f7ff fc63 	bl	37d8 <__vsnprintf>
/home/yin/imx-optee/imx-optee-os/lib/libutils/ext/snprintk.c:131
    3f12:	b002      	add	sp, #8
    3f14:	bd10      	pop	{r4, pc}

00003f16 <snprintk>:
snprintk():
/home/yin/imx-optee/imx-optee-os/lib/libutils/ext/snprintk.c:112
    3f16:	b40c      	push	{r2, r3}
    3f18:	b507      	push	{r0, r1, r2, lr}
    3f1a:	ab04      	add	r3, sp, #16
    3f1c:	f853 2b04 	ldr.w	r2, [r3], #4
/home/yin/imx-optee/imx-optee-os/lib/libutils/ext/snprintk.c:116
    3f20:	9301      	str	r3, [sp, #4]
/home/yin/imx-optee/imx-optee-os/lib/libutils/ext/snprintk.c:117
    3f22:	f7ff fff1 	bl	3f08 <vsnprintk>
/home/yin/imx-optee/imx-optee-os/lib/libutils/ext/snprintk.c:121
    3f26:	b003      	add	sp, #12
    3f28:	f85d eb04 	ldr.w	lr, [sp], #4
    3f2c:	b002      	add	sp, #8
    3f2e:	4770      	bx	lr

00003f30 <append>:
append():
/home/yin/imx-optee/imx-optee-os/lib/libutils/ext/trace.c:168
    3f30:	b40e      	push	{r1, r2, r3}
/home/yin/imx-optee/imx-optee-os/lib/libutils/ext/trace.c:173
    3f32:	f8d0 3100 	ldr.w	r3, [r0, #256]	; 0x100
/home/yin/imx-optee/imx-optee-os/lib/libutils/ext/trace.c:168
    3f36:	b533      	push	{r0, r1, r4, r5, lr}
    3f38:	4604      	mov	r4, r0
/home/yin/imx-optee/imx-optee-os/lib/libutils/ext/trace.c:173
    3f3a:	b90b      	cbnz	r3, 3f40 <append+0x10>
/home/yin/imx-optee/imx-optee-os/lib/libutils/ext/trace.c:174
    3f3c:	f8c4 0100 	str.w	r0, [r4, #256]	; 0x100
/home/yin/imx-optee/imx-optee-os/lib/libutils/ext/trace.c:175
    3f40:	f8d4 0100 	ldr.w	r0, [r4, #256]	; 0x100
/home/yin/imx-optee/imx-optee-os/lib/libutils/ext/trace.c:176
    3f44:	ab06      	add	r3, sp, #24
/home/yin/imx-optee/imx-optee-os/lib/libutils/ext/trace.c:177
    3f46:	9a05      	ldr	r2, [sp, #20]
/home/yin/imx-optee/imx-optee-os/lib/libutils/ext/trace.c:176
    3f48:	9301      	str	r3, [sp, #4]
/home/yin/imx-optee/imx-optee-os/lib/libutils/ext/trace.c:175
    3f4a:	1b05      	subs	r5, r0, r4
    3f4c:	f5c5 7580 	rsb	r5, r5, #256	; 0x100
/home/yin/imx-optee/imx-optee-os/lib/libutils/ext/trace.c:177
    3f50:	4629      	mov	r1, r5
    3f52:	f7ff ffd9 	bl	3f08 <vsnprintk>
/home/yin/imx-optee/imx-optee-os/lib/libutils/ext/trace.c:179
    3f56:	2800      	cmp	r0, #0
    3f58:	db0f      	blt.n	3f7a <append+0x4a>
/home/yin/imx-optee/imx-optee-os/lib/libutils/ext/trace.c:183
    3f5a:	4285      	cmp	r5, r0
    3f5c:	dd0d      	ble.n	3f7a <append+0x4a>
/home/yin/imx-optee/imx-optee-os/lib/libutils/ext/trace.c:187
    3f5e:	f8d4 3100 	ldr.w	r3, [r4, #256]	; 0x100
    3f62:	4285      	cmp	r5, r0
    3f64:	bfd4      	ite	le
    3f66:	195d      	addle	r5, r3, r5
    3f68:	181d      	addgt	r5, r3, r0
/home/yin/imx-optee/imx-optee-os/lib/libutils/ext/trace.c:188
    3f6a:	2001      	movs	r0, #1
/home/yin/imx-optee/imx-optee-os/lib/libutils/ext/trace.c:187
    3f6c:	f8c4 5100 	str.w	r5, [r4, #256]	; 0x100
/home/yin/imx-optee/imx-optee-os/lib/libutils/ext/trace.c:189
    3f70:	b002      	add	sp, #8
    3f72:	e8bd 4030 	ldmia.w	sp!, {r4, r5, lr}
    3f76:	b003      	add	sp, #12
    3f78:	4770      	bx	lr
/home/yin/imx-optee/imx-optee-os/lib/libutils/ext/trace.c:181
    3f7a:	2000      	movs	r0, #0
    3f7c:	e7f8      	b.n	3f70 <append+0x40>

00003f7e <trace_set_level>:
trace_set_level():
/home/yin/imx-optee/imx-optee-os/lib/libutils/ext/trace.c:21
    3f7e:	1e42      	subs	r2, r0, #1
/home/yin/imx-optee/imx-optee-os/lib/libutils/ext/trace.c:20
    3f80:	4b04      	ldr	r3, [pc, #16]	; (3f94 <trace_set_level+0x16>)
/home/yin/imx-optee/imx-optee-os/lib/libutils/ext/trace.c:21
    3f82:	2a03      	cmp	r2, #3
    3f84:	4a04      	ldr	r2, [pc, #16]	; (3f98 <trace_set_level+0x1a>)
/home/yin/imx-optee/imx-optee-os/lib/libutils/ext/trace.c:20
    3f86:	447b      	add	r3, pc
    3f88:	589b      	ldr	r3, [r3, r2]
/home/yin/imx-optee/imx-optee-os/lib/libutils/ext/trace.c:24
    3f8a:	bf8a      	itet	hi
    3f8c:	2204      	movhi	r2, #4
/home/yin/imx-optee/imx-optee-os/lib/libutils/ext/trace.c:22
    3f8e:	6018      	strls	r0, [r3, #0]
/home/yin/imx-optee/imx-optee-os/lib/libutils/ext/trace.c:24
    3f90:	601a      	strhi	r2, [r3, #0]
    3f92:	4770      	bx	lr
    3f94:	0000490a 	.word	0x0000490a
    3f98:	00000014 	.word	0x00000014

00003f9c <trace_get_level>:
trace_get_level():
/home/yin/imx-optee/imx-optee-os/lib/libutils/ext/trace.c:28
    3f9c:	4b02      	ldr	r3, [pc, #8]	; (3fa8 <trace_get_level+0xc>)
/home/yin/imx-optee/imx-optee-os/lib/libutils/ext/trace.c:29
    3f9e:	4a03      	ldr	r2, [pc, #12]	; (3fac <trace_get_level+0x10>)
/home/yin/imx-optee/imx-optee-os/lib/libutils/ext/trace.c:28
    3fa0:	447b      	add	r3, pc
/home/yin/imx-optee/imx-optee-os/lib/libutils/ext/trace.c:29
    3fa2:	589b      	ldr	r3, [r3, r2]
/home/yin/imx-optee/imx-optee-os/lib/libutils/ext/trace.c:30
    3fa4:	6818      	ldr	r0, [r3, #0]
    3fa6:	4770      	bx	lr
    3fa8:	000048f0 	.word	0x000048f0
    3fac:	00000014 	.word	0x00000014

00003fb0 <trace_printf>:
trace_printf():
/home/yin/imx-optee/imx-optee-os/lib/libutils/ext/trace.c:70
    3fb0:	e92d 47f0 	stmdb	sp!, {r4, r5, r6, r7, r8, r9, sl, lr}
    3fb4:	4607      	mov	r7, r0
    3fb6:	f8df a114 	ldr.w	sl, [pc, #276]	; 40cc <trace_printf+0x11c>
    3fba:	b0c6      	sub	sp, #280	; 0x118
    3fbc:	4688      	mov	r8, r1
    3fbe:	4616      	mov	r6, r2
/home/yin/imx-optee/imx-optee-os/lib/libutils/ext/trace.c:77
    3fc0:	4699      	mov	r9, r3
/home/yin/imx-optee/imx-optee-os/lib/libutils/ext/trace.c:70
    3fc2:	44fa      	add	sl, pc
/home/yin/imx-optee/imx-optee-os/lib/libutils/ext/trace.c:77
    3fc4:	2b00      	cmp	r3, #0
    3fc6:	d072      	beq.n	40ae <trace_printf+0xfe>
/home/yin/imx-optee/imx-optee-os/lib/libutils/ext/trace.c:77 (discriminator 1)
    3fc8:	4b41      	ldr	r3, [pc, #260]	; (40d0 <trace_printf+0x120>)
    3fca:	f85a 3003 	ldr.w	r3, [sl, r3]
    3fce:	681b      	ldr	r3, [r3, #0]
    3fd0:	4293      	cmp	r3, r2
    3fd2:	db69      	blt.n	40a8 <trace_printf+0xf8>
trace_level_to_string():
/home/yin/imx-optee/imx-optee-os/lib/libutils/ext/trace.c:47
    3fd4:	1e53      	subs	r3, r2, #1
    3fd6:	2b03      	cmp	r3, #3
    3fd8:	bf98      	it	ls
    3fda:	4613      	movls	r3, r2
/home/yin/imx-optee/imx-optee-os/lib/libutils/ext/trace.c:50
    3fdc:	4a3d      	ldr	r2, [pc, #244]	; (40d4 <trace_printf+0x124>)
/home/yin/imx-optee/imx-optee-os/lib/libutils/ext/trace.c:47
    3fde:	bf88      	it	hi
    3fe0:	2300      	movhi	r3, #0
/home/yin/imx-optee/imx-optee-os/lib/libutils/ext/trace.c:50
    3fe2:	447a      	add	r2, pc
    3fe4:	5cd3      	ldrb	r3, [r2, r3]
trace_printf():
/home/yin/imx-optee/imx-optee-os/lib/libutils/ext/trace.c:81
    3fe6:	4a3c      	ldr	r2, [pc, #240]	; (40d8 <trace_printf+0x128>)
    3fe8:	ad06      	add	r5, sp, #24
    3fea:	f44f 7180 	mov.w	r1, #256	; 0x100
    3fee:	4628      	mov	r0, r5
    3ff0:	447a      	add	r2, pc
    3ff2:	f7ff ff90 	bl	3f16 <snprintk>
/home/yin/imx-optee/imx-optee-os/lib/libutils/ext/trace.c:83
    3ff6:	1e04      	subs	r4, r0, #0
    3ff8:	db56      	blt.n	40a8 <trace_printf+0xf8>
/home/yin/imx-optee/imx-optee-os/lib/libutils/ext/trace.c:88
    3ffa:	4b38      	ldr	r3, [pc, #224]	; (40dc <trace_printf+0x12c>)
    3ffc:	f5c4 7180 	rsb	r1, r4, #256	; 0x100
    4000:	4a37      	ldr	r2, [pc, #220]	; (40e0 <trace_printf+0x130>)
    4002:	1928      	adds	r0, r5, r4
    4004:	f85a 3003 	ldr.w	r3, [sl, r3]
    4008:	447a      	add	r2, pc
    400a:	9303      	str	r3, [sp, #12]
    400c:	f7ff ff83 	bl	3f16 <snprintk>
/home/yin/imx-optee/imx-optee-os/lib/libutils/ext/trace.c:90
    4010:	2800      	cmp	r0, #0
    4012:	db49      	blt.n	40a8 <trace_printf+0xf8>
/home/yin/imx-optee/imx-optee-os/lib/libutils/ext/trace.c:92
    4014:	4404      	add	r4, r0
/home/yin/imx-optee/imx-optee-os/lib/libutils/ext/trace.c:95
    4016:	f1b9 0f00 	cmp.w	r9, #0
    401a:	d003      	beq.n	4024 <trace_printf+0x74>
/home/yin/imx-optee/imx-optee-os/lib/libutils/ext/trace.c:95 (discriminator 1)
    401c:	231a      	movs	r3, #26
    401e:	40f3      	lsrs	r3, r6
    4020:	07da      	lsls	r2, r3, #31
    4022:	d546      	bpl.n	40b2 <trace_printf+0x102>
/home/yin/imx-optee/imx-optee-os/lib/libutils/ext/trace.c:98
    4024:	f7fe fea8 	bl	2d78 <trace_ext_get_thread_id>
    4028:	4603      	mov	r3, r0
print_thread_id():
/home/yin/imx-optee/imx-optee-os/lib/libutils/ext/trace.c:61
    402a:	2b00      	cmp	r3, #0
trace_printf():
/home/yin/imx-optee/imx-optee-os/lib/libutils/ext/trace.c:100
    402c:	eb05 0004 	add.w	r0, r5, r4
    4030:	f5c4 7180 	rsb	r1, r4, #256	; 0x100
print_thread_id():
/home/yin/imx-optee/imx-optee-os/lib/libutils/ext/trace.c:61
    4034:	db40      	blt.n	40b8 <trace_printf+0x108>
/home/yin/imx-optee/imx-optee-os/lib/libutils/ext/trace.c:62
    4036:	4a2b      	ldr	r2, [pc, #172]	; (40e4 <trace_printf+0x134>)
    4038:	9300      	str	r3, [sp, #0]
    403a:	2301      	movs	r3, #1
    403c:	447a      	add	r2, pc
/home/yin/imx-optee/imx-optee-os/lib/libutils/ext/trace.c:64
    403e:	f7ff ff6a 	bl	3f16 <snprintk>
trace_printf():
/home/yin/imx-optee/imx-optee-os/lib/libutils/ext/trace.c:102
    4042:	2800      	cmp	r0, #0
    4044:	db30      	blt.n	40a8 <trace_printf+0xf8>
/home/yin/imx-optee/imx-optee-os/lib/libutils/ext/trace.c:104
    4046:	4404      	add	r4, r0
/home/yin/imx-optee/imx-optee-os/lib/libutils/ext/trace.c:107
    4048:	f1b9 0f00 	cmp.w	r9, #0
    404c:	d003      	beq.n	4056 <trace_printf+0xa6>
/home/yin/imx-optee/imx-optee-os/lib/libutils/ext/trace.c:107 (discriminator 1)
    404e:	221a      	movs	r2, #26
    4050:	40f2      	lsrs	r2, r6
    4052:	07d3      	lsls	r3, r2, #31
    4054:	d50d      	bpl.n	4072 <trace_printf+0xc2>
/home/yin/imx-optee/imx-optee-os/lib/libutils/ext/trace.c:110
    4056:	b167      	cbz	r7, 4072 <trace_printf+0xc2>
/home/yin/imx-optee/imx-optee-os/lib/libutils/ext/trace.c:111
    4058:	4a23      	ldr	r2, [pc, #140]	; (40e8 <trace_printf+0x138>)
    405a:	463b      	mov	r3, r7
    405c:	f8cd 8000 	str.w	r8, [sp]
    4060:	f5c4 7180 	rsb	r1, r4, #256	; 0x100
    4064:	1928      	adds	r0, r5, r4
    4066:	447a      	add	r2, pc
    4068:	f7ff ff55 	bl	3f16 <snprintk>
/home/yin/imx-optee/imx-optee-os/lib/libutils/ext/trace.c:113
    406c:	2800      	cmp	r0, #0
    406e:	db1b      	blt.n	40a8 <trace_printf+0xf8>
/home/yin/imx-optee/imx-optee-os/lib/libutils/ext/trace.c:115
    4070:	4404      	add	r4, r0
/home/yin/imx-optee/imx-optee-os/lib/libutils/ext/trace.c:118
    4072:	ab4f      	add	r3, sp, #316	; 0x13c
/home/yin/imx-optee/imx-optee-os/lib/libutils/ext/trace.c:119
    4074:	f5c4 7180 	rsb	r1, r4, #256	; 0x100
    4078:	1928      	adds	r0, r5, r4
    407a:	9a4e      	ldr	r2, [sp, #312]	; 0x138
/home/yin/imx-optee/imx-optee-os/lib/libutils/ext/trace.c:118
    407c:	9305      	str	r3, [sp, #20]
/home/yin/imx-optee/imx-optee-os/lib/libutils/ext/trace.c:119
    407e:	f7ff ff43 	bl	3f08 <vsnprintk>
/home/yin/imx-optee/imx-optee-os/lib/libutils/ext/trace.c:121
    4082:	2800      	cmp	r0, #0
/home/yin/imx-optee/imx-optee-os/lib/libutils/ext/trace.c:127
    4084:	f04f 030a 	mov.w	r3, #10
/home/yin/imx-optee/imx-optee-os/lib/libutils/ext/trace.c:122
    4088:	bfc8      	it	gt
    408a:	1824      	addgt	r4, r4, r0
    408c:	2cfe      	cmp	r4, #254	; 0xfe
    408e:	bf28      	it	cs
    4090:	24fe      	movcs	r4, #254	; 0xfe
/home/yin/imx-optee/imx-optee-os/lib/libutils/ext/trace.c:127
    4092:	552b      	strb	r3, [r5, r4]
/home/yin/imx-optee/imx-optee-os/lib/libutils/ext/trace.c:128
    4094:	b114      	cbz	r4, 409c <trace_printf+0xec>
/home/yin/imx-optee/imx-optee-os/lib/libutils/ext/trace.c:128 (discriminator 1)
    4096:	5d2b      	ldrb	r3, [r5, r4]
    4098:	2b0a      	cmp	r3, #10
    409a:	d014      	beq.n	40c6 <trace_printf+0x116>
/home/yin/imx-optee/imx-optee-os/lib/libutils/ext/trace.c:131
    409c:	442c      	add	r4, r5
    409e:	2300      	movs	r3, #0
/home/yin/imx-optee/imx-optee-os/lib/libutils/ext/trace.c:133
    40a0:	4628      	mov	r0, r5
/home/yin/imx-optee/imx-optee-os/lib/libutils/ext/trace.c:131
    40a2:	70a3      	strb	r3, [r4, #2]
/home/yin/imx-optee/imx-optee-os/lib/libutils/ext/trace.c:133
    40a4:	f7fe fe5e 	bl	2d64 <trace_ext_puts>
/home/yin/imx-optee/imx-optee-os/lib/libutils/ext/trace.c:134
    40a8:	b046      	add	sp, #280	; 0x118
    40aa:	e8bd 87f0 	ldmia.w	sp!, {r4, r5, r6, r7, r8, r9, sl, pc}
trace_level_to_string():
/home/yin/imx-optee/imx-optee-os/lib/libutils/ext/trace.c:45
    40ae:	234d      	movs	r3, #77	; 0x4d
    40b0:	e799      	b.n	3fe6 <trace_printf+0x36>
trace_printf():
/home/yin/imx-optee/imx-optee-os/lib/libutils/ext/trace.c:96
    40b2:	f04f 33ff 	mov.w	r3, #4294967295	; 0xffffffff
    40b6:	e7b8      	b.n	402a <trace_printf+0x7a>
print_thread_id():
/home/yin/imx-optee/imx-optee-os/lib/libutils/ext/trace.c:64
    40b8:	4b0c      	ldr	r3, [pc, #48]	; (40ec <trace_printf+0x13c>)
    40ba:	4a0d      	ldr	r2, [pc, #52]	; (40f0 <trace_printf+0x140>)
    40bc:	447b      	add	r3, pc
    40be:	9300      	str	r3, [sp, #0]
    40c0:	447a      	add	r2, pc
    40c2:	2301      	movs	r3, #1
    40c4:	e7bb      	b.n	403e <trace_printf+0x8e>
trace_printf():
/home/yin/imx-optee/imx-optee-os/lib/libutils/ext/trace.c:129
    40c6:	3c01      	subs	r4, #1
    40c8:	e7e4      	b.n	4094 <trace_printf+0xe4>
    40ca:	bf00      	nop
    40cc:	000048ce 	.word	0x000048ce
    40d0:	00000014 	.word	0x00000014
    40d4:	00003ffe 	.word	0x00003ffe
    40d8:	00003fff 	.word	0x00003fff
    40dc:	0000001c 	.word	0x0000001c
    40e0:	00003feb 	.word	0x00003feb
    40e4:	00003fbb 	.word	0x00003fbb
    40e8:	00003f9c 	.word	0x00003f9c
    40ec:	000039f9 	.word	0x000039f9
    40f0:	00003f3d 	.word	0x00003f3d

000040f4 <dhex_dump>:
dhex_dump():
/home/yin/imx-optee/imx-optee-os/lib/libutils/ext/trace.c:195
    40f4:	e92d 4ff0 	stmdb	sp!, {r4, r5, r6, r7, r8, r9, sl, fp, lr}
    40f8:	4690      	mov	r8, r2
    40fa:	4a34      	ldr	r2, [pc, #208]	; (41cc <dhex_dump+0xd8>)
    40fc:	468a      	mov	sl, r1
    40fe:	b0c7      	sub	sp, #284	; 0x11c
    4100:	4681      	mov	r9, r0
/home/yin/imx-optee/imx-optee-os/lib/libutils/ext/trace.c:201
    4102:	4933      	ldr	r1, [pc, #204]	; (41d0 <dhex_dump+0xdc>)
/home/yin/imx-optee/imx-optee-os/lib/libutils/ext/trace.c:195
    4104:	447a      	add	r2, pc
/home/yin/imx-optee/imx-optee-os/lib/libutils/ext/trace.c:201
    4106:	5852      	ldr	r2, [r2, r1]
    4108:	6812      	ldr	r2, [r2, #0]
    410a:	4542      	cmp	r2, r8
    410c:	db1d      	blt.n	414a <dhex_dump+0x56>
    410e:	461e      	mov	r6, r3
/home/yin/imx-optee/imx-optee-os/lib/libutils/ext/trace.c:210
    4110:	4b30      	ldr	r3, [pc, #192]	; (41d4 <dhex_dump+0xe0>)
/home/yin/imx-optee/imx-optee-os/lib/libutils/ext/trace.c:205
    4112:	f8df b0c4 	ldr.w	fp, [pc, #196]	; 41d8 <dhex_dump+0xe4>
/home/yin/imx-optee/imx-optee-os/lib/libutils/ext/trace.c:202
    4116:	ad05      	add	r5, sp, #20
    4118:	2400      	movs	r4, #0
/home/yin/imx-optee/imx-optee-os/lib/libutils/ext/trace.c:210
    411a:	447b      	add	r3, pc
/home/yin/imx-optee/imx-optee-os/lib/libutils/ext/trace.c:202
    411c:	f8c5 4100 	str.w	r4, [r5, #256]	; 0x100
/home/yin/imx-optee/imx-optee-os/lib/libutils/ext/trace.c:210
    4120:	9302      	str	r3, [sp, #8]
/home/yin/imx-optee/imx-optee-os/lib/libutils/ext/trace.c:205
    4122:	44fb      	add	fp, pc
/home/yin/imx-optee/imx-optee-os/lib/libutils/ext/trace.c:218
    4124:	4b2d      	ldr	r3, [pc, #180]	; (41dc <dhex_dump+0xe8>)
    4126:	447b      	add	r3, pc
    4128:	9303      	str	r3, [sp, #12]
/home/yin/imx-optee/imx-optee-os/lib/libutils/ext/trace.c:203 (discriminator 1)
    412a:	9b50      	ldr	r3, [sp, #320]	; 0x140
    412c:	429c      	cmp	r4, r3
    412e:	db0f      	blt.n	4150 <dhex_dump+0x5c>
/home/yin/imx-optee/imx-optee-os/lib/libutils/ext/trace.c:223
    4130:	f8d5 3100 	ldr.w	r3, [r5, #256]	; 0x100
    4134:	b14b      	cbz	r3, 414a <dhex_dump+0x56>
/home/yin/imx-optee/imx-optee-os/lib/libutils/ext/trace.c:225
    4136:	4b2a      	ldr	r3, [pc, #168]	; (41e0 <dhex_dump+0xec>)
    4138:	4642      	mov	r2, r8
    413a:	9501      	str	r5, [sp, #4]
    413c:	4651      	mov	r1, sl
    413e:	4648      	mov	r0, r9
    4140:	447b      	add	r3, pc
    4142:	9300      	str	r3, [sp, #0]
    4144:	2301      	movs	r3, #1
    4146:	f7ff ff33 	bl	3fb0 <trace_printf>
/home/yin/imx-optee/imx-optee-os/lib/libutils/ext/trace.c:233
    414a:	b047      	add	sp, #284	; 0x11c
    414c:	e8bd 8ff0 	ldmia.w	sp!, {r4, r5, r6, r7, r8, r9, sl, fp, pc}
/home/yin/imx-optee/imx-optee-os/lib/libutils/ext/trace.c:204
    4150:	f014 070f 	ands.w	r7, r4, #15
    4154:	d012      	beq.n	417c <dhex_dump+0x88>
/home/yin/imx-optee/imx-optee-os/lib/libutils/ext/trace.c:210
    4156:	f816 2b01 	ldrb.w	r2, [r6], #1
    415a:	4628      	mov	r0, r5
    415c:	9902      	ldr	r1, [sp, #8]
    415e:	f7ff fee7 	bl	3f30 <append>
/home/yin/imx-optee/imx-optee-os/lib/libutils/ext/trace.c:211
    4162:	b9a0      	cbnz	r0, 418e <dhex_dump+0x9a>
/home/yin/imx-optee/imx-optee-os/lib/libutils/ext/trace.c:232
    4164:	4b1f      	ldr	r3, [pc, #124]	; (41e4 <dhex_dump+0xf0>)
    4166:	2203      	movs	r2, #3
    4168:	481f      	ldr	r0, [pc, #124]	; (41e8 <dhex_dump+0xf4>)
    416a:	21e8      	movs	r1, #232	; 0xe8
    416c:	447b      	add	r3, pc
    416e:	4478      	add	r0, pc
    4170:	9300      	str	r3, [sp, #0]
    4172:	3005      	adds	r0, #5
    4174:	2301      	movs	r3, #1
    4176:	f7ff ff1b 	bl	3fb0 <trace_printf>
    417a:	e7e6      	b.n	414a <dhex_dump+0x56>
/home/yin/imx-optee/imx-optee-os/lib/libutils/ext/trace.c:205
    417c:	4633      	mov	r3, r6
    417e:	2208      	movs	r2, #8
    4180:	4659      	mov	r1, fp
    4182:	4628      	mov	r0, r5
    4184:	f7ff fed4 	bl	3f30 <append>
/home/yin/imx-optee/imx-optee-os/lib/libutils/ext/trace.c:207
    4188:	2800      	cmp	r0, #0
    418a:	d1e4      	bne.n	4156 <dhex_dump+0x62>
    418c:	e7ea      	b.n	4164 <dhex_dump+0x70>
/home/yin/imx-optee/imx-optee-os/lib/libutils/ext/trace.c:213
    418e:	4263      	negs	r3, r4
    4190:	f003 030f 	and.w	r3, r3, #15
    4194:	bf58      	it	pl
    4196:	425f      	negpl	r7, r3
    4198:	2f07      	cmp	r7, #7
    419a:	d108      	bne.n	41ae <dhex_dump+0xba>
/home/yin/imx-optee/imx-optee-os/lib/libutils/ext/trace.c:214
    419c:	4913      	ldr	r1, [pc, #76]	; (41ec <dhex_dump+0xf8>)
    419e:	4628      	mov	r0, r5
    41a0:	4479      	add	r1, pc
    41a2:	f7ff fec5 	bl	3f30 <append>
/home/yin/imx-optee/imx-optee-os/lib/libutils/ext/trace.c:215
    41a6:	2800      	cmp	r0, #0
    41a8:	d0dc      	beq.n	4164 <dhex_dump+0x70>
/home/yin/imx-optee/imx-optee-os/lib/libutils/ext/trace.c:203 (discriminator 2)
    41aa:	3401      	adds	r4, #1
    41ac:	e7bd      	b.n	412a <dhex_dump+0x36>
/home/yin/imx-optee/imx-optee-os/lib/libutils/ext/trace.c:217
    41ae:	2f0f      	cmp	r7, #15
    41b0:	d1fb      	bne.n	41aa <dhex_dump+0xb6>
/home/yin/imx-optee/imx-optee-os/lib/libutils/ext/trace.c:218
    41b2:	9b03      	ldr	r3, [sp, #12]
    41b4:	4642      	mov	r2, r8
    41b6:	9501      	str	r5, [sp, #4]
    41b8:	4651      	mov	r1, sl
    41ba:	4648      	mov	r0, r9
    41bc:	9300      	str	r3, [sp, #0]
    41be:	2301      	movs	r3, #1
    41c0:	f7ff fef6 	bl	3fb0 <trace_printf>
/home/yin/imx-optee/imx-optee-os/lib/libutils/ext/trace.c:220
    41c4:	2300      	movs	r3, #0
    41c6:	f8c5 3100 	str.w	r3, [r5, #256]	; 0x100
    41ca:	e7ee      	b.n	41aa <dhex_dump+0xb6>
    41cc:	0000478c 	.word	0x0000478c
    41d0:	00000014 	.word	0x00000014
    41d4:	00003eef 	.word	0x00003eef
    41d8:	00003eed 	.word	0x00003eed
    41dc:	00003ef1 	.word	0x00003ef1
    41e0:	00003ed7 	.word	0x00003ed7
    41e4:	00003eae 	.word	0x00003eae
    41e8:	00003e72 	.word	0x00003e72
    41ec:	00003e75 	.word	0x00003e75

000041f0 <mempool_alloc_pool>:
mempool_alloc_pool():
/home/yin/imx-optee/imx-optee-os/lib/libutils/ext/mempool.c:115
    41f0:	b538      	push	{r3, r4, r5, lr}
    41f2:	4604      	mov	r4, r0
    41f4:	460d      	mov	r5, r1
/home/yin/imx-optee/imx-optee-os/lib/libutils/ext/mempool.c:116
    41f6:	2001      	movs	r0, #1
    41f8:	210c      	movs	r1, #12
    41fa:	f7ff f8ad 	bl	3358 <calloc>
/home/yin/imx-optee/imx-optee-os/lib/libutils/ext/mempool.c:119
    41fe:	07a3      	lsls	r3, r4, #30
    4200:	d00a      	beq.n	4218 <mempool_alloc_pool+0x28>
/home/yin/imx-optee/imx-optee-os/lib/libutils/ext/mempool.c:119 (discriminator 1)
    4202:	4b09      	ldr	r3, [pc, #36]	; (4228 <mempool_alloc_pool+0x38>)
    4204:	2277      	movs	r2, #119	; 0x77
    4206:	4909      	ldr	r1, [pc, #36]	; (422c <mempool_alloc_pool+0x3c>)
    4208:	4809      	ldr	r0, [pc, #36]	; (4230 <mempool_alloc_pool+0x40>)
    420a:	447b      	add	r3, pc
    420c:	4479      	add	r1, pc
    420e:	4478      	add	r0, pc
    4210:	f000 fe1a 	bl	4e48 <_assert_log>
    4214:	f000 fe2c 	bl	4e70 <_assert_break>
/home/yin/imx-optee/imx-optee-os/lib/libutils/ext/mempool.c:121
    4218:	b120      	cbz	r0, 4224 <mempool_alloc_pool+0x34>
/home/yin/imx-optee/imx-optee-os/lib/libutils/ext/mempool.c:124
    421a:	f04f 33ff 	mov.w	r3, #4294967295	; 0xffffffff
/home/yin/imx-optee/imx-optee-os/lib/libutils/ext/mempool.c:122
    421e:	6005      	str	r5, [r0, #0]
/home/yin/imx-optee/imx-optee-os/lib/libutils/ext/mempool.c:123
    4220:	6084      	str	r4, [r0, #8]
/home/yin/imx-optee/imx-optee-os/lib/libutils/ext/mempool.c:124
    4222:	6043      	str	r3, [r0, #4]
/home/yin/imx-optee/imx-optee-os/lib/libutils/ext/mempool.c:134
    4224:	bd38      	pop	{r3, r4, r5, pc}
    4226:	bf00      	nop
    4228:	00003e1f 	.word	0x00003e1f
    422c:	00003e30 	.word	0x00003e30
    4230:	00003e49 	.word	0x00003e49

00004234 <mempool_alloc>:
mempool_alloc():
/home/yin/imx-optee/imx-optee-os/lib/libutils/ext/mempool.c:137
    4234:	b570      	push	{r4, r5, r6, lr}
/home/yin/imx-optee/imx-optee-os/lib/libutils/ext/mempool.c:144
    4236:	6844      	ldr	r4, [r0, #4]
    4238:	6802      	ldr	r2, [r0, #0]
    423a:	2c00      	cmp	r4, #0
    423c:	db0a      	blt.n	4254 <mempool_alloc+0x20>
/home/yin/imx-optee/imx-optee-os/lib/libutils/ext/mempool.c:147
    423e:	6886      	ldr	r6, [r0, #8]
/home/yin/imx-optee/imx-optee-os/lib/libutils/ext/mempool.c:151
    4240:	1ce3      	adds	r3, r4, #3
/home/yin/imx-optee/imx-optee-os/lib/libutils/ext/mempool.c:147
    4242:	19a5      	adds	r5, r4, r6
/home/yin/imx-optee/imx-optee-os/lib/libutils/ext/mempool.c:151
    4244:	59a6      	ldr	r6, [r4, r6]
    4246:	4433      	add	r3, r6
    4248:	f023 0303 	bic.w	r3, r3, #3
/home/yin/imx-optee/imx-optee-os/lib/libutils/ext/mempool.c:152
    424c:	4293      	cmp	r3, r2
    424e:	d903      	bls.n	4258 <mempool_alloc+0x24>
/home/yin/imx-optee/imx-optee-os/lib/libutils/ext/mempool.c:173
    4250:	2000      	movs	r0, #0
/home/yin/imx-optee/imx-optee-os/lib/libutils/ext/mempool.c:174
    4252:	bd70      	pop	{r4, r5, r6, pc}
/home/yin/imx-optee/imx-optee-os/lib/libutils/ext/mempool.c:140
    4254:	2500      	movs	r5, #0
/home/yin/imx-optee/imx-optee-os/lib/libutils/ext/mempool.c:145
    4256:	462b      	mov	r3, r5
/home/yin/imx-optee/imx-optee-os/lib/libutils/ext/mempool.c:157
    4258:	310f      	adds	r1, #15
    425a:	f021 0103 	bic.w	r1, r1, #3
/home/yin/imx-optee/imx-optee-os/lib/libutils/ext/mempool.c:158
    425e:	185e      	adds	r6, r3, r1
    4260:	4296      	cmp	r6, r2
    4262:	d8f5      	bhi.n	4250 <mempool_alloc+0x1c>
/home/yin/imx-optee/imx-optee-os/lib/libutils/ext/mempool.c:161
    4264:	6886      	ldr	r6, [r0, #8]
    4266:	199a      	adds	r2, r3, r6
/home/yin/imx-optee/imx-optee-os/lib/libutils/ext/mempool.c:162
    4268:	5199      	str	r1, [r3, r6]
/home/yin/imx-optee/imx-optee-os/lib/libutils/ext/mempool.c:163
    426a:	6054      	str	r4, [r2, #4]
/home/yin/imx-optee/imx-optee-os/lib/libutils/ext/mempool.c:164
    426c:	b105      	cbz	r5, 4270 <mempool_alloc+0x3c>
/home/yin/imx-optee/imx-optee-os/lib/libutils/ext/mempool.c:165
    426e:	60ab      	str	r3, [r5, #8]
/home/yin/imx-optee/imx-optee-os/lib/libutils/ext/mempool.c:166
    4270:	f04f 31ff 	mov.w	r1, #4294967295	; 0xffffffff
    4274:	6091      	str	r1, [r2, #8]
/home/yin/imx-optee/imx-optee-os/lib/libutils/ext/mempool.c:167
    4276:	6043      	str	r3, [r0, #4]
/home/yin/imx-optee/imx-optee-os/lib/libutils/ext/mempool.c:169
    4278:	f102 000c 	add.w	r0, r2, #12
    427c:	bd70      	pop	{r4, r5, r6, pc}

0000427e <mempool_free>:
mempool_free():
/home/yin/imx-optee/imx-optee-os/lib/libutils/ext/mempool.c:177
    427e:	b510      	push	{r4, lr}
/home/yin/imx-optee/imx-optee-os/lib/libutils/ext/mempool.c:183
    4280:	b199      	cbz	r1, 42aa <mempool_free+0x2c>
/home/yin/imx-optee/imx-optee-os/lib/libutils/ext/mempool.c:186
    4282:	390c      	subs	r1, #12
/home/yin/imx-optee/imx-optee-os/lib/libutils/ext/mempool.c:188
    4284:	684b      	ldr	r3, [r1, #4]
    4286:	2b00      	cmp	r3, #0
/home/yin/imx-optee/imx-optee-os/lib/libutils/ext/mempool.c:191
    4288:	bfa9      	itett	ge
    428a:	6882      	ldrge	r2, [r0, #8]
/home/yin/imx-optee/imx-optee-os/lib/libutils/ext/mempool.c:181
    428c:	f04f 32ff 	movlt.w	r2, #4294967295	; 0xffffffff
/home/yin/imx-optee/imx-optee-os/lib/libutils/ext/mempool.c:191
    4290:	688c      	ldrge	r4, [r1, #8]
    4292:	18d2      	addge	r2, r2, r3
    4294:	bfa4      	itt	ge
    4296:	6094      	strge	r4, [r2, #8]
    4298:	461a      	movge	r2, r3
/home/yin/imx-optee/imx-optee-os/lib/libutils/ext/mempool.c:195
    429a:	6889      	ldr	r1, [r1, #8]
    429c:	2900      	cmp	r1, #0
/home/yin/imx-optee/imx-optee-os/lib/libutils/ext/mempool.c:198
    429e:	bfa1      	itttt	ge
    42a0:	6882      	ldrge	r2, [r0, #8]
    42a2:	1852      	addge	r2, r2, r1
    42a4:	6053      	strge	r3, [r2, #4]
/home/yin/imx-optee/imx-optee-os/lib/libutils/ext/mempool.c:199
    42a6:	6842      	ldrge	r2, [r0, #4]
/home/yin/imx-optee/imx-optee-os/lib/libutils/ext/mempool.c:202
    42a8:	6042      	str	r2, [r0, #4]
    42aa:	bd10      	pop	{r4, pc}

000042ac <ret_idivmod_values>:
ret_idivmod_values():
/home/yin/imx-optee/imx-optee-os/lib/libutils/isoc/arch/arm/arm32_aeabi_divmod_a32.S:25
    42ac:	e12fff1e 	bx	lr

000042b0 <ret_uidivmod_values>:
ret_uidivmod_values():
/home/yin/imx-optee/imx-optee-os/lib/libutils/isoc/arch/arm/arm32_aeabi_divmod_a32.S:36
    42b0:	e12fff1e 	bx	lr

000042b4 <__aeabi_ldivmod>:
__aeabi_ldivmod():
/home/yin/imx-optee/imx-optee-os/lib/libutils/isoc/arch/arm/arm32_aeabi_ldivmod_a32.S:24
    42b4:	e92d5000 	push	{ip, lr}
/home/yin/imx-optee/imx-optee-os/lib/libutils/isoc/arch/arm/arm32_aeabi_ldivmod_a32.S:26
    42b8:	e92d000f 	push	{r0, r1, r2, r3}
/home/yin/imx-optee/imx-optee-os/lib/libutils/isoc/arch/arm/arm32_aeabi_ldivmod_a32.S:28
    42bc:	e1a0000d 	mov	r0, sp
/home/yin/imx-optee/imx-optee-os/lib/libutils/isoc/arch/arm/arm32_aeabi_ldivmod_a32.S:29
    42c0:	fa0003bb 	blx	51b4 <__l_divmod>
/home/yin/imx-optee/imx-optee-os/lib/libutils/isoc/arch/arm/arm32_aeabi_ldivmod_a32.S:30
    42c4:	e8bd000f 	pop	{r0, r1, r2, r3}
/home/yin/imx-optee/imx-optee-os/lib/libutils/isoc/arch/arm/arm32_aeabi_ldivmod_a32.S:31
    42c8:	e8bd9000 	pop	{ip, pc}

000042cc <__aeabi_uldivmod>:
__aeabi_uldivmod():
/home/yin/imx-optee/imx-optee-os/lib/libutils/isoc/arch/arm/arm32_aeabi_ldivmod_a32.S:42
    42cc:	e92d5000 	push	{ip, lr}
/home/yin/imx-optee/imx-optee-os/lib/libutils/isoc/arch/arm/arm32_aeabi_ldivmod_a32.S:44
    42d0:	e92d000f 	push	{r0, r1, r2, r3}
/home/yin/imx-optee/imx-optee-os/lib/libutils/isoc/arch/arm/arm32_aeabi_ldivmod_a32.S:46
    42d4:	e1a0000d 	mov	r0, sp
/home/yin/imx-optee/imx-optee-os/lib/libutils/isoc/arch/arm/arm32_aeabi_ldivmod_a32.S:47
    42d8:	fa000398 	blx	5140 <__ul_divmod>
/home/yin/imx-optee/imx-optee-os/lib/libutils/isoc/arch/arm/arm32_aeabi_ldivmod_a32.S:48
    42dc:	e8bd000f 	pop	{r0, r1, r2, r3}
/home/yin/imx-optee/imx-optee-os/lib/libutils/isoc/arch/arm/arm32_aeabi_ldivmod_a32.S:49
    42e0:	e8bd9000 	pop	{ip, pc}

000042e4 <__mpa_set_unused_digits_to_zero>:
__mpa_set_unused_digits_to_zero():
/home/yin/imx-optee/imx-optee-os/lib/libmpa/mpa_misc.c:37
    42e4:	6843      	ldr	r3, [r0, #4]
/home/yin/imx-optee/imx-optee-os/lib/libmpa/mpa_misc.c:38
    42e6:	2100      	movs	r1, #0
    42e8:	f850 2b08 	ldr.w	r2, [r0], #8
/home/yin/imx-optee/imx-optee-os/lib/libmpa/mpa_misc.c:37
    42ec:	2b00      	cmp	r3, #0
    42ee:	bfb8      	it	lt
    42f0:	425b      	neglt	r3, r3
/home/yin/imx-optee/imx-optee-os/lib/libmpa/mpa_misc.c:38
    42f2:	1ad2      	subs	r2, r2, r3
    42f4:	eb00 0083 	add.w	r0, r0, r3, lsl #2
    42f8:	0092      	lsls	r2, r2, #2
    42fa:	f000 be0f 	b.w	4f1c <memset>

000042fe <mpa_wipe>:
mpa_wipe():
/home/yin/imx-optee/imx-optee-os/lib/libmpa/mpa_misc.c:55
    42fe:	b510      	push	{r4, lr}
    4300:	4604      	mov	r4, r0
/home/yin/imx-optee/imx-optee-os/lib/libmpa/mpa_misc.c:56
    4302:	f850 2b08 	ldr.w	r2, [r0], #8
    4306:	2100      	movs	r1, #0
    4308:	0092      	lsls	r2, r2, #2
    430a:	f000 fe07 	bl	4f1c <memset>
/home/yin/imx-optee/imx-optee-os/lib/libmpa/mpa_misc.c:57
    430e:	2300      	movs	r3, #0
    4310:	6063      	str	r3, [r4, #4]
    4312:	bd10      	pop	{r4, pc}

00004314 <mpa_copy>:
mpa_copy():
/home/yin/imx-optee/imx-optee-os/lib/libmpa/mpa_misc.c:71
    4314:	4288      	cmp	r0, r1
/home/yin/imx-optee/imx-optee-os/lib/libmpa/mpa_misc.c:70
    4316:	b538      	push	{r3, r4, r5, lr}
    4318:	4605      	mov	r5, r0
    431a:	460c      	mov	r4, r1
/home/yin/imx-optee/imx-optee-os/lib/libmpa/mpa_misc.c:71
    431c:	d00a      	beq.n	4334 <mpa_copy+0x20>
/home/yin/imx-optee/imx-optee-os/lib/libmpa/mpa_misc.c:74
    431e:	684a      	ldr	r2, [r1, #4]
    4320:	3008      	adds	r0, #8
    4322:	3108      	adds	r1, #8
    4324:	2a00      	cmp	r2, #0
    4326:	bfb8      	it	lt
    4328:	4252      	neglt	r2, r2
    432a:	0092      	lsls	r2, r2, #2
    432c:	f000 fdd1 	bl	4ed2 <memcpy>
/home/yin/imx-optee/imx-optee-os/lib/libmpa/mpa_misc.c:75
    4330:	6863      	ldr	r3, [r4, #4]
    4332:	606b      	str	r3, [r5, #4]
    4334:	bd38      	pop	{r3, r4, r5, pc}

00004336 <mpa_abs>:
mpa_abs():
/home/yin/imx-optee/imx-optee-os/lib/libmpa/mpa_misc.c:84
    4336:	b510      	push	{r4, lr}
    4338:	4604      	mov	r4, r0
/home/yin/imx-optee/imx-optee-os/lib/libmpa/mpa_misc.c:85
    433a:	f7ff ffeb 	bl	4314 <mpa_copy>
/home/yin/imx-optee/imx-optee-os/lib/libmpa/mpa_misc.c:86
    433e:	6863      	ldr	r3, [r4, #4]
    4340:	2b00      	cmp	r3, #0
    4342:	bfbc      	itt	lt
    4344:	425b      	neglt	r3, r3
    4346:	6063      	strlt	r3, [r4, #4]
    4348:	bd10      	pop	{r4, pc}

0000434a <mpa_highest_bit_index>:
mpa_highest_bit_index():
/home/yin/imx-optee/imx-optee-os/lib/libmpa/mpa_misc.c:101
    434a:	6843      	ldr	r3, [r0, #4]
    434c:	b17b      	cbz	r3, 436e <mpa_highest_bit_index+0x24>
/home/yin/imx-optee/imx-optee-os/lib/libmpa/mpa_misc.c:104
    434e:	2b00      	cmp	r3, #0
    4350:	bfb8      	it	lt
    4352:	425b      	neglt	r3, r3
    4354:	1e5a      	subs	r2, r3, #1
    4356:	3301      	adds	r3, #1
    4358:	f850 3023 	ldr.w	r3, [r0, r3, lsl #2]
/home/yin/imx-optee/imx-optee-os/lib/libmpa/mpa_misc.c:106
    435c:	2000      	movs	r0, #0
/home/yin/imx-optee/imx-optee-os/lib/libmpa/mpa_misc.c:108
    435e:	085b      	lsrs	r3, r3, #1
    4360:	d002      	beq.n	4368 <mpa_highest_bit_index+0x1e>
/home/yin/imx-optee/imx-optee-os/lib/libmpa/mpa_misc.c:106 (discriminator 2)
    4362:	3001      	adds	r0, #1
    4364:	2820      	cmp	r0, #32
    4366:	d1fa      	bne.n	435e <mpa_highest_bit_index+0x14>
/home/yin/imx-optee/imx-optee-os/lib/libmpa/mpa_misc.c:111
    4368:	eb00 1042 	add.w	r0, r0, r2, lsl #5
    436c:	4770      	bx	lr
/home/yin/imx-optee/imx-optee-os/lib/libmpa/mpa_misc.c:102
    436e:	f04f 30ff 	mov.w	r0, #4294967295	; 0xffffffff
/home/yin/imx-optee/imx-optee-os/lib/libmpa/mpa_misc.c:112
    4372:	4770      	bx	lr

00004374 <mpa_get_bit>:
mpa_get_bit():
/home/yin/imx-optee/imx-optee-os/lib/libmpa/mpa_misc.c:131
    4374:	6842      	ldr	r2, [r0, #4]
/home/yin/imx-optee/imx-optee-os/lib/libmpa/mpa_misc.c:128
    4376:	094b      	lsrs	r3, r1, #5
/home/yin/imx-optee/imx-optee-os/lib/libmpa/mpa_misc.c:131
    4378:	2a00      	cmp	r2, #0
    437a:	bfb8      	it	lt
    437c:	4252      	neglt	r2, r2
    437e:	4293      	cmp	r3, r2
    4380:	d80c      	bhi.n	439c <mpa_get_bit+0x28>
/home/yin/imx-optee/imx-optee-os/lib/libmpa/mpa_misc.c:134
    4382:	3302      	adds	r3, #2
/home/yin/imx-optee/imx-optee-os/lib/libmpa/mpa_misc.c:133
    4384:	2201      	movs	r2, #1
/home/yin/imx-optee/imx-optee-os/lib/libmpa/mpa_misc.c:134
    4386:	f850 3023 	ldr.w	r3, [r0, r3, lsl #2]
/home/yin/imx-optee/imx-optee-os/lib/libmpa/mpa_misc.c:129
    438a:	f001 011f 	and.w	r1, r1, #31
/home/yin/imx-optee/imx-optee-os/lib/libmpa/mpa_misc.c:133
    438e:	fa02 f101 	lsl.w	r1, r2, r1
/home/yin/imx-optee/imx-optee-os/lib/libmpa/mpa_misc.c:134
    4392:	4219      	tst	r1, r3
    4394:	bf14      	ite	ne
    4396:	4610      	movne	r0, r2
    4398:	2000      	moveq	r0, #0
    439a:	4770      	bx	lr
    439c:	2000      	movs	r0, #0
/home/yin/imx-optee/imx-optee-os/lib/libmpa/mpa_misc.c:135
    439e:	4770      	bx	lr

000043a0 <mpa_can_hold>:
mpa_can_hold():
/home/yin/imx-optee/imx-optee-os/lib/libmpa/mpa_misc.c:145
    43a0:	684b      	ldr	r3, [r1, #4]
    43a2:	6800      	ldr	r0, [r0, #0]
    43a4:	2b00      	cmp	r3, #0
    43a6:	bfb8      	it	lt
    43a8:	425b      	neglt	r3, r3
/home/yin/imx-optee/imx-optee-os/lib/libmpa/mpa_misc.c:146
    43aa:	4298      	cmp	r0, r3
    43ac:	bf34      	ite	cc
    43ae:	2000      	movcc	r0, #0
    43b0:	2001      	movcs	r0, #1
    43b2:	4770      	bx	lr

000043b4 <mpa_parity>:
mpa_parity():
/home/yin/imx-optee/imx-optee-os/lib/libmpa/mpa_misc.c:156
    43b4:	6880      	ldr	r0, [r0, #8]
/home/yin/imx-optee/imx-optee-os/lib/libmpa/mpa_misc.c:157
    43b6:	f000 0001 	and.w	r0, r0, #1
    43ba:	4770      	bx	lr

000043bc <mpa_constant_one>:
mpa_constant_one():
/home/yin/imx-optee/imx-optee-os/lib/libmpa/mpa_misc.c:167
    43bc:	4801      	ldr	r0, [pc, #4]	; (43c4 <mpa_constant_one+0x8>)
    43be:	4478      	add	r0, pc
    43c0:	4770      	bx	lr
    43c2:	bf00      	nop
    43c4:	0000283a 	.word	0x0000283a

000043c8 <__mpa_montgomery_mul_add>:
__mpa_montgomery_mul_add():
/home/yin/imx-optee/imx-optee-os/lib/libmpa/mpa_montgomery.c:26
    43c8:	e92d 47f0 	stmdb	sp!, {r4, r5, r6, r7, r8, r9, sl, lr}
/home/yin/imx-optee/imx-optee-os/lib/libmpa/mpa_montgomery.c:34
    43cc:	b18a      	cbz	r2, 43f2 <__mpa_montgomery_mul_add+0x2a>
/home/yin/imx-optee/imx-optee-os/lib/libmpa/mpa_montgomery.c:36
    43ce:	f100 0c08 	add.w	ip, r0, #8
/home/yin/imx-optee/imx-optee-os/lib/libmpa/mpa_montgomery.c:38
    43d2:	2600      	movs	r6, #0
    43d4:	f101 0e08 	add.w	lr, r1, #8
/home/yin/imx-optee/imx-optee-os/lib/libmpa/mpa_montgomery.c:37
    43d8:	4664      	mov	r4, ip
/home/yin/imx-optee/imx-optee-os/lib/libmpa/mpa_montgomery.c:39
    43da:	4633      	mov	r3, r6
    43dc:	684d      	ldr	r5, [r1, #4]
    43de:	42ab      	cmp	r3, r5
    43e0:	db09      	blt.n	43f6 <__mpa_montgomery_mul_add+0x2e>
/home/yin/imx-optee/imx-optee-os/lib/libmpa/mpa_montgomery.c:46
    43e2:	b9ce      	cbnz	r6, 4418 <__mpa_montgomery_mul_add+0x50>
/home/yin/imx-optee/imx-optee-os/lib/libmpa/mpa_montgomery.c:52
    43e4:	6843      	ldr	r3, [r0, #4]
/home/yin/imx-optee/imx-optee-os/lib/libmpa/mpa_montgomery.c:51
    43e6:	eba4 040c 	sub.w	r4, r4, ip
    43ea:	10a4      	asrs	r4, r4, #2
/home/yin/imx-optee/imx-optee-os/lib/libmpa/mpa_montgomery.c:52
    43ec:	429c      	cmp	r4, r3
/home/yin/imx-optee/imx-optee-os/lib/libmpa/mpa_montgomery.c:53
    43ee:	bfc8      	it	gt
    43f0:	6044      	strgt	r4, [r0, #4]
    43f2:	e8bd 87f0 	ldmia.w	sp!, {r4, r5, r6, r7, r8, r9, sl, pc}
/home/yin/imx-optee/imx-optee-os/lib/libmpa/mpa_montgomery.c:42
    43f6:	46b1      	mov	r9, r6
/home/yin/imx-optee/imx-optee-os/lib/libmpa/mpa_montgomery.c:40
    43f8:	6826      	ldr	r6, [r4, #0]
/home/yin/imx-optee/imx-optee-os/lib/libmpa/mpa_montgomery.c:41
    43fa:	f85e 5b04 	ldr.w	r5, [lr], #4
/home/yin/imx-optee/imx-optee-os/lib/libmpa/mpa_montgomery.c:42
    43fe:	f04f 0a00 	mov.w	sl, #0
/home/yin/imx-optee/imx-optee-os/lib/libmpa/mpa_montgomery.c:39
    4402:	3301      	adds	r3, #1
/home/yin/imx-optee/imx-optee-os/lib/libmpa/mpa_montgomery.c:40
    4404:	eb19 0606 	adds.w	r6, r9, r6
    4408:	f14a 0700 	adc.w	r7, sl, #0
    440c:	fbe2 6705 	umlal	r6, r7, r2, r5
/home/yin/imx-optee/imx-optee-os/lib/libmpa/mpa_montgomery.c:43
    4410:	f844 6b04 	str.w	r6, [r4], #4
/home/yin/imx-optee/imx-optee-os/lib/libmpa/mpa_montgomery.c:44
    4414:	463e      	mov	r6, r7
    4416:	e7e1      	b.n	43dc <__mpa_montgomery_mul_add+0x14>
/home/yin/imx-optee/imx-optee-os/lib/libmpa/mpa_montgomery.c:47
    4418:	6821      	ldr	r1, [r4, #0]
    441a:	2300      	movs	r3, #0
    441c:	1875      	adds	r5, r6, r1
    441e:	f143 0600 	adc.w	r6, r3, #0
/home/yin/imx-optee/imx-optee-os/lib/libmpa/mpa_montgomery.c:48
    4422:	f844 5b04 	str.w	r5, [r4], #4
    4426:	e7dc      	b.n	43e2 <__mpa_montgomery_mul_add+0x1a>

00004428 <__mpa_montgomery_sub_ack>:
__mpa_montgomery_sub_ack():
/home/yin/imx-optee/imx-optee-os/lib/libmpa/mpa_montgomery.c:77
    4428:	2200      	movs	r2, #0
/home/yin/imx-optee/imx-optee-os/lib/libmpa/mpa_montgomery.c:68
    442a:	b5f0      	push	{r4, r5, r6, r7, lr}
/home/yin/imx-optee/imx-optee-os/lib/libmpa/mpa_montgomery.c:75
    442c:	f100 0308 	add.w	r3, r0, #8
    4430:	f101 0508 	add.w	r5, r1, #8
/home/yin/imx-optee/imx-optee-os/lib/libmpa/mpa_montgomery.c:76
    4434:	4614      	mov	r4, r2
/home/yin/imx-optee/imx-optee-os/lib/libmpa/mpa_montgomery.c:78
    4436:	684e      	ldr	r6, [r1, #4]
    4438:	42b2      	cmp	r2, r6
    443a:	db04      	blt.n	4446 <__mpa_montgomery_sub_ack+0x1e>
/home/yin/imx-optee/imx-optee-os/lib/libmpa/mpa_montgomery.c:87
    443c:	b98c      	cbnz	r4, 4462 <__mpa_montgomery_sub_ack+0x3a>
/home/yin/imx-optee/imx-optee-os/lib/libmpa/mpa_montgomery.c:93
    443e:	6841      	ldr	r1, [r0, #4]
    4440:	428a      	cmp	r2, r1
    4442:	da19      	bge.n	4478 <__mpa_montgomery_sub_ack+0x50>
    4444:	bdf0      	pop	{r4, r5, r6, r7, pc}
/home/yin/imx-optee/imx-optee-os/lib/libmpa/mpa_montgomery.c:79
    4446:	681f      	ldr	r7, [r3, #0]
/home/yin/imx-optee/imx-optee-os/lib/libmpa/mpa_montgomery.c:83
    4448:	3201      	adds	r2, #1
/home/yin/imx-optee/imx-optee-os/lib/libmpa/mpa_montgomery.c:79
    444a:	f855 6b04 	ldr.w	r6, [r5], #4
    444e:	1bbe      	subs	r6, r7, r6
    4450:	eb67 0707 	sbc.w	r7, r7, r7
    4454:	1b36      	subs	r6, r6, r4
    4456:	f167 0700 	sbc.w	r7, r7, #0
/home/yin/imx-optee/imx-optee-os/lib/libmpa/mpa_montgomery.c:81
    445a:	f843 6b04 	str.w	r6, [r3], #4
/home/yin/imx-optee/imx-optee-os/lib/libmpa/mpa_montgomery.c:82
    445e:	427c      	negs	r4, r7
    4460:	e7e9      	b.n	4436 <__mpa_montgomery_sub_ack+0xe>
/home/yin/imx-optee/imx-optee-os/lib/libmpa/mpa_montgomery.c:88
    4462:	6819      	ldr	r1, [r3, #0]
/home/yin/imx-optee/imx-optee-os/lib/libmpa/mpa_montgomery.c:91
    4464:	3201      	adds	r2, #1
/home/yin/imx-optee/imx-optee-os/lib/libmpa/mpa_montgomery.c:88
    4466:	1b0c      	subs	r4, r1, r4
    4468:	eb61 0501 	sbc.w	r5, r1, r1
/home/yin/imx-optee/imx-optee-os/lib/libmpa/mpa_montgomery.c:89
    446c:	f843 4b04 	str.w	r4, [r3], #4
/home/yin/imx-optee/imx-optee-os/lib/libmpa/mpa_montgomery.c:90
    4470:	426c      	negs	r4, r5
    4472:	e7e3      	b.n	443c <__mpa_montgomery_sub_ack+0x14>
/home/yin/imx-optee/imx-optee-os/lib/libmpa/mpa_montgomery.c:96
    4474:	3a01      	subs	r2, #1
    4476:	6042      	str	r2, [r0, #4]
/home/yin/imx-optee/imx-optee-os/lib/libmpa/mpa_montgomery.c:95
    4478:	6842      	ldr	r2, [r0, #4]
    447a:	2a00      	cmp	r2, #0
    447c:	dd03      	ble.n	4486 <__mpa_montgomery_sub_ack+0x5e>
/home/yin/imx-optee/imx-optee-os/lib/libmpa/mpa_montgomery.c:95 (discriminator 1)
    447e:	f853 1d04 	ldr.w	r1, [r3, #-4]!
    4482:	2900      	cmp	r1, #0
    4484:	d0f6      	beq.n	4474 <__mpa_montgomery_sub_ack+0x4c>
    4486:	bdf0      	pop	{r4, r5, r6, r7, pc}

00004488 <__mpa_montgomery_mul>:
__mpa_montgomery_mul():
/home/yin/imx-optee/imx-optee-os/lib/libmpa/mpa_montgomery.c:115
    4488:	e92d 4ff8 	stmdb	sp!, {r3, r4, r5, r6, r7, r8, r9, sl, fp, lr}
/home/yin/imx-optee/imx-optee-os/lib/libmpa/mpa_montgomery.c:122
    448c:	2500      	movs	r5, #0
/home/yin/imx-optee/imx-optee-os/lib/libmpa/mpa_montgomery.c:124
    448e:	46aa      	mov	sl, r5
/home/yin/imx-optee/imx-optee-os/lib/libmpa/mpa_montgomery.c:115
    4490:	4604      	mov	r4, r0
    4492:	4688      	mov	r8, r1
    4494:	4617      	mov	r7, r2
    4496:	461e      	mov	r6, r3
    4498:	f8dd 9028 	ldr.w	r9, [sp, #40]	; 0x28
/home/yin/imx-optee/imx-optee-os/lib/libmpa/mpa_montgomery.c:120
    449c:	f7ff ff2f 	bl	42fe <mpa_wipe>
/home/yin/imx-optee/imx-optee-os/lib/libmpa/mpa_montgomery.c:122 (discriminator 1)
    44a0:	6873      	ldr	r3, [r6, #4]
    44a2:	429d      	cmp	r5, r3
    44a4:	db0b      	blt.n	44be <__mpa_montgomery_mul+0x36>
/home/yin/imx-optee/imx-optee-os/lib/libmpa/mpa_montgomery.c:139
    44a6:	4631      	mov	r1, r6
    44a8:	4620      	mov	r0, r4
    44aa:	f002 fa0f 	bl	68cc <__mpa_abs_cmp>
    44ae:	2800      	cmp	r0, #0
    44b0:	db34      	blt.n	451c <__mpa_montgomery_mul+0x94>
/home/yin/imx-optee/imx-optee-os/lib/libmpa/mpa_montgomery.c:140
    44b2:	4631      	mov	r1, r6
    44b4:	4620      	mov	r0, r4
/home/yin/imx-optee/imx-optee-os/lib/libmpa/mpa_montgomery.c:141
    44b6:	e8bd 4ff8 	ldmia.w	sp!, {r3, r4, r5, r6, r7, r8, r9, sl, fp, lr}
/home/yin/imx-optee/imx-optee-os/lib/libmpa/mpa_montgomery.c:140
    44ba:	f7ff bfb5 	b.w	4428 <__mpa_montgomery_sub_ack>
/home/yin/imx-optee/imx-optee-os/lib/libmpa/mpa_montgomery.c:124
    44be:	f8d8 2004 	ldr.w	r2, [r8, #4]
/home/yin/imx-optee/imx-optee-os/lib/libmpa/mpa_montgomery.c:123
    44c2:	68a1      	ldr	r1, [r4, #8]
/home/yin/imx-optee/imx-optee-os/lib/libmpa/mpa_montgomery.c:124
    44c4:	2a00      	cmp	r2, #0
    44c6:	bfb8      	it	lt
    44c8:	4252      	neglt	r2, r2
    44ca:	4295      	cmp	r5, r2
    44cc:	bfb6      	itet	lt
    44ce:	eb08 0385 	addlt.w	r3, r8, r5, lsl #2
    44d2:	2200      	movge	r2, #0
    44d4:	689a      	ldrlt	r2, [r3, #8]
/home/yin/imx-optee/imx-optee-os/lib/libmpa/mpa_montgomery.c:125
    44d6:	687b      	ldr	r3, [r7, #4]
    44d8:	b103      	cbz	r3, 44dc <__mpa_montgomery_mul+0x54>
/home/yin/imx-optee/imx-optee-os/lib/libmpa/mpa_montgomery.c:125 (discriminator 1)
    44da:	68bb      	ldr	r3, [r7, #8]
/home/yin/imx-optee/imx-optee-os/lib/libmpa/mpa_montgomery.c:123
    44dc:	fb03 1302 	mla	r3, r3, r2, r1
/home/yin/imx-optee/imx-optee-os/lib/libmpa/mpa_montgomery.c:127
    44e0:	4620      	mov	r0, r4
    44e2:	4639      	mov	r1, r7
/home/yin/imx-optee/imx-optee-os/lib/libmpa/mpa_montgomery.c:123
    44e4:	fb09 fb03 	mul.w	fp, r9, r3
/home/yin/imx-optee/imx-optee-os/lib/libmpa/mpa_montgomery.c:127
    44e8:	f7ff ff6e 	bl	43c8 <__mpa_montgomery_mul_add>
/home/yin/imx-optee/imx-optee-os/lib/libmpa/mpa_montgomery.c:129
    44ec:	465a      	mov	r2, fp
    44ee:	4620      	mov	r0, r4
    44f0:	4631      	mov	r1, r6
    44f2:	f7ff ff69 	bl	43c8 <__mpa_montgomery_mul_add>
/home/yin/imx-optee/imx-optee-os/lib/libmpa/mpa_montgomery.c:132
    44f6:	6863      	ldr	r3, [r4, #4]
    44f8:	f104 0008 	add.w	r0, r4, #8
/home/yin/imx-optee/imx-optee-os/lib/libmpa/mpa_montgomery.c:133
    44fc:	2200      	movs	r2, #0
/home/yin/imx-optee/imx-optee-os/lib/libmpa/mpa_montgomery.c:132
    44fe:	3b01      	subs	r3, #1
    4500:	6063      	str	r3, [r4, #4]
/home/yin/imx-optee/imx-optee-os/lib/libmpa/mpa_montgomery.c:133 (discriminator 1)
    4502:	429a      	cmp	r2, r3
    4504:	db05      	blt.n	4512 <__mpa_montgomery_mul+0x8a>
/home/yin/imx-optee/imx-optee-os/lib/libmpa/mpa_montgomery.c:135 (discriminator 2)
    4506:	eb04 0383 	add.w	r3, r4, r3, lsl #2
/home/yin/imx-optee/imx-optee-os/lib/libmpa/mpa_montgomery.c:122 (discriminator 2)
    450a:	3501      	adds	r5, #1
/home/yin/imx-optee/imx-optee-os/lib/libmpa/mpa_montgomery.c:135 (discriminator 2)
    450c:	f8c3 a008 	str.w	sl, [r3, #8]
    4510:	e7c6      	b.n	44a0 <__mpa_montgomery_mul+0x18>
/home/yin/imx-optee/imx-optee-os/lib/libmpa/mpa_montgomery.c:134 (discriminator 3)
    4512:	6841      	ldr	r1, [r0, #4]
    4514:	3201      	adds	r2, #1
    4516:	f840 1b04 	str.w	r1, [r0], #4
    451a:	e7f2      	b.n	4502 <__mpa_montgomery_mul+0x7a>
    451c:	e8bd 8ff8 	ldmia.w	sp!, {r3, r4, r5, r6, r7, r8, r9, sl, fp, pc}

00004520 <mpa_compute_fmm_context>:
mpa_compute_fmm_context():
/home/yin/imx-optee/imx-optee-os/lib/libmpa/mpa_montgomery.c:157
    4520:	e92d 47f0 	stmdb	sp!, {r4, r5, r6, r7, r8, r9, sl, lr}
    4524:	4692      	mov	sl, r2
/home/yin/imx-optee/imx-optee-os/lib/libmpa/mpa_montgomery.c:171
    4526:	6842      	ldr	r2, [r0, #4]
/home/yin/imx-optee/imx-optee-os/lib/libmpa/mpa_montgomery.c:157
    4528:	b088      	sub	sp, #32
    452a:	460d      	mov	r5, r1
    452c:	4606      	mov	r6, r0
    452e:	9c10      	ldr	r4, [sp, #64]	; 0x40
/home/yin/imx-optee/imx-optee-os/lib/libmpa/mpa_montgomery.c:172
    4530:	4628      	mov	r0, r5
    4532:	2101      	movs	r1, #1
/home/yin/imx-optee/imx-optee-os/lib/libmpa/mpa_montgomery.c:157
    4534:	4698      	mov	r8, r3
/home/yin/imx-optee/imx-optee-os/lib/libmpa/mpa_montgomery.c:171
    4536:	ea82 77e2 	eor.w	r7, r2, r2, asr #31
/home/yin/imx-optee/imx-optee-os/lib/libmpa/mpa_montgomery.c:157
    453a:	f8df 90ac 	ldr.w	r9, [pc, #172]	; 45e8 <mpa_compute_fmm_context+0xc8>
/home/yin/imx-optee/imx-optee-os/lib/libmpa/mpa_montgomery.c:171
    453e:	eba7 77e2 	sub.w	r7, r7, r2, asr #31
/home/yin/imx-optee/imx-optee-os/lib/libmpa/mpa_montgomery.c:157
    4542:	44f9      	add	r9, pc
/home/yin/imx-optee/imx-optee-os/lib/libmpa/mpa_montgomery.c:172
    4544:	f000 fedb 	bl	52fe <mpa_set_word>
/home/yin/imx-optee/imx-optee-os/lib/libmpa/mpa_montgomery.c:173
    4548:	017a      	lsls	r2, r7, #5
    454a:	4629      	mov	r1, r5
    454c:	4628      	mov	r0, r5
    454e:	f001 fe19 	bl	6184 <mpa_shift_left>
/home/yin/imx-optee/imx-optee-os/lib/libmpa/mpa_montgomery.c:174
    4552:	4632      	mov	r2, r6
    4554:	4629      	mov	r1, r5
    4556:	4628      	mov	r0, r5
    4558:	4623      	mov	r3, r4
    455a:	f002 fa61 	bl	6a20 <mpa_mod>
/home/yin/imx-optee/imx-optee-os/lib/libmpa/mpa_montgomery.c:177
    455e:	462a      	mov	r2, r5
    4560:	4633      	mov	r3, r6
    4562:	4629      	mov	r1, r5
    4564:	4650      	mov	r0, sl
    4566:	9400      	str	r4, [sp, #0]
/home/yin/imx-optee/imx-optee-os/lib/libmpa/mpa_montgomery.c:180
    4568:	2501      	movs	r5, #1
/home/yin/imx-optee/imx-optee-os/lib/libmpa/mpa_montgomery.c:177
    456a:	f002 faa6 	bl	6aba <mpa_mul_mod>
/home/yin/imx-optee/imx-optee-os/lib/libmpa/mpa_montgomery.c:182
    456e:	68b3      	ldr	r3, [r6, #8]
/home/yin/imx-optee/imx-optee-os/lib/libmpa/mpa_montgomery.c:184
    4570:	ae03      	add	r6, sp, #12
    4572:	4621      	mov	r1, r4
    4574:	4630      	mov	r0, r6
/home/yin/imx-optee/imx-optee-os/lib/libmpa/mpa_montgomery.c:185
    4576:	af04      	add	r7, sp, #16
/home/yin/imx-optee/imx-optee-os/lib/libmpa/mpa_montgomery.c:180
    4578:	9505      	str	r5, [sp, #20]
/home/yin/imx-optee/imx-optee-os/lib/libmpa/mpa_montgomery.c:182
    457a:	9307      	str	r3, [sp, #28]
/home/yin/imx-optee/imx-optee-os/lib/libmpa/mpa_montgomery.c:181
    457c:	9506      	str	r5, [sp, #24]
/home/yin/imx-optee/imx-optee-os/lib/libmpa/mpa_montgomery.c:184
    457e:	f001 fc47 	bl	5e10 <mpa_alloc_static_temp_var>
/home/yin/imx-optee/imx-optee-os/lib/libmpa/mpa_montgomery.c:185
    4582:	4621      	mov	r1, r4
    4584:	4638      	mov	r0, r7
    4586:	f001 fc43 	bl	5e10 <mpa_alloc_static_temp_var>
/home/yin/imx-optee/imx-optee-os/lib/libmpa/mpa_montgomery.c:187
    458a:	4b18      	ldr	r3, [pc, #96]	; (45ec <mpa_compute_fmm_context+0xcc>)
    458c:	2200      	movs	r2, #0
    458e:	9401      	str	r4, [sp, #4]
    4590:	9903      	ldr	r1, [sp, #12]
    4592:	f859 9003 	ldr.w	r9, [r9, r3]
    4596:	ab05      	add	r3, sp, #20
    4598:	9804      	ldr	r0, [sp, #16]
    459a:	f8cd 9000 	str.w	r9, [sp]
    459e:	f001 fb86 	bl	5cae <mpa_extended_gcd>
/home/yin/imx-optee/imx-optee-os/lib/libmpa/mpa_montgomery.c:189
    45a2:	4629      	mov	r1, r5
    45a4:	9804      	ldr	r0, [sp, #16]
    45a6:	f002 f9ea 	bl	697e <mpa_cmp_short>
/home/yin/imx-optee/imx-optee-os/lib/libmpa/mpa_montgomery.c:191
    45aa:	4605      	mov	r5, r0
    45ac:	b960      	cbnz	r0, 45c8 <mpa_compute_fmm_context+0xa8>
/home/yin/imx-optee/imx-optee-os/lib/libmpa/mpa_montgomery.c:207
    45ae:	9903      	ldr	r1, [sp, #12]
    45b0:	684b      	ldr	r3, [r1, #4]
    45b2:	2b00      	cmp	r3, #0
    45b4:	db04      	blt.n	45c0 <mpa_compute_fmm_context+0xa0>
/home/yin/imx-optee/imx-optee-os/lib/libmpa/mpa_montgomery.c:208
    45b6:	4623      	mov	r3, r4
    45b8:	464a      	mov	r2, r9
    45ba:	4608      	mov	r0, r1
    45bc:	f002 f83c 	bl	6638 <mpa_sub>
/home/yin/imx-optee/imx-optee-os/lib/libmpa/mpa_montgomery.c:212
    45c0:	9b03      	ldr	r3, [sp, #12]
    45c2:	689b      	ldr	r3, [r3, #8]
    45c4:	f8c8 3000 	str.w	r3, [r8]
/home/yin/imx-optee/imx-optee-os/lib/libmpa/mpa_montgomery.c:216
    45c8:	4621      	mov	r1, r4
    45ca:	4638      	mov	r0, r7
    45cc:	f001 fc25 	bl	5e1a <mpa_free_static_temp_var>
/home/yin/imx-optee/imx-optee-os/lib/libmpa/mpa_montgomery.c:217
    45d0:	4630      	mov	r0, r6
    45d2:	4621      	mov	r1, r4
    45d4:	f001 fc21 	bl	5e1a <mpa_free_static_temp_var>
/home/yin/imx-optee/imx-optee-os/lib/libmpa/mpa_montgomery.c:219
    45d8:	1c28      	adds	r0, r5, #0
    45da:	bf18      	it	ne
    45dc:	2001      	movne	r0, #1
/home/yin/imx-optee/imx-optee-os/lib/libmpa/mpa_montgomery.c:222
    45de:	4240      	negs	r0, r0
    45e0:	b008      	add	sp, #32
    45e2:	e8bd 87f0 	ldmia.w	sp!, {r4, r5, r6, r7, r8, r9, sl, pc}
    45e6:	bf00      	nop
    45e8:	0000434e 	.word	0x0000434e
    45ec:	00000028 	.word	0x00000028

000045f0 <mpa_montgomery_mul>:
mpa_montgomery_mul():
/home/yin/imx-optee/imx-optee-os/lib/libmpa/mpa_montgomery.c:235
    45f0:	e92d 41ff 	stmdb	sp!, {r0, r1, r2, r3, r4, r5, r6, r7, r8, lr}
/home/yin/imx-optee/imx-optee-os/lib/libmpa/mpa_montgomery.c:238
    45f4:	ac03      	add	r4, sp, #12
/home/yin/imx-optee/imx-optee-os/lib/libmpa/mpa_montgomery.c:235
    45f6:	4605      	mov	r5, r0
    45f8:	460e      	mov	r6, r1
/home/yin/imx-optee/imx-optee-os/lib/libmpa/mpa_montgomery.c:238
    45fa:	4620      	mov	r0, r4
/home/yin/imx-optee/imx-optee-os/lib/libmpa/mpa_montgomery.c:235
    45fc:	4698      	mov	r8, r3
/home/yin/imx-optee/imx-optee-os/lib/libmpa/mpa_montgomery.c:238
    45fe:	990b      	ldr	r1, [sp, #44]	; 0x2c
/home/yin/imx-optee/imx-optee-os/lib/libmpa/mpa_montgomery.c:235
    4600:	4617      	mov	r7, r2
/home/yin/imx-optee/imx-optee-os/lib/libmpa/mpa_montgomery.c:238
    4602:	f001 fc05 	bl	5e10 <mpa_alloc_static_temp_var>
/home/yin/imx-optee/imx-optee-os/lib/libmpa/mpa_montgomery.c:240
    4606:	9b0a      	ldr	r3, [sp, #40]	; 0x28
    4608:	463a      	mov	r2, r7
    460a:	4631      	mov	r1, r6
    460c:	9803      	ldr	r0, [sp, #12]
    460e:	9300      	str	r3, [sp, #0]
    4610:	4643      	mov	r3, r8
    4612:	f7ff ff39 	bl	4488 <__mpa_montgomery_mul>
/home/yin/imx-optee/imx-optee-os/lib/libmpa/mpa_montgomery.c:242
    4616:	9903      	ldr	r1, [sp, #12]
    4618:	4628      	mov	r0, r5
    461a:	f7ff fe7b 	bl	4314 <mpa_copy>
/home/yin/imx-optee/imx-optee-os/lib/libmpa/mpa_montgomery.c:243
    461e:	990b      	ldr	r1, [sp, #44]	; 0x2c
    4620:	4620      	mov	r0, r4
    4622:	f001 fbfa 	bl	5e1a <mpa_free_static_temp_var>
/home/yin/imx-optee/imx-optee-os/lib/libmpa/mpa_montgomery.c:244
    4626:	b004      	add	sp, #16
    4628:	e8bd 81f0 	ldmia.w	sp!, {r4, r5, r6, r7, r8, pc}

0000462c <mpa_is_prob_prime>:
is_small_prime():
/home/yin/imx-optee/imx-optee-os/lib/libmpa/mpa_primetest.c:114
    462c:	6843      	ldr	r3, [r0, #4]
mpa_is_prob_prime():
/home/yin/imx-optee/imx-optee-os/lib/libmpa/mpa_primetest.c:67
    462e:	e92d 4ff0 	stmdb	sp!, {r4, r5, r6, r7, r8, r9, sl, fp, lr}
    4632:	4606      	mov	r6, r0
    4634:	b093      	sub	sp, #76	; 0x4c
    4636:	460f      	mov	r7, r1
is_small_prime():
/home/yin/imx-optee/imx-optee-os/lib/libmpa/mpa_primetest.c:114
    4638:	2b00      	cmp	r3, #0
mpa_is_prob_prime():
/home/yin/imx-optee/imx-optee-os/lib/libmpa/mpa_primetest.c:67
    463a:	4614      	mov	r4, r2
is_small_prime():
/home/yin/imx-optee/imx-optee-os/lib/libmpa/mpa_primetest.c:114
    463c:	bfb8      	it	lt
    463e:	425b      	neglt	r3, r3
    4640:	2b01      	cmp	r3, #1
    4642:	dd09      	ble.n	4658 <mpa_is_prob_prime+0x2c>
/home/yin/imx-optee/imx-optee-os/lib/libmpa/mpa_primetest.c:115
    4644:	f7ff feb6 	bl	43b4 <mpa_parity>
    4648:	2800      	cmp	r0, #0
    464a:	f040 8095 	bne.w	4778 <mpa_is_prob_prime+0x14c>
    464e:	2500      	movs	r5, #0
mpa_is_prob_prime():
/home/yin/imx-optee/imx-optee-os/lib/libmpa/mpa_primetest.c:85
    4650:	4628      	mov	r0, r5
    4652:	b013      	add	sp, #76	; 0x4c
    4654:	e8bd 8ff0 	ldmia.w	sp!, {r4, r5, r6, r7, r8, r9, sl, fp, pc}
is_small_prime():
/home/yin/imx-optee/imx-optee-os/lib/libmpa/mpa_primetest.c:117
    4658:	f000 fe57 	bl	530a <mpa_get_word>
/home/yin/imx-optee/imx-optee-os/lib/libmpa/mpa_primetest.c:118
    465c:	f040 0301 	orr.w	r3, r0, #1
/home/yin/imx-optee/imx-optee-os/lib/libmpa/mpa_primetest.c:117
    4660:	4605      	mov	r5, r0
/home/yin/imx-optee/imx-optee-os/lib/libmpa/mpa_primetest.c:118
    4662:	2b01      	cmp	r3, #1
    4664:	d0f3      	beq.n	464e <mpa_is_prob_prime+0x22>
/home/yin/imx-optee/imx-optee-os/lib/libmpa/mpa_primetest.c:120
    4666:	2802      	cmp	r0, #2
    4668:	f000 8084 	beq.w	4774 <mpa_is_prob_prime+0x148>
/home/yin/imx-optee/imx-optee-os/lib/libmpa/mpa_primetest.c:122
    466c:	07c1      	lsls	r1, r0, #31
    466e:	d5ee      	bpl.n	464e <mpa_is_prob_prime+0x22>
/home/yin/imx-optee/imx-optee-os/lib/libmpa/mpa_primetest.c:126
    4670:	f24c 314f 	movw	r1, #49999	; 0xc34f
    4674:	4630      	mov	r0, r6
    4676:	f002 f982 	bl	697e <mpa_cmp_short>
    467a:	2800      	cmp	r0, #0
    467c:	dc7c      	bgt.n	4778 <mpa_is_prob_prime+0x14c>
check_table():
/home/yin/imx-optee/imx-optee-os/lib/libmpa/mpa_primetest.c:95
    467e:	4b85      	ldr	r3, [pc, #532]	; (4894 <mpa_is_prob_prime+0x268>)
is_small_prime():
/home/yin/imx-optee/imx-optee-os/lib/libmpa/mpa_primetest.c:128
    4680:	3d03      	subs	r5, #3
check_table():
/home/yin/imx-optee/imx-optee-os/lib/libmpa/mpa_primetest.c:95
    4682:	09aa      	lsrs	r2, r5, #6
    4684:	f3c5 0544 	ubfx	r5, r5, #1, #5
    4688:	447b      	add	r3, pc
    468a:	f853 3022 	ldr.w	r3, [r3, r2, lsl #2]
    468e:	fa23 f505 	lsr.w	r5, r3, r5
    4692:	f005 0501 	and.w	r5, r5, #1
    4696:	e7db      	b.n	4650 <mpa_is_prob_prime+0x24>
primality_test_miller_rabin():
/home/yin/imx-optee/imx-optee-os/lib/libmpa/mpa_primetest.c:206
    4698:	990c      	ldr	r1, [sp, #48]	; 0x30
    469a:	2201      	movs	r2, #1
/home/yin/imx-optee/imx-optee-os/lib/libmpa/mpa_primetest.c:207
    469c:	f109 0901 	add.w	r9, r9, #1
/home/yin/imx-optee/imx-optee-os/lib/libmpa/mpa_primetest.c:206
    46a0:	4608      	mov	r0, r1
    46a2:	f001 fde9 	bl	6278 <mpa_shift_right>
    46a6:	e0c7      	b.n	4838 <mpa_is_prob_prime+0x20c>
/home/yin/imx-optee/imx-optee-os/lib/libmpa/mpa_primetest.c:212
    46a8:	9b05      	ldr	r3, [sp, #20]
    46aa:	2b00      	cmp	r3, #0
    46ac:	da27      	bge.n	46fe <mpa_is_prob_prime+0xd2>
/home/yin/imx-optee/imx-optee-os/lib/libmpa/mpa_primetest.c:213
    46ae:	4b7a      	ldr	r3, [pc, #488]	; (4898 <mpa_is_prob_prime+0x26c>)
    46b0:	980b      	ldr	r0, [sp, #44]	; 0x2c
    46b2:	447b      	add	r3, pc
    46b4:	f603 4348 	addw	r3, r3, #3144	; 0xc48
    46b8:	f853 1028 	ldr.w	r1, [r3, r8, lsl #2]
    46bc:	f000 fdf0 	bl	52a0 <mpa_set_S32>
/home/yin/imx-optee/imx-optee-os/lib/libmpa/mpa_primetest.c:214
    46c0:	990b      	ldr	r1, [sp, #44]	; 0x2c
    46c2:	4630      	mov	r0, r6
    46c4:	f002 f938 	bl	6938 <mpa_cmp>
    46c8:	2800      	cmp	r0, #0
    46ca:	d04a      	beq.n	4762 <mpa_is_prob_prime+0x136>
/home/yin/imx-optee/imx-optee-os/lib/libmpa/mpa_primetest.c:232
    46cc:	9b11      	ldr	r3, [sp, #68]	; 0x44
/home/yin/imx-optee/imx-optee-os/lib/libmpa/mpa_primetest.c:233
    46ce:	2700      	movs	r7, #0
/home/yin/imx-optee/imx-optee-os/lib/libmpa/mpa_primetest.c:232
    46d0:	9403      	str	r4, [sp, #12]
    46d2:	9a0c      	ldr	r2, [sp, #48]	; 0x30
    46d4:	9302      	str	r3, [sp, #8]
    46d6:	9b10      	ldr	r3, [sp, #64]	; 0x40
    46d8:	990b      	ldr	r1, [sp, #44]	; 0x2c
    46da:	980e      	ldr	r0, [sp, #56]	; 0x38
    46dc:	9301      	str	r3, [sp, #4]
    46de:	9b0f      	ldr	r3, [sp, #60]	; 0x3c
    46e0:	9300      	str	r3, [sp, #0]
    46e2:	4633      	mov	r3, r6
    46e4:	f000 f8de 	bl	48a4 <mpa_exp_mod>
/home/yin/imx-optee/imx-optee-os/lib/libmpa/mpa_primetest.c:236
    46e8:	2101      	movs	r1, #1
    46ea:	980e      	ldr	r0, [sp, #56]	; 0x38
    46ec:	f002 f947 	bl	697e <mpa_cmp_short>
/home/yin/imx-optee/imx-optee-os/lib/libmpa/mpa_primetest.c:237
    46f0:	4603      	mov	r3, r0
    46f2:	b9d8      	cbnz	r0, 472c <mpa_is_prob_prime+0x100>
    46f4:	b1d7      	cbz	r7, 472c <mpa_is_prob_prime+0x100>
/home/yin/imx-optee/imx-optee-os/lib/libmpa/mpa_primetest.c:238
    46f6:	2500      	movs	r5, #0
/home/yin/imx-optee/imx-optee-os/lib/libmpa/mpa_primetest.c:211
    46f8:	f108 0801 	add.w	r8, r8, #1
    46fc:	e0ab      	b.n	4856 <mpa_is_prob_prime+0x22a>
/home/yin/imx-optee/imx-optee-os/lib/libmpa/mpa_primetest.c:224
    46fe:	990d      	ldr	r1, [sp, #52]	; 0x34
    4700:	4623      	mov	r3, r4
    4702:	2201      	movs	r2, #1
    4704:	4608      	mov	r0, r1
    4706:	f002 f880 	bl	680a <mpa_sub_word>
/home/yin/imx-optee/imx-optee-os/lib/libmpa/mpa_primetest.c:226
    470a:	990d      	ldr	r1, [sp, #52]	; 0x34
    470c:	980b      	ldr	r0, [sp, #44]	; 0x2c
    470e:	f001 fc86 	bl	601e <mpa_get_random>
/home/yin/imx-optee/imx-optee-os/lib/libmpa/mpa_primetest.c:227
    4712:	990d      	ldr	r1, [sp, #52]	; 0x34
    4714:	4623      	mov	r3, r4
    4716:	2201      	movs	r2, #1
    4718:	4608      	mov	r0, r1
    471a:	f002 f817 	bl	674c <mpa_add_word>
/home/yin/imx-optee/imx-optee-os/lib/libmpa/mpa_primetest.c:229
    471e:	990b      	ldr	r1, [sp, #44]	; 0x2c
    4720:	4623      	mov	r3, r4
    4722:	2202      	movs	r2, #2
    4724:	4608      	mov	r0, r1
    4726:	f002 f811 	bl	674c <mpa_add_word>
    472a:	e7cf      	b.n	46cc <mpa_is_prob_prime+0xa0>
/home/yin/imx-optee/imx-optee-os/lib/libmpa/mpa_primetest.c:242
    472c:	990d      	ldr	r1, [sp, #52]	; 0x34
    472e:	980e      	ldr	r0, [sp, #56]	; 0x38
    4730:	9309      	str	r3, [sp, #36]	; 0x24
    4732:	f002 f901 	bl	6938 <mpa_cmp>
    4736:	2800      	cmp	r0, #0
    4738:	d0de      	beq.n	46f8 <mpa_is_prob_prime+0xcc>
    473a:	9b09      	ldr	r3, [sp, #36]	; 0x24
    473c:	433b      	orrs	r3, r7
    473e:	d0db      	beq.n	46f8 <mpa_is_prob_prime+0xcc>
/home/yin/imx-optee/imx-optee-os/lib/libmpa/mpa_primetest.c:248
    4740:	3701      	adds	r7, #1
/home/yin/imx-optee/imx-optee-os/lib/libmpa/mpa_primetest.c:249
    4742:	45b9      	cmp	r9, r7
    4744:	ddd7      	ble.n	46f6 <mpa_is_prob_prime+0xca>
/home/yin/imx-optee/imx-optee-os/lib/libmpa/mpa_primetest.c:250
    4746:	9b11      	ldr	r3, [sp, #68]	; 0x44
    4748:	990e      	ldr	r1, [sp, #56]	; 0x38
    474a:	9403      	str	r4, [sp, #12]
    474c:	9302      	str	r3, [sp, #8]
    474e:	9b10      	ldr	r3, [sp, #64]	; 0x40
    4750:	4608      	mov	r0, r1
    4752:	9a08      	ldr	r2, [sp, #32]
    4754:	9301      	str	r3, [sp, #4]
    4756:	9b0f      	ldr	r3, [sp, #60]	; 0x3c
    4758:	9300      	str	r3, [sp, #0]
    475a:	4633      	mov	r3, r6
    475c:	f000 f8a2 	bl	48a4 <mpa_exp_mod>
    4760:	e7c2      	b.n	46e8 <mpa_is_prob_prime+0xbc>
/home/yin/imx-optee/imx-optee-os/lib/libmpa/mpa_primetest.c:215
    4762:	2501      	movs	r5, #1
    4764:	e7c8      	b.n	46f8 <mpa_is_prob_prime+0xcc>
/home/yin/imx-optee/imx-optee-os/lib/libmpa/mpa_primetest.c:257
    4766:	1c6b      	adds	r3, r5, #1
    4768:	d17b      	bne.n	4862 <mpa_is_prob_prime+0x236>
/home/yin/imx-optee/imx-optee-os/lib/libmpa/mpa_primetest.c:258
    476a:	9b05      	ldr	r3, [sp, #20]
    476c:	2b00      	cmp	r3, #0
    476e:	bfb8      	it	lt
    4770:	2501      	movlt	r5, #1
    4772:	e076      	b.n	4862 <mpa_is_prob_prime+0x236>
is_small_prime():
/home/yin/imx-optee/imx-optee-os/lib/libmpa/mpa_primetest.c:121
    4774:	2501      	movs	r5, #1
mpa_is_prob_prime():
/home/yin/imx-optee/imx-optee-os/lib/libmpa/mpa_primetest.c:84
    4776:	e76b      	b.n	4650 <mpa_is_prob_prime+0x24>
has_small_factors():
/home/yin/imx-optee/imx-optee-os/lib/libmpa/mpa_primetest.c:149
    4778:	f8df 9120 	ldr.w	r9, [pc, #288]	; 489c <mpa_is_prob_prime+0x270>
/home/yin/imx-optee/imx-optee-os/lib/libmpa/mpa_primetest.c:148
    477c:	f10d 0844 	add.w	r8, sp, #68	; 0x44
    4780:	4621      	mov	r1, r4
    4782:	4640      	mov	r0, r8
    4784:	f001 fb44 	bl	5e10 <mpa_alloc_static_temp_var>
/home/yin/imx-optee/imx-optee-os/lib/libmpa/mpa_primetest.c:149
    4788:	44f9      	add	r9, pc
    478a:	4623      	mov	r3, r4
    478c:	f509 6247 	add.w	r2, r9, #3184	; 0xc70
    4790:	4631      	mov	r1, r6
    4792:	9811      	ldr	r0, [sp, #68]	; 0x44
    4794:	f001 fa36 	bl	5c04 <mpa_gcd>
/home/yin/imx-optee/imx-optee-os/lib/libmpa/mpa_primetest.c:150
    4798:	2101      	movs	r1, #1
    479a:	9811      	ldr	r0, [sp, #68]	; 0x44
    479c:	f002 f8ef 	bl	697e <mpa_cmp_short>
    47a0:	4605      	mov	r5, r0
/home/yin/imx-optee/imx-optee-os/lib/libmpa/mpa_primetest.c:151
    47a2:	4621      	mov	r1, r4
    47a4:	4640      	mov	r0, r8
    47a6:	f001 fb38 	bl	5e1a <mpa_free_static_temp_var>
mpa_is_prob_prime():
/home/yin/imx-optee/imx-optee-os/lib/libmpa/mpa_primetest.c:76
    47aa:	2d00      	cmp	r5, #0
    47ac:	f47f af4f 	bne.w	464e <mpa_is_prob_prime+0x22>
primality_test_miller_rabin():
/home/yin/imx-optee/imx-optee-os/lib/libmpa/mpa_primetest.c:180
    47b0:	f10d 0a3c 	add.w	sl, sp, #60	; 0x3c
    47b4:	4621      	mov	r1, r4
    47b6:	4650      	mov	r0, sl
    47b8:	f001 fb2a 	bl	5e10 <mpa_alloc_static_temp_var>
/home/yin/imx-optee/imx-optee-os/lib/libmpa/mpa_primetest.c:181
    47bc:	ab10      	add	r3, sp, #64	; 0x40
    47be:	4621      	mov	r1, r4
    47c0:	4618      	mov	r0, r3
    47c2:	9307      	str	r3, [sp, #28]
    47c4:	f001 fb24 	bl	5e10 <mpa_alloc_static_temp_var>
/home/yin/imx-optee/imx-optee-os/lib/libmpa/mpa_primetest.c:183
    47c8:	9400      	str	r4, [sp, #0]
    47ca:	4643      	mov	r3, r8
    47cc:	9a10      	ldr	r2, [sp, #64]	; 0x40
    47ce:	4630      	mov	r0, r6
    47d0:	990f      	ldr	r1, [sp, #60]	; 0x3c
    47d2:	f7ff fea5 	bl	4520 <mpa_compute_fmm_context>
    47d6:	3001      	adds	r0, #1
    47d8:	d053      	beq.n	4882 <mpa_is_prob_prime+0x256>
/home/yin/imx-optee/imx-optee-os/lib/libmpa/mpa_primetest.c:188
    47da:	f10d 0b2c 	add.w	fp, sp, #44	; 0x2c
    47de:	4621      	mov	r1, r4
    47e0:	4658      	mov	r0, fp
    47e2:	f001 fb15 	bl	5e10 <mpa_alloc_static_temp_var>
/home/yin/imx-optee/imx-optee-os/lib/libmpa/mpa_primetest.c:189
    47e6:	4621      	mov	r1, r4
    47e8:	a80c      	add	r0, sp, #48	; 0x30
    47ea:	f001 fb11 	bl	5e10 <mpa_alloc_static_temp_var>
/home/yin/imx-optee/imx-optee-os/lib/libmpa/mpa_primetest.c:190
    47ee:	4621      	mov	r1, r4
    47f0:	a80d      	add	r0, sp, #52	; 0x34
    47f2:	f001 fb0d 	bl	5e10 <mpa_alloc_static_temp_var>
/home/yin/imx-optee/imx-optee-os/lib/libmpa/mpa_primetest.c:191
    47f6:	4621      	mov	r1, r4
    47f8:	a80e      	add	r0, sp, #56	; 0x38
    47fa:	f001 fb09 	bl	5e10 <mpa_alloc_static_temp_var>
/home/yin/imx-optee/imx-optee-os/lib/libmpa/mpa_primetest.c:194
    47fe:	f609 4138 	addw	r1, r9, #3128	; 0xc38
    4802:	4630      	mov	r0, r6
    4804:	f002 f898 	bl	6938 <mpa_cmp>
/home/yin/imx-optee/imx-optee-os/lib/libmpa/mpa_primetest.c:196
    4808:	1e03      	subs	r3, r0, #0
/home/yin/imx-optee/imx-optee-os/lib/libmpa/mpa_primetest.c:201
    480a:	f04f 0201 	mov.w	r2, #1
/home/yin/imx-optee/imx-optee-os/lib/libmpa/mpa_primetest.c:199
    480e:	bfa8      	it	ge
    4810:	1c79      	addge	r1, r7, #1
/home/yin/imx-optee/imx-optee-os/lib/libmpa/mpa_primetest.c:196
    4812:	9305      	str	r3, [sp, #20]
/home/yin/imx-optee/imx-optee-os/lib/libmpa/mpa_primetest.c:199
    4814:	bfac      	ite	ge
    4816:	eb01 71d1 	addge.w	r1, r1, r1, lsr #31
/home/yin/imx-optee/imx-optee-os/lib/libmpa/mpa_primetest.c:197
    481a:	2307      	movlt	r3, #7
/home/yin/imx-optee/imx-optee-os/lib/libmpa/mpa_primetest.c:201
    481c:	980d      	ldr	r0, [sp, #52]	; 0x34
/home/yin/imx-optee/imx-optee-os/lib/libmpa/mpa_primetest.c:203
    481e:	f04f 0900 	mov.w	r9, #0
/home/yin/imx-optee/imx-optee-os/lib/libmpa/mpa_primetest.c:199
    4822:	bfa8      	it	ge
    4824:	104b      	asrge	r3, r1, #1
/home/yin/imx-optee/imx-optee-os/lib/libmpa/mpa_primetest.c:201
    4826:	4631      	mov	r1, r6
/home/yin/imx-optee/imx-optee-os/lib/libmpa/mpa_primetest.c:197
    4828:	9306      	str	r3, [sp, #24]
/home/yin/imx-optee/imx-optee-os/lib/libmpa/mpa_primetest.c:201
    482a:	4623      	mov	r3, r4
    482c:	f001 ffed 	bl	680a <mpa_sub_word>
/home/yin/imx-optee/imx-optee-os/lib/libmpa/mpa_primetest.c:202
    4830:	990d      	ldr	r1, [sp, #52]	; 0x34
    4832:	980c      	ldr	r0, [sp, #48]	; 0x30
    4834:	f7ff fd6e 	bl	4314 <mpa_copy>
/home/yin/imx-optee/imx-optee-os/lib/libmpa/mpa_primetest.c:205
    4838:	980c      	ldr	r0, [sp, #48]	; 0x30
    483a:	f7ff fdbb 	bl	43b4 <mpa_parity>
    483e:	2800      	cmp	r0, #0
    4840:	f43f af2a 	beq.w	4698 <mpa_is_prob_prime+0x6c>
/home/yin/imx-optee/imx-optee-os/lib/libmpa/mpa_primetest.c:250
    4844:	4b16      	ldr	r3, [pc, #88]	; (48a0 <mpa_is_prob_prime+0x274>)
/home/yin/imx-optee/imx-optee-os/lib/libmpa/mpa_primetest.c:205
    4846:	f04f 0800 	mov.w	r8, #0
    484a:	f04f 35ff 	mov.w	r5, #4294967295	; 0xffffffff
/home/yin/imx-optee/imx-optee-os/lib/libmpa/mpa_primetest.c:250
    484e:	447b      	add	r3, pc
    4850:	f603 4364 	addw	r3, r3, #3172	; 0xc64
    4854:	9308      	str	r3, [sp, #32]
/home/yin/imx-optee/imx-optee-os/lib/libmpa/mpa_primetest.c:211
    4856:	9b06      	ldr	r3, [sp, #24]
    4858:	4598      	cmp	r8, r3
    485a:	da84      	bge.n	4766 <mpa_is_prob_prime+0x13a>
    485c:	1c6a      	adds	r2, r5, #1
    485e:	f43f af23 	beq.w	46a8 <mpa_is_prob_prime+0x7c>
/home/yin/imx-optee/imx-optee-os/lib/libmpa/mpa_primetest.c:260
    4862:	4621      	mov	r1, r4
    4864:	4658      	mov	r0, fp
    4866:	f001 fad8 	bl	5e1a <mpa_free_static_temp_var>
/home/yin/imx-optee/imx-optee-os/lib/libmpa/mpa_primetest.c:261
    486a:	4621      	mov	r1, r4
    486c:	a80c      	add	r0, sp, #48	; 0x30
    486e:	f001 fad4 	bl	5e1a <mpa_free_static_temp_var>
/home/yin/imx-optee/imx-optee-os/lib/libmpa/mpa_primetest.c:262
    4872:	4621      	mov	r1, r4
    4874:	a80d      	add	r0, sp, #52	; 0x34
    4876:	f001 fad0 	bl	5e1a <mpa_free_static_temp_var>
/home/yin/imx-optee/imx-optee-os/lib/libmpa/mpa_primetest.c:263
    487a:	4621      	mov	r1, r4
    487c:	a80e      	add	r0, sp, #56	; 0x38
    487e:	f001 facc 	bl	5e1a <mpa_free_static_temp_var>
/home/yin/imx-optee/imx-optee-os/lib/libmpa/mpa_primetest.c:265
    4882:	4621      	mov	r1, r4
    4884:	4650      	mov	r0, sl
    4886:	f001 fac8 	bl	5e1a <mpa_free_static_temp_var>
/home/yin/imx-optee/imx-optee-os/lib/libmpa/mpa_primetest.c:266
    488a:	4621      	mov	r1, r4
    488c:	9807      	ldr	r0, [sp, #28]
    488e:	f001 fac4 	bl	5e1a <mpa_free_static_temp_var>
    4892:	e6dd      	b.n	4650 <mpa_is_prob_prime+0x24>
    4894:	00002598 	.word	0x00002598
    4898:	0000256e 	.word	0x0000256e
    489c:	00002498 	.word	0x00002498
    48a0:	000023d2 	.word	0x000023d2

000048a4 <mpa_exp_mod>:
mpa_exp_mod():
/home/yin/imx-optee/imx-optee-os/lib/libmpa/mpa_expmod.c:29
    48a4:	e92d 4ff0 	stmdb	sp!, {r4, r5, r6, r7, r8, r9, sl, fp, lr}
    48a8:	4698      	mov	r8, r3
    48aa:	4b41      	ldr	r3, [pc, #260]	; (49b0 <mpa_exp_mod+0x10c>)
    48ac:	b08b      	sub	sp, #44	; 0x2c
/home/yin/imx-optee/imx-optee-os/lib/libmpa/mpa_expmod.c:40
    48ae:	f10d 0b18 	add.w	fp, sp, #24
/home/yin/imx-optee/imx-optee-os/lib/libmpa/mpa_expmod.c:29
    48b2:	460e      	mov	r6, r1
    48b4:	9005      	str	r0, [sp, #20]
/home/yin/imx-optee/imx-optee-os/lib/libmpa/mpa_expmod.c:41
    48b6:	f10d 091c 	add.w	r9, sp, #28
/home/yin/imx-optee/imx-optee-os/lib/libmpa/mpa_expmod.c:29
    48ba:	447b      	add	r3, pc
/home/yin/imx-optee/imx-optee-os/lib/libmpa/mpa_expmod.c:40
    48bc:	9917      	ldr	r1, [sp, #92]	; 0x5c
    48be:	4658      	mov	r0, fp
/home/yin/imx-optee/imx-optee-os/lib/libmpa/mpa_expmod.c:29
    48c0:	9203      	str	r2, [sp, #12]
    48c2:	9304      	str	r3, [sp, #16]
/home/yin/imx-optee/imx-optee-os/lib/libmpa/mpa_expmod.c:42
    48c4:	ac08      	add	r4, sp, #32
/home/yin/imx-optee/imx-optee-os/lib/libmpa/mpa_expmod.c:40
    48c6:	f001 faa3 	bl	5e10 <mpa_alloc_static_temp_var>
/home/yin/imx-optee/imx-optee-os/lib/libmpa/mpa_expmod.c:41
    48ca:	9917      	ldr	r1, [sp, #92]	; 0x5c
    48cc:	4648      	mov	r0, r9
    48ce:	f001 fa9f 	bl	5e10 <mpa_alloc_static_temp_var>
/home/yin/imx-optee/imx-optee-os/lib/libmpa/mpa_expmod.c:43
    48d2:	ad09      	add	r5, sp, #36	; 0x24
/home/yin/imx-optee/imx-optee-os/lib/libmpa/mpa_expmod.c:42
    48d4:	9917      	ldr	r1, [sp, #92]	; 0x5c
    48d6:	4620      	mov	r0, r4
/home/yin/imx-optee/imx-optee-os/lib/libmpa/mpa_expmod.c:53
    48d8:	465f      	mov	r7, fp
/home/yin/imx-optee/imx-optee-os/lib/libmpa/mpa_expmod.c:42
    48da:	f001 fa99 	bl	5e10 <mpa_alloc_static_temp_var>
/home/yin/imx-optee/imx-optee-os/lib/libmpa/mpa_expmod.c:43
    48de:	9917      	ldr	r1, [sp, #92]	; 0x5c
    48e0:	4628      	mov	r0, r5
    48e2:	f001 fa95 	bl	5e10 <mpa_alloc_static_temp_var>
/home/yin/imx-optee/imx-optee-os/lib/libmpa/mpa_expmod.c:49
    48e6:	9b16      	ldr	r3, [sp, #88]	; 0x58
    48e8:	4631      	mov	r1, r6
    48ea:	9a15      	ldr	r2, [sp, #84]	; 0x54
/home/yin/imx-optee/imx-optee-os/lib/libmpa/mpa_expmod.c:54
    48ec:	464e      	mov	r6, r9
/home/yin/imx-optee/imx-optee-os/lib/libmpa/mpa_expmod.c:49
    48ee:	9808      	ldr	r0, [sp, #32]
    48f0:	9300      	str	r3, [sp, #0]
    48f2:	4643      	mov	r3, r8
    48f4:	f7ff fdc8 	bl	4488 <__mpa_montgomery_mul>
/home/yin/imx-optee/imx-optee-os/lib/libmpa/mpa_expmod.c:51
    48f8:	9914      	ldr	r1, [sp, #80]	; 0x50
    48fa:	9806      	ldr	r0, [sp, #24]
    48fc:	f7ff fd0a 	bl	4314 <mpa_copy>
/home/yin/imx-optee/imx-optee-os/lib/libmpa/mpa_expmod.c:58
    4900:	9806      	ldr	r0, [sp, #24]
    4902:	f7ff fcef 	bl	42e4 <__mpa_set_unused_digits_to_zero>
/home/yin/imx-optee/imx-optee-os/lib/libmpa/mpa_expmod.c:59
    4906:	9808      	ldr	r0, [sp, #32]
    4908:	f7ff fcec 	bl	42e4 <__mpa_set_unused_digits_to_zero>
/home/yin/imx-optee/imx-optee-os/lib/libmpa/mpa_expmod.c:61
    490c:	9803      	ldr	r0, [sp, #12]
    490e:	f7ff fd1c 	bl	434a <mpa_highest_bit_index>
    4912:	4682      	mov	sl, r0
/home/yin/imx-optee/imx-optee-os/lib/libmpa/mpa_expmod.c:61 (discriminator 1)
    4914:	f1ba 0f00 	cmp.w	sl, #0
    4918:	da22      	bge.n	4960 <mpa_exp_mod+0xbc>
/home/yin/imx-optee/imx-optee-os/lib/libmpa/mpa_expmod.c:89
    491a:	9a04      	ldr	r2, [sp, #16]
    491c:	4b25      	ldr	r3, [pc, #148]	; (49b4 <mpa_exp_mod+0x110>)
    491e:	58d3      	ldr	r3, [r2, r3]
    4920:	9303      	str	r3, [sp, #12]
    4922:	9b16      	ldr	r3, [sp, #88]	; 0x58
    4924:	9903      	ldr	r1, [sp, #12]
    4926:	9300      	str	r3, [sp, #0]
    4928:	4643      	mov	r3, r8
    492a:	683a      	ldr	r2, [r7, #0]
    492c:	6830      	ldr	r0, [r6, #0]
    492e:	f7ff fdab 	bl	4488 <__mpa_montgomery_mul>
/home/yin/imx-optee/imx-optee-os/lib/libmpa/mpa_expmod.c:92
    4932:	6831      	ldr	r1, [r6, #0]
    4934:	9805      	ldr	r0, [sp, #20]
    4936:	f7ff fced 	bl	4314 <mpa_copy>
/home/yin/imx-optee/imx-optee-os/lib/libmpa/mpa_expmod.c:94
    493a:	9917      	ldr	r1, [sp, #92]	; 0x5c
    493c:	4658      	mov	r0, fp
    493e:	f001 fa6c 	bl	5e1a <mpa_free_static_temp_var>
/home/yin/imx-optee/imx-optee-os/lib/libmpa/mpa_expmod.c:95
    4942:	9917      	ldr	r1, [sp, #92]	; 0x5c
    4944:	4648      	mov	r0, r9
    4946:	f001 fa68 	bl	5e1a <mpa_free_static_temp_var>
/home/yin/imx-optee/imx-optee-os/lib/libmpa/mpa_expmod.c:96
    494a:	9917      	ldr	r1, [sp, #92]	; 0x5c
    494c:	a808      	add	r0, sp, #32
    494e:	f001 fa64 	bl	5e1a <mpa_free_static_temp_var>
/home/yin/imx-optee/imx-optee-os/lib/libmpa/mpa_expmod.c:97
    4952:	9917      	ldr	r1, [sp, #92]	; 0x5c
    4954:	a809      	add	r0, sp, #36	; 0x24
    4956:	f001 fa60 	bl	5e1a <mpa_free_static_temp_var>
/home/yin/imx-optee/imx-optee-os/lib/libmpa/mpa_expmod.c:98
    495a:	b00b      	add	sp, #44	; 0x2c
    495c:	e8bd 8ff0 	ldmia.w	sp!, {r4, r5, r6, r7, r8, r9, sl, fp, pc}
/home/yin/imx-optee/imx-optee-os/lib/libmpa/mpa_expmod.c:62
    4960:	4651      	mov	r1, sl
    4962:	9803      	ldr	r0, [sp, #12]
    4964:	f7ff fd06 	bl	4374 <mpa_get_bit>
/home/yin/imx-optee/imx-optee-os/lib/libmpa/mpa_expmod.c:64
    4968:	9b16      	ldr	r3, [sp, #88]	; 0x58
    496a:	9300      	str	r3, [sp, #0]
    496c:	4643      	mov	r3, r8
    496e:	6822      	ldr	r2, [r4, #0]
    4970:	6839      	ldr	r1, [r7, #0]
/home/yin/imx-optee/imx-optee-os/lib/libmpa/mpa_expmod.c:62
    4972:	b998      	cbnz	r0, 499c <mpa_exp_mod+0xf8>
/home/yin/imx-optee/imx-optee-os/lib/libmpa/mpa_expmod.c:64
    4974:	6828      	ldr	r0, [r5, #0]
    4976:	f7ff fd87 	bl	4488 <__mpa_montgomery_mul>
/home/yin/imx-optee/imx-optee-os/lib/libmpa/mpa_expmod.c:68
    497a:	9b16      	ldr	r3, [sp, #88]	; 0x58
    497c:	683a      	ldr	r2, [r7, #0]
    497e:	9300      	str	r3, [sp, #0]
    4980:	4643      	mov	r3, r8
    4982:	6830      	ldr	r0, [r6, #0]
    4984:	4611      	mov	r1, r2
/home/yin/imx-optee/imx-optee-os/lib/libmpa/mpa_expmod.c:76
    4986:	f7ff fd7f 	bl	4488 <__mpa_montgomery_mul>
/home/yin/imx-optee/imx-optee-os/lib/libmpa/mpa_expmod.c:61
    498a:	4623      	mov	r3, r4
    498c:	462c      	mov	r4, r5
    498e:	461d      	mov	r5, r3
    4990:	463b      	mov	r3, r7
    4992:	f10a 3aff 	add.w	sl, sl, #4294967295	; 0xffffffff
    4996:	4637      	mov	r7, r6
    4998:	461e      	mov	r6, r3
    499a:	e7bb      	b.n	4914 <mpa_exp_mod+0x70>
/home/yin/imx-optee/imx-optee-os/lib/libmpa/mpa_expmod.c:72
    499c:	6830      	ldr	r0, [r6, #0]
    499e:	f7ff fd73 	bl	4488 <__mpa_montgomery_mul>
/home/yin/imx-optee/imx-optee-os/lib/libmpa/mpa_expmod.c:76
    49a2:	6822      	ldr	r2, [r4, #0]
    49a4:	9b16      	ldr	r3, [sp, #88]	; 0x58
    49a6:	4611      	mov	r1, r2
    49a8:	9300      	str	r3, [sp, #0]
    49aa:	4643      	mov	r3, r8
    49ac:	6828      	ldr	r0, [r5, #0]
    49ae:	e7ea      	b.n	4986 <mpa_exp_mod+0xe2>
    49b0:	00003fd6 	.word	0x00003fd6
    49b4:	00000010 	.word	0x00000010

000049b8 <__mpa_word_to_hexstr>:
__mpa_word_to_hexstr():
/home/yin/imx-optee/imx-optee-os/lib/libmpa/mpa_io.c:107
    49b8:	b510      	push	{r4, lr}
    49ba:	3008      	adds	r0, #8
    49bc:	241c      	movs	r4, #28
/home/yin/imx-optee/imx-optee-os/lib/libmpa/mpa_io.c:111 (discriminator 3)
    49be:	fa21 f304 	lsr.w	r3, r1, r4
    49c2:	f003 030f 	and.w	r3, r3, #15
__mpa_nibble_to_char():
/home/yin/imx-optee/imx-optee-os/lib/libmpa/mpa_io.c:96 (discriminator 3)
    49c6:	2b09      	cmp	r3, #9
    49c8:	d806      	bhi.n	49d8 <__mpa_word_to_hexstr+0x20>
/home/yin/imx-optee/imx-optee-os/lib/libmpa/mpa_io.c:97
    49ca:	3330      	adds	r3, #48	; 0x30
    49cc:	3c04      	subs	r4, #4
__mpa_word_to_hexstr():
/home/yin/imx-optee/imx-optee-os/lib/libmpa/mpa_io.c:110
    49ce:	f800 3d01 	strb.w	r3, [r0, #-1]!
/home/yin/imx-optee/imx-optee-os/lib/libmpa/mpa_io.c:109
    49d2:	1d23      	adds	r3, r4, #4
    49d4:	d1f3      	bne.n	49be <__mpa_word_to_hexstr+0x6>
/home/yin/imx-optee/imx-optee-os/lib/libmpa/mpa_io.c:113
    49d6:	bd10      	pop	{r4, pc}
__mpa_nibble_to_char():
/home/yin/imx-optee/imx-optee-os/lib/libmpa/mpa_io.c:98
    49d8:	b90a      	cbnz	r2, 49de <__mpa_word_to_hexstr+0x26>
    49da:	3337      	adds	r3, #55	; 0x37
    49dc:	e7f6      	b.n	49cc <__mpa_word_to_hexstr+0x14>
    49de:	3357      	adds	r3, #87	; 0x57
    49e0:	e7f4      	b.n	49cc <__mpa_word_to_hexstr+0x14>

000049e2 <__mpa_mpanum_to_hexstr>:
__mpa_mpanum_to_hexstr():
/home/yin/imx-optee/imx-optee-os/lib/libmpa/mpa_io.c:121
    49e2:	e92d 47f3 	stmdb	sp!, {r0, r1, r4, r5, r6, r7, r8, r9, sl, lr}
    49e6:	4604      	mov	r4, r0
/home/yin/imx-optee/imx-optee-os/lib/libmpa/mpa_io.c:129
    49e8:	6856      	ldr	r6, [r2, #4]
/home/yin/imx-optee/imx-optee-os/lib/libmpa/mpa_io.c:121
    49ea:	4688      	mov	r8, r1
    49ec:	4617      	mov	r7, r2
/home/yin/imx-optee/imx-optee-os/lib/libmpa/mpa_io.c:130
    49ee:	b936      	cbnz	r6, 49fe <__mpa_mpanum_to_hexstr+0x1c>
/home/yin/imx-optee/imx-optee-os/lib/libmpa/mpa_io.c:131
    49f0:	2330      	movs	r3, #48	; 0x30
/home/yin/imx-optee/imx-optee-os/lib/libmpa/mpa_io.c:132
    49f2:	7046      	strb	r6, [r0, #1]
/home/yin/imx-optee/imx-optee-os/lib/libmpa/mpa_io.c:131
    49f4:	7003      	strb	r3, [r0, #0]
/home/yin/imx-optee/imx-optee-os/lib/libmpa/mpa_io.c:133
    49f6:	2001      	movs	r0, #1
/home/yin/imx-optee/imx-optee-os/lib/libmpa/mpa_io.c:163
    49f8:	b002      	add	sp, #8
    49fa:	e8bd 87f0 	ldmia.w	sp!, {r4, r5, r6, r7, r8, r9, sl, pc}
/home/yin/imx-optee/imx-optee-os/lib/libmpa/mpa_io.c:129
    49fe:	2e00      	cmp	r6, #0
/home/yin/imx-optee/imx-optee-os/lib/libmpa/mpa_io.c:141
    4a00:	460a      	mov	r2, r1
/home/yin/imx-optee/imx-optee-os/lib/libmpa/mpa_io.c:129
    4a02:	bfb8      	it	lt
    4a04:	4276      	neglt	r6, r6
/home/yin/imx-optee/imx-optee-os/lib/libmpa/mpa_io.c:141
    4a06:	4668      	mov	r0, sp
    4a08:	1c73      	adds	r3, r6, #1
    4a0a:	46e9      	mov	r9, sp
    4a0c:	f857 1023 	ldr.w	r1, [r7, r3, lsl #2]
    4a10:	f7ff ffd2 	bl	49b8 <__mpa_word_to_hexstr>
/home/yin/imx-optee/imx-optee-os/lib/libmpa/mpa_io.c:144
    4a14:	2308      	movs	r3, #8
/home/yin/imx-optee/imx-optee-os/lib/libmpa/mpa_io.c:145
    4a16:	f113 33ff 	adds.w	r3, r3, #4294967295	; 0xffffffff
    4a1a:	d20b      	bcs.n	4a34 <__mpa_mpanum_to_hexstr+0x52>
    4a1c:	4625      	mov	r5, r4
/home/yin/imx-optee/imx-optee-os/lib/libmpa/mpa_io.c:152
    4a1e:	f1a6 0a02 	sub.w	sl, r6, #2
    4a22:	eb07 0686 	add.w	r6, r7, r6, lsl #2
/home/yin/imx-optee/imx-optee-os/lib/libmpa/mpa_io.c:153
    4a26:	f1ba 3fff 	cmp.w	sl, #4294967295	; 0xffffffff
    4a2a:	d115      	bne.n	4a58 <__mpa_mpanum_to_hexstr+0x76>
/home/yin/imx-optee/imx-optee-os/lib/libmpa/mpa_io.c:161
    4a2c:	2300      	movs	r3, #0
/home/yin/imx-optee/imx-optee-os/lib/libmpa/mpa_io.c:160
    4a2e:	1b28      	subs	r0, r5, r4
/home/yin/imx-optee/imx-optee-os/lib/libmpa/mpa_io.c:161
    4a30:	702b      	strb	r3, [r5, #0]
/home/yin/imx-optee/imx-optee-os/lib/libmpa/mpa_io.c:162
    4a32:	e7e1      	b.n	49f8 <__mpa_mpanum_to_hexstr+0x16>
/home/yin/imx-optee/imx-optee-os/lib/libmpa/mpa_io.c:146
    4a34:	f819 2003 	ldrb.w	r2, [r9, r3]
    4a38:	2a30      	cmp	r2, #48	; 0x30
    4a3a:	d0ec      	beq.n	4a16 <__mpa_mpanum_to_hexstr+0x34>
    4a3c:	1c5d      	adds	r5, r3, #1
    4a3e:	1e62      	subs	r2, r4, #1
    4a40:	eb09 0105 	add.w	r1, r9, r5
    4a44:	4423      	add	r3, r4
/home/yin/imx-optee/imx-optee-os/lib/libmpa/mpa_io.c:148
    4a46:	429a      	cmp	r2, r3
    4a48:	d101      	bne.n	4a4e <__mpa_mpanum_to_hexstr+0x6c>
    4a4a:	4425      	add	r5, r4
    4a4c:	e7e7      	b.n	4a1e <__mpa_mpanum_to_hexstr+0x3c>
/home/yin/imx-optee/imx-optee-os/lib/libmpa/mpa_io.c:149
    4a4e:	f811 0d01 	ldrb.w	r0, [r1, #-1]!
    4a52:	f802 0f01 	strb.w	r0, [r2, #1]!
    4a56:	e7f6      	b.n	4a46 <__mpa_mpanum_to_hexstr+0x64>
/home/yin/imx-optee/imx-optee-os/lib/libmpa/mpa_io.c:154
    4a58:	4642      	mov	r2, r8
    4a5a:	f856 1904 	ldr.w	r1, [r6], #-4
    4a5e:	4648      	mov	r0, r9
    4a60:	f7ff ffaa 	bl	49b8 <__mpa_word_to_hexstr>
    4a64:	1e6a      	subs	r2, r5, #1
    4a66:	2307      	movs	r3, #7
/home/yin/imx-optee/imx-optee-os/lib/libmpa/mpa_io.c:157
    4a68:	f819 1003 	ldrb.w	r1, [r9, r3]
/home/yin/imx-optee/imx-optee-os/lib/libmpa/mpa_io.c:156
    4a6c:	f113 33ff 	adds.w	r3, r3, #4294967295	; 0xffffffff
/home/yin/imx-optee/imx-optee-os/lib/libmpa/mpa_io.c:157
    4a70:	f802 1f01 	strb.w	r1, [r2, #1]!
/home/yin/imx-optee/imx-optee-os/lib/libmpa/mpa_io.c:156
    4a74:	d2f8      	bcs.n	4a68 <__mpa_mpanum_to_hexstr+0x86>
    4a76:	3508      	adds	r5, #8
/home/yin/imx-optee/imx-optee-os/lib/libmpa/mpa_io.c:158
    4a78:	f10a 3aff 	add.w	sl, sl, #4294967295	; 0xffffffff
    4a7c:	e7d3      	b.n	4a26 <__mpa_mpanum_to_hexstr+0x44>

00004a7e <__mpa_isspace>:
__mpa_isspace():
/home/yin/imx-optee/imx-optee-os/lib/libmpa/mpa_io.c:32
    4a7e:	285f      	cmp	r0, #95	; 0x5f
    4a80:	d00c      	beq.n	4a9c <__mpa_isspace+0x1e>
    4a82:	3809      	subs	r0, #9
    4a84:	b2c3      	uxtb	r3, r0
    4a86:	2b17      	cmp	r3, #23
    4a88:	bf97      	itett	ls
    4a8a:	4805      	ldrls	r0, [pc, #20]	; (4aa0 <__mpa_isspace+0x22>)
    4a8c:	2001      	movhi	r0, #1
    4a8e:	40d8      	lsrls	r0, r3
    4a90:	43c0      	mvnls	r0, r0
    4a92:	f000 0001 	and.w	r0, r0, #1
    4a96:	f080 0001 	eor.w	r0, r0, #1
    4a9a:	4770      	bx	lr
    4a9c:	2001      	movs	r0, #1
/home/yin/imx-optee/imx-optee-os/lib/libmpa/mpa_io.c:34
    4a9e:	4770      	bx	lr
    4aa0:	00800013 	.word	0x00800013

00004aa4 <mpa_get_str_size>:
mpa_get_str_size():
/home/yin/imx-optee/imx-optee-os/lib/libmpa/mpa_io.c:215
    4aa4:	f241 0002 	movw	r0, #4098	; 0x1002
    4aa8:	4770      	bx	lr

00004aaa <mpa_set_str>:
mpa_set_str():
/home/yin/imx-optee/imx-optee-os/lib/libmpa/mpa_io.c:239
    4aaa:	e92d 43f0 	stmdb	sp!, {r4, r5, r6, r7, r8, r9, lr}
    4aae:	4606      	mov	r6, r0
/home/yin/imx-optee/imx-optee-os/lib/libmpa/mpa_io.c:258
    4ab0:	780c      	ldrb	r4, [r1, #0]
/home/yin/imx-optee/imx-optee-os/lib/libmpa/mpa_io.c:239
    4ab2:	b085      	sub	sp, #20
/home/yin/imx-optee/imx-optee-os/lib/libmpa/mpa_io.c:258
    4ab4:	b924      	cbnz	r4, 4ac0 <mpa_set_str+0x16>
/home/yin/imx-optee/imx-optee-os/lib/libmpa/mpa_io.c:360
    4ab6:	4620      	mov	r0, r4
    4ab8:	b005      	add	sp, #20
    4aba:	e8bd 83f0 	ldmia.w	sp!, {r4, r5, r6, r7, r8, r9, pc}
    4abe:	4629      	mov	r1, r5
/home/yin/imx-optee/imx-optee-os/lib/libmpa/mpa_io.c:263 (discriminator 1)
    4ac0:	460d      	mov	r5, r1
    4ac2:	f815 2b01 	ldrb.w	r2, [r5], #1
/home/yin/imx-optee/imx-optee-os/lib/libmpa/mpa_io.c:264 (discriminator 1)
    4ac6:	4610      	mov	r0, r2
    4ac8:	f7ff ffd9 	bl	4a7e <__mpa_isspace>
    4acc:	4604      	mov	r4, r0
    4ace:	2800      	cmp	r0, #0
    4ad0:	d1f5      	bne.n	4abe <mpa_set_str+0x14>
/home/yin/imx-optee/imx-optee-os/lib/libmpa/mpa_io.c:268
    4ad2:	2a2d      	cmp	r2, #45	; 0x2d
/home/yin/imx-optee/imx-optee-os/lib/libmpa/mpa_io.c:270
    4ad4:	bf03      	ittte	eq
    4ad6:	782a      	ldrbeq	r2, [r5, #0]
/home/yin/imx-optee/imx-optee-os/lib/libmpa/mpa_io.c:269
    4ad8:	2701      	moveq	r7, #1
/home/yin/imx-optee/imx-optee-os/lib/libmpa/mpa_io.c:270
    4ada:	1c8d      	addeq	r5, r1, #2
/home/yin/imx-optee/imx-optee-os/lib/libmpa/mpa_io.c:267
    4adc:	4607      	movne	r7, r0
/home/yin/imx-optee/imx-optee-os/lib/libmpa/mpa_io.c:272
    4ade:	b922      	cbnz	r2, 4aea <mpa_set_str+0x40>
/home/yin/imx-optee/imx-optee-os/lib/libmpa/mpa_io.c:273
    4ae0:	2100      	movs	r1, #0
    4ae2:	4630      	mov	r0, r6
    4ae4:	f000 fc0b 	bl	52fe <mpa_set_word>
/home/yin/imx-optee/imx-optee-os/lib/libmpa/mpa_io.c:274
    4ae8:	e7e5      	b.n	4ab6 <mpa_set_str+0xc>
/home/yin/imx-optee/imx-optee-os/lib/libmpa/mpa_io.c:278
    4aea:	2a30      	cmp	r2, #48	; 0x30
    4aec:	d107      	bne.n	4afe <mpa_set_str+0x54>
/home/yin/imx-optee/imx-optee-os/lib/libmpa/mpa_io.c:279
    4aee:	782a      	ldrb	r2, [r5, #0]
/home/yin/imx-optee/imx-optee-os/lib/libmpa/mpa_io.c:280
    4af0:	f002 03df 	and.w	r3, r2, #223	; 0xdf
    4af4:	2b58      	cmp	r3, #88	; 0x58
/home/yin/imx-optee/imx-optee-os/lib/libmpa/mpa_io.c:281
    4af6:	bf0a      	itet	eq
    4af8:	786a      	ldrbeq	r2, [r5, #1]
/home/yin/imx-optee/imx-optee-os/lib/libmpa/mpa_io.c:279
    4afa:	3501      	addne	r5, #1
/home/yin/imx-optee/imx-optee-os/lib/libmpa/mpa_io.c:281
    4afc:	3502      	addeq	r5, #2
/home/yin/imx-optee/imx-optee-os/lib/libmpa/mpa_io.c:285
    4afe:	2a30      	cmp	r2, #48	; 0x30
    4b00:	d033      	beq.n	4b6a <mpa_set_str+0xc0>
/home/yin/imx-optee/imx-optee-os/lib/libmpa/mpa_io.c:285 (discriminator 1)
    4b02:	4610      	mov	r0, r2
    4b04:	f7ff ffbb 	bl	4a7e <__mpa_isspace>
    4b08:	bb78      	cbnz	r0, 4b6a <mpa_set_str+0xc0>
/home/yin/imx-optee/imx-optee-os/lib/libmpa/mpa_io.c:289
    4b0a:	2a00      	cmp	r2, #0
    4b0c:	d0e8      	beq.n	4ae0 <mpa_set_str+0x36>
    4b0e:	462b      	mov	r3, r5
/home/yin/imx-optee/imx-optee-os/lib/libmpa/mpa_io.c:296
    4b10:	781c      	ldrb	r4, [r3, #0]
    4b12:	1c59      	adds	r1, r3, #1
    4b14:	bb64      	cbnz	r4, 4b70 <mpa_set_str+0xc6>
/home/yin/imx-optee/imx-optee-os/lib/libmpa/mpa_io.c:300
    4b16:	1b5b      	subs	r3, r3, r5
/home/yin/imx-optee/imx-optee-os/lib/libmpa/mpa_io.c:301
    4b18:	f241 0102 	movw	r1, #4098	; 0x1002
/home/yin/imx-optee/imx-optee-os/lib/libmpa/mpa_io.c:300
    4b1c:	3301      	adds	r3, #1
/home/yin/imx-optee/imx-optee-os/lib/libmpa/mpa_io.c:301
    4b1e:	428b      	cmp	r3, r1
    4b20:	dc28      	bgt.n	4b74 <mpa_set_str+0xca>
/home/yin/imx-optee/imx-optee-os/lib/libmpa/mpa_io.c:311
    4b22:	f8df 913c 	ldr.w	r9, [pc, #316]	; 4c60 <mpa_set_str+0x1b6>
    4b26:	44f9      	add	r9, pc
__mpa_is_char_in_base():
/home/yin/imx-optee/imx-optee-os/lib/libmpa/mpa_io.c:44
    4b28:	4610      	mov	r0, r2
    4b2a:	f7ff ffa8 	bl	4a7e <__mpa_isspace>
    4b2e:	4680      	mov	r8, r0
    4b30:	2800      	cmp	r0, #0
    4b32:	d137      	bne.n	4ba4 <mpa_set_str+0xfa>
/home/yin/imx-optee/imx-optee-os/lib/libmpa/mpa_io.c:51
    4b34:	f1a2 0130 	sub.w	r1, r2, #48	; 0x30
/home/yin/imx-optee/imx-optee-os/lib/libmpa/mpa_io.c:52
    4b38:	2909      	cmp	r1, #9
    4b3a:	d92b      	bls.n	4b94 <mpa_set_str+0xea>
/home/yin/imx-optee/imx-optee-os/lib/libmpa/mpa_io.c:51
    4b3c:	f022 0320 	bic.w	r3, r2, #32
    4b40:	3b41      	subs	r3, #65	; 0x41
    4b42:	2b05      	cmp	r3, #5
    4b44:	d926      	bls.n	4b94 <mpa_set_str+0xea>
mpa_set_str():
/home/yin/imx-optee/imx-optee-os/lib/libmpa/mpa_io.c:315
    4b46:	b314      	cbz	r4, 4b8e <mpa_set_str+0xe4>
__mpa_digitstr_to_binary_wsize_base_16():
/home/yin/imx-optee/imx-optee-os/lib/libmpa/mpa_io.c:85
    4b48:	1de3      	adds	r3, r4, #7
mpa_set_str():
/home/yin/imx-optee/imx-optee-os/lib/libmpa/mpa_io.c:320
    4b4a:	6832      	ldr	r2, [r6, #0]
__mpa_digitstr_to_binary_wsize_base_16():
/home/yin/imx-optee/imx-optee-os/lib/libmpa/mpa_io.c:85
    4b4c:	10db      	asrs	r3, r3, #3
mpa_set_str():
/home/yin/imx-optee/imx-optee-os/lib/libmpa/mpa_io.c:319
    4b4e:	4293      	cmp	r3, r2
    4b50:	d939      	bls.n	4bc6 <mpa_set_str+0x11c>
/home/yin/imx-optee/imx-optee-os/lib/libmpa/mpa_io.c:321
    4b52:	9301      	str	r3, [sp, #4]
    4b54:	f240 1143 	movw	r1, #323	; 0x143
    4b58:	4b42      	ldr	r3, [pc, #264]	; (4c64 <mpa_set_str+0x1ba>)
    4b5a:	4843      	ldr	r0, [pc, #268]	; (4c68 <mpa_set_str+0x1be>)
    4b5c:	9202      	str	r2, [sp, #8]
    4b5e:	447b      	add	r3, pc
    4b60:	9300      	str	r3, [sp, #0]
    4b62:	2301      	movs	r3, #1
    4b64:	461a      	mov	r2, r3
    4b66:	4478      	add	r0, pc
    4b68:	e00f      	b.n	4b8a <mpa_set_str+0xe0>
/home/yin/imx-optee/imx-optee-os/lib/libmpa/mpa_io.c:286
    4b6a:	f815 2b01 	ldrb.w	r2, [r5], #1
    4b6e:	e7c6      	b.n	4afe <mpa_set_str+0x54>
    4b70:	460b      	mov	r3, r1
    4b72:	e7cd      	b.n	4b10 <mpa_set_str+0x66>
/home/yin/imx-optee/imx-optee-os/lib/libmpa/mpa_io.c:302
    4b74:	9301      	str	r3, [sp, #4]
    4b76:	4b3d      	ldr	r3, [pc, #244]	; (4c6c <mpa_set_str+0x1c2>)
    4b78:	483d      	ldr	r0, [pc, #244]	; (4c70 <mpa_set_str+0x1c6>)
    4b7a:	9102      	str	r1, [sp, #8]
    4b7c:	f44f 7197 	mov.w	r1, #302	; 0x12e
    4b80:	447b      	add	r3, pc
    4b82:	9300      	str	r3, [sp, #0]
    4b84:	2301      	movs	r3, #1
    4b86:	461a      	mov	r2, r3
    4b88:	4478      	add	r0, pc
/home/yin/imx-optee/imx-optee-os/lib/libmpa/mpa_io.c:321
    4b8a:	f7ff fa11 	bl	3fb0 <trace_printf>
/home/yin/imx-optee/imx-optee-os/lib/libmpa/mpa_io.c:324
    4b8e:	f04f 34ff 	mov.w	r4, #4294967295	; 0xffffffff
/home/yin/imx-optee/imx-optee-os/lib/libmpa/mpa_io.c:325
    4b92:	e790      	b.n	4ab6 <mpa_set_str+0xc>
__mpa_digit_value():
/home/yin/imx-optee/imx-optee-os/lib/libmpa/mpa_io.c:66
    4b94:	2909      	cmp	r1, #9
mpa_set_str():
/home/yin/imx-optee/imx-optee-os/lib/libmpa/mpa_io.c:311
    4b96:	f104 0301 	add.w	r3, r4, #1
__mpa_digit_value():
/home/yin/imx-optee/imx-optee-os/lib/libmpa/mpa_io.c:66
    4b9a:	d806      	bhi.n	4baa <mpa_set_str+0x100>
/home/yin/imx-optee/imx-optee-os/lib/libmpa/mpa_io.c:67
    4b9c:	4688      	mov	r8, r1
mpa_set_str():
/home/yin/imx-optee/imx-optee-os/lib/libmpa/mpa_io.c:311
    4b9e:	f809 8004 	strb.w	r8, [r9, r4]
    4ba2:	461c      	mov	r4, r3
/home/yin/imx-optee/imx-optee-os/lib/libmpa/mpa_io.c:312
    4ba4:	f815 2b01 	ldrb.w	r2, [r5], #1
    4ba8:	e7be      	b.n	4b28 <mpa_set_str+0x7e>
__mpa_digit_value():
/home/yin/imx-optee/imx-optee-os/lib/libmpa/mpa_io.c:68
    4baa:	f1a2 0141 	sub.w	r1, r2, #65	; 0x41
    4bae:	2905      	cmp	r1, #5
    4bb0:	d802      	bhi.n	4bb8 <mpa_set_str+0x10e>
/home/yin/imx-optee/imx-optee-os/lib/libmpa/mpa_io.c:69
    4bb2:	f1a2 0837 	sub.w	r8, r2, #55	; 0x37
    4bb6:	e7f2      	b.n	4b9e <mpa_set_str+0xf4>
/home/yin/imx-optee/imx-optee-os/lib/libmpa/mpa_io.c:70
    4bb8:	f1a2 0161 	sub.w	r1, r2, #97	; 0x61
    4bbc:	2905      	cmp	r1, #5
/home/yin/imx-optee/imx-optee-os/lib/libmpa/mpa_io.c:71
    4bbe:	bf98      	it	ls
    4bc0:	f1a2 0857 	subls.w	r8, r2, #87	; 0x57
    4bc4:	e7eb      	b.n	4b9e <mpa_set_str+0xf4>
mpa_set_str():
/home/yin/imx-optee/imx-optee-os/lib/libmpa/mpa_io.c:330
    4bc6:	4601      	mov	r1, r0
    4bc8:	4630      	mov	r0, r6
    4bca:	f000 fb98 	bl	52fe <mpa_set_word>
/home/yin/imx-optee/imx-optee-os/lib/libmpa/mpa_io.c:332
    4bce:	f8c6 8008 	str.w	r8, [r6, #8]
/home/yin/imx-optee/imx-optee-os/lib/libmpa/mpa_io.c:335
    4bd2:	f104 3eff 	add.w	lr, r4, #4294967295	; 0xffffffff
/home/yin/imx-optee/imx-optee-os/lib/libmpa/mpa_io.c:337
    4bd6:	f8df 809c 	ldr.w	r8, [pc, #156]	; 4c74 <mpa_set_str+0x1ca>
/home/yin/imx-optee/imx-optee-os/lib/libmpa/mpa_io.c:329
    4bda:	f106 0508 	add.w	r5, r6, #8
/home/yin/imx-optee/imx-optee-os/lib/libmpa/mpa_io.c:335
    4bde:	46f4      	mov	ip, lr
/home/yin/imx-optee/imx-optee-os/lib/libmpa/mpa_io.c:333
    4be0:	2104      	movs	r1, #4
/home/yin/imx-optee/imx-optee-os/lib/libmpa/mpa_io.c:334
    4be2:	2301      	movs	r3, #1
/home/yin/imx-optee/imx-optee-os/lib/libmpa/mpa_io.c:337
    4be4:	44f8      	add	r8, pc
/home/yin/imx-optee/imx-optee-os/lib/libmpa/mpa_io.c:334
    4be6:	6073      	str	r3, [r6, #4]
/home/yin/imx-optee/imx-optee-os/lib/libmpa/mpa_io.c:336
    4be8:	f1bc 0f01 	cmp.w	ip, #1
    4bec:	f1c1 0304 	rsb	r3, r1, #4
    4bf0:	6828      	ldr	r0, [r5, #0]
    4bf2:	dc15      	bgt.n	4c20 <mpa_set_str+0x176>
/home/yin/imx-optee/imx-optee-os/lib/libmpa/mpa_io.c:348
    4bf4:	f01e 0f01 	tst.w	lr, #1
    4bf8:	d02b      	beq.n	4c52 <mpa_set_str+0x1a8>
/home/yin/imx-optee/imx-optee-os/lib/libmpa/mpa_io.c:349
    4bfa:	491f      	ldr	r1, [pc, #124]	; (4c78 <mpa_set_str+0x1ce>)
/home/yin/imx-optee/imx-optee-os/lib/libmpa/mpa_io.c:350
    4bfc:	00db      	lsls	r3, r3, #3
/home/yin/imx-optee/imx-optee-os/lib/libmpa/mpa_io.c:349
    4bfe:	4479      	add	r1, pc
    4c00:	f891 c000 	ldrb.w	ip, [r1]
    4c04:	784a      	ldrb	r2, [r1, #1]
    4c06:	ea82 120c 	eor.w	r2, r2, ip, lsl #4
    4c0a:	fa02 f303 	lsl.w	r3, r2, r3
    4c0e:	4043      	eors	r3, r0
    4c10:	602b      	str	r3, [r5, #0]
/home/yin/imx-optee/imx-optee-os/lib/libmpa/mpa_io.c:355
    4c12:	2f00      	cmp	r7, #0
    4c14:	f43f af4f 	beq.w	4ab6 <mpa_set_str+0xc>
/home/yin/imx-optee/imx-optee-os/lib/libmpa/mpa_io.c:356
    4c18:	6873      	ldr	r3, [r6, #4]
    4c1a:	425b      	negs	r3, r3
    4c1c:	6073      	str	r3, [r6, #4]
    4c1e:	e74a      	b.n	4ab6 <mpa_set_str+0xc>
/home/yin/imx-optee/imx-optee-os/lib/libmpa/mpa_io.c:337
    4c20:	eb0c 0208 	add.w	r2, ip, r8
/home/yin/imx-optee/imx-optee-os/lib/libmpa/mpa_io.c:338
    4c24:	00db      	lsls	r3, r3, #3
/home/yin/imx-optee/imx-optee-os/lib/libmpa/mpa_io.c:337
    4c26:	f812 9c01 	ldrb.w	r9, [r2, #-1]
/home/yin/imx-optee/imx-optee-os/lib/libmpa/mpa_io.c:341
    4c2a:	3901      	subs	r1, #1
/home/yin/imx-optee/imx-optee-os/lib/libmpa/mpa_io.c:337
    4c2c:	f81c 2008 	ldrb.w	r2, [ip, r8]
/home/yin/imx-optee/imx-optee-os/lib/libmpa/mpa_io.c:340
    4c30:	f1ac 0c02 	sub.w	ip, ip, #2
/home/yin/imx-optee/imx-optee-os/lib/libmpa/mpa_io.c:337
    4c34:	ea82 1209 	eor.w	r2, r2, r9, lsl #4
    4c38:	fa02 f303 	lsl.w	r3, r2, r3
    4c3c:	ea83 0300 	eor.w	r3, r3, r0
    4c40:	602b      	str	r3, [r5, #0]
/home/yin/imx-optee/imx-optee-os/lib/libmpa/mpa_io.c:341
    4c42:	d1d1      	bne.n	4be8 <mpa_set_str+0x13e>
/home/yin/imx-optee/imx-optee-os/lib/libmpa/mpa_io.c:343
    4c44:	6069      	str	r1, [r5, #4]
/home/yin/imx-optee/imx-optee-os/lib/libmpa/mpa_io.c:342
    4c46:	3504      	adds	r5, #4
/home/yin/imx-optee/imx-optee-os/lib/libmpa/mpa_io.c:345
    4c48:	6873      	ldr	r3, [r6, #4]
/home/yin/imx-optee/imx-optee-os/lib/libmpa/mpa_io.c:344
    4c4a:	2104      	movs	r1, #4
/home/yin/imx-optee/imx-optee-os/lib/libmpa/mpa_io.c:345
    4c4c:	3301      	adds	r3, #1
    4c4e:	6073      	str	r3, [r6, #4]
    4c50:	e7ca      	b.n	4be8 <mpa_set_str+0x13e>
/home/yin/imx-optee/imx-optee-os/lib/libmpa/mpa_io.c:352
    4c52:	4a0a      	ldr	r2, [pc, #40]	; (4c7c <mpa_set_str+0x1d2>)
    4c54:	447a      	add	r2, pc
    4c56:	7811      	ldrb	r1, [r2, #0]
/home/yin/imx-optee/imx-optee-os/lib/libmpa/mpa_io.c:353
    4c58:	00da      	lsls	r2, r3, #3
/home/yin/imx-optee/imx-optee-os/lib/libmpa/mpa_io.c:352
    4c5a:	fa01 f302 	lsl.w	r3, r1, r2
    4c5e:	e7d6      	b.n	4c0e <mpa_set_str+0x164>
    4c60:	0000de92 	.word	0x0000de92
    4c64:	00003553 	.word	0x00003553
    4c68:	00003515 	.word	0x00003515
    4c6c:	00003513 	.word	0x00003513
    4c70:	000034f3 	.word	0x000034f3
    4c74:	0000ddd4 	.word	0x0000ddd4
    4c78:	0000ddba 	.word	0x0000ddba
    4c7c:	0000dd64 	.word	0x0000dd64

00004c80 <mpa_get_str>:
mpa_get_str():
/home/yin/imx-optee/imx-optee-os/lib/libmpa/mpa_io.c:376
    4c80:	b510      	push	{r4, lr}
/home/yin/imx-optee/imx-optee-os/lib/libmpa/mpa_io.c:379
    4c82:	4604      	mov	r4, r0
    4c84:	b960      	cbnz	r0, 4ca0 <mpa_get_str+0x20>
/home/yin/imx-optee/imx-optee-os/lib/libmpa/mpa_io.c:379 (discriminator 1)
    4c86:	4b10      	ldr	r3, [pc, #64]	; (4cc8 <mpa_get_str+0x48>)
    4c88:	f240 127b 	movw	r2, #379	; 0x17b
    4c8c:	490f      	ldr	r1, [pc, #60]	; (4ccc <mpa_get_str+0x4c>)
    4c8e:	4810      	ldr	r0, [pc, #64]	; (4cd0 <mpa_get_str+0x50>)
    4c90:	447b      	add	r3, pc
    4c92:	330c      	adds	r3, #12
    4c94:	4479      	add	r1, pc
    4c96:	4478      	add	r0, pc
    4c98:	f000 f8d6 	bl	4e48 <_assert_log>
    4c9c:	f000 f8e8 	bl	4e70 <_assert_break>
/home/yin/imx-optee/imx-optee-os/lib/libmpa/mpa_io.c:382
    4ca0:	6853      	ldr	r3, [r2, #4]
    4ca2:	2b00      	cmp	r3, #0
/home/yin/imx-optee/imx-optee-os/lib/libmpa/mpa_io.c:383
    4ca4:	bfbc      	itt	lt
    4ca6:	232d      	movlt	r3, #45	; 0x2d
    4ca8:	f800 3b01 	strblt.w	r3, [r0], #1
/home/yin/imx-optee/imx-optee-os/lib/libmpa/mpa_io.c:386
    4cac:	2910      	cmp	r1, #16
    4cae:	d003      	beq.n	4cb8 <mpa_get_str+0x38>
    4cb0:	2911      	cmp	r1, #17
    4cb2:	d006      	beq.n	4cc2 <mpa_get_str+0x42>
/home/yin/imx-optee/imx-optee-os/lib/libmpa/mpa_io.c:394
    4cb4:	2400      	movs	r4, #0
    4cb6:	e002      	b.n	4cbe <mpa_get_str+0x3e>
/home/yin/imx-optee/imx-optee-os/lib/libmpa/mpa_io.c:388
    4cb8:	2100      	movs	r1, #0
/home/yin/imx-optee/imx-optee-os/lib/libmpa/mpa_io.c:391
    4cba:	f7ff fe92 	bl	49e2 <__mpa_mpanum_to_hexstr>
/home/yin/imx-optee/imx-optee-os/lib/libmpa/mpa_io.c:398
    4cbe:	4620      	mov	r0, r4
    4cc0:	bd10      	pop	{r4, pc}
/home/yin/imx-optee/imx-optee-os/lib/libmpa/mpa_io.c:391
    4cc2:	2101      	movs	r1, #1
    4cc4:	e7f9      	b.n	4cba <mpa_get_str+0x3a>
    4cc6:	bf00      	nop
    4cc8:	000033eb 	.word	0x000033eb
    4ccc:	00003446 	.word	0x00003446
    4cd0:	00003458 	.word	0x00003458

00004cd4 <mpa_set_oct_str>:
mpa_set_oct_str():
/home/yin/imx-optee/imx-optee-os/lib/libmpa/mpa_io.c:415
    4cd4:	e92d 43f8 	stmdb	sp!, {r3, r4, r5, r6, r7, r8, r9, lr}
    4cd8:	4605      	mov	r5, r0
    4cda:	461e      	mov	r6, r3
/home/yin/imx-optee/imx-optee-os/lib/libmpa/mpa_io.c:417
    4cdc:	4614      	mov	r4, r2
/home/yin/imx-optee/imx-optee-os/lib/libmpa/mpa_io.c:421
    4cde:	2c00      	cmp	r4, #0
    4ce0:	460f      	mov	r7, r1
    4ce2:	dc07      	bgt.n	4cf4 <mpa_set_oct_str+0x20>
/home/yin/imx-optee/imx-optee-os/lib/libmpa/mpa_io.c:428
    4ce4:	d10b      	bne.n	4cfe <mpa_set_oct_str+0x2a>
/home/yin/imx-optee/imx-optee-os/lib/libmpa/mpa_io.c:429
    4ce6:	4621      	mov	r1, r4
    4ce8:	4628      	mov	r0, r5
    4cea:	f000 fb08 	bl	52fe <mpa_set_word>
/home/yin/imx-optee/imx-optee-os/lib/libmpa/mpa_io.c:458
    4cee:	4620      	mov	r0, r4
    4cf0:	e8bd 83f8 	ldmia.w	sp!, {r3, r4, r5, r6, r7, r8, r9, pc}
/home/yin/imx-optee/imx-optee-os/lib/libmpa/mpa_io.c:422
    4cf4:	783b      	ldrb	r3, [r7, #0]
    4cf6:	3101      	adds	r1, #1
    4cf8:	b90b      	cbnz	r3, 4cfe <mpa_set_oct_str+0x2a>
/home/yin/imx-optee/imx-optee-os/lib/libmpa/mpa_io.c:424
    4cfa:	3c01      	subs	r4, #1
    4cfc:	e7ef      	b.n	4cde <mpa_set_oct_str+0xa>
/home/yin/imx-optee/imx-optee-os/lib/libmpa/mpa_io.c:438
    4cfe:	682a      	ldr	r2, [r5, #0]
    4d00:	1e63      	subs	r3, r4, #1
    4d02:	ebb3 0f82 	cmp.w	r3, r2, lsl #2
    4d06:	d82e      	bhi.n	4d66 <mpa_set_oct_str+0x92>
/home/yin/imx-optee/imx-optee-os/lib/libmpa/mpa_io.c:442
    4d08:	2100      	movs	r1, #0
    4d0a:	4628      	mov	r0, r5
    4d0c:	f000 faf7 	bl	52fe <mpa_set_word>
/home/yin/imx-optee/imx-optee-os/lib/libmpa/mpa_io.c:441
    4d10:	f105 0808 	add.w	r8, r5, #8
set_word():
/home/yin/imx-optee/imx-optee-os/lib/libmpa/mpa_io.c:409
    4d14:	f06f 4c60 	mvn.w	ip, #3758096384	; 0xe0000000
mpa_set_oct_str():
/home/yin/imx-optee/imx-optee-os/lib/libmpa/mpa_io.c:444
    4d18:	2300      	movs	r3, #0
    4d1a:	606b      	str	r3, [r5, #4]
/home/yin/imx-optee/imx-optee-os/lib/libmpa/mpa_io.c:445
    4d1c:	2c00      	cmp	r4, #0
    4d1e:	dc05      	bgt.n	4d2c <mpa_set_oct_str+0x58>
/home/yin/imx-optee/imx-optee-os/lib/libmpa/mpa_io.c:454
    4d20:	b326      	cbz	r6, 4d6c <mpa_set_oct_str+0x98>
/home/yin/imx-optee/imx-optee-os/lib/libmpa/mpa_io.c:455
    4d22:	686b      	ldr	r3, [r5, #4]
/home/yin/imx-optee/imx-optee-os/lib/libmpa/mpa_io.c:457
    4d24:	2400      	movs	r4, #0
/home/yin/imx-optee/imx-optee-os/lib/libmpa/mpa_io.c:455
    4d26:	425b      	negs	r3, r3
    4d28:	606b      	str	r3, [r5, #4]
    4d2a:	e7e0      	b.n	4cee <mpa_set_oct_str+0x1a>
/home/yin/imx-optee/imx-optee-os/lib/libmpa/mpa_io.c:446
    4d2c:	2c04      	cmp	r4, #4
    4d2e:	4621      	mov	r1, r4
    4d30:	bfa8      	it	ge
    4d32:	2104      	movge	r1, #4
set_word():
/home/yin/imx-optee/imx-optee-os/lib/libmpa/mpa_io.c:407
    4d34:	2300      	movs	r3, #0
mpa_set_oct_str():
/home/yin/imx-optee/imx-optee-os/lib/libmpa/mpa_io.c:448
    4d36:	1a64      	subs	r4, r4, r1
set_word():
/home/yin/imx-optee/imx-optee-os/lib/libmpa/mpa_io.c:408
    4d38:	1e4a      	subs	r2, r1, #1
/home/yin/imx-optee/imx-optee-os/lib/libmpa/mpa_io.c:409
    4d3a:	eb07 0904 	add.w	r9, r7, r4
    4d3e:	4461      	add	r1, ip
    4d40:	f819 0002 	ldrb.w	r0, [r9, r2]
    4d44:	eba1 0e02 	sub.w	lr, r1, r2
    4d48:	ea4f 0ece 	mov.w	lr, lr, lsl #3
/home/yin/imx-optee/imx-optee-os/lib/libmpa/mpa_io.c:408
    4d4c:	f112 32ff 	adds.w	r2, r2, #4294967295	; 0xffffffff
/home/yin/imx-optee/imx-optee-os/lib/libmpa/mpa_io.c:409
    4d50:	fa00 f00e 	lsl.w	r0, r0, lr
    4d54:	ea43 0300 	orr.w	r3, r3, r0
/home/yin/imx-optee/imx-optee-os/lib/libmpa/mpa_io.c:408
    4d58:	d2f2      	bcs.n	4d40 <mpa_set_oct_str+0x6c>
mpa_set_oct_str():
/home/yin/imx-optee/imx-optee-os/lib/libmpa/mpa_io.c:449
    4d5a:	f848 3b04 	str.w	r3, [r8], #4
/home/yin/imx-optee/imx-optee-os/lib/libmpa/mpa_io.c:451
    4d5e:	686a      	ldr	r2, [r5, #4]
    4d60:	3201      	adds	r2, #1
    4d62:	606a      	str	r2, [r5, #4]
    4d64:	e7da      	b.n	4d1c <mpa_set_oct_str+0x48>
/home/yin/imx-optee/imx-optee-os/lib/libmpa/mpa_io.c:439
    4d66:	f04f 34ff 	mov.w	r4, #4294967295	; 0xffffffff
    4d6a:	e7c0      	b.n	4cee <mpa_set_oct_str+0x1a>
/home/yin/imx-optee/imx-optee-os/lib/libmpa/mpa_io.c:457
    4d6c:	4634      	mov	r4, r6
    4d6e:	e7be      	b.n	4cee <mpa_set_oct_str+0x1a>

00004d70 <mpa_get_oct_str>:
mpa_get_oct_str():
/home/yin/imx-optee/imx-optee-os/lib/libmpa/mpa_io.c:471
    4d70:	e92d 43f7 	stmdb	sp!, {r0, r1, r2, r4, r5, r6, r7, r8, r9, lr}
    4d74:	4689      	mov	r9, r1
__mpa_size_in_base_255():
/home/yin/imx-optee/imx-optee-os/lib/libmpa/mpa_io.c:197
    4d76:	6851      	ldr	r1, [r2, #4]
mpa_get_oct_str():
/home/yin/imx-optee/imx-optee-os/lib/libmpa/mpa_io.c:471
    4d78:	4680      	mov	r8, r0
    4d7a:	4617      	mov	r7, r2
__mpa_size_in_base_255():
/home/yin/imx-optee/imx-optee-os/lib/libmpa/mpa_io.c:197
    4d7c:	b1f1      	cbz	r1, 4dbc <mpa_get_oct_str+0x4c>
/home/yin/imx-optee/imx-optee-os/lib/libmpa/mpa_io.c:201
    4d7e:	ea81 72e1 	eor.w	r2, r1, r1, asr #31
    4d82:	eba2 72e1 	sub.w	r2, r2, r1, asr #31
/home/yin/imx-optee/imx-optee-os/lib/libmpa/mpa_io.c:200
    4d86:	1c53      	adds	r3, r2, #1
    4d88:	f857 0023 	ldr.w	r0, [r7, r3, lsl #2]
__mpa_count_leading_zero_bits():
/home/yin/imx-optee/imx-optee-os/lib/libmpa/mpa_io.c:175
    4d8c:	b1a0      	cbz	r0, 4db8 <mpa_get_oct_str+0x48>
    4d8e:	2400      	movs	r4, #0
    4d90:	f04f 4300 	mov.w	r3, #2147483648	; 0x80000000
/home/yin/imx-optee/imx-optee-os/lib/libmpa/mpa_io.c:179
    4d94:	4218      	tst	r0, r3
    4d96:	d00c      	beq.n	4db2 <mpa_get_oct_str+0x42>
__mpa_size_in_base_255():
/home/yin/imx-optee/imx-optee-os/lib/libmpa/mpa_io.c:204
    4d98:	ebc4 1442 	rsb	r4, r4, r2, lsl #5
    4d9c:	3407      	adds	r4, #7
    4d9e:	08e4      	lsrs	r4, r4, #3
mpa_get_oct_str():
/home/yin/imx-optee/imx-optee-os/lib/libmpa/mpa_io.c:478
    4da0:	f8d9 2000 	ldr.w	r2, [r9]
    4da4:	42a2      	cmp	r2, r4
    4da6:	d20b      	bcs.n	4dc0 <mpa_get_oct_str+0x50>
/home/yin/imx-optee/imx-optee-os/lib/libmpa/mpa_io.c:479
    4da8:	f8c9 4000 	str.w	r4, [r9]
/home/yin/imx-optee/imx-optee-os/lib/libmpa/mpa_io.c:504
    4dac:	f04f 30ff 	mov.w	r0, #4294967295	; 0xffffffff
    4db0:	e00d      	b.n	4dce <mpa_get_oct_str+0x5e>
__mpa_count_leading_zero_bits():
/home/yin/imx-optee/imx-optee-os/lib/libmpa/mpa_io.c:180
    4db2:	3401      	adds	r4, #1
/home/yin/imx-optee/imx-optee-os/lib/libmpa/mpa_io.c:181
    4db4:	085b      	lsrs	r3, r3, #1
    4db6:	e7ed      	b.n	4d94 <mpa_get_oct_str+0x24>
/home/yin/imx-optee/imx-optee-os/lib/libmpa/mpa_io.c:176
    4db8:	2420      	movs	r4, #32
    4dba:	e7ed      	b.n	4d98 <mpa_get_oct_str+0x28>
__mpa_size_in_base_255():
/home/yin/imx-optee/imx-optee-os/lib/libmpa/mpa_io.c:198
    4dbc:	2401      	movs	r4, #1
    4dbe:	e7ef      	b.n	4da0 <mpa_get_oct_str+0x30>
mpa_get_oct_str():
/home/yin/imx-optee/imx-optee-os/lib/libmpa/mpa_io.c:484
    4dc0:	b941      	cbnz	r1, 4dd4 <mpa_get_oct_str+0x64>
/home/yin/imx-optee/imx-optee-os/lib/libmpa/mpa_io.c:485
    4dc2:	4640      	mov	r0, r8
    4dc4:	f000 f8aa 	bl	4f1c <memset>
/home/yin/imx-optee/imx-optee-os/lib/libmpa/mpa_io.c:513
    4dc8:	2000      	movs	r0, #0
/home/yin/imx-optee/imx-optee-os/lib/libmpa/mpa_io.c:512
    4dca:	f8c9 4000 	str.w	r4, [r9]
/home/yin/imx-optee/imx-optee-os/lib/libmpa/mpa_io.c:514
    4dce:	b003      	add	sp, #12
    4dd0:	e8bd 83f0 	ldmia.w	sp!, {r4, r5, r6, r7, r8, r9, pc}
/home/yin/imx-optee/imx-optee-os/lib/libmpa/mpa_io.c:483
    4dd4:	ea81 76e1 	eor.w	r6, r1, r1, asr #31
get_word():
/home/yin/imx-optee/imx-optee-os/lib/libmpa/mpa_io.c:465
    4dd8:	a802      	add	r0, sp, #8
mpa_get_oct_str():
/home/yin/imx-optee/imx-optee-os/lib/libmpa/mpa_io.c:483
    4dda:	eba6 76e1 	sub.w	r6, r6, r1, asr #31
get_word():
/home/yin/imx-optee/imx-optee-os/lib/libmpa/mpa_io.c:465
    4dde:	2100      	movs	r1, #0
mpa_get_oct_str():
/home/yin/imx-optee/imx-optee-os/lib/libmpa/mpa_io.c:491
    4de0:	1c73      	adds	r3, r6, #1
    4de2:	f857 3023 	ldr.w	r3, [r7, r3, lsl #2]
get_word():
/home/yin/imx-optee/imx-optee-os/lib/libmpa/mpa_io.c:465
    4de6:	f88d 3007 	strb.w	r3, [sp, #7]
/home/yin/imx-optee/imx-optee-os/lib/libmpa/mpa_io.c:466
    4dea:	0a1a      	lsrs	r2, r3, #8
/home/yin/imx-optee/imx-optee-os/lib/libmpa/mpa_io.c:465
    4dec:	f88d 2006 	strb.w	r2, [sp, #6]
/home/yin/imx-optee/imx-optee-os/lib/libmpa/mpa_io.c:466
    4df0:	0c1a      	lsrs	r2, r3, #16
    4df2:	0e1b      	lsrs	r3, r3, #24
/home/yin/imx-optee/imx-optee-os/lib/libmpa/mpa_io.c:465
    4df4:	f88d 2005 	strb.w	r2, [sp, #5]
    4df8:	f800 3d04 	strb.w	r3, [r0, #-4]!
mpa_get_oct_str():
/home/yin/imx-optee/imx-optee-os/lib/libmpa/mpa_io.c:494
    4dfc:	5c0d      	ldrb	r5, [r1, r0]
    4dfe:	b1f5      	cbz	r5, 4e3e <mpa_get_oct_str+0xce>
/home/yin/imx-optee/imx-optee-os/lib/libmpa/mpa_io.c:495
    4e00:	f1c1 0504 	rsb	r5, r1, #4
    4e04:	4401      	add	r1, r0
    4e06:	462a      	mov	r2, r5
    4e08:	4640      	mov	r0, r8
    4e0a:	f000 f862 	bl	4ed2 <memcpy>
/home/yin/imx-optee/imx-optee-os/lib/libmpa/mpa_io.c:500
    4e0e:	1eb2      	subs	r2, r6, #2
    4e10:	eb07 0686 	add.w	r6, r7, r6, lsl #2
    4e14:	eb08 0305 	add.w	r3, r8, r5
/home/yin/imx-optee/imx-optee-os/lib/libmpa/mpa_io.c:502
    4e18:	1c51      	adds	r1, r2, #1
    4e1a:	d0d5      	beq.n	4dc8 <mpa_get_oct_str+0x58>
/home/yin/imx-optee/imx-optee-os/lib/libmpa/mpa_io.c:503
    4e1c:	eba3 0108 	sub.w	r1, r3, r8
    4e20:	428c      	cmp	r4, r1
    4e22:	d3c3      	bcc.n	4dac <mpa_get_oct_str+0x3c>
/home/yin/imx-optee/imx-optee-os/lib/libmpa/mpa_io.c:505
    4e24:	f856 0904 	ldr.w	r0, [r6], #-4
    4e28:	1d1d      	adds	r5, r3, #4
    4e2a:	4629      	mov	r1, r5
get_word():
/home/yin/imx-optee/imx-optee-os/lib/libmpa/mpa_io.c:465
    4e2c:	f801 0d01 	strb.w	r0, [r1, #-1]!
/home/yin/imx-optee/imx-optee-os/lib/libmpa/mpa_io.c:464
    4e30:	4299      	cmp	r1, r3
/home/yin/imx-optee/imx-optee-os/lib/libmpa/mpa_io.c:466
    4e32:	ea4f 2010 	mov.w	r0, r0, lsr #8
/home/yin/imx-optee/imx-optee-os/lib/libmpa/mpa_io.c:464
    4e36:	d1f9      	bne.n	4e2c <mpa_get_oct_str+0xbc>
mpa_get_oct_str():
/home/yin/imx-optee/imx-optee-os/lib/libmpa/mpa_io.c:508
    4e38:	3a01      	subs	r2, #1
    4e3a:	462b      	mov	r3, r5
    4e3c:	e7ec      	b.n	4e18 <mpa_get_oct_str+0xa8>
/home/yin/imx-optee/imx-optee-os/lib/libmpa/mpa_io.c:493 (discriminator 2)
    4e3e:	3101      	adds	r1, #1
    4e40:	2904      	cmp	r1, #4
    4e42:	d1db      	bne.n	4dfc <mpa_get_oct_str+0x8c>
    4e44:	e7e3      	b.n	4e0e <mpa_get_oct_str+0x9e>
    4e46:	bf00      	nop

00004e48 <_assert_log>:
_assert_log():
/home/yin/imx-optee/imx-optee-os/lib/libutee/assert.c:17
    4e48:	b57f      	push	{r0, r1, r2, r3, r4, r5, r6, lr}
/home/yin/imx-optee/imx-optee-os/lib/libutee/assert.c:18
    4e4a:	9304      	str	r3, [sp, #16]
    4e4c:	4b07      	ldr	r3, [pc, #28]	; (4e6c <_assert_log+0x24>)
    4e4e:	9102      	str	r1, [sp, #8]
    4e50:	2100      	movs	r1, #0
    4e52:	9203      	str	r2, [sp, #12]
    4e54:	447b      	add	r3, pc
    4e56:	9001      	str	r0, [sp, #4]
    4e58:	9300      	str	r3, [sp, #0]
    4e5a:	2301      	movs	r3, #1
    4e5c:	461a      	mov	r2, r3
    4e5e:	4608      	mov	r0, r1
    4e60:	f7ff f8a6 	bl	3fb0 <trace_printf>
/home/yin/imx-optee/imx-optee-os/lib/libutee/assert.c:20
    4e64:	b007      	add	sp, #28
    4e66:	f85d fb04 	ldr.w	pc, [sp], #4
    4e6a:	bf00      	nop
    4e6c:	0000329e 	.word	0x0000329e

00004e70 <_assert_break>:
_assert_break():
/home/yin/imx-optee/imx-optee-os/lib/libutee/assert.c:23
    4e70:	b508      	push	{r3, lr}
/home/yin/imx-optee/imx-optee-os/lib/libutee/assert.c:24
    4e72:	4802      	ldr	r0, [pc, #8]	; (4e7c <_assert_break+0xc>)
    4e74:	f7fc ecfa 	blx	186c <utee_panic>
    4e78:	e7fe      	b.n	4e78 <_assert_break+0x8>
    4e7a:	bf00      	nop
    4e7c:	ffff0000 	.word	0xffff0000

00004e80 <tahead_get_trace_level>:
tahead_get_trace_level():
/home/yin/imx-optee/imx-optee-os/out/arm-plat-imx/export-ta_arm32/src/user_ta_header.c:107
    4e80:	2004      	movs	r0, #4
    4e82:	4770      	bx	lr

00004e84 <TEE_Panic>:
TEE_Panic():
/home/yin/imx-optee/imx-optee-os/lib/libutee/tee_api_panic.c:12
    4e84:	f001 bea4 	b.w	6bd0 <__utee_panic_from_thumb>

00004e88 <snprintf>:
snprintf():
/home/yin/imx-optee/imx-optee-os/lib/libutils/isoc/snprintf.c:10
    4e88:	b40c      	push	{r2, r3}
    4e8a:	b51f      	push	{r0, r1, r2, r3, r4, lr}
    4e8c:	ab06      	add	r3, sp, #24
/home/yin/imx-optee/imx-optee-os/lib/libutils/isoc/snprintf.c:15
    4e8e:	2400      	movs	r4, #0
/home/yin/imx-optee/imx-optee-os/lib/libutils/isoc/snprintf.c:10
    4e90:	f853 2b04 	ldr.w	r2, [r3], #4
/home/yin/imx-optee/imx-optee-os/lib/libutils/isoc/snprintf.c:15
    4e94:	9400      	str	r4, [sp, #0]
/home/yin/imx-optee/imx-optee-os/lib/libutils/isoc/snprintf.c:14
    4e96:	9303      	str	r3, [sp, #12]
/home/yin/imx-optee/imx-optee-os/lib/libutils/isoc/snprintf.c:15
    4e98:	f7fe fc9e 	bl	37d8 <__vsnprintf>
/home/yin/imx-optee/imx-optee-os/lib/libutils/isoc/snprintf.c:19
    4e9c:	b004      	add	sp, #16
    4e9e:	e8bd 4010 	ldmia.w	sp!, {r4, lr}
    4ea2:	b002      	add	sp, #8
    4ea4:	4770      	bx	lr

00004ea6 <vsnprintf>:
vsnprintf():
/home/yin/imx-optee/imx-optee-os/lib/libutils/isoc/snprintf.c:22
    4ea6:	b513      	push	{r0, r1, r4, lr}
/home/yin/imx-optee/imx-optee-os/lib/libutils/isoc/snprintf.c:23
    4ea8:	2400      	movs	r4, #0
    4eaa:	9400      	str	r4, [sp, #0]
    4eac:	f7fe fc94 	bl	37d8 <__vsnprintf>
/home/yin/imx-optee/imx-optee-os/lib/libutils/isoc/snprintf.c:24
    4eb0:	b002      	add	sp, #8
    4eb2:	bd10      	pop	{r4, pc}

00004eb4 <memcmp>:
memcmp():
/home/yin/imx-optee/imx-optee-os/lib/libutils/isoc/newlib/memcmp.c:85
    4eb4:	3901      	subs	r1, #1
    4eb6:	4402      	add	r2, r0
    4eb8:	b510      	push	{r4, lr}
/home/yin/imx-optee/imx-optee-os/lib/libutils/isoc/newlib/memcmp.c:90
    4eba:	4290      	cmp	r0, r2
    4ebc:	d101      	bne.n	4ec2 <memcmp+0xe>
/home/yin/imx-optee/imx-optee-os/lib/libutils/isoc/newlib/memcmp.c:96
    4ebe:	2000      	movs	r0, #0
/home/yin/imx-optee/imx-optee-os/lib/libutils/isoc/newlib/memcmp.c:136
    4ec0:	bd10      	pop	{r4, pc}
/home/yin/imx-optee/imx-optee-os/lib/libutils/isoc/newlib/memcmp.c:91
    4ec2:	f810 3b01 	ldrb.w	r3, [r0], #1
    4ec6:	f811 4f01 	ldrb.w	r4, [r1, #1]!
    4eca:	42a3      	cmp	r3, r4
    4ecc:	d0f5      	beq.n	4eba <memcmp+0x6>
/home/yin/imx-optee/imx-optee-os/lib/libutils/isoc/newlib/memcmp.c:92
    4ece:	1b18      	subs	r0, r3, r4
    4ed0:	bd10      	pop	{r4, pc}

00004ed2 <memcpy>:
memcpy():
/home/yin/imx-optee/imx-optee-os/lib/libutils/isoc/newlib/memcpy.c:87
    4ed2:	1e43      	subs	r3, r0, #1
    4ed4:	440a      	add	r2, r1
    4ed6:	b510      	push	{r4, lr}
/home/yin/imx-optee/imx-optee-os/lib/libutils/isoc/newlib/memcpy.c:94
    4ed8:	4291      	cmp	r1, r2
    4eda:	d100      	bne.n	4ede <memcpy+0xc>
/home/yin/imx-optee/imx-optee-os/lib/libutils/isoc/newlib/memcpy.c:135
    4edc:	bd10      	pop	{r4, pc}
/home/yin/imx-optee/imx-optee-os/lib/libutils/isoc/newlib/memcpy.c:95
    4ede:	f811 4b01 	ldrb.w	r4, [r1], #1
    4ee2:	f803 4f01 	strb.w	r4, [r3, #1]!
    4ee6:	e7f7      	b.n	4ed8 <memcpy+0x6>

00004ee8 <memmove>:
memmove():
/home/yin/imx-optee/imx-optee-os/lib/libutils/isoc/newlib/memmove.c:96
    4ee8:	4288      	cmp	r0, r1
/home/yin/imx-optee/imx-optee-os/lib/libutils/isoc/newlib/memmove.c:91
    4eea:	b510      	push	{r4, lr}
    4eec:	eb01 0302 	add.w	r3, r1, r2
/home/yin/imx-optee/imx-optee-os/lib/libutils/isoc/newlib/memmove.c:96
    4ef0:	d803      	bhi.n	4efa <memmove+0x12>
    4ef2:	1e42      	subs	r2, r0, #1
/home/yin/imx-optee/imx-optee-os/lib/libutils/isoc/newlib/memmove.c:103
    4ef4:	4299      	cmp	r1, r3
    4ef6:	d10c      	bne.n	4f12 <memmove+0x2a>
/home/yin/imx-optee/imx-optee-os/lib/libutils/isoc/newlib/memmove.c:157
    4ef8:	bd10      	pop	{r4, pc}
/home/yin/imx-optee/imx-optee-os/lib/libutils/isoc/newlib/memmove.c:96 (discriminator 1)
    4efa:	4298      	cmp	r0, r3
    4efc:	d2f9      	bcs.n	4ef2 <memmove+0xa>
/home/yin/imx-optee/imx-optee-os/lib/libutils/isoc/newlib/memmove.c:99
    4efe:	1881      	adds	r1, r0, r2
    4f00:	1ad2      	subs	r2, r2, r3
/home/yin/imx-optee/imx-optee-os/lib/libutils/isoc/newlib/memmove.c:100
    4f02:	42d3      	cmn	r3, r2
    4f04:	d100      	bne.n	4f08 <memmove+0x20>
    4f06:	bd10      	pop	{r4, pc}
/home/yin/imx-optee/imx-optee-os/lib/libutils/isoc/newlib/memmove.c:101
    4f08:	f813 4d01 	ldrb.w	r4, [r3, #-1]!
    4f0c:	f801 4d01 	strb.w	r4, [r1, #-1]!
    4f10:	e7f7      	b.n	4f02 <memmove+0x1a>
/home/yin/imx-optee/imx-optee-os/lib/libutils/isoc/newlib/memmove.c:104
    4f12:	f811 4b01 	ldrb.w	r4, [r1], #1
    4f16:	f802 4f01 	strb.w	r4, [r2, #1]!
    4f1a:	e7eb      	b.n	4ef4 <memmove+0xc>

00004f1c <memset>:
memset():
/home/yin/imx-optee/imx-optee-os/lib/libutils/isoc/newlib/memset.c:76
    4f1c:	4402      	add	r2, r0
/home/yin/imx-optee/imx-optee-os/lib/libutils/isoc/newlib/memset.c:77
    4f1e:	4603      	mov	r3, r0
/home/yin/imx-optee/imx-optee-os/lib/libutils/isoc/newlib/memset.c:125
    4f20:	4293      	cmp	r3, r2
    4f22:	d100      	bne.n	4f26 <memset+0xa>
/home/yin/imx-optee/imx-optee-os/lib/libutils/isoc/newlib/memset.c:129
    4f24:	4770      	bx	lr
/home/yin/imx-optee/imx-optee-os/lib/libutils/isoc/newlib/memset.c:126
    4f26:	f803 1b01 	strb.w	r1, [r3], #1
    4f2a:	e7f9      	b.n	4f20 <memset+0x4>

00004f2c <strlen>:
strlen():
/home/yin/imx-optee/imx-optee-os/lib/libutils/isoc/newlib/strlen.c:92
    4f2c:	4603      	mov	r3, r0
/home/yin/imx-optee/imx-optee-os/lib/libutils/isoc/newlib/strlen.c:117
    4f2e:	781a      	ldrb	r2, [r3, #0]
    4f30:	1c59      	adds	r1, r3, #1
    4f32:	b90a      	cbnz	r2, 4f38 <strlen+0xc>
/home/yin/imx-optee/imx-optee-os/lib/libutils/isoc/newlib/strlen.c:120
    4f34:	1a18      	subs	r0, r3, r0
    4f36:	4770      	bx	lr
    4f38:	460b      	mov	r3, r1
    4f3a:	e7f8      	b.n	4f2e <strlen+0x2>

00004f3c <uint_div_qr>:
uint_div_qr():
/home/yin/imx-optee/imx-optee-os/lib/libutils/isoc/arch/arm/arm32_aeabi_divmod.c:88
    4f3c:	b510      	push	{r4, lr}
division_qr():
/home/yin/imx-optee/imx-optee-os/lib/libutils/isoc/arch/arm/arm32_aeabi_divmod.c:63
    4f3e:	b139      	cbz	r1, 4f50 <uint_div_qr+0x14>
    4f40:	2401      	movs	r4, #1
/home/yin/imx-optee/imx-optee-os/lib/libutils/isoc/arch/arm/arm32_aeabi_divmod.c:68
    4f42:	2900      	cmp	r1, #0
    4f44:	da12      	bge.n	4f6c <uint_div_qr+0x30>
    4f46:	2300      	movs	r3, #0
/home/yin/imx-optee/imx-optee-os/lib/libutils/isoc/arch/arm/arm32_aeabi_divmod.c:73
    4f48:	b99c      	cbnz	r4, 4f72 <uint_div_qr+0x36>
/home/yin/imx-optee/imx-optee-os/lib/libutils/isoc/arch/arm/arm32_aeabi_divmod.c:83
    4f4a:	6050      	str	r0, [r2, #4]
/home/yin/imx-optee/imx-optee-os/lib/libutils/isoc/arch/arm/arm32_aeabi_divmod.c:84
    4f4c:	6013      	str	r3, [r2, #0]
    4f4e:	e002      	b.n	4f56 <uint_div_qr+0x1a>
/home/yin/imx-optee/imx-optee-os/lib/libutils/isoc/arch/arm/arm32_aeabi_divmod.c:64
    4f50:	f04f 33ff 	mov.w	r3, #4294967295	; 0xffffffff
    4f54:	6053      	str	r3, [r2, #4]
uint_div_qr():
/home/yin/imx-optee/imx-optee-os/lib/libutils/isoc/arch/arm/arm32_aeabi_divmod.c:93
    4f56:	6893      	ldr	r3, [r2, #8]
    4f58:	b113      	cbz	r3, 4f60 <uint_div_qr+0x24>
/home/yin/imx-optee/imx-optee-os/lib/libutils/isoc/arch/arm/arm32_aeabi_divmod.c:94
    4f5a:	6813      	ldr	r3, [r2, #0]
    4f5c:	425b      	negs	r3, r3
    4f5e:	6013      	str	r3, [r2, #0]
/home/yin/imx-optee/imx-optee-os/lib/libutils/isoc/arch/arm/arm32_aeabi_divmod.c:95
    4f60:	68d3      	ldr	r3, [r2, #12]
    4f62:	b113      	cbz	r3, 4f6a <uint_div_qr+0x2e>
/home/yin/imx-optee/imx-optee-os/lib/libutils/isoc/arch/arm/arm32_aeabi_divmod.c:96
    4f64:	6853      	ldr	r3, [r2, #4]
    4f66:	425b      	negs	r3, r3
    4f68:	6053      	str	r3, [r2, #4]
    4f6a:	bd10      	pop	{r4, pc}
division_qr():
/home/yin/imx-optee/imx-optee-os/lib/libutils/isoc/arch/arm/arm32_aeabi_divmod.c:69
    4f6c:	0064      	lsls	r4, r4, #1
/home/yin/imx-optee/imx-optee-os/lib/libutils/isoc/arch/arm/arm32_aeabi_divmod.c:70
    4f6e:	0049      	lsls	r1, r1, #1
    4f70:	e7e7      	b.n	4f42 <uint_div_qr+0x6>
/home/yin/imx-optee/imx-optee-os/lib/libutils/isoc/arch/arm/arm32_aeabi_divmod.c:74
    4f72:	005b      	lsls	r3, r3, #1
/home/yin/imx-optee/imx-optee-os/lib/libutils/isoc/arch/arm/arm32_aeabi_divmod.c:75
    4f74:	4288      	cmp	r0, r1
/home/yin/imx-optee/imx-optee-os/lib/libutils/isoc/arch/arm/arm32_aeabi_divmod.c:77
    4f76:	bf28      	it	cs
    4f78:	1a40      	subcs	r0, r0, r1
/home/yin/imx-optee/imx-optee-os/lib/libutils/isoc/arch/arm/arm32_aeabi_divmod.c:81
    4f7a:	ea4f 0454 	mov.w	r4, r4, lsr #1
/home/yin/imx-optee/imx-optee-os/lib/libutils/isoc/arch/arm/arm32_aeabi_divmod.c:78
    4f7e:	bf28      	it	cs
    4f80:	3301      	addcs	r3, #1
/home/yin/imx-optee/imx-optee-os/lib/libutils/isoc/arch/arm/arm32_aeabi_divmod.c:80
    4f82:	0849      	lsrs	r1, r1, #1
    4f84:	e7e0      	b.n	4f48 <uint_div_qr+0xc>

00004f86 <__aeabi_uidiv>:
__aeabi_uidiv():
/home/yin/imx-optee/imx-optee-os/lib/libutils/isoc/arch/arm/arm32_aeabi_divmod.c:100
    4f86:	b57f      	push	{r0, r1, r2, r3, r4, r5, r6, lr}
    4f88:	4605      	mov	r5, r0
    4f8a:	460e      	mov	r6, r1
/home/yin/imx-optee/imx-optee-os/lib/libutils/isoc/arch/arm/arm32_aeabi_divmod.c:101
    4f8c:	2210      	movs	r2, #16
    4f8e:	2100      	movs	r1, #0
    4f90:	4668      	mov	r0, sp
    4f92:	f7ff ffc3 	bl	4f1c <memset>
/home/yin/imx-optee/imx-optee-os/lib/libutils/isoc/arch/arm/arm32_aeabi_divmod.c:103
    4f96:	4628      	mov	r0, r5
    4f98:	466a      	mov	r2, sp
    4f9a:	4631      	mov	r1, r6
    4f9c:	f7ff ffce 	bl	4f3c <uint_div_qr>
/home/yin/imx-optee/imx-optee-os/lib/libutils/isoc/arch/arm/arm32_aeabi_divmod.c:106
    4fa0:	9800      	ldr	r0, [sp, #0]
    4fa2:	b004      	add	sp, #16
    4fa4:	bd70      	pop	{r4, r5, r6, pc}

00004fa6 <__aeabi_uimod>:
__aeabi_uimod():
/home/yin/imx-optee/imx-optee-os/lib/libutils/isoc/arch/arm/arm32_aeabi_divmod.c:109
    4fa6:	b57f      	push	{r0, r1, r2, r3, r4, r5, r6, lr}
    4fa8:	4605      	mov	r5, r0
    4faa:	460e      	mov	r6, r1
/home/yin/imx-optee/imx-optee-os/lib/libutils/isoc/arch/arm/arm32_aeabi_divmod.c:110
    4fac:	2210      	movs	r2, #16
    4fae:	2100      	movs	r1, #0
    4fb0:	4668      	mov	r0, sp
    4fb2:	f7ff ffb3 	bl	4f1c <memset>
/home/yin/imx-optee/imx-optee-os/lib/libutils/isoc/arch/arm/arm32_aeabi_divmod.c:112
    4fb6:	4628      	mov	r0, r5
    4fb8:	466a      	mov	r2, sp
    4fba:	4631      	mov	r1, r6
    4fbc:	f7ff ffbe 	bl	4f3c <uint_div_qr>
/home/yin/imx-optee/imx-optee-os/lib/libutils/isoc/arch/arm/arm32_aeabi_divmod.c:115
    4fc0:	9801      	ldr	r0, [sp, #4]
    4fc2:	b004      	add	sp, #16
    4fc4:	bd70      	pop	{r4, r5, r6, pc}

00004fc6 <__aeabi_uidivmod>:
__aeabi_uidivmod():
/home/yin/imx-optee/imx-optee-os/lib/libutils/isoc/arch/arm/arm32_aeabi_divmod.c:118
    4fc6:	b57f      	push	{r0, r1, r2, r3, r4, r5, r6, lr}
    4fc8:	4605      	mov	r5, r0
    4fca:	460e      	mov	r6, r1
/home/yin/imx-optee/imx-optee-os/lib/libutils/isoc/arch/arm/arm32_aeabi_divmod.c:119
    4fcc:	2210      	movs	r2, #16
    4fce:	2100      	movs	r1, #0
    4fd0:	4668      	mov	r0, sp
    4fd2:	f7ff ffa3 	bl	4f1c <memset>
/home/yin/imx-optee/imx-optee-os/lib/libutils/isoc/arch/arm/arm32_aeabi_divmod.c:121
    4fd6:	466a      	mov	r2, sp
    4fd8:	4631      	mov	r1, r6
    4fda:	4628      	mov	r0, r5
    4fdc:	f7ff ffae 	bl	4f3c <uint_div_qr>
/home/yin/imx-optee/imx-optee-os/lib/libutils/isoc/arch/arm/arm32_aeabi_divmod.c:123
    4fe0:	e89d 0003 	ldmia.w	sp, {r0, r1}
    4fe4:	f7ff e964 	blx	42b0 <ret_uidivmod_values>
/home/yin/imx-optee/imx-optee-os/lib/libutils/isoc/arch/arm/arm32_aeabi_divmod.c:124
    4fe8:	b004      	add	sp, #16
    4fea:	bd70      	pop	{r4, r5, r6, pc}

00004fec <__aeabi_idiv>:
__aeabi_idiv():
/home/yin/imx-optee/imx-optee-os/lib/libutils/isoc/arch/arm/arm32_aeabi_divmod.c:127
    4fec:	b57f      	push	{r0, r1, r2, r3, r4, r5, r6, lr}
    4fee:	4604      	mov	r4, r0
    4ff0:	460d      	mov	r5, r1
/home/yin/imx-optee/imx-optee-os/lib/libutils/isoc/arch/arm/arm32_aeabi_divmod.c:128
    4ff2:	2210      	movs	r2, #16
    4ff4:	2100      	movs	r1, #0
    4ff6:	4668      	mov	r0, sp
    4ff8:	f7ff ff90 	bl	4f1c <memset>
/home/yin/imx-optee/imx-optee-os/lib/libutils/isoc/arch/arm/arm32_aeabi_divmod.c:130
    4ffc:	2c00      	cmp	r4, #0
/home/yin/imx-optee/imx-optee-os/lib/libutils/isoc/arch/arm/arm32_aeabi_divmod.c:128
    4ffe:	466e      	mov	r6, sp
/home/yin/imx-optee/imx-optee-os/lib/libutils/isoc/arch/arm/arm32_aeabi_divmod.c:130
    5000:	da0f      	bge.n	5022 <__aeabi_idiv+0x36>
/home/yin/imx-optee/imx-optee-os/lib/libutils/isoc/arch/arm/arm32_aeabi_divmod.c:130 (discriminator 1)
    5002:	2d00      	cmp	r5, #0
    5004:	dc10      	bgt.n	5028 <__aeabi_idiv+0x3c>
/home/yin/imx-optee/imx-optee-os/lib/libutils/isoc/arch/arm/arm32_aeabi_divmod.c:134
    5006:	4264      	negs	r4, r4
/home/yin/imx-optee/imx-optee-os/lib/libutils/isoc/arch/arm/arm32_aeabi_divmod.c:135
    5008:	2301      	movs	r3, #1
    500a:	9303      	str	r3, [sp, #12]
/home/yin/imx-optee/imx-optee-os/lib/libutils/isoc/arch/arm/arm32_aeabi_divmod.c:140
    500c:	ea85 71e5 	eor.w	r1, r5, r5, asr #31
    5010:	4620      	mov	r0, r4
    5012:	4632      	mov	r2, r6
    5014:	eba1 71e5 	sub.w	r1, r1, r5, asr #31
    5018:	f7ff ff90 	bl	4f3c <uint_div_qr>
/home/yin/imx-optee/imx-optee-os/lib/libutils/isoc/arch/arm/arm32_aeabi_divmod.c:143
    501c:	9800      	ldr	r0, [sp, #0]
    501e:	b004      	add	sp, #16
    5020:	bd70      	pop	{r4, r5, r6, pc}
/home/yin/imx-optee/imx-optee-os/lib/libutils/isoc/arch/arm/arm32_aeabi_divmod.c:130 (discriminator 3)
    5022:	d0f3      	beq.n	500c <__aeabi_idiv+0x20>
/home/yin/imx-optee/imx-optee-os/lib/libutils/isoc/arch/arm/arm32_aeabi_divmod.c:131
    5024:	2d00      	cmp	r5, #0
    5026:	daf1      	bge.n	500c <__aeabi_idiv+0x20>
/home/yin/imx-optee/imx-optee-os/lib/libutils/isoc/arch/arm/arm32_aeabi_divmod.c:133
    5028:	2c00      	cmp	r4, #0
/home/yin/imx-optee/imx-optee-os/lib/libutils/isoc/arch/arm/arm32_aeabi_divmod.c:132
    502a:	f04f 0301 	mov.w	r3, #1
    502e:	9302      	str	r3, [sp, #8]
/home/yin/imx-optee/imx-optee-os/lib/libutils/isoc/arch/arm/arm32_aeabi_divmod.c:133
    5030:	dbe9      	blt.n	5006 <__aeabi_idiv+0x1a>
    5032:	e7eb      	b.n	500c <__aeabi_idiv+0x20>

00005034 <__aeabi_imod>:
__aeabi_imod():
/home/yin/imx-optee/imx-optee-os/lib/libutils/isoc/arch/arm/arm32_aeabi_divmod.c:146
    5034:	b57f      	push	{r0, r1, r2, r3, r4, r5, r6, lr}
    5036:	460d      	mov	r5, r1
/home/yin/imx-optee/imx-optee-os/lib/libutils/isoc/arch/arm/arm32_aeabi_divmod.c:152
    5038:	2210      	movs	r2, #16
    503a:	2100      	movs	r1, #0
/home/yin/imx-optee/imx-optee-os/lib/libutils/isoc/arch/arm/arm32_aeabi_divmod.c:146
    503c:	4604      	mov	r4, r0
/home/yin/imx-optee/imx-optee-os/lib/libutils/isoc/arch/arm/arm32_aeabi_divmod.c:152
    503e:	4668      	mov	r0, sp
    5040:	f7ff ff6c 	bl	4f1c <memset>
/home/yin/imx-optee/imx-optee-os/lib/libutils/isoc/arch/arm/arm32_aeabi_divmod.c:155
    5044:	2300      	movs	r3, #0
/home/yin/imx-optee/imx-optee-os/lib/libutils/isoc/arch/arm/arm32_aeabi_divmod.c:152
    5046:	466e      	mov	r6, sp
/home/yin/imx-optee/imx-optee-os/lib/libutils/isoc/arch/arm/arm32_aeabi_divmod.c:155
    5048:	462a      	mov	r2, r5
    504a:	4618      	mov	r0, r3
    504c:	4619      	mov	r1, r3
/home/yin/imx-optee/imx-optee-os/lib/libutils/isoc/arch/arm/arm32_aeabi_divmod.c:155 (discriminator 1)
    504e:	b932      	cbnz	r2, 505e <__aeabi_imod+0x2a>
/home/yin/imx-optee/imx-optee-os/lib/libutils/isoc/arch/arm/arm32_aeabi_divmod.c:155 (discriminator 3)
    5050:	2b01      	cmp	r3, #1
    5052:	dc04      	bgt.n	505e <__aeabi_imod+0x2a>
/home/yin/imx-optee/imx-optee-os/lib/libutils/isoc/arch/arm/arm32_aeabi_divmod.c:162
    5054:	d10c      	bne.n	5070 <__aeabi_imod+0x3c>
/home/yin/imx-optee/imx-optee-os/lib/libutils/isoc/arch/arm/arm32_aeabi_divmod.c:163
    5056:	fa44 f000 	asr.w	r0, r4, r0
/home/yin/imx-optee/imx-optee-os/lib/libutils/isoc/arch/arm/arm32_aeabi_divmod.c:178
    505a:	b004      	add	sp, #16
    505c:	bd70      	pop	{r4, r5, r6, pc}
/home/yin/imx-optee/imx-optee-os/lib/libutils/isoc/arch/arm/arm32_aeabi_divmod.c:156
    505e:	f012 0f01 	tst.w	r2, #1
/home/yin/imx-optee/imx-optee-os/lib/libutils/isoc/arch/arm/arm32_aeabi_divmod.c:160
    5062:	ea4f 0262 	mov.w	r2, r2, asr #1
/home/yin/imx-optee/imx-optee-os/lib/libutils/isoc/arch/arm/arm32_aeabi_divmod.c:157
    5066:	bf1c      	itt	ne
    5068:	4608      	movne	r0, r1
/home/yin/imx-optee/imx-optee-os/lib/libutils/isoc/arch/arm/arm32_aeabi_divmod.c:158
    506a:	3301      	addne	r3, #1
/home/yin/imx-optee/imx-optee-os/lib/libutils/isoc/arch/arm/arm32_aeabi_divmod.c:155
    506c:	3101      	adds	r1, #1
    506e:	e7ee      	b.n	504e <__aeabi_imod+0x1a>
/home/yin/imx-optee/imx-optee-os/lib/libutils/isoc/arch/arm/arm32_aeabi_divmod.c:165
    5070:	2c00      	cmp	r4, #0
    5072:	da0e      	bge.n	5092 <__aeabi_imod+0x5e>
/home/yin/imx-optee/imx-optee-os/lib/libutils/isoc/arch/arm/arm32_aeabi_divmod.c:165 (discriminator 1)
    5074:	2d00      	cmp	r5, #0
    5076:	dc0f      	bgt.n	5098 <__aeabi_imod+0x64>
/home/yin/imx-optee/imx-optee-os/lib/libutils/isoc/arch/arm/arm32_aeabi_divmod.c:169
    5078:	4264      	negs	r4, r4
/home/yin/imx-optee/imx-optee-os/lib/libutils/isoc/arch/arm/arm32_aeabi_divmod.c:170
    507a:	2301      	movs	r3, #1
    507c:	9303      	str	r3, [sp, #12]
/home/yin/imx-optee/imx-optee-os/lib/libutils/isoc/arch/arm/arm32_aeabi_divmod.c:175
    507e:	ea85 71e5 	eor.w	r1, r5, r5, asr #31
    5082:	4620      	mov	r0, r4
    5084:	4632      	mov	r2, r6
    5086:	eba1 71e5 	sub.w	r1, r1, r5, asr #31
    508a:	f7ff ff57 	bl	4f3c <uint_div_qr>
/home/yin/imx-optee/imx-optee-os/lib/libutils/isoc/arch/arm/arm32_aeabi_divmod.c:177
    508e:	9801      	ldr	r0, [sp, #4]
    5090:	e7e3      	b.n	505a <__aeabi_imod+0x26>
/home/yin/imx-optee/imx-optee-os/lib/libutils/isoc/arch/arm/arm32_aeabi_divmod.c:165 (discriminator 3)
    5092:	d0f4      	beq.n	507e <__aeabi_imod+0x4a>
/home/yin/imx-optee/imx-optee-os/lib/libutils/isoc/arch/arm/arm32_aeabi_divmod.c:166
    5094:	2d00      	cmp	r5, #0
    5096:	daf2      	bge.n	507e <__aeabi_imod+0x4a>
/home/yin/imx-optee/imx-optee-os/lib/libutils/isoc/arch/arm/arm32_aeabi_divmod.c:168
    5098:	2c00      	cmp	r4, #0
/home/yin/imx-optee/imx-optee-os/lib/libutils/isoc/arch/arm/arm32_aeabi_divmod.c:167
    509a:	f04f 0301 	mov.w	r3, #1
    509e:	9302      	str	r3, [sp, #8]
/home/yin/imx-optee/imx-optee-os/lib/libutils/isoc/arch/arm/arm32_aeabi_divmod.c:168
    50a0:	dbea      	blt.n	5078 <__aeabi_imod+0x44>
    50a2:	e7ec      	b.n	507e <__aeabi_imod+0x4a>

000050a4 <__aeabi_idivmod>:
__aeabi_idivmod():
/home/yin/imx-optee/imx-optee-os/lib/libutils/isoc/arch/arm/arm32_aeabi_divmod.c:181
    50a4:	b57f      	push	{r0, r1, r2, r3, r4, r5, r6, lr}
    50a6:	4604      	mov	r4, r0
    50a8:	460d      	mov	r5, r1
/home/yin/imx-optee/imx-optee-os/lib/libutils/isoc/arch/arm/arm32_aeabi_divmod.c:182
    50aa:	2210      	movs	r2, #16
    50ac:	2100      	movs	r1, #0
    50ae:	4668      	mov	r0, sp
    50b0:	f7ff ff34 	bl	4f1c <memset>
/home/yin/imx-optee/imx-optee-os/lib/libutils/isoc/arch/arm/arm32_aeabi_divmod.c:184
    50b4:	2c00      	cmp	r4, #0
/home/yin/imx-optee/imx-optee-os/lib/libutils/isoc/arch/arm/arm32_aeabi_divmod.c:182
    50b6:	466e      	mov	r6, sp
/home/yin/imx-optee/imx-optee-os/lib/libutils/isoc/arch/arm/arm32_aeabi_divmod.c:184
    50b8:	da12      	bge.n	50e0 <__aeabi_idivmod+0x3c>
/home/yin/imx-optee/imx-optee-os/lib/libutils/isoc/arch/arm/arm32_aeabi_divmod.c:184 (discriminator 1)
    50ba:	2d00      	cmp	r5, #0
    50bc:	dc13      	bgt.n	50e6 <__aeabi_idivmod+0x42>
/home/yin/imx-optee/imx-optee-os/lib/libutils/isoc/arch/arm/arm32_aeabi_divmod.c:188
    50be:	4264      	negs	r4, r4
/home/yin/imx-optee/imx-optee-os/lib/libutils/isoc/arch/arm/arm32_aeabi_divmod.c:189
    50c0:	2301      	movs	r3, #1
    50c2:	9303      	str	r3, [sp, #12]
/home/yin/imx-optee/imx-optee-os/lib/libutils/isoc/arch/arm/arm32_aeabi_divmod.c:194
    50c4:	ea85 71e5 	eor.w	r1, r5, r5, asr #31
    50c8:	4632      	mov	r2, r6
    50ca:	4620      	mov	r0, r4
    50cc:	eba1 71e5 	sub.w	r1, r1, r5, asr #31
    50d0:	f7ff ff34 	bl	4f3c <uint_div_qr>
/home/yin/imx-optee/imx-optee-os/lib/libutils/isoc/arch/arm/arm32_aeabi_divmod.c:196
    50d4:	e89d 0003 	ldmia.w	sp, {r0, r1}
    50d8:	f7ff e8e8 	blx	42ac <ret_idivmod_values>
/home/yin/imx-optee/imx-optee-os/lib/libutils/isoc/arch/arm/arm32_aeabi_divmod.c:197
    50dc:	b004      	add	sp, #16
    50de:	bd70      	pop	{r4, r5, r6, pc}
/home/yin/imx-optee/imx-optee-os/lib/libutils/isoc/arch/arm/arm32_aeabi_divmod.c:184 (discriminator 3)
    50e0:	d0f0      	beq.n	50c4 <__aeabi_idivmod+0x20>
/home/yin/imx-optee/imx-optee-os/lib/libutils/isoc/arch/arm/arm32_aeabi_divmod.c:185
    50e2:	2d00      	cmp	r5, #0
    50e4:	daee      	bge.n	50c4 <__aeabi_idivmod+0x20>
/home/yin/imx-optee/imx-optee-os/lib/libutils/isoc/arch/arm/arm32_aeabi_divmod.c:187
    50e6:	2c00      	cmp	r4, #0
/home/yin/imx-optee/imx-optee-os/lib/libutils/isoc/arch/arm/arm32_aeabi_divmod.c:186
    50e8:	f04f 0301 	mov.w	r3, #1
    50ec:	9302      	str	r3, [sp, #8]
/home/yin/imx-optee/imx-optee-os/lib/libutils/isoc/arch/arm/arm32_aeabi_divmod.c:187
    50ee:	dbe6      	blt.n	50be <__aeabi_idivmod+0x1a>
    50f0:	e7e8      	b.n	50c4 <__aeabi_idivmod+0x20>

000050f2 <buf_compare_ct>:
buf_compare_ct():
/home/yin/imx-optee/imx-optee-os/lib/libutils/ext/buf_compare_ct.c:8
    50f2:	3801      	subs	r0, #1
    50f4:	440a      	add	r2, r1
/home/yin/imx-optee/imx-optee-os/lib/libutils/ext/buf_compare_ct.c:9
    50f6:	2300      	movs	r3, #0
/home/yin/imx-optee/imx-optee-os/lib/libutils/ext/buf_compare_ct.c:8
    50f8:	b530      	push	{r4, r5, lr}
/home/yin/imx-optee/imx-optee-os/lib/libutils/ext/buf_compare_ct.c:13
    50fa:	4291      	cmp	r1, r2
    50fc:	d108      	bne.n	5110 <buf_compare_ct+0x1e>
/home/yin/imx-optee/imx-optee-os/lib/libutils/ext/buf_compare_ct.c:19
    50fe:	ea43 1323 	orr.w	r3, r3, r3, asr #4
/home/yin/imx-optee/imx-optee-os/lib/libutils/ext/buf_compare_ct.c:20
    5102:	ea43 03a3 	orr.w	r3, r3, r3, asr #2
/home/yin/imx-optee/imx-optee-os/lib/libutils/ext/buf_compare_ct.c:21
    5106:	ea43 0363 	orr.w	r3, r3, r3, asr #1
/home/yin/imx-optee/imx-optee-os/lib/libutils/ext/buf_compare_ct.c:25
    510a:	f003 0001 	and.w	r0, r3, #1
    510e:	bd30      	pop	{r4, r5, pc}
/home/yin/imx-optee/imx-optee-os/lib/libutils/ext/buf_compare_ct.c:14
    5110:	f810 4f01 	ldrb.w	r4, [r0, #1]!
    5114:	f811 5b01 	ldrb.w	r5, [r1], #1
    5118:	406c      	eors	r4, r5
    511a:	4323      	orrs	r3, r4
    511c:	e7ed      	b.n	50fa <buf_compare_ct+0x8>

0000511e <__aeabi_unwind_cpp_pr0>:
__aeabi_unwind_cpp_pr0():
    511e:	4770      	bx	lr

00005120 <__aeabi_unwind_cpp_pr1>:
__aeabi_unwind_cpp_pr1():
    5120:	4770      	bx	lr

00005122 <__aeabi_unwind_cpp_pr2>:
__aeabi_unwind_cpp_pr2():
/home/yin/imx-optee/imx-optee-os/lib/libutils/ext/arch/arm/aeabi_unwind.c:18
    5122:	4770      	bx	lr

00005124 <memchr>:
memchr():
/home/yin/imx-optee/imx-optee-os/lib/libutils/isoc/newlib/memchr.c:109
    5124:	b2c9      	uxtb	r1, r1
    5126:	4402      	add	r2, r0
/home/yin/imx-optee/imx-optee-os/lib/libutils/isoc/newlib/memchr.c:107
    5128:	b510      	push	{r4, lr}
/home/yin/imx-optee/imx-optee-os/lib/libutils/isoc/newlib/memchr.c:153
    512a:	4290      	cmp	r0, r2
    512c:	4603      	mov	r3, r0
    512e:	d101      	bne.n	5134 <memchr+0x10>
/home/yin/imx-optee/imx-optee-os/lib/libutils/isoc/newlib/memchr.c:159
    5130:	2000      	movs	r0, #0
    5132:	bd10      	pop	{r4, pc}
/home/yin/imx-optee/imx-optee-os/lib/libutils/isoc/newlib/memchr.c:154
    5134:	781c      	ldrb	r4, [r3, #0]
    5136:	3001      	adds	r0, #1
    5138:	428c      	cmp	r4, r1
    513a:	d1f6      	bne.n	512a <memchr+0x6>
    513c:	4618      	mov	r0, r3
/home/yin/imx-optee/imx-optee-os/lib/libutils/isoc/newlib/memchr.c:160
    513e:	bd10      	pop	{r4, pc}

00005140 <__ul_divmod>:
__ul_divmod():
/home/yin/imx-optee/imx-optee-os/lib/libutils/isoc/arch/arm/arm32_aeabi_ldivmod.c:68
    5140:	e9d0 2302 	ldrd	r2, r3, [r0, #8]
/home/yin/imx-optee/imx-optee-os/lib/libutils/isoc/arch/arm/arm32_aeabi_ldivmod.c:66
    5144:	e92d 43f0 	stmdb	sp!, {r4, r5, r6, r7, r8, r9, lr}
/home/yin/imx-optee/imx-optee-os/lib/libutils/isoc/arch/arm/arm32_aeabi_ldivmod.c:67
    5148:	e9d0 8900 	ldrd	r8, r9, [r0]
division_lqr():
/home/yin/imx-optee/imx-optee-os/lib/libutils/isoc/arch/arm/arm32_aeabi_ldivmod.c:22
    514c:	ea52 0103 	orrs.w	r1, r2, r3
    5150:	d02b      	beq.n	51aa <__ul_divmod+0x6a>
    5152:	2601      	movs	r6, #1
    5154:	2700      	movs	r7, #0
    5156:	4614      	mov	r4, r2
    5158:	461d      	mov	r5, r3
/home/yin/imx-optee/imx-optee-os/lib/libutils/isoc/arch/arm/arm32_aeabi_ldivmod.c:27
    515a:	2c00      	cmp	r4, #0
    515c:	f175 0300 	sbcs.w	r3, r5, #0
    5160:	da0a      	bge.n	5178 <__ul_divmod+0x38>
    5162:	2200      	movs	r2, #0
    5164:	2300      	movs	r3, #0
/home/yin/imx-optee/imx-optee-os/lib/libutils/isoc/arch/arm/arm32_aeabi_ldivmod.c:32
    5166:	ea56 0107 	orrs.w	r1, r6, r7
    516a:	d10a      	bne.n	5182 <__ul_divmod+0x42>
__ul_divmod():
/home/yin/imx-optee/imx-optee-os/lib/libutils/isoc/arch/arm/arm32_aeabi_ldivmod.c:73
    516c:	e9c0 2300 	strd	r2, r3, [r0]
/home/yin/imx-optee/imx-optee-os/lib/libutils/isoc/arch/arm/arm32_aeabi_ldivmod.c:74
    5170:	e9c0 8902 	strd	r8, r9, [r0, #8]
    5174:	e8bd 83f0 	ldmia.w	sp!, {r4, r5, r6, r7, r8, r9, pc}
division_lqr():
/home/yin/imx-optee/imx-optee-os/lib/libutils/isoc/arch/arm/arm32_aeabi_ldivmod.c:28
    5178:	19b6      	adds	r6, r6, r6
    517a:	417f      	adcs	r7, r7
/home/yin/imx-optee/imx-optee-os/lib/libutils/isoc/arch/arm/arm32_aeabi_ldivmod.c:29
    517c:	1924      	adds	r4, r4, r4
    517e:	416d      	adcs	r5, r5
    5180:	e7eb      	b.n	515a <__ul_divmod+0x1a>
/home/yin/imx-optee/imx-optee-os/lib/libutils/isoc/arch/arm/arm32_aeabi_ldivmod.c:33
    5182:	1892      	adds	r2, r2, r2
    5184:	415b      	adcs	r3, r3
/home/yin/imx-optee/imx-optee-os/lib/libutils/isoc/arch/arm/arm32_aeabi_ldivmod.c:34
    5186:	45a9      	cmp	r9, r5
    5188:	bf08      	it	eq
    518a:	45a0      	cmpeq	r8, r4
    518c:	d306      	bcc.n	519c <__ul_divmod+0x5c>
/home/yin/imx-optee/imx-optee-os/lib/libutils/isoc/arch/arm/arm32_aeabi_ldivmod.c:35
    518e:	ebb8 0804 	subs.w	r8, r8, r4
    5192:	eb69 0905 	sbc.w	r9, r9, r5
/home/yin/imx-optee/imx-optee-os/lib/libutils/isoc/arch/arm/arm32_aeabi_ldivmod.c:36
    5196:	3201      	adds	r2, #1
    5198:	f143 0300 	adc.w	r3, r3, #0
/home/yin/imx-optee/imx-optee-os/lib/libutils/isoc/arch/arm/arm32_aeabi_ldivmod.c:38
    519c:	086d      	lsrs	r5, r5, #1
    519e:	ea4f 0434 	mov.w	r4, r4, rrx
/home/yin/imx-optee/imx-optee-os/lib/libutils/isoc/arch/arm/arm32_aeabi_ldivmod.c:39
    51a2:	087f      	lsrs	r7, r7, #1
    51a4:	ea4f 0636 	mov.w	r6, r6, rrx
    51a8:	e7dd      	b.n	5166 <__ul_divmod+0x26>
/home/yin/imx-optee/imx-optee-os/lib/libutils/isoc/arch/arm/arm32_aeabi_ldivmod.c:23
    51aa:	f04f 38ff 	mov.w	r8, #4294967295	; 0xffffffff
    51ae:	f04f 39ff 	mov.w	r9, #4294967295	; 0xffffffff
    51b2:	e7db      	b.n	516c <__ul_divmod+0x2c>

000051b4 <__l_divmod>:
__l_divmod():
/home/yin/imx-optee/imx-optee-os/lib/libutils/isoc/arch/arm/arm32_aeabi_ldivmod.c:85
    51b4:	e92d 43f0 	stmdb	sp!, {r4, r5, r6, r7, r8, r9, lr}
/home/yin/imx-optee/imx-optee-os/lib/libutils/isoc/arch/arm/arm32_aeabi_ldivmod.c:86
    51b8:	e9d0 4500 	ldrd	r4, r5, [r0]
/home/yin/imx-optee/imx-optee-os/lib/libutils/isoc/arch/arm/arm32_aeabi_ldivmod.c:87
    51bc:	e9d0 2302 	ldrd	r2, r3, [r0, #8]
/home/yin/imx-optee/imx-optee-os/lib/libutils/isoc/arch/arm/arm32_aeabi_ldivmod.c:90
    51c0:	2c00      	cmp	r4, #0
    51c2:	f175 0100 	sbcs.w	r1, r5, #0
    51c6:	da35      	bge.n	5234 <__l_divmod+0x80>
/home/yin/imx-optee/imx-optee-os/lib/libutils/isoc/arch/arm/arm32_aeabi_ldivmod.c:90 (discriminator 1)
    51c8:	2a01      	cmp	r2, #1
    51ca:	f173 0100 	sbcs.w	r1, r3, #0
    51ce:	bfac      	ite	ge
    51d0:	f04f 0c01 	movge.w	ip, #1
    51d4:	f04f 0c00 	movlt.w	ip, #0
/home/yin/imx-optee/imx-optee-os/lib/libutils/isoc/arch/arm/arm32_aeabi_ldivmod.c:94 (discriminator 1)
    51d8:	4264      	negs	r4, r4
    51da:	eb65 0545 	sbc.w	r5, r5, r5, lsl #1
division_lqr():
/home/yin/imx-optee/imx-optee-os/lib/libutils/isoc/arch/arm/arm32_aeabi_ldivmod.c:22 (discriminator 1)
    51de:	ea52 0103 	orrs.w	r1, r2, r3
__l_divmod():
/home/yin/imx-optee/imx-optee-os/lib/libutils/isoc/arch/arm/arm32_aeabi_ldivmod.c:95 (discriminator 1)
    51e2:	f04f 0101 	mov.w	r1, #1
division_lqr():
/home/yin/imx-optee/imx-optee-os/lib/libutils/isoc/arch/arm/arm32_aeabi_ldivmod.c:22 (discriminator 1)
    51e6:	d04b      	beq.n	5280 <__l_divmod+0xcc>
__l_divmod():
/home/yin/imx-optee/imx-optee-os/lib/libutils/isoc/arch/arm/arm32_aeabi_ldivmod.c:100
    51e8:	2a00      	cmp	r2, #0
    51ea:	f173 0600 	sbcs.w	r6, r3, #0
    51ee:	da02      	bge.n	51f6 <__l_divmod+0x42>
    51f0:	4252      	negs	r2, r2
    51f2:	eb63 0343 	sbc.w	r3, r3, r3, lsl #1
    51f6:	4616      	mov	r6, r2
    51f8:	461f      	mov	r7, r3
    51fa:	f04f 0801 	mov.w	r8, #1
    51fe:	f04f 0900 	mov.w	r9, #0
division_lqr():
/home/yin/imx-optee/imx-optee-os/lib/libutils/isoc/arch/arm/arm32_aeabi_ldivmod.c:27
    5202:	2e00      	cmp	r6, #0
    5204:	f177 0300 	sbcs.w	r3, r7, #0
    5208:	da1f      	bge.n	524a <__l_divmod+0x96>
__l_divmod():
/home/yin/imx-optee/imx-optee-os/lib/libutils/isoc/arch/arm/arm32_aeabi_ldivmod.c:100
    520a:	2200      	movs	r2, #0
    520c:	2300      	movs	r3, #0
division_lqr():
/home/yin/imx-optee/imx-optee-os/lib/libutils/isoc/arch/arm/arm32_aeabi_ldivmod.c:32
    520e:	ea58 0e09 	orrs.w	lr, r8, r9
    5212:	d121      	bne.n	5258 <__l_divmod+0xa4>
ul_div_qr():
/home/yin/imx-optee/imx-optee-os/lib/libutils/isoc/arch/arm/arm32_aeabi_ldivmod.c:52
    5214:	f1bc 0f00 	cmp.w	ip, #0
    5218:	d002      	beq.n	5220 <__l_divmod+0x6c>
/home/yin/imx-optee/imx-optee-os/lib/libutils/isoc/arch/arm/arm32_aeabi_ldivmod.c:53
    521a:	4252      	negs	r2, r2
    521c:	eb63 0343 	sbc.w	r3, r3, r3, lsl #1
/home/yin/imx-optee/imx-optee-os/lib/libutils/isoc/arch/arm/arm32_aeabi_ldivmod.c:54
    5220:	b111      	cbz	r1, 5228 <__l_divmod+0x74>
/home/yin/imx-optee/imx-optee-os/lib/libutils/isoc/arch/arm/arm32_aeabi_ldivmod.c:55
    5222:	4264      	negs	r4, r4
    5224:	eb65 0545 	sbc.w	r5, r5, r5, lsl #1
__l_divmod():
/home/yin/imx-optee/imx-optee-os/lib/libutils/isoc/arch/arm/arm32_aeabi_ldivmod.c:102
    5228:	e9c0 2300 	strd	r2, r3, [r0]
/home/yin/imx-optee/imx-optee-os/lib/libutils/isoc/arch/arm/arm32_aeabi_ldivmod.c:103
    522c:	e9c0 4502 	strd	r4, r5, [r0, #8]
/home/yin/imx-optee/imx-optee-os/lib/libutils/isoc/arch/arm/arm32_aeabi_ldivmod.c:104
    5230:	e8bd 83f0 	ldmia.w	sp!, {r4, r5, r6, r7, r8, r9, pc}
/home/yin/imx-optee/imx-optee-os/lib/libutils/isoc/arch/arm/arm32_aeabi_ldivmod.c:90 (discriminator 3)
    5234:	ea54 0105 	orrs.w	r1, r4, r5
    5238:	d02c      	beq.n	5294 <__l_divmod+0xe0>
/home/yin/imx-optee/imx-optee-os/lib/libutils/isoc/arch/arm/arm32_aeabi_ldivmod.c:91
    523a:	2a00      	cmp	r2, #0
    523c:	f173 0100 	sbcs.w	r1, r3, #0
    5240:	da28      	bge.n	5294 <__l_divmod+0xe0>
/home/yin/imx-optee/imx-optee-os/lib/libutils/isoc/arch/arm/arm32_aeabi_ldivmod.c:88
    5242:	2100      	movs	r1, #0
/home/yin/imx-optee/imx-optee-os/lib/libutils/isoc/arch/arm/arm32_aeabi_ldivmod.c:92
    5244:	f04f 0c01 	mov.w	ip, #1
    5248:	e7ce      	b.n	51e8 <__l_divmod+0x34>
division_lqr():
/home/yin/imx-optee/imx-optee-os/lib/libutils/isoc/arch/arm/arm32_aeabi_ldivmod.c:28
    524a:	eb18 0808 	adds.w	r8, r8, r8
    524e:	eb49 0909 	adc.w	r9, r9, r9
/home/yin/imx-optee/imx-optee-os/lib/libutils/isoc/arch/arm/arm32_aeabi_ldivmod.c:29
    5252:	19b6      	adds	r6, r6, r6
    5254:	417f      	adcs	r7, r7
    5256:	e7d4      	b.n	5202 <__l_divmod+0x4e>
/home/yin/imx-optee/imx-optee-os/lib/libutils/isoc/arch/arm/arm32_aeabi_ldivmod.c:33
    5258:	1892      	adds	r2, r2, r2
    525a:	415b      	adcs	r3, r3
/home/yin/imx-optee/imx-optee-os/lib/libutils/isoc/arch/arm/arm32_aeabi_ldivmod.c:34
    525c:	42bd      	cmp	r5, r7
    525e:	bf08      	it	eq
    5260:	42b4      	cmpeq	r4, r6
    5262:	d305      	bcc.n	5270 <__l_divmod+0xbc>
/home/yin/imx-optee/imx-optee-os/lib/libutils/isoc/arch/arm/arm32_aeabi_ldivmod.c:35
    5264:	1ba4      	subs	r4, r4, r6
    5266:	eb65 0507 	sbc.w	r5, r5, r7
/home/yin/imx-optee/imx-optee-os/lib/libutils/isoc/arch/arm/arm32_aeabi_ldivmod.c:36
    526a:	3201      	adds	r2, #1
    526c:	f143 0300 	adc.w	r3, r3, #0
/home/yin/imx-optee/imx-optee-os/lib/libutils/isoc/arch/arm/arm32_aeabi_ldivmod.c:38
    5270:	087f      	lsrs	r7, r7, #1
    5272:	ea4f 0636 	mov.w	r6, r6, rrx
/home/yin/imx-optee/imx-optee-os/lib/libutils/isoc/arch/arm/arm32_aeabi_ldivmod.c:39
    5276:	ea5f 0959 	movs.w	r9, r9, lsr #1
    527a:	ea4f 0838 	mov.w	r8, r8, rrx
    527e:	e7c6      	b.n	520e <__l_divmod+0x5a>
/home/yin/imx-optee/imx-optee-os/lib/libutils/isoc/arch/arm/arm32_aeabi_ldivmod.c:23
    5280:	f04f 34ff 	mov.w	r4, #4294967295	; 0xffffffff
    5284:	f04f 35ff 	mov.w	r5, #4294967295	; 0xffffffff
    5288:	e7c4      	b.n	5214 <__l_divmod+0x60>
    528a:	f04f 34ff 	mov.w	r4, #4294967295	; 0xffffffff
    528e:	f04f 35ff 	mov.w	r5, #4294967295	; 0xffffffff
    5292:	e7c9      	b.n	5228 <__l_divmod+0x74>
/home/yin/imx-optee/imx-optee-os/lib/libutils/isoc/arch/arm/arm32_aeabi_ldivmod.c:22
    5294:	ea52 0103 	orrs.w	r1, r2, r3
    5298:	d0f7      	beq.n	528a <__l_divmod+0xd6>
    529a:	2100      	movs	r1, #0
    529c:	468c      	mov	ip, r1
    529e:	e7a3      	b.n	51e8 <__l_divmod+0x34>

000052a0 <mpa_set_S32>:
mpa_set_S32():
/home/yin/imx-optee/imx-optee-os/lib/libmpa/mpa_conv.c:15
    52a0:	2900      	cmp	r1, #0
    52a2:	d009      	beq.n	52b8 <mpa_set_S32+0x18>
/home/yin/imx-optee/imx-optee-os/lib/libmpa/mpa_conv.c:16
    52a4:	bfac      	ite	ge
    52a6:	2301      	movge	r3, #1
    52a8:	f04f 33ff 	movlt.w	r3, #4294967295	; 0xffffffff
    52ac:	6043      	str	r3, [r0, #4]
/home/yin/imx-optee/imx-optee-os/lib/libmpa/mpa_conv.c:19
    52ae:	2900      	cmp	r1, #0
    52b0:	bfb8      	it	lt
    52b2:	4249      	neglt	r1, r1
    52b4:	6081      	str	r1, [r0, #8]
    52b6:	4770      	bx	lr
/home/yin/imx-optee/imx-optee-os/lib/libmpa/mpa_conv.c:18
    52b8:	6041      	str	r1, [r0, #4]
    52ba:	e7f8      	b.n	52ae <mpa_set_S32+0xe>

000052bc <mpa_get_S32>:
mpa_get_S32():
/home/yin/imx-optee/imx-optee-os/lib/libmpa/mpa_conv.c:35
    52bc:	684a      	ldr	r2, [r1, #4]
    52be:	ea82 73e2 	eor.w	r3, r2, r2, asr #31
    52c2:	eba3 73e2 	sub.w	r3, r3, r2, asr #31
    52c6:	2b01      	cmp	r3, #1
    52c8:	dc16      	bgt.n	52f8 <mpa_get_S32+0x3c>
/home/yin/imx-optee/imx-optee-os/lib/libmpa/mpa_conv.c:37
    52ca:	688b      	ldr	r3, [r1, #8]
    52cc:	f1b3 4f00 	cmp.w	r3, #2147483648	; 0x80000000
    52d0:	d901      	bls.n	52d6 <mpa_get_S32+0x1a>
/home/yin/imx-optee/imx-optee-os/lib/libmpa/mpa_conv.c:37 (discriminator 1)
    52d2:	2a00      	cmp	r2, #0
    52d4:	db10      	blt.n	52f8 <mpa_get_S32+0x3c>
/home/yin/imx-optee/imx-optee-os/lib/libmpa/mpa_conv.c:39
    52d6:	2b00      	cmp	r3, #0
    52d8:	da07      	bge.n	52ea <mpa_get_S32+0x2e>
/home/yin/imx-optee/imx-optee-os/lib/libmpa/mpa_conv.c:39 (discriminator 1)
    52da:	2a00      	cmp	r2, #0
    52dc:	da0c      	bge.n	52f8 <mpa_get_S32+0x3c>
/home/yin/imx-optee/imx-optee-os/lib/libmpa/mpa_conv.c:42
    52de:	f04f 32ff 	mov.w	r2, #4294967295	; 0xffffffff
/home/yin/imx-optee/imx-optee-os/lib/libmpa/mpa_conv.c:42 (discriminator 8)
    52e2:	4353      	muls	r3, r2
    52e4:	6003      	str	r3, [r0, #0]
/home/yin/imx-optee/imx-optee-os/lib/libmpa/mpa_conv.c:43 (discriminator 8)
    52e6:	2000      	movs	r0, #0
    52e8:	4770      	bx	lr
/home/yin/imx-optee/imx-optee-os/lib/libmpa/mpa_conv.c:42
    52ea:	2a00      	cmp	r2, #0
    52ec:	d002      	beq.n	52f4 <mpa_get_S32+0x38>
/home/yin/imx-optee/imx-optee-os/lib/libmpa/mpa_conv.c:42 (discriminator 4)
    52ee:	dbf6      	blt.n	52de <mpa_get_S32+0x22>
/home/yin/imx-optee/imx-optee-os/lib/libmpa/mpa_conv.c:42
    52f0:	2201      	movs	r2, #1
    52f2:	e7f6      	b.n	52e2 <mpa_get_S32+0x26>
    52f4:	4613      	mov	r3, r2
    52f6:	e7fb      	b.n	52f0 <mpa_get_S32+0x34>
/home/yin/imx-optee/imx-optee-os/lib/libmpa/mpa_conv.c:36
    52f8:	f04f 30ff 	mov.w	r0, #4294967295	; 0xffffffff
/home/yin/imx-optee/imx-optee-os/lib/libmpa/mpa_conv.c:48
    52fc:	4770      	bx	lr

000052fe <mpa_set_word>:
mpa_set_word():
/home/yin/imx-optee/imx-optee-os/lib/libmpa/mpa_conv.c:57
    52fe:	6081      	str	r1, [r0, #8]
/home/yin/imx-optee/imx-optee-os/lib/libmpa/mpa_conv.c:58
    5300:	3100      	adds	r1, #0
    5302:	bf18      	it	ne
    5304:	2101      	movne	r1, #1
    5306:	6041      	str	r1, [r0, #4]
    5308:	4770      	bx	lr

0000530a <mpa_get_word>:
mpa_get_word():
/home/yin/imx-optee/imx-optee-os/lib/libmpa/mpa_conv.c:69
    530a:	6843      	ldr	r3, [r0, #4]
    530c:	b10b      	cbz	r3, 5312 <mpa_get_word+0x8>
/home/yin/imx-optee/imx-optee-os/lib/libmpa/mpa_conv.c:69 (discriminator 1)
    530e:	6880      	ldr	r0, [r0, #8]
    5310:	4770      	bx	lr
/home/yin/imx-optee/imx-optee-os/lib/libmpa/mpa_conv.c:69
    5312:	4618      	mov	r0, r3
/home/yin/imx-optee/imx-optee-os/lib/libmpa/mpa_conv.c:70
    5314:	4770      	bx	lr

00005316 <__mpa_div_dword>:
__mpa_div_dword():
/home/yin/imx-optee/imx-optee-os/lib/libmpa/mpa_div.c:54
    5316:	b5f0      	push	{r4, r5, r6, r7, lr}
/home/yin/imx-optee/imx-optee-os/lib/libmpa/mpa_div.c:59
    5318:	2400      	movs	r4, #0
    531a:	1824      	adds	r4, r4, r0
/home/yin/imx-optee/imx-optee-os/lib/libmpa/mpa_div.c:54
    531c:	469c      	mov	ip, r3
/home/yin/imx-optee/imx-optee-os/lib/libmpa/mpa_div.c:59
    531e:	f141 0500 	adc.w	r5, r1, #0
__mpa_soft_div():
/home/yin/imx-optee/imx-optee-os/lib/libmpa/mpa_div.c:24
    5322:	2300      	movs	r3, #0
/home/yin/imx-optee/imx-optee-os/lib/libmpa/mpa_div.c:23
    5324:	2601      	movs	r6, #1
    5326:	2700      	movs	r7, #0
/home/yin/imx-optee/imx-optee-os/lib/libmpa/mpa_div.c:26
    5328:	2a00      	cmp	r2, #0
    532a:	f173 0100 	sbcs.w	r1, r3, #0
    532e:	da0a      	bge.n	5346 <__mpa_div_dword+0x30>
    5330:	2000      	movs	r0, #0
    5332:	2100      	movs	r1, #0
/home/yin/imx-optee/imx-optee-os/lib/libmpa/mpa_div.c:31
    5334:	ea56 0e07 	orrs.w	lr, r6, r7
    5338:	d10a      	bne.n	5350 <__mpa_div_dword+0x3a>
/home/yin/imx-optee/imx-optee-os/lib/libmpa/mpa_div.c:40
    533a:	f1bc 0f00 	cmp.w	ip, #0
    533e:	d001      	beq.n	5344 <__mpa_div_dword+0x2e>
/home/yin/imx-optee/imx-optee-os/lib/libmpa/mpa_div.c:41
    5340:	f8cc 4000 	str.w	r4, [ip]
__mpa_div_dword():
/home/yin/imx-optee/imx-optee-os/lib/libmpa/mpa_div.c:67
    5344:	bdf0      	pop	{r4, r5, r6, r7, pc}
__mpa_soft_div():
/home/yin/imx-optee/imx-optee-os/lib/libmpa/mpa_div.c:27
    5346:	1892      	adds	r2, r2, r2
    5348:	415b      	adcs	r3, r3
/home/yin/imx-optee/imx-optee-os/lib/libmpa/mpa_div.c:28
    534a:	19b6      	adds	r6, r6, r6
    534c:	417f      	adcs	r7, r7
    534e:	e7eb      	b.n	5328 <__mpa_div_dword+0x12>
/home/yin/imx-optee/imx-optee-os/lib/libmpa/mpa_div.c:32
    5350:	429d      	cmp	r5, r3
    5352:	bf08      	it	eq
    5354:	4294      	cmpeq	r4, r2
    5356:	d304      	bcc.n	5362 <__mpa_div_dword+0x4c>
/home/yin/imx-optee/imx-optee-os/lib/libmpa/mpa_div.c:33
    5358:	1aa4      	subs	r4, r4, r2
    535a:	eb65 0503 	sbc.w	r5, r5, r3
/home/yin/imx-optee/imx-optee-os/lib/libmpa/mpa_div.c:34
    535e:	1980      	adds	r0, r0, r6
    5360:	4179      	adcs	r1, r7
/home/yin/imx-optee/imx-optee-os/lib/libmpa/mpa_div.c:36
    5362:	085b      	lsrs	r3, r3, #1
    5364:	ea4f 0232 	mov.w	r2, r2, rrx
/home/yin/imx-optee/imx-optee-os/lib/libmpa/mpa_div.c:37
    5368:	087f      	lsrs	r7, r7, #1
    536a:	ea4f 0636 	mov.w	r6, r6, rrx
    536e:	e7e1      	b.n	5334 <__mpa_div_dword+0x1e>

00005370 <__mpa_div_q_r_internal_word>:
__mpa_div_q_r_internal_word():
/home/yin/imx-optee/imx-optee-os/lib/libmpa/mpa_div.c:247
    5370:	e92d 4ff7 	stmdb	sp!, {r0, r1, r2, r4, r5, r6, r7, r8, r9, sl, fp, lr}
    5374:	4699      	mov	r9, r3
/home/yin/imx-optee/imx-optee-os/lib/libmpa/mpa_div.c:255
    5376:	6853      	ldr	r3, [r2, #4]
/home/yin/imx-optee/imx-optee-os/lib/libmpa/mpa_div.c:247
    5378:	4606      	mov	r6, r0
    537a:	460d      	mov	r5, r1
    537c:	4617      	mov	r7, r2
/home/yin/imx-optee/imx-optee-os/lib/libmpa/mpa_div.c:255
    537e:	2b00      	cmp	r3, #0
    5380:	bfb8      	it	lt
    5382:	425b      	neglt	r3, r3
    5384:	2b01      	cmp	r3, #1
    5386:	d111      	bne.n	53ac <__mpa_div_q_r_internal_word+0x3c>
/home/yin/imx-optee/imx-optee-os/lib/libmpa/mpa_div.c:256
    5388:	6890      	ldr	r0, [r2, #8]
    538a:	4649      	mov	r1, r9
    538c:	f7ff fdfb 	bl	4f86 <__aeabi_uidiv>
    5390:	4601      	mov	r1, r0
    5392:	4630      	mov	r0, r6
    5394:	f7ff ffb3 	bl	52fe <mpa_set_word>
/home/yin/imx-optee/imx-optee-os/lib/libmpa/mpa_div.c:257
    5398:	4649      	mov	r1, r9
    539a:	68b8      	ldr	r0, [r7, #8]
    539c:	f7ff fe13 	bl	4fc6 <__aeabi_uidivmod>
    53a0:	4628      	mov	r0, r5
    53a2:	f7ff ffac 	bl	52fe <mpa_set_word>
/home/yin/imx-optee/imx-optee-os/lib/libmpa/mpa_div.c:279
    53a6:	b003      	add	sp, #12
    53a8:	e8bd 8ff0 	ldmia.w	sp!, {r4, r5, r6, r7, r8, r9, sl, fp, pc}
/home/yin/imx-optee/imx-optee-os/lib/libmpa/mpa_div.c:260
    53ac:	4611      	mov	r1, r2
    53ae:	4628      	mov	r0, r5
    53b0:	f7fe ffb0 	bl	4314 <mpa_copy>
/home/yin/imx-optee/imx-optee-os/lib/libmpa/mpa_div.c:261
    53b4:	2100      	movs	r1, #0
    53b6:	4630      	mov	r0, r6
    53b8:	f7ff ffa1 	bl	52fe <mpa_set_word>
/home/yin/imx-optee/imx-optee-os/lib/libmpa/mpa_div.c:263
    53bc:	686c      	ldr	r4, [r5, #4]
/home/yin/imx-optee/imx-optee-os/lib/libmpa/mpa_div.c:264
    53be:	2100      	movs	r1, #0
/home/yin/imx-optee/imx-optee-os/lib/libmpa/mpa_div.c:267
    53c0:	f10d 0b04 	add.w	fp, sp, #4
/home/yin/imx-optee/imx-optee-os/lib/libmpa/mpa_div.c:263
    53c4:	2c00      	cmp	r4, #0
    53c6:	bfb8      	it	lt
    53c8:	4264      	neglt	r4, r4
    53ca:	f104 38ff 	add.w	r8, r4, #4294967295	; 0xffffffff
/home/yin/imx-optee/imx-optee-os/lib/libmpa/mpa_div.c:265
    53ce:	3401      	adds	r4, #1
    53d0:	f855 0024 	ldr.w	r0, [r5, r4, lsl #2]
    53d4:	00a4      	lsls	r4, r4, #2
    53d6:	f104 0a04 	add.w	sl, r4, #4
    53da:	3c04      	subs	r4, #4
    53dc:	44b2      	add	sl, r6
    53de:	442c      	add	r4, r5
/home/yin/imx-optee/imx-optee-os/lib/libmpa/mpa_div.c:266
    53e0:	f1b8 3fff 	cmp.w	r8, #4294967295	; 0xffffffff
    53e4:	d114      	bne.n	5410 <__mpa_div_q_r_internal_word+0xa0>
/home/yin/imx-optee/imx-optee-os/lib/libmpa/mpa_div.c:274
    53e6:	68ab      	ldr	r3, [r5, #8]
    53e8:	3300      	adds	r3, #0
    53ea:	bf18      	it	ne
    53ec:	2301      	movne	r3, #1
    53ee:	606b      	str	r3, [r5, #4]
/home/yin/imx-optee/imx-optee-os/lib/libmpa/mpa_div.c:275
    53f0:	687b      	ldr	r3, [r7, #4]
    53f2:	2b00      	cmp	r3, #0
    53f4:	bfb8      	it	lt
    53f6:	425b      	neglt	r3, r3
    53f8:	1e5a      	subs	r2, r3, #1
    53fa:	eb06 0383 	add.w	r3, r6, r3, lsl #2
    53fe:	3308      	adds	r3, #8
/home/yin/imx-optee/imx-optee-os/lib/libmpa/mpa_div.c:276
    5400:	1c51      	adds	r1, r2, #1
    5402:	d002      	beq.n	540a <__mpa_div_q_r_internal_word+0x9a>
/home/yin/imx-optee/imx-optee-os/lib/libmpa/mpa_div.c:276 (discriminator 1)
    5404:	f853 1d04 	ldr.w	r1, [r3, #-4]!
    5408:	b179      	cbz	r1, 542a <__mpa_div_q_r_internal_word+0xba>
/home/yin/imx-optee/imx-optee-os/lib/libmpa/mpa_div.c:278
    540a:	3201      	adds	r2, #1
    540c:	6072      	str	r2, [r6, #4]
    540e:	e7ca      	b.n	53a6 <__mpa_div_q_r_internal_word+0x36>
/home/yin/imx-optee/imx-optee-os/lib/libmpa/mpa_div.c:267
    5410:	465b      	mov	r3, fp
    5412:	464a      	mov	r2, r9
    5414:	f7ff ff7f 	bl	5316 <__mpa_div_dword>
/home/yin/imx-optee/imx-optee-os/lib/libmpa/mpa_div.c:269
    5418:	9901      	ldr	r1, [sp, #4]
/home/yin/imx-optee/imx-optee-os/lib/libmpa/mpa_div.c:271
    541a:	f108 38ff 	add.w	r8, r8, #4294967295	; 0xffffffff
/home/yin/imx-optee/imx-optee-os/lib/libmpa/mpa_div.c:268
    541e:	f84a 0d04 	str.w	r0, [sl, #-4]!
/home/yin/imx-optee/imx-optee-os/lib/libmpa/mpa_div.c:269
    5422:	6061      	str	r1, [r4, #4]
/home/yin/imx-optee/imx-optee-os/lib/libmpa/mpa_div.c:271
    5424:	f854 0904 	ldr.w	r0, [r4], #-4
    5428:	e7da      	b.n	53e0 <__mpa_div_q_r_internal_word+0x70>
/home/yin/imx-optee/imx-optee-os/lib/libmpa/mpa_div.c:277
    542a:	3a01      	subs	r2, #1
    542c:	e7e8      	b.n	5400 <__mpa_div_q_r_internal_word+0x90>

0000542e <__mpa_div_q_r>:
__mpa_div_q_r():
/home/yin/imx-optee/imx-optee-os/lib/libmpa/mpa_div.c:302
    542e:	e92d 4ff0 	stmdb	sp!, {r4, r5, r6, r7, r8, r9, sl, fp, lr}
    5432:	b093      	sub	sp, #76	; 0x4c
/home/yin/imx-optee/imx-optee-os/lib/libmpa/mpa_div.c:306
    5434:	6855      	ldr	r5, [r2, #4]
/home/yin/imx-optee/imx-optee-os/lib/libmpa/mpa_div.c:302
    5436:	4606      	mov	r6, r0
    5438:	4689      	mov	r9, r1
    543a:	461c      	mov	r4, r3
    543c:	9202      	str	r2, [sp, #8]
    543e:	f8dd 8070 	ldr.w	r8, [sp, #112]	; 0x70
/home/yin/imx-optee/imx-optee-os/lib/libmpa/mpa_div.c:306
    5442:	b94d      	cbnz	r5, 5458 <__mpa_div_q_r+0x2a>
/home/yin/imx-optee/imx-optee-os/lib/libmpa/mpa_div.c:307
    5444:	4629      	mov	r1, r5
/home/yin/imx-optee/imx-optee-os/lib/libmpa/mpa_div.c:322
    5446:	f7ff ff5a 	bl	52fe <mpa_set_word>
/home/yin/imx-optee/imx-optee-os/lib/libmpa/mpa_div.c:323
    544a:	4629      	mov	r1, r5
    544c:	4648      	mov	r0, r9
    544e:	f7ff ff56 	bl	52fe <mpa_set_word>
/home/yin/imx-optee/imx-optee-os/lib/libmpa/mpa_div.c:338
    5452:	b013      	add	sp, #76	; 0x4c
    5454:	e8bd 8ff0 	ldmia.w	sp!, {r4, r5, r6, r7, r8, r9, sl, fp, pc}
/home/yin/imx-optee/imx-optee-os/lib/libmpa/mpa_div.c:311
    5458:	6863      	ldr	r3, [r4, #4]
    545a:	2b00      	cmp	r3, #0
    545c:	d0f9      	beq.n	5452 <__mpa_div_q_r+0x24>
/home/yin/imx-optee/imx-optee-os/lib/libmpa/mpa_div.c:318
    545e:	2d00      	cmp	r5, #0
    5460:	f280 81c1 	bge.w	57e6 <__mpa_div_q_r+0x3b8>
/home/yin/imx-optee/imx-optee-os/lib/libmpa/mpa_div.c:319
    5464:	2b00      	cmp	r3, #0
    5466:	bfb4      	ite	lt
    5468:	2301      	movlt	r3, #1
    546a:	f04f 33ff 	movge.w	r3, #4294967295	; 0xffffffff
    546e:	e1bf      	b.n	57f0 <__mpa_div_q_r+0x3c2>
/home/yin/imx-optee/imx-optee-os/lib/libmpa/mpa_div.c:326
    5470:	f340 81b0 	ble.w	57d4 <__mpa_div_q_r+0x3a6>
/home/yin/imx-optee/imx-optee-os/lib/libmpa/mpa_div.c:327
    5474:	6863      	ldr	r3, [r4, #4]
    5476:	2b00      	cmp	r3, #0
    5478:	bfb8      	it	lt
    547a:	425b      	neglt	r3, r3
    547c:	2b01      	cmp	r3, #1
    547e:	f340 81a2 	ble.w	57c6 <__mpa_div_q_r+0x398>
__mpa_div_q_r_internal():
/home/yin/imx-optee/imx-optee-os/lib/libmpa/mpa_div.c:103
    5482:	4641      	mov	r1, r8
    5484:	a80f      	add	r0, sp, #60	; 0x3c
    5486:	f000 fcc3 	bl	5e10 <mpa_alloc_static_temp_var>
/home/yin/imx-optee/imx-optee-os/lib/libmpa/mpa_div.c:104
    548a:	4641      	mov	r1, r8
    548c:	a810      	add	r0, sp, #64	; 0x40
    548e:	f000 fcbf 	bl	5e10 <mpa_alloc_static_temp_var>
/home/yin/imx-optee/imx-optee-os/lib/libmpa/mpa_div.c:105
    5492:	4621      	mov	r1, r4
    5494:	9810      	ldr	r0, [sp, #64]	; 0x40
    5496:	f7fe ff3d 	bl	4314 <mpa_copy>
/home/yin/imx-optee/imx-optee-os/lib/libmpa/mpa_div.c:112
    549a:	4641      	mov	r1, r8
    549c:	a811      	add	r0, sp, #68	; 0x44
    549e:	f000 fcb7 	bl	5e10 <mpa_alloc_static_temp_var>
/home/yin/imx-optee/imx-optee-os/lib/libmpa/mpa_div.c:113
    54a2:	9902      	ldr	r1, [sp, #8]
    54a4:	9811      	ldr	r0, [sp, #68]	; 0x44
    54a6:	f7fe ff35 	bl	4314 <mpa_copy>
/home/yin/imx-optee/imx-optee-os/lib/libmpa/mpa_div.c:114
    54aa:	9911      	ldr	r1, [sp, #68]	; 0x44
/home/yin/imx-optee/imx-optee-os/lib/libmpa/mpa_div.c:115
    54ac:	9a10      	ldr	r2, [sp, #64]	; 0x40
/home/yin/imx-optee/imx-optee-os/lib/libmpa/mpa_div.c:114
    54ae:	684b      	ldr	r3, [r1, #4]
    54b0:	2b00      	cmp	r3, #0
    54b2:	bfbc      	itt	lt
    54b4:	425b      	neglt	r3, r3
    54b6:	604b      	strlt	r3, [r1, #4]
/home/yin/imx-optee/imx-optee-os/lib/libmpa/mpa_div.c:115
    54b8:	6853      	ldr	r3, [r2, #4]
    54ba:	2b00      	cmp	r3, #0
    54bc:	bfbc      	itt	lt
    54be:	425b      	neglt	r3, r3
    54c0:	6053      	strlt	r3, [r2, #4]
/home/yin/imx-optee/imx-optee-os/lib/libmpa/mpa_div.c:121
    54c2:	6853      	ldr	r3, [r2, #4]
    54c4:	2b00      	cmp	r3, #0
    54c6:	bfb8      	it	lt
    54c8:	425b      	neglt	r3, r3
    54ca:	3301      	adds	r3, #1
    54cc:	f852 3023 	ldr.w	r3, [r2, r3, lsl #2]
    54d0:	2200      	movs	r2, #0
/home/yin/imx-optee/imx-optee-os/lib/libmpa/mpa_div.c:120
    54d2:	9201      	str	r2, [sp, #4]
/home/yin/imx-optee/imx-optee-os/lib/libmpa/mpa_div.c:121
    54d4:	930a      	str	r3, [sp, #40]	; 0x28
/home/yin/imx-optee/imx-optee-os/lib/libmpa/mpa_div.c:122
    54d6:	2b00      	cmp	r3, #0
    54d8:	da74      	bge.n	55c4 <__mpa_div_q_r+0x196>
    54da:	b102      	cbz	r2, 54de <__mpa_div_q_r+0xb0>
    54dc:	930a      	str	r3, [sp, #40]	; 0x28
/home/yin/imx-optee/imx-optee-os/lib/libmpa/mpa_div.c:126
    54de:	9b01      	ldr	r3, [sp, #4]
    54e0:	b143      	cbz	r3, 54f4 <__mpa_div_q_r+0xc6>
/home/yin/imx-optee/imx-optee-os/lib/libmpa/mpa_div.c:127
    54e2:	4608      	mov	r0, r1
    54e4:	461a      	mov	r2, r3
    54e6:	f000 fe4d 	bl	6184 <mpa_shift_left>
/home/yin/imx-optee/imx-optee-os/lib/libmpa/mpa_div.c:128
    54ea:	9910      	ldr	r1, [sp, #64]	; 0x40
    54ec:	9a01      	ldr	r2, [sp, #4]
    54ee:	4608      	mov	r0, r1
    54f0:	f000 fe48 	bl	6184 <mpa_shift_left>
/home/yin/imx-optee/imx-optee-os/lib/libmpa/mpa_div.c:131
    54f4:	9b11      	ldr	r3, [sp, #68]	; 0x44
/home/yin/imx-optee/imx-optee-os/lib/libmpa/mpa_div.c:135
    54f6:	4630      	mov	r0, r6
/home/yin/imx-optee/imx-optee-os/lib/libmpa/mpa_div.c:131
    54f8:	685f      	ldr	r7, [r3, #4]
/home/yin/imx-optee/imx-optee-os/lib/libmpa/mpa_div.c:132
    54fa:	9b10      	ldr	r3, [sp, #64]	; 0x40
    54fc:	685b      	ldr	r3, [r3, #4]
/home/yin/imx-optee/imx-optee-os/lib/libmpa/mpa_div.c:133
    54fe:	eba7 0b03 	sub.w	fp, r7, r3
/home/yin/imx-optee/imx-optee-os/lib/libmpa/mpa_div.c:132
    5502:	9303      	str	r3, [sp, #12]
/home/yin/imx-optee/imx-optee-os/lib/libmpa/mpa_div.c:135
    5504:	f7fe fefb 	bl	42fe <mpa_wipe>
/home/yin/imx-optee/imx-optee-os/lib/libmpa/mpa_div.c:141
    5508:	4659      	mov	r1, fp
    550a:	9810      	ldr	r0, [sp, #64]	; 0x40
    550c:	f000 fdf2 	bl	60f4 <__mpa_shift_words_left>
/home/yin/imx-optee/imx-optee-os/lib/libmpa/mpa_div.c:143
    5510:	9a10      	ldr	r2, [sp, #64]	; 0x40
/home/yin/imx-optee/imx-optee-os/lib/libmpa/mpa_div.c:147
    5512:	9911      	ldr	r1, [sp, #68]	; 0x44
/home/yin/imx-optee/imx-optee-os/lib/libmpa/mpa_div.c:143
    5514:	6850      	ldr	r0, [r2, #4]
    5516:	2800      	cmp	r0, #0
    5518:	bfb8      	it	lt
    551a:	4240      	neglt	r0, r0
    551c:	4603      	mov	r3, r0
/home/yin/imx-optee/imx-optee-os/lib/libmpa/mpa_div.c:145
    551e:	2b00      	cmp	r3, #0
    5520:	d156      	bne.n	55d0 <__mpa_div_q_r+0x1a2>
/home/yin/imx-optee/imx-optee-os/lib/libmpa/mpa_div.c:155
    5522:	9b11      	ldr	r3, [sp, #68]	; 0x44
    5524:	3f01      	subs	r7, #1
    5526:	685d      	ldr	r5, [r3, #4]
    5528:	9b03      	ldr	r3, [sp, #12]
    552a:	1e6c      	subs	r4, r5, #1
    552c:	3501      	adds	r5, #1
    552e:	1aed      	subs	r5, r5, r3
/home/yin/imx-optee/imx-optee-os/lib/libmpa/mpa_div.c:173
    5530:	ab0a      	add	r3, sp, #40	; 0x28
    5532:	eb06 0585 	add.w	r5, r6, r5, lsl #2
    5536:	9309      	str	r3, [sp, #36]	; 0x24
/home/yin/imx-optee/imx-optee-os/lib/libmpa/mpa_div.c:156
    5538:	9b03      	ldr	r3, [sp, #12]
    553a:	42a3      	cmp	r3, r4
    553c:	dd7b      	ble.n	5636 <__mpa_div_q_r+0x208>
    553e:	eb06 038b 	add.w	r3, r6, fp, lsl #2
    5542:	330c      	adds	r3, #12
/home/yin/imx-optee/imx-optee-os/lib/libmpa/mpa_div.c:217
    5544:	f1bb 0f00 	cmp.w	fp, #0
    5548:	db04      	blt.n	5554 <__mpa_div_q_r+0x126>
    554a:	f853 2d04 	ldr.w	r2, [r3, #-4]!
    554e:	2a00      	cmp	r2, #0
    5550:	f000 8136 	beq.w	57c0 <__mpa_div_q_r+0x392>
/home/yin/imx-optee/imx-optee-os/lib/libmpa/mpa_div.c:223
    5554:	9911      	ldr	r1, [sp, #68]	; 0x44
/home/yin/imx-optee/imx-optee-os/lib/libmpa/mpa_div.c:219
    5556:	f10b 0301 	add.w	r3, fp, #1
    555a:	6073      	str	r3, [r6, #4]
/home/yin/imx-optee/imx-optee-os/lib/libmpa/mpa_div.c:223
    555c:	9a01      	ldr	r2, [sp, #4]
    555e:	4608      	mov	r0, r1
    5560:	f000 fe8a 	bl	6278 <mpa_shift_right>
/home/yin/imx-optee/imx-optee-os/lib/libmpa/mpa_div.c:224
    5564:	9911      	ldr	r1, [sp, #68]	; 0x44
    5566:	4648      	mov	r0, r9
    5568:	f7fe fed4 	bl	4314 <mpa_copy>
/home/yin/imx-optee/imx-optee-os/lib/libmpa/mpa_div.c:229
    556c:	4641      	mov	r1, r8
    556e:	a80f      	add	r0, sp, #60	; 0x3c
    5570:	f000 fc53 	bl	5e1a <mpa_free_static_temp_var>
/home/yin/imx-optee/imx-optee-os/lib/libmpa/mpa_div.c:230
    5574:	4641      	mov	r1, r8
    5576:	a810      	add	r0, sp, #64	; 0x40
    5578:	f000 fc4f 	bl	5e1a <mpa_free_static_temp_var>
/home/yin/imx-optee/imx-optee-os/lib/libmpa/mpa_div.c:231
    557c:	4641      	mov	r1, r8
    557e:	a811      	add	r0, sp, #68	; 0x44
    5580:	f000 fc4b 	bl	5e1a <mpa_free_static_temp_var>
__mpa_div_q_r():
/home/yin/imx-optee/imx-optee-os/lib/libmpa/mpa_div.c:336
    5584:	6873      	ldr	r3, [r6, #4]
    5586:	9904      	ldr	r1, [sp, #16]
    5588:	2b00      	cmp	r3, #0
    558a:	bfb4      	ite	lt
    558c:	f04f 32ff 	movlt.w	r2, #4294967295	; 0xffffffff
    5590:	2201      	movge	r2, #1
    5592:	4291      	cmp	r1, r2
/home/yin/imx-optee/imx-optee-os/lib/libmpa/mpa_div.c:337
    5594:	9a02      	ldr	r2, [sp, #8]
/home/yin/imx-optee/imx-optee-os/lib/libmpa/mpa_div.c:336
    5596:	bf1c      	itt	ne
    5598:	425b      	negne	r3, r3
    559a:	6073      	strne	r3, [r6, #4]
/home/yin/imx-optee/imx-optee-os/lib/libmpa/mpa_div.c:337
    559c:	f8d9 3004 	ldr.w	r3, [r9, #4]
    55a0:	6852      	ldr	r2, [r2, #4]
    55a2:	2b00      	cmp	r3, #0
    55a4:	bfb4      	ite	lt
    55a6:	f04f 31ff 	movlt.w	r1, #4294967295	; 0xffffffff
    55aa:	2101      	movge	r1, #1
    55ac:	2a00      	cmp	r2, #0
    55ae:	bfb4      	ite	lt
    55b0:	f04f 32ff 	movlt.w	r2, #4294967295	; 0xffffffff
    55b4:	2201      	movge	r2, #1
    55b6:	4291      	cmp	r1, r2
    55b8:	f43f af4b 	beq.w	5452 <__mpa_div_q_r+0x24>
/home/yin/imx-optee/imx-optee-os/lib/libmpa/mpa_div.c:337 (discriminator 9)
    55bc:	425b      	negs	r3, r3
    55be:	f8c9 3004 	str.w	r3, [r9, #4]
    55c2:	e746      	b.n	5452 <__mpa_div_q_r+0x24>
__mpa_div_q_r_internal():
/home/yin/imx-optee/imx-optee-os/lib/libmpa/mpa_div.c:123
    55c4:	9a01      	ldr	r2, [sp, #4]
/home/yin/imx-optee/imx-optee-os/lib/libmpa/mpa_div.c:124
    55c6:	005b      	lsls	r3, r3, #1
/home/yin/imx-optee/imx-optee-os/lib/libmpa/mpa_div.c:123
    55c8:	3201      	adds	r2, #1
    55ca:	9201      	str	r2, [sp, #4]
    55cc:	2201      	movs	r2, #1
    55ce:	e782      	b.n	54d6 <__mpa_div_q_r+0xa8>
/home/yin/imx-optee/imx-optee-os/lib/libmpa/mpa_div.c:147
    55d0:	684c      	ldr	r4, [r1, #4]
/home/yin/imx-optee/imx-optee-os/lib/libmpa/mpa_div.c:146
    55d2:	3b01      	subs	r3, #1
/home/yin/imx-optee/imx-optee-os/lib/libmpa/mpa_div.c:147
    55d4:	2c00      	cmp	r4, #0
    55d6:	bfb8      	it	lt
    55d8:	4264      	neglt	r4, r4
    55da:	42a3      	cmp	r3, r4
    55dc:	f280 8113 	bge.w	5806 <__mpa_div_q_r+0x3d8>
    55e0:	eb01 0583 	add.w	r5, r1, r3, lsl #2
    55e4:	4298      	cmp	r0, r3
    55e6:	68ad      	ldr	r5, [r5, #8]
    55e8:	dd0b      	ble.n	5602 <__mpa_div_q_r+0x1d4>
    55ea:	eb02 0c83 	add.w	ip, r2, r3, lsl #2
    55ee:	f8dc c008 	ldr.w	ip, [ip, #8]
/home/yin/imx-optee/imx-optee-os/lib/libmpa/mpa_div.c:145
    55f2:	45ac      	cmp	ip, r5
    55f4:	d093      	beq.n	551e <__mpa_div_q_r+0xf0>
/home/yin/imx-optee/imx-optee-os/lib/libmpa/mpa_div.c:149
    55f6:	42a3      	cmp	r3, r4
    55f8:	db06      	blt.n	5608 <__mpa_div_q_r+0x1da>
    55fa:	4298      	cmp	r0, r3
    55fc:	dd91      	ble.n	5522 <__mpa_div_q_r+0xf4>
    55fe:	2400      	movs	r4, #0
    5600:	e008      	b.n	5614 <__mpa_div_q_r+0x1e6>
/home/yin/imx-optee/imx-optee-os/lib/libmpa/mpa_div.c:147
    5602:	f04f 0c00 	mov.w	ip, #0
    5606:	e7f4      	b.n	55f2 <__mpa_div_q_r+0x1c4>
/home/yin/imx-optee/imx-optee-os/lib/libmpa/mpa_div.c:149
    5608:	4298      	cmp	r0, r3
    560a:	f103 0402 	add.w	r4, r3, #2
    560e:	f851 4024 	ldr.w	r4, [r1, r4, lsl #2]
    5612:	dd0e      	ble.n	5632 <__mpa_div_q_r+0x204>
    5614:	3302      	adds	r3, #2
    5616:	f852 3023 	ldr.w	r3, [r2, r3, lsl #2]
    561a:	42a3      	cmp	r3, r4
    561c:	d281      	bcs.n	5522 <__mpa_div_q_r+0xf4>
/home/yin/imx-optee/imx-optee-os/lib/libmpa/mpa_div.c:150
    561e:	f10b 0302 	add.w	r3, fp, #2
    5622:	2001      	movs	r0, #1
    5624:	f846 0023 	str.w	r0, [r6, r3, lsl #2]
/home/yin/imx-optee/imx-optee-os/lib/libmpa/mpa_div.c:151
    5628:	4643      	mov	r3, r8
    562a:	4608      	mov	r0, r1
    562c:	f001 f804 	bl	6638 <mpa_sub>
    5630:	e777      	b.n	5522 <__mpa_div_q_r+0xf4>
/home/yin/imx-optee/imx-optee-os/lib/libmpa/mpa_div.c:149
    5632:	2300      	movs	r3, #0
    5634:	e7f1      	b.n	561a <__mpa_div_q_r+0x1ec>
/home/yin/imx-optee/imx-optee-os/lib/libmpa/mpa_div.c:157
    5636:	9811      	ldr	r0, [sp, #68]	; 0x44
/home/yin/imx-optee/imx-optee-os/lib/libmpa/mpa_div.c:158
    5638:	f8dd c040 	ldr.w	ip, [sp, #64]	; 0x40
/home/yin/imx-optee/imx-optee-os/lib/libmpa/mpa_div.c:157
    563c:	6843      	ldr	r3, [r0, #4]
    563e:	2b00      	cmp	r3, #0
    5640:	bfb8      	it	lt
    5642:	425b      	neglt	r3, r3
    5644:	42a3      	cmp	r3, r4
    5646:	bfca      	itet	gt
    5648:	1ca2      	addgt	r2, r4, #2
    564a:	2100      	movle	r1, #0
    564c:	f850 1022 	ldrgt.w	r1, [r0, r2, lsl #2]
    5650:	1c7a      	adds	r2, r7, #1
    5652:	9206      	str	r2, [sp, #24]
/home/yin/imx-optee/imx-optee-os/lib/libmpa/mpa_div.c:158
    5654:	f8dc 2004 	ldr.w	r2, [ip, #4]
    5658:	ea82 7ee2 	eor.w	lr, r2, r2, asr #31
    565c:	ebae 7ee2 	sub.w	lr, lr, r2, asr #31
    5660:	1c7a      	adds	r2, r7, #1
    5662:	4596      	cmp	lr, r2
    5664:	bfaa      	itet	ge
    5666:	1cba      	addge	r2, r7, #2
    5668:	2200      	movlt	r2, #0
    566a:	f85c 2022 	ldrge.w	r2, [ip, r2, lsl #2]
/home/yin/imx-optee/imx-optee-os/lib/libmpa/mpa_div.c:157
    566e:	4291      	cmp	r1, r2
    5670:	d12e      	bne.n	56d0 <__mpa_div_q_r+0x2a2>
/home/yin/imx-optee/imx-optee-os/lib/libmpa/mpa_div.c:159
    5672:	f04f 33ff 	mov.w	r3, #4294967295	; 0xffffffff
    5676:	602b      	str	r3, [r5, #0]
    5678:	9b03      	ldr	r3, [sp, #12]
    567a:	1ae3      	subs	r3, r4, r3
    567c:	9307      	str	r3, [sp, #28]
/home/yin/imx-optee/imx-optee-os/lib/libmpa/mpa_div.c:173
    567e:	1cbb      	adds	r3, r7, #2
    5680:	9308      	str	r3, [sp, #32]
/home/yin/imx-optee/imx-optee-os/lib/libmpa/mpa_div.c:174
    5682:	9a10      	ldr	r2, [sp, #64]	; 0x40
/home/yin/imx-optee/imx-optee-os/lib/libmpa/mpa_div.c:170
    5684:	2300      	movs	r3, #0
    5686:	930a      	str	r3, [sp, #40]	; 0x28
/home/yin/imx-optee/imx-optee-os/lib/libmpa/mpa_div.c:171
    5688:	930c      	str	r3, [sp, #48]	; 0x30
/home/yin/imx-optee/imx-optee-os/lib/libmpa/mpa_div.c:172
    568a:	930e      	str	r3, [sp, #56]	; 0x38
/home/yin/imx-optee/imx-optee-os/lib/libmpa/mpa_div.c:174
    568c:	6853      	ldr	r3, [r2, #4]
/home/yin/imx-optee/imx-optee-os/lib/libmpa/mpa_div.c:173
    568e:	9906      	ldr	r1, [sp, #24]
    5690:	6828      	ldr	r0, [r5, #0]
/home/yin/imx-optee/imx-optee-os/lib/libmpa/mpa_div.c:174
    5692:	2b00      	cmp	r3, #0
    5694:	bfb8      	it	lt
    5696:	425b      	neglt	r3, r3
/home/yin/imx-optee/imx-optee-os/lib/libmpa/mpa_div.c:173
    5698:	428b      	cmp	r3, r1
    569a:	bfaa      	itet	ge
    569c:	9b08      	ldrge	r3, [sp, #32]
    569e:	2100      	movlt	r1, #0
    56a0:	f852 1023 	ldrge.w	r1, [r2, r3, lsl #2]
    56a4:	aa0b      	add	r2, sp, #44	; 0x2c
    56a6:	9b09      	ldr	r3, [sp, #36]	; 0x24
    56a8:	f000 fbbf 	bl	5e2a <__mpa_mul_add_word>
/home/yin/imx-optee/imx-optee-os/lib/libmpa/mpa_div.c:177
    56ac:	9a11      	ldr	r2, [sp, #68]	; 0x44
    56ae:	6853      	ldr	r3, [r2, #4]
    56b0:	2b00      	cmp	r3, #0
    56b2:	bfb8      	it	lt
    56b4:	425b      	neglt	r3, r3
    56b6:	429c      	cmp	r4, r3
    56b8:	bfb6      	itet	lt
    56ba:	1ca3      	addlt	r3, r4, #2
    56bc:	2300      	movge	r3, #0
    56be:	f852 3023 	ldrlt.w	r3, [r2, r3, lsl #2]
    56c2:	9a0a      	ldr	r2, [sp, #40]	; 0x28
    56c4:	429a      	cmp	r2, r3
    56c6:	d90e      	bls.n	56e6 <__mpa_div_q_r+0x2b8>
/home/yin/imx-optee/imx-optee-os/lib/libmpa/mpa_div.c:199
    56c8:	682b      	ldr	r3, [r5, #0]
    56ca:	3b01      	subs	r3, #1
    56cc:	602b      	str	r3, [r5, #0]
    56ce:	e7d8      	b.n	5682 <__mpa_div_q_r+0x254>
/home/yin/imx-optee/imx-optee-os/lib/libmpa/mpa_div.c:162
    56d0:	42a3      	cmp	r3, r4
    56d2:	bfaa      	itet	ge
    56d4:	1c63      	addge	r3, r4, #1
    56d6:	2000      	movlt	r0, #0
    56d8:	f850 0023 	ldrge.w	r0, [r0, r3, lsl #2]
    56dc:	2300      	movs	r3, #0
    56de:	f7ff fe1a 	bl	5316 <__mpa_div_dword>
/home/yin/imx-optee/imx-optee-os/lib/libmpa/mpa_div.c:161
    56e2:	6028      	str	r0, [r5, #0]
    56e4:	e7c8      	b.n	5678 <__mpa_div_q_r+0x24a>
/home/yin/imx-optee/imx-optee-os/lib/libmpa/mpa_div.c:181
    56e6:	9a10      	ldr	r2, [sp, #64]	; 0x40
/home/yin/imx-optee/imx-optee-os/lib/libmpa/mpa_div.c:184
    56e8:	f10d 0a38 	add.w	sl, sp, #56	; 0x38
/home/yin/imx-optee/imx-optee-os/lib/libmpa/mpa_div.c:180
    56ec:	6828      	ldr	r0, [r5, #0]
/home/yin/imx-optee/imx-optee-os/lib/libmpa/mpa_div.c:181
    56ee:	6853      	ldr	r3, [r2, #4]
    56f0:	2b00      	cmp	r3, #0
    56f2:	bfb8      	it	lt
    56f4:	425b      	neglt	r3, r3
/home/yin/imx-optee/imx-optee-os/lib/libmpa/mpa_div.c:180
    56f6:	429f      	cmp	r7, r3
    56f8:	bfd6      	itet	le
    56fa:	1c7b      	addle	r3, r7, #1
    56fc:	2100      	movgt	r1, #0
    56fe:	f852 1023 	ldrle.w	r1, [r2, r3, lsl #2]
    5702:	ab0c      	add	r3, sp, #48	; 0x30
    5704:	aa0d      	add	r2, sp, #52	; 0x34
    5706:	9305      	str	r3, [sp, #20]
    5708:	f000 fb8f 	bl	5e2a <__mpa_mul_add_word>
/home/yin/imx-optee/imx-optee-os/lib/libmpa/mpa_div.c:184
    570c:	4653      	mov	r3, sl
    570e:	9a05      	ldr	r2, [sp, #20]
    5710:	990c      	ldr	r1, [sp, #48]	; 0x30
    5712:	980b      	ldr	r0, [sp, #44]	; 0x2c
    5714:	f000 fe1b 	bl	634e <__mpa_full_adder>
/home/yin/imx-optee/imx-optee-os/lib/libmpa/mpa_div.c:185
    5718:	ab12      	add	r3, sp, #72	; 0x48
    571a:	2200      	movs	r2, #0
    571c:	f843 2d1c 	str.w	r2, [r3, #-28]!
/home/yin/imx-optee/imx-optee-os/lib/libmpa/mpa_div.c:186
    5720:	4652      	mov	r2, sl
    5722:	990e      	ldr	r1, [sp, #56]	; 0x38
    5724:	980a      	ldr	r0, [sp, #40]	; 0x28
    5726:	f000 fe12 	bl	634e <__mpa_full_adder>
/home/yin/imx-optee/imx-optee-os/lib/libmpa/mpa_div.c:187
    572a:	9a0b      	ldr	r2, [sp, #44]	; 0x2c
    572c:	2a00      	cmp	r2, #0
    572e:	d1cb      	bne.n	56c8 <__mpa_div_q_r+0x29a>
    5730:	9911      	ldr	r1, [sp, #68]	; 0x44
    5732:	684b      	ldr	r3, [r1, #4]
    5734:	ea83 7ce3 	eor.w	ip, r3, r3, asr #31
    5738:	ebac 7ce3 	sub.w	ip, ip, r3, asr #31
    573c:	9b0e      	ldr	r3, [sp, #56]	; 0x38
    573e:	4564      	cmp	r4, ip
    5740:	bfb6      	itet	lt
    5742:	1ca0      	addlt	r0, r4, #2
    5744:	4610      	movge	r0, r2
    5746:	f851 0020 	ldrlt.w	r0, [r1, r0, lsl #2]
    574a:	4283      	cmp	r3, r0
    574c:	d8bc      	bhi.n	56c8 <__mpa_div_q_r+0x29a>
/home/yin/imx-optee/imx-optee-os/lib/libmpa/mpa_div.c:189
    574e:	d311      	bcc.n	5774 <__mpa_div_q_r+0x346>
/home/yin/imx-optee/imx-optee-os/lib/libmpa/mpa_div.c:191
    5750:	4564      	cmp	r4, ip
    5752:	9b0c      	ldr	r3, [sp, #48]	; 0x30
    5754:	bfd6      	itet	le
    5756:	1c60      	addle	r0, r4, #1
    5758:	2000      	movgt	r0, #0
    575a:	f851 0020 	ldrle.w	r0, [r1, r0, lsl #2]
    575e:	4283      	cmp	r3, r0
    5760:	d8b2      	bhi.n	56c8 <__mpa_div_q_r+0x29a>
/home/yin/imx-optee/imx-optee-os/lib/libmpa/mpa_div.c:193
    5762:	d307      	bcc.n	5774 <__mpa_div_q_r+0x346>
/home/yin/imx-optee/imx-optee-os/lib/libmpa/mpa_div.c:195
    5764:	1e60      	subs	r0, r4, #1
    5766:	9b0d      	ldr	r3, [sp, #52]	; 0x34
    5768:	4584      	cmp	ip, r0
    576a:	bfa8      	it	ge
    576c:	f851 2024 	ldrge.w	r2, [r1, r4, lsl #2]
    5770:	4293      	cmp	r3, r2
    5772:	d8a9      	bhi.n	56c8 <__mpa_div_q_r+0x29a>
/home/yin/imx-optee/imx-optee-os/lib/libmpa/mpa_div.c:203
    5774:	2101      	movs	r1, #1
    5776:	9810      	ldr	r0, [sp, #64]	; 0x40
    5778:	f000 fce2 	bl	6140 <__mpa_shift_words_right>
    577c:	9b07      	ldr	r3, [sp, #28]
/home/yin/imx-optee/imx-optee-os/lib/libmpa/mpa_div.c:205
    577e:	9910      	ldr	r1, [sp, #64]	; 0x40
    5780:	980f      	ldr	r0, [sp, #60]	; 0x3c
    5782:	eb06 0a83 	add.w	sl, r6, r3, lsl #2
    5786:	4643      	mov	r3, r8
    5788:	f8da 2008 	ldr.w	r2, [sl, #8]
    578c:	f000 fc11 	bl	5fb2 <mpa_mul_word>
/home/yin/imx-optee/imx-optee-os/lib/libmpa/mpa_div.c:206
    5790:	9911      	ldr	r1, [sp, #68]	; 0x44
    5792:	4643      	mov	r3, r8
    5794:	9a0f      	ldr	r2, [sp, #60]	; 0x3c
    5796:	4608      	mov	r0, r1
    5798:	f000 ff4e 	bl	6638 <mpa_sub>
/home/yin/imx-optee/imx-optee-os/lib/libmpa/mpa_div.c:207
    579c:	9911      	ldr	r1, [sp, #68]	; 0x44
    579e:	684b      	ldr	r3, [r1, #4]
    57a0:	2b00      	cmp	r3, #0
    57a2:	da09      	bge.n	57b8 <__mpa_div_q_r+0x38a>
/home/yin/imx-optee/imx-optee-os/lib/libmpa/mpa_div.c:208
    57a4:	4643      	mov	r3, r8
    57a6:	9a10      	ldr	r2, [sp, #64]	; 0x40
    57a8:	4608      	mov	r0, r1
    57aa:	f000 fece 	bl	654a <mpa_add>
/home/yin/imx-optee/imx-optee-os/lib/libmpa/mpa_div.c:209
    57ae:	f8da 3008 	ldr.w	r3, [sl, #8]
    57b2:	3b01      	subs	r3, #1
    57b4:	f8ca 3008 	str.w	r3, [sl, #8]
/home/yin/imx-optee/imx-optee-os/lib/libmpa/mpa_div.c:211
    57b8:	3c01      	subs	r4, #1
    57ba:	3d04      	subs	r5, #4
    57bc:	3f01      	subs	r7, #1
    57be:	e6bb      	b.n	5538 <__mpa_div_q_r+0x10a>
/home/yin/imx-optee/imx-optee-os/lib/libmpa/mpa_div.c:218
    57c0:	f10b 3bff 	add.w	fp, fp, #4294967295	; 0xffffffff
    57c4:	e6be      	b.n	5544 <__mpa_div_q_r+0x116>
__mpa_div_q_r():
/home/yin/imx-optee/imx-optee-os/lib/libmpa/mpa_div.c:330
    57c6:	68a3      	ldr	r3, [r4, #8]
    57c8:	4649      	mov	r1, r9
    57ca:	9a02      	ldr	r2, [sp, #8]
    57cc:	4630      	mov	r0, r6
    57ce:	f7ff fdcf 	bl	5370 <__mpa_div_q_r_internal_word>
    57d2:	e6d7      	b.n	5584 <__mpa_div_q_r+0x156>
/home/yin/imx-optee/imx-optee-os/lib/libmpa/mpa_div.c:332
    57d4:	4630      	mov	r0, r6
    57d6:	2100      	movs	r1, #0
    57d8:	f7ff fd91 	bl	52fe <mpa_set_word>
/home/yin/imx-optee/imx-optee-os/lib/libmpa/mpa_div.c:333
    57dc:	9902      	ldr	r1, [sp, #8]
    57de:	4648      	mov	r0, r9
    57e0:	f7fe fd98 	bl	4314 <mpa_copy>
/home/yin/imx-optee/imx-optee-os/lib/libmpa/mpa_div.c:334
    57e4:	e635      	b.n	5452 <__mpa_div_q_r+0x24>
/home/yin/imx-optee/imx-optee-os/lib/libmpa/mpa_div.c:319
    57e6:	2b00      	cmp	r3, #0
    57e8:	bfb4      	ite	lt
    57ea:	f04f 33ff 	movlt.w	r3, #4294967295	; 0xffffffff
    57ee:	2301      	movge	r3, #1
/home/yin/imx-optee/imx-optee-os/lib/libmpa/mpa_div.c:320
    57f0:	4621      	mov	r1, r4
    57f2:	9802      	ldr	r0, [sp, #8]
/home/yin/imx-optee/imx-optee-os/lib/libmpa/mpa_div.c:319
    57f4:	9304      	str	r3, [sp, #16]
/home/yin/imx-optee/imx-optee-os/lib/libmpa/mpa_div.c:320
    57f6:	f001 f869 	bl	68cc <__mpa_abs_cmp>
/home/yin/imx-optee/imx-optee-os/lib/libmpa/mpa_div.c:321
    57fa:	1e05      	subs	r5, r0, #0
    57fc:	f47f ae38 	bne.w	5470 <__mpa_div_q_r+0x42>
/home/yin/imx-optee/imx-optee-os/lib/libmpa/mpa_div.c:322
    5800:	2101      	movs	r1, #1
    5802:	4630      	mov	r0, r6
    5804:	e61f      	b.n	5446 <__mpa_div_q_r+0x18>
__mpa_div_q_r_internal():
/home/yin/imx-optee/imx-optee-os/lib/libmpa/mpa_div.c:147
    5806:	4298      	cmp	r0, r3
    5808:	f77f ae89 	ble.w	551e <__mpa_div_q_r+0xf0>
    580c:	2500      	movs	r5, #0
    580e:	e6ec      	b.n	55ea <__mpa_div_q_r+0x1bc>

00005810 <mpa_div>:
mpa_div():
/home/yin/imx-optee/imx-optee-os/lib/libmpa/mpa_div.c:364
    5810:	4290      	cmp	r0, r2
/home/yin/imx-optee/imx-optee-os/lib/libmpa/mpa_div.c:357
    5812:	e92d 47ff 	stmdb	sp!, {r0, r1, r2, r3, r4, r5, r6, r7, r8, r9, sl, lr}
    5816:	9e0c      	ldr	r6, [sp, #48]	; 0x30
    5818:	4605      	mov	r5, r0
    581a:	460c      	mov	r4, r1
    581c:	4617      	mov	r7, r2
    581e:	4698      	mov	r8, r3
/home/yin/imx-optee/imx-optee-os/lib/libmpa/mpa_div.c:364
    5820:	d002      	beq.n	5828 <mpa_div+0x18>
/home/yin/imx-optee/imx-optee-os/lib/libmpa/mpa_div.c:364 (discriminator 1)
    5822:	4298      	cmp	r0, r3
    5824:	d000      	beq.n	5828 <mpa_div+0x18>
/home/yin/imx-optee/imx-optee-os/lib/libmpa/mpa_div.c:364 (discriminator 2)
    5826:	bb90      	cbnz	r0, 588e <mpa_div+0x7e>
/home/yin/imx-optee/imx-optee-os/lib/libmpa/mpa_div.c:366
    5828:	f04f 0a01 	mov.w	sl, #1
/home/yin/imx-optee/imx-optee-os/lib/libmpa/mpa_div.c:365
    582c:	4631      	mov	r1, r6
    582e:	a802      	add	r0, sp, #8
    5830:	f000 faee 	bl	5e10 <mpa_alloc_static_temp_var>
/home/yin/imx-optee/imx-optee-os/lib/libmpa/mpa_div.c:373
    5834:	42a7      	cmp	r7, r4
    5836:	d002      	beq.n	583e <mpa_div+0x2e>
/home/yin/imx-optee/imx-optee-os/lib/libmpa/mpa_div.c:373 (discriminator 1)
    5838:	45a0      	cmp	r8, r4
    583a:	d000      	beq.n	583e <mpa_div+0x2e>
/home/yin/imx-optee/imx-optee-os/lib/libmpa/mpa_div.c:373 (discriminator 2)
    583c:	bb5c      	cbnz	r4, 5896 <mpa_div+0x86>
/home/yin/imx-optee/imx-optee-os/lib/libmpa/mpa_div.c:375
    583e:	f04f 0901 	mov.w	r9, #1
/home/yin/imx-optee/imx-optee-os/lib/libmpa/mpa_div.c:374
    5842:	4631      	mov	r1, r6
    5844:	a803      	add	r0, sp, #12
    5846:	f000 fae3 	bl	5e10 <mpa_alloc_static_temp_var>
/home/yin/imx-optee/imx-optee-os/lib/libmpa/mpa_div.c:381
    584a:	9600      	str	r6, [sp, #0]
    584c:	4643      	mov	r3, r8
    584e:	463a      	mov	r2, r7
    5850:	9903      	ldr	r1, [sp, #12]
    5852:	9802      	ldr	r0, [sp, #8]
    5854:	f7ff fdeb 	bl	542e <__mpa_div_q_r>
/home/yin/imx-optee/imx-optee-os/lib/libmpa/mpa_div.c:383
    5858:	b11d      	cbz	r5, 5862 <mpa_div+0x52>
/home/yin/imx-optee/imx-optee-os/lib/libmpa/mpa_div.c:384
    585a:	9902      	ldr	r1, [sp, #8]
    585c:	4628      	mov	r0, r5
    585e:	f7fe fd59 	bl	4314 <mpa_copy>
/home/yin/imx-optee/imx-optee-os/lib/libmpa/mpa_div.c:385
    5862:	f1ba 0f00 	cmp.w	sl, #0
    5866:	d003      	beq.n	5870 <mpa_div+0x60>
/home/yin/imx-optee/imx-optee-os/lib/libmpa/mpa_div.c:386
    5868:	4631      	mov	r1, r6
    586a:	a802      	add	r0, sp, #8
    586c:	f000 fad5 	bl	5e1a <mpa_free_static_temp_var>
/home/yin/imx-optee/imx-optee-os/lib/libmpa/mpa_div.c:387
    5870:	b11c      	cbz	r4, 587a <mpa_div+0x6a>
/home/yin/imx-optee/imx-optee-os/lib/libmpa/mpa_div.c:388
    5872:	9903      	ldr	r1, [sp, #12]
    5874:	4620      	mov	r0, r4
    5876:	f7fe fd4d 	bl	4314 <mpa_copy>
/home/yin/imx-optee/imx-optee-os/lib/libmpa/mpa_div.c:389
    587a:	f1b9 0f00 	cmp.w	r9, #0
    587e:	d003      	beq.n	5888 <mpa_div+0x78>
/home/yin/imx-optee/imx-optee-os/lib/libmpa/mpa_div.c:390
    5880:	4631      	mov	r1, r6
    5882:	a803      	add	r0, sp, #12
    5884:	f000 fac9 	bl	5e1a <mpa_free_static_temp_var>
/home/yin/imx-optee/imx-optee-os/lib/libmpa/mpa_div.c:391
    5888:	b004      	add	sp, #16
    588a:	e8bd 87f0 	ldmia.w	sp!, {r4, r5, r6, r7, r8, r9, sl, pc}
/home/yin/imx-optee/imx-optee-os/lib/libmpa/mpa_div.c:368
    588e:	9002      	str	r0, [sp, #8]
/home/yin/imx-optee/imx-optee-os/lib/libmpa/mpa_div.c:369
    5890:	f04f 0a00 	mov.w	sl, #0
    5894:	e7ce      	b.n	5834 <mpa_div+0x24>
/home/yin/imx-optee/imx-optee-os/lib/libmpa/mpa_div.c:377
    5896:	9403      	str	r4, [sp, #12]
/home/yin/imx-optee/imx-optee-os/lib/libmpa/mpa_div.c:378
    5898:	f04f 0900 	mov.w	r9, #0
    589c:	e7d5      	b.n	584a <mpa_div+0x3a>

0000589e <__mpa_divby2>:
__mpa_divby2():
/home/yin/imx-optee/imx-optee-os/lib/libmpa/mpa_gcd.c:25
    589e:	6843      	ldr	r3, [r0, #4]
/home/yin/imx-optee/imx-optee-os/lib/libmpa/mpa_gcd.c:19
    58a0:	b5f0      	push	{r4, r5, r6, r7, lr}
/home/yin/imx-optee/imx-optee-os/lib/libmpa/mpa_gcd.c:25
    58a2:	b1bb      	cbz	r3, 58d4 <__mpa_divby2+0x36>
/home/yin/imx-optee/imx-optee-os/lib/libmpa/mpa_gcd.c:28
    58a4:	ea83 76e3 	eor.w	r6, r3, r3, asr #31
    58a8:	eba6 76e3 	sub.w	r6, r6, r3, asr #31
    58ac:	1c72      	adds	r2, r6, #1
    58ae:	f850 2022 	ldr.w	r2, [r0, r2, lsl #2]
    58b2:	0852      	lsrs	r2, r2, #1
/home/yin/imx-optee/imx-optee-os/lib/libmpa/mpa_gcd.c:30
    58b4:	6882      	ldr	r2, [r0, #8]
/home/yin/imx-optee/imx-optee-os/lib/libmpa/mpa_gcd.c:28
    58b6:	bf0c      	ite	eq
    58b8:	2501      	moveq	r5, #1
    58ba:	2500      	movne	r5, #0
/home/yin/imx-optee/imx-optee-os/lib/libmpa/mpa_gcd.c:30
    58bc:	0851      	lsrs	r1, r2, #1
    58be:	4602      	mov	r2, r0
    58c0:	f842 1f08 	str.w	r1, [r2, #8]!
/home/yin/imx-optee/imx-optee-os/lib/libmpa/mpa_gcd.c:31
    58c4:	2101      	movs	r1, #1
/home/yin/imx-optee/imx-optee-os/lib/libmpa/mpa_gcd.c:31 (discriminator 1)
    58c6:	42b1      	cmp	r1, r6
    58c8:	d305      	bcc.n	58d6 <__mpa_divby2+0x38>
/home/yin/imx-optee/imx-optee-os/lib/libmpa/mpa_gcd.c:37
    58ca:	2b00      	cmp	r3, #0
/home/yin/imx-optee/imx-optee-os/lib/libmpa/mpa_gcd.c:38
    58cc:	bfb4      	ite	lt
    58ce:	195b      	addlt	r3, r3, r5
/home/yin/imx-optee/imx-optee-os/lib/libmpa/mpa_gcd.c:40
    58d0:	1b5b      	subge	r3, r3, r5
    58d2:	6043      	str	r3, [r0, #4]
    58d4:	bdf0      	pop	{r4, r5, r6, r7, pc}
/home/yin/imx-optee/imx-optee-os/lib/libmpa/mpa_gcd.c:32 (discriminator 3)
    58d6:	6857      	ldr	r7, [r2, #4]
/home/yin/imx-optee/imx-optee-os/lib/libmpa/mpa_gcd.c:31 (discriminator 3)
    58d8:	3101      	adds	r1, #1
/home/yin/imx-optee/imx-optee-os/lib/libmpa/mpa_gcd.c:33 (discriminator 3)
    58da:	087c      	lsrs	r4, r7, #1
    58dc:	6054      	str	r4, [r2, #4]
/home/yin/imx-optee/imx-optee-os/lib/libmpa/mpa_gcd.c:34 (discriminator 3)
    58de:	6814      	ldr	r4, [r2, #0]
    58e0:	ea84 74c7 	eor.w	r4, r4, r7, lsl #31
    58e4:	f842 4b04 	str.w	r4, [r2], #4
    58e8:	e7ed      	b.n	58c6 <__mpa_divby2+0x28>

000058ea <__mpa_gcd.part.0>:
__mpa_gcd():
/home/yin/imx-optee/imx-optee-os/lib/libmpa/mpa_gcd.c:190
    58ea:	e92d 43f0 	stmdb	sp!, {r4, r5, r6, r7, r8, r9, lr}
    58ee:	b085      	sub	sp, #20
/home/yin/imx-optee/imx-optee-os/lib/libmpa/mpa_gcd.c:204
    58f0:	af01      	add	r7, sp, #4
/home/yin/imx-optee/imx-optee-os/lib/libmpa/mpa_gcd.c:190
    58f2:	460e      	mov	r6, r1
    58f4:	4681      	mov	r9, r0
/home/yin/imx-optee/imx-optee-os/lib/libmpa/mpa_gcd.c:204
    58f6:	4619      	mov	r1, r3
    58f8:	4638      	mov	r0, r7
/home/yin/imx-optee/imx-optee-os/lib/libmpa/mpa_gcd.c:190
    58fa:	4615      	mov	r5, r2
    58fc:	461c      	mov	r4, r3
/home/yin/imx-optee/imx-optee-os/lib/libmpa/mpa_gcd.c:204
    58fe:	f000 fa87 	bl	5e10 <mpa_alloc_static_temp_var>
/home/yin/imx-optee/imx-optee-os/lib/libmpa/mpa_gcd.c:205
    5902:	4631      	mov	r1, r6
    5904:	9801      	ldr	r0, [sp, #4]
/home/yin/imx-optee/imx-optee-os/lib/libmpa/mpa_gcd.c:206
    5906:	ae02      	add	r6, sp, #8
/home/yin/imx-optee/imx-optee-os/lib/libmpa/mpa_gcd.c:205
    5908:	f7fe fd04 	bl	4314 <mpa_copy>
/home/yin/imx-optee/imx-optee-os/lib/libmpa/mpa_gcd.c:206
    590c:	4621      	mov	r1, r4
    590e:	4630      	mov	r0, r6
    5910:	f000 fa7e 	bl	5e10 <mpa_alloc_static_temp_var>
/home/yin/imx-optee/imx-optee-os/lib/libmpa/mpa_gcd.c:207
    5914:	4629      	mov	r1, r5
/home/yin/imx-optee/imx-optee-os/lib/libmpa/mpa_gcd.c:209
    5916:	2500      	movs	r5, #0
/home/yin/imx-optee/imx-optee-os/lib/libmpa/mpa_gcd.c:207
    5918:	9802      	ldr	r0, [sp, #8]
    591a:	f7fe fcfb 	bl	4314 <mpa_copy>
/home/yin/imx-optee/imx-optee-os/lib/libmpa/mpa_gcd.c:210
    591e:	9801      	ldr	r0, [sp, #4]
    5920:	f7fe fd48 	bl	43b4 <mpa_parity>
    5924:	b1e0      	cbz	r0, 5960 <__mpa_gcd.part.0+0x76>
/home/yin/imx-optee/imx-optee-os/lib/libmpa/mpa_gcd.c:216
    5926:	f10d 080c 	add.w	r8, sp, #12
    592a:	4621      	mov	r1, r4
    592c:	4640      	mov	r0, r8
    592e:	f000 fa6f 	bl	5e10 <mpa_alloc_static_temp_var>
/home/yin/imx-optee/imx-optee-os/lib/libmpa/mpa_gcd.c:217
    5932:	9b01      	ldr	r3, [sp, #4]
    5934:	685b      	ldr	r3, [r3, #4]
    5936:	bb1b      	cbnz	r3, 5980 <__mpa_gcd.part.0+0x96>
/home/yin/imx-optee/imx-optee-os/lib/libmpa/mpa_gcd.c:234
    5938:	462a      	mov	r2, r5
    593a:	9902      	ldr	r1, [sp, #8]
    593c:	4648      	mov	r0, r9
    593e:	f000 fc21 	bl	6184 <mpa_shift_left>
/home/yin/imx-optee/imx-optee-os/lib/libmpa/mpa_gcd.c:235
    5942:	4621      	mov	r1, r4
    5944:	4640      	mov	r0, r8
    5946:	f000 fa68 	bl	5e1a <mpa_free_static_temp_var>
/home/yin/imx-optee/imx-optee-os/lib/libmpa/mpa_gcd.c:236
    594a:	4621      	mov	r1, r4
    594c:	4638      	mov	r0, r7
    594e:	f000 fa64 	bl	5e1a <mpa_free_static_temp_var>
/home/yin/imx-optee/imx-optee-os/lib/libmpa/mpa_gcd.c:237
    5952:	4621      	mov	r1, r4
    5954:	4630      	mov	r0, r6
    5956:	f000 fa60 	bl	5e1a <mpa_free_static_temp_var>
/home/yin/imx-optee/imx-optee-os/lib/libmpa/mpa_gcd.c:238
    595a:	b005      	add	sp, #20
    595c:	e8bd 83f0 	ldmia.w	sp!, {r4, r5, r6, r7, r8, r9, pc}
/home/yin/imx-optee/imx-optee-os/lib/libmpa/mpa_gcd.c:210
    5960:	9802      	ldr	r0, [sp, #8]
    5962:	f7fe fd27 	bl	43b4 <mpa_parity>
    5966:	2800      	cmp	r0, #0
    5968:	d1dd      	bne.n	5926 <__mpa_gcd.part.0+0x3c>
/home/yin/imx-optee/imx-optee-os/lib/libmpa/mpa_gcd.c:212
    596a:	9801      	ldr	r0, [sp, #4]
/home/yin/imx-optee/imx-optee-os/lib/libmpa/mpa_gcd.c:211
    596c:	3501      	adds	r5, #1
/home/yin/imx-optee/imx-optee-os/lib/libmpa/mpa_gcd.c:212
    596e:	f7ff ff96 	bl	589e <__mpa_divby2>
/home/yin/imx-optee/imx-optee-os/lib/libmpa/mpa_gcd.c:213
    5972:	9802      	ldr	r0, [sp, #8]
    5974:	f7ff ff93 	bl	589e <__mpa_divby2>
    5978:	e7d1      	b.n	591e <__mpa_gcd.part.0+0x34>
/home/yin/imx-optee/imx-optee-os/lib/libmpa/mpa_gcd.c:219
    597a:	9801      	ldr	r0, [sp, #4]
    597c:	f7ff ff8f 	bl	589e <__mpa_divby2>
/home/yin/imx-optee/imx-optee-os/lib/libmpa/mpa_gcd.c:218
    5980:	9801      	ldr	r0, [sp, #4]
    5982:	f7fe fd17 	bl	43b4 <mpa_parity>
    5986:	2800      	cmp	r0, #0
    5988:	d0f7      	beq.n	597a <__mpa_gcd.part.0+0x90>
/home/yin/imx-optee/imx-optee-os/lib/libmpa/mpa_gcd.c:221
    598a:	9802      	ldr	r0, [sp, #8]
    598c:	f7fe fd12 	bl	43b4 <mpa_parity>
    5990:	b1c8      	cbz	r0, 59c6 <__mpa_gcd.part.0+0xdc>
/home/yin/imx-optee/imx-optee-os/lib/libmpa/mpa_gcd.c:224
    5992:	9a02      	ldr	r2, [sp, #8]
    5994:	4623      	mov	r3, r4
    5996:	9901      	ldr	r1, [sp, #4]
    5998:	9803      	ldr	r0, [sp, #12]
    599a:	f000 fe4d 	bl	6638 <mpa_sub>
/home/yin/imx-optee/imx-optee-os/lib/libmpa/mpa_gcd.c:226
    599e:	9803      	ldr	r0, [sp, #12]
    59a0:	6843      	ldr	r3, [r0, #4]
    59a2:	2b00      	cmp	r3, #0
    59a4:	bfbc      	itt	lt
    59a6:	425b      	neglt	r3, r3
    59a8:	6043      	strlt	r3, [r0, #4]
/home/yin/imx-optee/imx-optee-os/lib/libmpa/mpa_gcd.c:227
    59aa:	f7ff ff78 	bl	589e <__mpa_divby2>
/home/yin/imx-optee/imx-optee-os/lib/libmpa/mpa_gcd.c:228
    59ae:	9902      	ldr	r1, [sp, #8]
    59b0:	9801      	ldr	r0, [sp, #4]
    59b2:	f000 ffc1 	bl	6938 <mpa_cmp>
    59b6:	2800      	cmp	r0, #0
/home/yin/imx-optee/imx-optee-os/lib/libmpa/mpa_gcd.c:229
    59b8:	9903      	ldr	r1, [sp, #12]
    59ba:	bfac      	ite	ge
    59bc:	9801      	ldrge	r0, [sp, #4]
/home/yin/imx-optee/imx-optee-os/lib/libmpa/mpa_gcd.c:231
    59be:	9802      	ldrlt	r0, [sp, #8]
    59c0:	f7fe fca8 	bl	4314 <mpa_copy>
    59c4:	e7b5      	b.n	5932 <__mpa_gcd.part.0+0x48>
/home/yin/imx-optee/imx-optee-os/lib/libmpa/mpa_gcd.c:222
    59c6:	9802      	ldr	r0, [sp, #8]
    59c8:	f7ff ff69 	bl	589e <__mpa_divby2>
    59cc:	e7dd      	b.n	598a <__mpa_gcd.part.0+0xa0>

000059ce <__mpa_egcd>:
__mpa_egcd():
/home/yin/imx-optee/imx-optee-os/lib/libmpa/mpa_gcd.c:94
    59ce:	e92d 4ff0 	stmdb	sp!, {r4, r5, r6, r7, r8, r9, sl, fp, lr}
    59d2:	b08b      	sub	sp, #44	; 0x2c
    59d4:	f8dd 8050 	ldr.w	r8, [sp, #80]	; 0x50
    59d8:	469a      	mov	sl, r3
    59da:	4605      	mov	r5, r0
    59dc:	460f      	mov	r7, r1
    59de:	4616      	mov	r6, r2
    59e0:	9c15      	ldr	r4, [sp, #84]	; 0x54
/home/yin/imx-optee/imx-optee-os/lib/libmpa/mpa_gcd.c:105
    59e2:	f8d8 3004 	ldr.w	r3, [r8, #4]
    59e6:	b983      	cbnz	r3, 5a0a <__mpa_egcd+0x3c>
/home/yin/imx-optee/imx-optee-os/lib/libmpa/mpa_gcd.c:106
    59e8:	b119      	cbz	r1, 59f2 <__mpa_egcd+0x24>
/home/yin/imx-optee/imx-optee-os/lib/libmpa/mpa_gcd.c:107
    59ea:	2101      	movs	r1, #1
    59ec:	4638      	mov	r0, r7
    59ee:	f7ff fc86 	bl	52fe <mpa_set_word>
/home/yin/imx-optee/imx-optee-os/lib/libmpa/mpa_gcd.c:108
    59f2:	b11e      	cbz	r6, 59fc <__mpa_egcd+0x2e>
/home/yin/imx-optee/imx-optee-os/lib/libmpa/mpa_gcd.c:109
    59f4:	2100      	movs	r1, #0
    59f6:	4630      	mov	r0, r6
    59f8:	f7ff fc81 	bl	52fe <mpa_set_word>
/home/yin/imx-optee/imx-optee-os/lib/libmpa/mpa_gcd.c:110
    59fc:	4651      	mov	r1, sl
    59fe:	4628      	mov	r0, r5
    5a00:	f7fe fc88 	bl	4314 <mpa_copy>
/home/yin/imx-optee/imx-optee-os/lib/libmpa/mpa_gcd.c:183
    5a04:	b00b      	add	sp, #44	; 0x2c
    5a06:	e8bd 8ff0 	ldmia.w	sp!, {r4, r5, r6, r7, r8, r9, sl, fp, pc}
/home/yin/imx-optee/imx-optee-os/lib/libmpa/mpa_gcd.c:113
    5a0a:	f10d 091c 	add.w	r9, sp, #28
    5a0e:	4621      	mov	r1, r4
    5a10:	4648      	mov	r0, r9
    5a12:	f000 f9fd 	bl	5e10 <mpa_alloc_static_temp_var>
/home/yin/imx-optee/imx-optee-os/lib/libmpa/mpa_gcd.c:114
    5a16:	4651      	mov	r1, sl
    5a18:	9807      	ldr	r0, [sp, #28]
    5a1a:	f7fe fc7b 	bl	4314 <mpa_copy>
/home/yin/imx-optee/imx-optee-os/lib/libmpa/mpa_gcd.c:115
    5a1e:	ab08      	add	r3, sp, #32
    5a20:	4621      	mov	r1, r4
    5a22:	4618      	mov	r0, r3
    5a24:	9300      	str	r3, [sp, #0]
    5a26:	f000 f9f3 	bl	5e10 <mpa_alloc_static_temp_var>
/home/yin/imx-optee/imx-optee-os/lib/libmpa/mpa_gcd.c:116
    5a2a:	4641      	mov	r1, r8
/home/yin/imx-optee/imx-optee-os/lib/libmpa/mpa_gcd.c:118
    5a2c:	f04f 0800 	mov.w	r8, #0
/home/yin/imx-optee/imx-optee-os/lib/libmpa/mpa_gcd.c:116
    5a30:	9808      	ldr	r0, [sp, #32]
    5a32:	f7fe fc6f 	bl	4314 <mpa_copy>
/home/yin/imx-optee/imx-optee-os/lib/libmpa/mpa_gcd.c:119
    5a36:	9807      	ldr	r0, [sp, #28]
    5a38:	f7fe fcbc 	bl	43b4 <mpa_parity>
    5a3c:	2800      	cmp	r0, #0
    5a3e:	d061      	beq.n	5b04 <__mpa_egcd+0x136>
/home/yin/imx-optee/imx-optee-os/lib/libmpa/mpa_gcd.c:125
    5a40:	ab09      	add	r3, sp, #36	; 0x24
    5a42:	4621      	mov	r1, r4
    5a44:	4618      	mov	r0, r3
    5a46:	9301      	str	r3, [sp, #4]
    5a48:	f000 f9e2 	bl	5e10 <mpa_alloc_static_temp_var>
/home/yin/imx-optee/imx-optee-os/lib/libmpa/mpa_gcd.c:126
    5a4c:	9907      	ldr	r1, [sp, #28]
/home/yin/imx-optee/imx-optee-os/lib/libmpa/mpa_gcd.c:128
    5a4e:	f10d 0b0c 	add.w	fp, sp, #12
/home/yin/imx-optee/imx-optee-os/lib/libmpa/mpa_gcd.c:126
    5a52:	9809      	ldr	r0, [sp, #36]	; 0x24
/home/yin/imx-optee/imx-optee-os/lib/libmpa/mpa_gcd.c:130
    5a54:	f10d 0a10 	add.w	sl, sp, #16
/home/yin/imx-optee/imx-optee-os/lib/libmpa/mpa_gcd.c:126
    5a58:	f7fe fc5c 	bl	4314 <mpa_copy>
/home/yin/imx-optee/imx-optee-os/lib/libmpa/mpa_gcd.c:127
    5a5c:	9908      	ldr	r1, [sp, #32]
    5a5e:	4628      	mov	r0, r5
    5a60:	f7fe fc58 	bl	4314 <mpa_copy>
/home/yin/imx-optee/imx-optee-os/lib/libmpa/mpa_gcd.c:128
    5a64:	4621      	mov	r1, r4
    5a66:	4658      	mov	r0, fp
    5a68:	f000 f9d2 	bl	5e10 <mpa_alloc_static_temp_var>
/home/yin/imx-optee/imx-optee-os/lib/libmpa/mpa_gcd.c:129
    5a6c:	2101      	movs	r1, #1
    5a6e:	9803      	ldr	r0, [sp, #12]
    5a70:	f7ff fc45 	bl	52fe <mpa_set_word>
/home/yin/imx-optee/imx-optee-os/lib/libmpa/mpa_gcd.c:130
    5a74:	4621      	mov	r1, r4
    5a76:	4650      	mov	r0, sl
    5a78:	f000 f9ca 	bl	5e10 <mpa_alloc_static_temp_var>
/home/yin/imx-optee/imx-optee-os/lib/libmpa/mpa_gcd.c:131
    5a7c:	2100      	movs	r1, #0
    5a7e:	9804      	ldr	r0, [sp, #16]
    5a80:	f7ff fc3d 	bl	52fe <mpa_set_word>
/home/yin/imx-optee/imx-optee-os/lib/libmpa/mpa_gcd.c:132
    5a84:	4621      	mov	r1, r4
    5a86:	a805      	add	r0, sp, #20
    5a88:	f000 f9c2 	bl	5e10 <mpa_alloc_static_temp_var>
/home/yin/imx-optee/imx-optee-os/lib/libmpa/mpa_gcd.c:133
    5a8c:	2100      	movs	r1, #0
    5a8e:	9805      	ldr	r0, [sp, #20]
    5a90:	f7ff fc35 	bl	52fe <mpa_set_word>
/home/yin/imx-optee/imx-optee-os/lib/libmpa/mpa_gcd.c:134
    5a94:	4621      	mov	r1, r4
    5a96:	a806      	add	r0, sp, #24
    5a98:	f000 f9ba 	bl	5e10 <mpa_alloc_static_temp_var>
/home/yin/imx-optee/imx-optee-os/lib/libmpa/mpa_gcd.c:135
    5a9c:	2101      	movs	r1, #1
    5a9e:	9806      	ldr	r0, [sp, #24]
    5aa0:	f7ff fc2d 	bl	52fe <mpa_set_word>
/home/yin/imx-optee/imx-optee-os/lib/libmpa/mpa_gcd.c:137
    5aa4:	9b09      	ldr	r3, [sp, #36]	; 0x24
    5aa6:	685b      	ldr	r3, [r3, #4]
    5aa8:	2b00      	cmp	r3, #0
    5aaa:	d153      	bne.n	5b54 <__mpa_egcd+0x186>
/home/yin/imx-optee/imx-optee-os/lib/libmpa/mpa_gcd.c:170
    5aac:	b11f      	cbz	r7, 5ab6 <__mpa_egcd+0xe8>
/home/yin/imx-optee/imx-optee-os/lib/libmpa/mpa_gcd.c:171
    5aae:	9905      	ldr	r1, [sp, #20]
    5ab0:	4638      	mov	r0, r7
    5ab2:	f7fe fc2f 	bl	4314 <mpa_copy>
/home/yin/imx-optee/imx-optee-os/lib/libmpa/mpa_gcd.c:172
    5ab6:	b11e      	cbz	r6, 5ac0 <__mpa_egcd+0xf2>
/home/yin/imx-optee/imx-optee-os/lib/libmpa/mpa_gcd.c:173
    5ab8:	9906      	ldr	r1, [sp, #24]
    5aba:	4630      	mov	r0, r6
    5abc:	f7fe fc2a 	bl	4314 <mpa_copy>
/home/yin/imx-optee/imx-optee-os/lib/libmpa/mpa_gcd.c:174
    5ac0:	4642      	mov	r2, r8
    5ac2:	4629      	mov	r1, r5
    5ac4:	4628      	mov	r0, r5
    5ac6:	f000 fb5d 	bl	6184 <mpa_shift_left>
/home/yin/imx-optee/imx-optee-os/lib/libmpa/mpa_gcd.c:176
    5aca:	4621      	mov	r1, r4
    5acc:	4658      	mov	r0, fp
    5ace:	f000 f9a4 	bl	5e1a <mpa_free_static_temp_var>
/home/yin/imx-optee/imx-optee-os/lib/libmpa/mpa_gcd.c:177
    5ad2:	4621      	mov	r1, r4
    5ad4:	4650      	mov	r0, sl
    5ad6:	f000 f9a0 	bl	5e1a <mpa_free_static_temp_var>
/home/yin/imx-optee/imx-optee-os/lib/libmpa/mpa_gcd.c:178
    5ada:	4621      	mov	r1, r4
    5adc:	a805      	add	r0, sp, #20
    5ade:	f000 f99c 	bl	5e1a <mpa_free_static_temp_var>
/home/yin/imx-optee/imx-optee-os/lib/libmpa/mpa_gcd.c:179
    5ae2:	4621      	mov	r1, r4
    5ae4:	a806      	add	r0, sp, #24
    5ae6:	f000 f998 	bl	5e1a <mpa_free_static_temp_var>
/home/yin/imx-optee/imx-optee-os/lib/libmpa/mpa_gcd.c:180
    5aea:	4621      	mov	r1, r4
    5aec:	4648      	mov	r0, r9
    5aee:	f000 f994 	bl	5e1a <mpa_free_static_temp_var>
/home/yin/imx-optee/imx-optee-os/lib/libmpa/mpa_gcd.c:181
    5af2:	4621      	mov	r1, r4
    5af4:	9800      	ldr	r0, [sp, #0]
    5af6:	f000 f990 	bl	5e1a <mpa_free_static_temp_var>
/home/yin/imx-optee/imx-optee-os/lib/libmpa/mpa_gcd.c:182
    5afa:	4621      	mov	r1, r4
    5afc:	9801      	ldr	r0, [sp, #4]
    5afe:	f000 f98c 	bl	5e1a <mpa_free_static_temp_var>
    5b02:	e77f      	b.n	5a04 <__mpa_egcd+0x36>
/home/yin/imx-optee/imx-optee-os/lib/libmpa/mpa_gcd.c:119
    5b04:	9808      	ldr	r0, [sp, #32]
    5b06:	f7fe fc55 	bl	43b4 <mpa_parity>
    5b0a:	2800      	cmp	r0, #0
    5b0c:	d198      	bne.n	5a40 <__mpa_egcd+0x72>
/home/yin/imx-optee/imx-optee-os/lib/libmpa/mpa_gcd.c:121
    5b0e:	9807      	ldr	r0, [sp, #28]
/home/yin/imx-optee/imx-optee-os/lib/libmpa/mpa_gcd.c:120
    5b10:	f108 0801 	add.w	r8, r8, #1
/home/yin/imx-optee/imx-optee-os/lib/libmpa/mpa_gcd.c:121
    5b14:	f7ff fec3 	bl	589e <__mpa_divby2>
/home/yin/imx-optee/imx-optee-os/lib/libmpa/mpa_gcd.c:122
    5b18:	9808      	ldr	r0, [sp, #32]
    5b1a:	f7ff fec0 	bl	589e <__mpa_divby2>
    5b1e:	e78a      	b.n	5a36 <__mpa_egcd+0x68>
/home/yin/imx-optee/imx-optee-os/lib/libmpa/mpa_gcd.c:139
    5b20:	9809      	ldr	r0, [sp, #36]	; 0x24
    5b22:	f7ff febc 	bl	589e <__mpa_divby2>
/home/yin/imx-optee/imx-optee-os/lib/libmpa/mpa_gcd.c:140
    5b26:	9803      	ldr	r0, [sp, #12]
    5b28:	f7fe fc44 	bl	43b4 <mpa_parity>
    5b2c:	2801      	cmp	r0, #1
    5b2e:	d133      	bne.n	5b98 <__mpa_egcd+0x1ca>
/home/yin/imx-optee/imx-optee-os/lib/libmpa/mpa_gcd.c:141
    5b30:	9903      	ldr	r1, [sp, #12]
    5b32:	4623      	mov	r3, r4
    5b34:	9a08      	ldr	r2, [sp, #32]
    5b36:	4608      	mov	r0, r1
    5b38:	f000 fd07 	bl	654a <mpa_add>
/home/yin/imx-optee/imx-optee-os/lib/libmpa/mpa_gcd.c:142
    5b3c:	9904      	ldr	r1, [sp, #16]
    5b3e:	4623      	mov	r3, r4
    5b40:	9a07      	ldr	r2, [sp, #28]
    5b42:	4608      	mov	r0, r1
    5b44:	f000 fd78 	bl	6638 <mpa_sub>
/home/yin/imx-optee/imx-optee-os/lib/libmpa/mpa_gcd.c:144
    5b48:	9803      	ldr	r0, [sp, #12]
    5b4a:	f7ff fea8 	bl	589e <__mpa_divby2>
/home/yin/imx-optee/imx-optee-os/lib/libmpa/mpa_gcd.c:145
    5b4e:	9804      	ldr	r0, [sp, #16]
    5b50:	f7ff fea5 	bl	589e <__mpa_divby2>
/home/yin/imx-optee/imx-optee-os/lib/libmpa/mpa_gcd.c:138
    5b54:	9809      	ldr	r0, [sp, #36]	; 0x24
    5b56:	f7fe fc2d 	bl	43b4 <mpa_parity>
    5b5a:	2800      	cmp	r0, #0
    5b5c:	d0e0      	beq.n	5b20 <__mpa_egcd+0x152>
/home/yin/imx-optee/imx-optee-os/lib/libmpa/mpa_gcd.c:148
    5b5e:	4628      	mov	r0, r5
    5b60:	f7fe fc28 	bl	43b4 <mpa_parity>
    5b64:	b1f0      	cbz	r0, 5ba4 <__mpa_egcd+0x1d6>
/home/yin/imx-optee/imx-optee-os/lib/libmpa/mpa_gcd.c:158
    5b66:	4629      	mov	r1, r5
    5b68:	9809      	ldr	r0, [sp, #36]	; 0x24
    5b6a:	f000 fee5 	bl	6938 <mpa_cmp>
    5b6e:	2800      	cmp	r0, #0
/home/yin/imx-optee/imx-optee-os/lib/libmpa/mpa_gcd.c:159
    5b70:	4623      	mov	r3, r4
/home/yin/imx-optee/imx-optee-os/lib/libmpa/mpa_gcd.c:158
    5b72:	db38      	blt.n	5be6 <__mpa_egcd+0x218>
/home/yin/imx-optee/imx-optee-os/lib/libmpa/mpa_gcd.c:159
    5b74:	9909      	ldr	r1, [sp, #36]	; 0x24
    5b76:	462a      	mov	r2, r5
    5b78:	4608      	mov	r0, r1
    5b7a:	f000 fd5d 	bl	6638 <mpa_sub>
/home/yin/imx-optee/imx-optee-os/lib/libmpa/mpa_gcd.c:160
    5b7e:	9903      	ldr	r1, [sp, #12]
    5b80:	4623      	mov	r3, r4
    5b82:	9a05      	ldr	r2, [sp, #20]
    5b84:	4608      	mov	r0, r1
    5b86:	f000 fd57 	bl	6638 <mpa_sub>
/home/yin/imx-optee/imx-optee-os/lib/libmpa/mpa_gcd.c:161
    5b8a:	9a06      	ldr	r2, [sp, #24]
    5b8c:	4623      	mov	r3, r4
    5b8e:	9904      	ldr	r1, [sp, #16]
/home/yin/imx-optee/imx-optee-os/lib/libmpa/mpa_gcd.c:165
    5b90:	4608      	mov	r0, r1
    5b92:	f000 fd51 	bl	6638 <mpa_sub>
    5b96:	e785      	b.n	5aa4 <__mpa_egcd+0xd6>
/home/yin/imx-optee/imx-optee-os/lib/libmpa/mpa_gcd.c:140
    5b98:	9804      	ldr	r0, [sp, #16]
    5b9a:	f7fe fc0b 	bl	43b4 <mpa_parity>
    5b9e:	2801      	cmp	r0, #1
    5ba0:	d1d2      	bne.n	5b48 <__mpa_egcd+0x17a>
    5ba2:	e7c5      	b.n	5b30 <__mpa_egcd+0x162>
/home/yin/imx-optee/imx-optee-os/lib/libmpa/mpa_gcd.c:149
    5ba4:	4628      	mov	r0, r5
    5ba6:	f7ff fe7a 	bl	589e <__mpa_divby2>
/home/yin/imx-optee/imx-optee-os/lib/libmpa/mpa_gcd.c:150
    5baa:	9805      	ldr	r0, [sp, #20]
    5bac:	f7fe fc02 	bl	43b4 <mpa_parity>
    5bb0:	2801      	cmp	r0, #1
    5bb2:	d112      	bne.n	5bda <__mpa_egcd+0x20c>
/home/yin/imx-optee/imx-optee-os/lib/libmpa/mpa_gcd.c:151
    5bb4:	9905      	ldr	r1, [sp, #20]
    5bb6:	4623      	mov	r3, r4
    5bb8:	9a08      	ldr	r2, [sp, #32]
    5bba:	4608      	mov	r0, r1
    5bbc:	f000 fcc5 	bl	654a <mpa_add>
/home/yin/imx-optee/imx-optee-os/lib/libmpa/mpa_gcd.c:152
    5bc0:	9906      	ldr	r1, [sp, #24]
    5bc2:	4623      	mov	r3, r4
    5bc4:	9a07      	ldr	r2, [sp, #28]
    5bc6:	4608      	mov	r0, r1
    5bc8:	f000 fd36 	bl	6638 <mpa_sub>
/home/yin/imx-optee/imx-optee-os/lib/libmpa/mpa_gcd.c:154
    5bcc:	9805      	ldr	r0, [sp, #20]
    5bce:	f7ff fe66 	bl	589e <__mpa_divby2>
/home/yin/imx-optee/imx-optee-os/lib/libmpa/mpa_gcd.c:155
    5bd2:	9806      	ldr	r0, [sp, #24]
    5bd4:	f7ff fe63 	bl	589e <__mpa_divby2>
    5bd8:	e7c1      	b.n	5b5e <__mpa_egcd+0x190>
/home/yin/imx-optee/imx-optee-os/lib/libmpa/mpa_gcd.c:150
    5bda:	9806      	ldr	r0, [sp, #24]
    5bdc:	f7fe fbea 	bl	43b4 <mpa_parity>
    5be0:	2801      	cmp	r0, #1
    5be2:	d1f3      	bne.n	5bcc <__mpa_egcd+0x1fe>
    5be4:	e7e6      	b.n	5bb4 <__mpa_egcd+0x1e6>
/home/yin/imx-optee/imx-optee-os/lib/libmpa/mpa_gcd.c:163
    5be6:	9a09      	ldr	r2, [sp, #36]	; 0x24
    5be8:	4629      	mov	r1, r5
    5bea:	4628      	mov	r0, r5
    5bec:	f000 fd24 	bl	6638 <mpa_sub>
/home/yin/imx-optee/imx-optee-os/lib/libmpa/mpa_gcd.c:164
    5bf0:	9905      	ldr	r1, [sp, #20]
    5bf2:	4623      	mov	r3, r4
    5bf4:	9a03      	ldr	r2, [sp, #12]
    5bf6:	4608      	mov	r0, r1
    5bf8:	f000 fd1e 	bl	6638 <mpa_sub>
/home/yin/imx-optee/imx-optee-os/lib/libmpa/mpa_gcd.c:165
    5bfc:	4623      	mov	r3, r4
    5bfe:	9a04      	ldr	r2, [sp, #16]
    5c00:	9906      	ldr	r1, [sp, #24]
    5c02:	e7c5      	b.n	5b90 <__mpa_egcd+0x1c2>

00005c04 <mpa_gcd>:
mpa_gcd():
/home/yin/imx-optee/imx-optee-os/lib/libmpa/mpa_gcd.c:253
    5c04:	e92d 43f8 	stmdb	sp!, {r3, r4, r5, r6, r7, r8, r9, lr}
    5c08:	4614      	mov	r4, r2
/home/yin/imx-optee/imx-optee-os/lib/libmpa/mpa_gcd.c:259
    5c0a:	684a      	ldr	r2, [r1, #4]
/home/yin/imx-optee/imx-optee-os/lib/libmpa/mpa_gcd.c:253
    5c0c:	460d      	mov	r5, r1
    5c0e:	4607      	mov	r7, r0
    5c10:	4699      	mov	r9, r3
/home/yin/imx-optee/imx-optee-os/lib/libmpa/mpa_gcd.c:260
    5c12:	6861      	ldr	r1, [r4, #4]
/home/yin/imx-optee/imx-optee-os/lib/libmpa/mpa_gcd.c:259
    5c14:	2a00      	cmp	r2, #0
    5c16:	bfb4      	ite	lt
    5c18:	f04f 38ff 	movlt.w	r8, #4294967295	; 0xffffffff
    5c1c:	f04f 0801 	movge.w	r8, #1
/home/yin/imx-optee/imx-optee-os/lib/libmpa/mpa_gcd.c:260
    5c20:	2900      	cmp	r1, #0
    5c22:	da3d      	bge.n	5ca0 <mpa_gcd+0x9c>
/home/yin/imx-optee/imx-optee-os/lib/libmpa/mpa_gcd.c:261
    5c24:	2a00      	cmp	r2, #0
/home/yin/imx-optee/imx-optee-os/lib/libmpa/mpa_gcd.c:260
    5c26:	f04f 36ff 	mov.w	r6, #4294967295	; 0xffffffff
/home/yin/imx-optee/imx-optee-os/lib/libmpa/mpa_gcd.c:261
    5c2a:	da04      	bge.n	5c36 <mpa_gcd+0x32>
/home/yin/imx-optee/imx-optee-os/lib/libmpa/mpa_gcd.c:261 (discriminator 1)
    5c2c:	4252      	negs	r2, r2
    5c2e:	606a      	str	r2, [r5, #4]
/home/yin/imx-optee/imx-optee-os/lib/libmpa/mpa_gcd.c:262 (discriminator 1)
    5c30:	6861      	ldr	r1, [r4, #4]
    5c32:	2900      	cmp	r1, #0
    5c34:	da01      	bge.n	5c3a <mpa_gcd+0x36>
    5c36:	4249      	negs	r1, r1
    5c38:	6061      	str	r1, [r4, #4]
/home/yin/imx-optee/imx-optee-os/lib/libmpa/mpa_gcd.c:264
    5c3a:	4621      	mov	r1, r4
    5c3c:	4628      	mov	r0, r5
    5c3e:	f000 fe7b 	bl	6938 <mpa_cmp>
/home/yin/imx-optee/imx-optee-os/lib/libmpa/mpa_gcd.c:265
    5c42:	2800      	cmp	r0, #0
    5c44:	d119      	bne.n	5c7a <mpa_gcd+0x76>
/home/yin/imx-optee/imx-optee-os/lib/libmpa/mpa_gcd.c:266
    5c46:	4629      	mov	r1, r5
__mpa_gcd():
/home/yin/imx-optee/imx-optee-os/lib/libmpa/mpa_gcd.c:201
    5c48:	4638      	mov	r0, r7
    5c4a:	f7fe fb63 	bl	4314 <mpa_copy>
mpa_gcd():
/home/yin/imx-optee/imx-optee-os/lib/libmpa/mpa_gcd.c:277
    5c4e:	686b      	ldr	r3, [r5, #4]
    5c50:	2b00      	cmp	r3, #0
    5c52:	bfb4      	ite	lt
    5c54:	f04f 32ff 	movlt.w	r2, #4294967295	; 0xffffffff
    5c58:	2201      	movge	r2, #1
    5c5a:	4590      	cmp	r8, r2
    5c5c:	bf1c      	itt	ne
    5c5e:	425b      	negne	r3, r3
    5c60:	606b      	strne	r3, [r5, #4]
/home/yin/imx-optee/imx-optee-os/lib/libmpa/mpa_gcd.c:278
    5c62:	6863      	ldr	r3, [r4, #4]
    5c64:	2b00      	cmp	r3, #0
    5c66:	bfb4      	ite	lt
    5c68:	f04f 32ff 	movlt.w	r2, #4294967295	; 0xffffffff
    5c6c:	2201      	movge	r2, #1
    5c6e:	42b2      	cmp	r2, r6
    5c70:	d01b      	beq.n	5caa <mpa_gcd+0xa6>
/home/yin/imx-optee/imx-optee-os/lib/libmpa/mpa_gcd.c:278 (discriminator 5)
    5c72:	425b      	negs	r3, r3
    5c74:	6063      	str	r3, [r4, #4]
/home/yin/imx-optee/imx-optee-os/lib/libmpa/mpa_gcd.c:279 (discriminator 5)
    5c76:	e8bd 83f8 	ldmia.w	sp!, {r3, r4, r5, r6, r7, r8, r9, pc}
/home/yin/imx-optee/imx-optee-os/lib/libmpa/mpa_gcd.c:269
    5c7a:	da0a      	bge.n	5c92 <mpa_gcd+0x8e>
__mpa_gcd():
/home/yin/imx-optee/imx-optee-os/lib/libmpa/mpa_gcd.c:200
    5c7c:	686b      	ldr	r3, [r5, #4]
    5c7e:	b90b      	cbnz	r3, 5c84 <mpa_gcd+0x80>
/home/yin/imx-optee/imx-optee-os/lib/libmpa/mpa_gcd.c:201
    5c80:	4621      	mov	r1, r4
    5c82:	e7e1      	b.n	5c48 <mpa_gcd+0x44>
    5c84:	464b      	mov	r3, r9
    5c86:	462a      	mov	r2, r5
    5c88:	4621      	mov	r1, r4
    5c8a:	4638      	mov	r0, r7
    5c8c:	f7ff fe2d 	bl	58ea <__mpa_gcd.part.0>
    5c90:	e7dd      	b.n	5c4e <mpa_gcd+0x4a>
/home/yin/imx-optee/imx-optee-os/lib/libmpa/mpa_gcd.c:200
    5c92:	6863      	ldr	r3, [r4, #4]
    5c94:	2b00      	cmp	r3, #0
    5c96:	d0d6      	beq.n	5c46 <mpa_gcd+0x42>
    5c98:	464b      	mov	r3, r9
    5c9a:	4622      	mov	r2, r4
    5c9c:	4629      	mov	r1, r5
    5c9e:	e7f4      	b.n	5c8a <mpa_gcd+0x86>
mpa_gcd():
/home/yin/imx-optee/imx-optee-os/lib/libmpa/mpa_gcd.c:261
    5ca0:	2a00      	cmp	r2, #0
/home/yin/imx-optee/imx-optee-os/lib/libmpa/mpa_gcd.c:260
    5ca2:	f04f 0601 	mov.w	r6, #1
/home/yin/imx-optee/imx-optee-os/lib/libmpa/mpa_gcd.c:261
    5ca6:	dac8      	bge.n	5c3a <mpa_gcd+0x36>
    5ca8:	e7c0      	b.n	5c2c <mpa_gcd+0x28>
    5caa:	e8bd 83f8 	ldmia.w	sp!, {r3, r4, r5, r6, r7, r8, r9, pc}

00005cae <mpa_extended_gcd>:
mpa_extended_gcd():
/home/yin/imx-optee/imx-optee-os/lib/libmpa/mpa_gcd.c:295
    5cae:	e92d 4ff0 	stmdb	sp!, {r4, r5, r6, r7, r8, r9, sl, fp, lr}
    5cb2:	b087      	sub	sp, #28
    5cb4:	4606      	mov	r6, r0
    5cb6:	4690      	mov	r8, r2
    5cb8:	461c      	mov	r4, r3
/home/yin/imx-optee/imx-optee-os/lib/libmpa/mpa_gcd.c:302
    5cba:	460f      	mov	r7, r1
/home/yin/imx-optee/imx-optee-os/lib/libmpa/mpa_gcd.c:295
    5cbc:	9d10      	ldr	r5, [sp, #64]	; 0x40
    5cbe:	f8dd a044 	ldr.w	sl, [sp, #68]	; 0x44
/home/yin/imx-optee/imx-optee-os/lib/libmpa/mpa_gcd.c:302
    5cc2:	b949      	cbnz	r1, 5cd8 <mpa_extended_gcd+0x2a>
/home/yin/imx-optee/imx-optee-os/lib/libmpa/mpa_gcd.c:302 (discriminator 1)
    5cc4:	b942      	cbnz	r2, 5cd8 <mpa_extended_gcd+0x2a>
/home/yin/imx-optee/imx-optee-os/lib/libmpa/mpa_gcd.c:303
    5cc6:	b120      	cbz	r0, 5cd2 <mpa_extended_gcd+0x24>
/home/yin/imx-optee/imx-optee-os/lib/libmpa/mpa_gcd.c:304
    5cc8:	4653      	mov	r3, sl
    5cca:	462a      	mov	r2, r5
    5ccc:	4621      	mov	r1, r4
    5cce:	f7ff ff99 	bl	5c04 <mpa_gcd>
/home/yin/imx-optee/imx-optee-os/lib/libmpa/mpa_gcd.c:350
    5cd2:	b007      	add	sp, #28
    5cd4:	e8bd 8ff0 	ldmia.w	sp!, {r4, r5, r6, r7, r8, r9, sl, fp, pc}
/home/yin/imx-optee/imx-optee-os/lib/libmpa/mpa_gcd.c:309
    5cd8:	6862      	ldr	r2, [r4, #4]
/home/yin/imx-optee/imx-optee-os/lib/libmpa/mpa_gcd.c:310
    5cda:	686b      	ldr	r3, [r5, #4]
/home/yin/imx-optee/imx-optee-os/lib/libmpa/mpa_gcd.c:309
    5cdc:	2a00      	cmp	r2, #0
    5cde:	bfb4      	ite	lt
    5ce0:	f04f 3bff 	movlt.w	fp, #4294967295	; 0xffffffff
    5ce4:	f04f 0b01 	movge.w	fp, #1
/home/yin/imx-optee/imx-optee-os/lib/libmpa/mpa_gcd.c:310
    5ce8:	2b00      	cmp	r3, #0
    5cea:	da31      	bge.n	5d50 <mpa_extended_gcd+0xa2>
/home/yin/imx-optee/imx-optee-os/lib/libmpa/mpa_gcd.c:311
    5cec:	2a00      	cmp	r2, #0
/home/yin/imx-optee/imx-optee-os/lib/libmpa/mpa_gcd.c:310
    5cee:	f04f 39ff 	mov.w	r9, #4294967295	; 0xffffffff
/home/yin/imx-optee/imx-optee-os/lib/libmpa/mpa_gcd.c:311
    5cf2:	da36      	bge.n	5d62 <mpa_extended_gcd+0xb4>
    5cf4:	e030      	b.n	5d58 <mpa_extended_gcd+0xaa>
/home/yin/imx-optee/imx-optee-os/lib/libmpa/mpa_gcd.c:325
    5cf6:	b11e      	cbz	r6, 5d00 <mpa_extended_gcd+0x52>
/home/yin/imx-optee/imx-optee-os/lib/libmpa/mpa_gcd.c:325 (discriminator 2)
    5cf8:	42a6      	cmp	r6, r4
    5cfa:	d001      	beq.n	5d00 <mpa_extended_gcd+0x52>
/home/yin/imx-optee/imx-optee-os/lib/libmpa/mpa_gcd.c:325 (discriminator 4)
    5cfc:	42ae      	cmp	r6, r5
    5cfe:	d123      	bne.n	5d48 <mpa_extended_gcd+0x9a>
/home/yin/imx-optee/imx-optee-os/lib/libmpa/mpa_gcd.c:327
    5d00:	4651      	mov	r1, sl
    5d02:	a805      	add	r0, sp, #20
    5d04:	9303      	str	r3, [sp, #12]
    5d06:	f000 f883 	bl	5e10 <mpa_alloc_static_temp_var>
    5d0a:	2301      	movs	r3, #1
    5d0c:	9302      	str	r3, [sp, #8]
    5d0e:	9b03      	ldr	r3, [sp, #12]
/home/yin/imx-optee/imx-optee-os/lib/libmpa/mpa_gcd.c:331
    5d10:	2b00      	cmp	r3, #0
/home/yin/imx-optee/imx-optee-os/lib/libmpa/mpa_gcd.c:332
    5d12:	f8cd a004 	str.w	sl, [sp, #4]
    5d16:	bfbf      	itttt	lt
    5d18:	9400      	strlt	r4, [sp, #0]
    5d1a:	462b      	movlt	r3, r5
    5d1c:	463a      	movlt	r2, r7
    5d1e:	4641      	movlt	r1, r8
/home/yin/imx-optee/imx-optee-os/lib/libmpa/mpa_gcd.c:334
    5d20:	bfa1      	itttt	ge
    5d22:	9500      	strge	r5, [sp, #0]
    5d24:	4623      	movge	r3, r4
    5d26:	4642      	movge	r2, r8
    5d28:	4639      	movge	r1, r7
    5d2a:	9805      	ldr	r0, [sp, #20]
    5d2c:	f7ff fe4f 	bl	59ce <__mpa_egcd>
/home/yin/imx-optee/imx-optee-os/lib/libmpa/mpa_gcd.c:336
    5d30:	b11e      	cbz	r6, 5d3a <mpa_extended_gcd+0x8c>
/home/yin/imx-optee/imx-optee-os/lib/libmpa/mpa_gcd.c:337
    5d32:	9905      	ldr	r1, [sp, #20]
    5d34:	4630      	mov	r0, r6
    5d36:	f7fe faed 	bl	4314 <mpa_copy>
/home/yin/imx-optee/imx-optee-os/lib/libmpa/mpa_gcd.c:338
    5d3a:	9b02      	ldr	r3, [sp, #8]
    5d3c:	b35b      	cbz	r3, 5d96 <mpa_extended_gcd+0xe8>
/home/yin/imx-optee/imx-optee-os/lib/libmpa/mpa_gcd.c:339
    5d3e:	4651      	mov	r1, sl
    5d40:	a805      	add	r0, sp, #20
    5d42:	f000 f86a 	bl	5e1a <mpa_free_static_temp_var>
    5d46:	e026      	b.n	5d96 <mpa_extended_gcd+0xe8>
/home/yin/imx-optee/imx-optee-os/lib/libmpa/mpa_gcd.c:325
    5d48:	2200      	movs	r2, #0
/home/yin/imx-optee/imx-optee-os/lib/libmpa/mpa_gcd.c:329
    5d4a:	9605      	str	r6, [sp, #20]
/home/yin/imx-optee/imx-optee-os/lib/libmpa/mpa_gcd.c:325
    5d4c:	9202      	str	r2, [sp, #8]
    5d4e:	e7df      	b.n	5d10 <mpa_extended_gcd+0x62>
/home/yin/imx-optee/imx-optee-os/lib/libmpa/mpa_gcd.c:311
    5d50:	2a00      	cmp	r2, #0
/home/yin/imx-optee/imx-optee-os/lib/libmpa/mpa_gcd.c:310
    5d52:	f04f 0901 	mov.w	r9, #1
/home/yin/imx-optee/imx-optee-os/lib/libmpa/mpa_gcd.c:311
    5d56:	da06      	bge.n	5d66 <mpa_extended_gcd+0xb8>
/home/yin/imx-optee/imx-optee-os/lib/libmpa/mpa_gcd.c:311 (discriminator 1)
    5d58:	4252      	negs	r2, r2
    5d5a:	6062      	str	r2, [r4, #4]
/home/yin/imx-optee/imx-optee-os/lib/libmpa/mpa_gcd.c:312 (discriminator 1)
    5d5c:	686b      	ldr	r3, [r5, #4]
    5d5e:	2b00      	cmp	r3, #0
    5d60:	da01      	bge.n	5d66 <mpa_extended_gcd+0xb8>
    5d62:	425b      	negs	r3, r3
    5d64:	606b      	str	r3, [r5, #4]
/home/yin/imx-optee/imx-optee-os/lib/libmpa/mpa_gcd.c:314
    5d66:	4629      	mov	r1, r5
    5d68:	4620      	mov	r0, r4
    5d6a:	f000 fde5 	bl	6938 <mpa_cmp>
/home/yin/imx-optee/imx-optee-os/lib/libmpa/mpa_gcd.c:315
    5d6e:	4603      	mov	r3, r0
    5d70:	2800      	cmp	r0, #0
    5d72:	d1c0      	bne.n	5cf6 <mpa_extended_gcd+0x48>
/home/yin/imx-optee/imx-optee-os/lib/libmpa/mpa_gcd.c:316
    5d74:	b11e      	cbz	r6, 5d7e <mpa_extended_gcd+0xd0>
/home/yin/imx-optee/imx-optee-os/lib/libmpa/mpa_gcd.c:317
    5d76:	4621      	mov	r1, r4
    5d78:	4630      	mov	r0, r6
    5d7a:	f7fe facb 	bl	4314 <mpa_copy>
/home/yin/imx-optee/imx-optee-os/lib/libmpa/mpa_gcd.c:318
    5d7e:	b11f      	cbz	r7, 5d88 <mpa_extended_gcd+0xda>
/home/yin/imx-optee/imx-optee-os/lib/libmpa/mpa_gcd.c:319
    5d80:	2101      	movs	r1, #1
    5d82:	4638      	mov	r0, r7
    5d84:	f7ff fabb 	bl	52fe <mpa_set_word>
/home/yin/imx-optee/imx-optee-os/lib/libmpa/mpa_gcd.c:320
    5d88:	f1b8 0f00 	cmp.w	r8, #0
    5d8c:	d003      	beq.n	5d96 <mpa_extended_gcd+0xe8>
/home/yin/imx-optee/imx-optee-os/lib/libmpa/mpa_gcd.c:321
    5d8e:	2100      	movs	r1, #0
    5d90:	4640      	mov	r0, r8
    5d92:	f7ff fab4 	bl	52fe <mpa_set_word>
/home/yin/imx-optee/imx-optee-os/lib/libmpa/mpa_gcd.c:343
    5d96:	6863      	ldr	r3, [r4, #4]
    5d98:	2b00      	cmp	r3, #0
    5d9a:	bfb4      	ite	lt
    5d9c:	f04f 32ff 	movlt.w	r2, #4294967295	; 0xffffffff
    5da0:	2201      	movge	r2, #1
    5da2:	4593      	cmp	fp, r2
    5da4:	bf1c      	itt	ne
    5da6:	425b      	negne	r3, r3
    5da8:	6063      	strne	r3, [r4, #4]
/home/yin/imx-optee/imx-optee-os/lib/libmpa/mpa_gcd.c:344
    5daa:	686b      	ldr	r3, [r5, #4]
    5dac:	2b00      	cmp	r3, #0
    5dae:	bfb4      	ite	lt
    5db0:	f04f 32ff 	movlt.w	r2, #4294967295	; 0xffffffff
    5db4:	2201      	movge	r2, #1
    5db6:	454a      	cmp	r2, r9
    5db8:	bf1c      	itt	ne
    5dba:	425b      	negne	r3, r3
    5dbc:	606b      	strne	r3, [r5, #4]
/home/yin/imx-optee/imx-optee-os/lib/libmpa/mpa_gcd.c:346
    5dbe:	f1bb 3fff 	cmp.w	fp, #4294967295	; 0xffffffff
    5dc2:	d103      	bne.n	5dcc <mpa_extended_gcd+0x11e>
/home/yin/imx-optee/imx-optee-os/lib/libmpa/mpa_gcd.c:346 (discriminator 1)
    5dc4:	b117      	cbz	r7, 5dcc <mpa_extended_gcd+0x11e>
/home/yin/imx-optee/imx-optee-os/lib/libmpa/mpa_gcd.c:347
    5dc6:	687b      	ldr	r3, [r7, #4]
    5dc8:	425b      	negs	r3, r3
    5dca:	607b      	str	r3, [r7, #4]
/home/yin/imx-optee/imx-optee-os/lib/libmpa/mpa_gcd.c:348
    5dcc:	f1b9 3fff 	cmp.w	r9, #4294967295	; 0xffffffff
    5dd0:	f47f af7f 	bne.w	5cd2 <mpa_extended_gcd+0x24>
/home/yin/imx-optee/imx-optee-os/lib/libmpa/mpa_gcd.c:348 (discriminator 1)
    5dd4:	f1b8 0f00 	cmp.w	r8, #0
    5dd8:	f43f af7b 	beq.w	5cd2 <mpa_extended_gcd+0x24>
/home/yin/imx-optee/imx-optee-os/lib/libmpa/mpa_gcd.c:349
    5ddc:	f8d8 3004 	ldr.w	r3, [r8, #4]
    5de0:	425b      	negs	r3, r3
    5de2:	f8c8 3004 	str.w	r3, [r8, #4]
    5de6:	e774      	b.n	5cd2 <mpa_extended_gcd+0x24>

00005de8 <mpa_alloc_static_temp_var_size>:
mpa_alloc_static_temp_var_size():
/home/yin/imx-optee/imx-optee-os/lib/libmpa/mpa_mem_static.c:11
    5de8:	b538      	push	{r3, r4, r5, lr}
/home/yin/imx-optee/imx-optee-os/lib/libmpa/mpa_mem_static.c:12
    5dea:	f110 041f 	adds.w	r4, r0, #31
    5dee:	bf48      	it	mi
    5df0:	f100 043e 	addmi.w	r4, r0, #62	; 0x3e
/home/yin/imx-optee/imx-optee-os/lib/libmpa/mpa_mem_static.c:11
    5df4:	460d      	mov	r5, r1
/home/yin/imx-optee/imx-optee-os/lib/libmpa/mpa_mem_static.c:12
    5df6:	1164      	asrs	r4, r4, #5
    5df8:	6810      	ldr	r0, [r2, #0]
    5dfa:	3402      	adds	r4, #2
    5dfc:	00a1      	lsls	r1, r4, #2
    5dfe:	f7fe fa19 	bl	4234 <mempool_alloc>
    5e02:	6028      	str	r0, [r5, #0]
/home/yin/imx-optee/imx-optee-os/lib/libmpa/mpa_mem_static.c:14
    5e04:	b110      	cbz	r0, 5e0c <mpa_alloc_static_temp_var_size+0x24>
/home/yin/imx-optee/imx-optee-os/lib/libmpa/mpa_mem_static.c:15
    5e06:	4621      	mov	r1, r4
    5e08:	f000 fde6 	bl	69d8 <mpa_init_static>
/home/yin/imx-optee/imx-optee-os/lib/libmpa/mpa_mem_static.c:18
    5e0c:	6828      	ldr	r0, [r5, #0]
    5e0e:	bd38      	pop	{r3, r4, r5, pc}

00005e10 <mpa_alloc_static_temp_var>:
mpa_alloc_static_temp_var():
/home/yin/imx-optee/imx-optee-os/lib/libmpa/mpa_mem_static.c:21
    5e10:	460a      	mov	r2, r1
/home/yin/imx-optee/imx-optee-os/lib/libmpa/mpa_mem_static.c:22
    5e12:	4601      	mov	r1, r0
    5e14:	6850      	ldr	r0, [r2, #4]
    5e16:	f7ff bfe7 	b.w	5de8 <mpa_alloc_static_temp_var_size>

00005e1a <mpa_free_static_temp_var>:
mpa_free_static_temp_var():
/home/yin/imx-optee/imx-optee-os/lib/libmpa/mpa_mem_static.c:31
    5e1a:	460b      	mov	r3, r1
/home/yin/imx-optee/imx-optee-os/lib/libmpa/mpa_mem_static.c:32
    5e1c:	b120      	cbz	r0, 5e28 <mpa_free_static_temp_var+0xe>
/home/yin/imx-optee/imx-optee-os/lib/libmpa/mpa_mem_static.c:32 (discriminator 1)
    5e1e:	6801      	ldr	r1, [r0, #0]
    5e20:	b111      	cbz	r1, 5e28 <mpa_free_static_temp_var+0xe>
/home/yin/imx-optee/imx-optee-os/lib/libmpa/mpa_mem_static.c:35
    5e22:	6818      	ldr	r0, [r3, #0]
    5e24:	f7fe ba2b 	b.w	427e <mempool_free>
    5e28:	4770      	bx	lr

00005e2a <__mpa_mul_add_word>:
__mpa_mul_add_word():
/home/yin/imx-optee/imx-optee-os/lib/libmpa/mpa_mul.c:28
    5e2a:	b530      	push	{r4, r5, lr}
/home/yin/imx-optee/imx-optee-os/lib/libmpa/mpa_mul.c:32
    5e2c:	2500      	movs	r5, #0
    5e2e:	681c      	ldr	r4, [r3, #0]
    5e30:	fbe1 4500 	umlal	r4, r5, r1, r0
/home/yin/imx-optee/imx-optee-os/lib/libmpa/mpa_mul.c:33
    5e34:	6014      	str	r4, [r2, #0]
/home/yin/imx-optee/imx-optee-os/lib/libmpa/mpa_mul.c:34
    5e36:	601d      	str	r5, [r3, #0]
    5e38:	bd30      	pop	{r4, r5, pc}

00005e3a <__mpa_mul_add_word_cum>:
__mpa_mul_add_word_cum():
/home/yin/imx-optee/imx-optee-os/lib/libmpa/mpa_mul.c:49
    5e3a:	b570      	push	{r4, r5, r6, lr}
/home/yin/imx-optee/imx-optee-os/lib/libmpa/mpa_mul.c:55
    5e3c:	2500      	movs	r5, #0
/home/yin/imx-optee/imx-optee-os/lib/libmpa/mpa_mul.c:54
    5e3e:	6816      	ldr	r6, [r2, #0]
/home/yin/imx-optee/imx-optee-os/lib/libmpa/mpa_mul.c:55
    5e40:	681c      	ldr	r4, [r3, #0]
/home/yin/imx-optee/imx-optee-os/lib/libmpa/mpa_mul.c:53
    5e42:	19a4      	adds	r4, r4, r6
    5e44:	f145 0500 	adc.w	r5, r5, #0
    5e48:	fbe1 4500 	umlal	r4, r5, r1, r0
/home/yin/imx-optee/imx-optee-os/lib/libmpa/mpa_mul.c:56
    5e4c:	6014      	str	r4, [r2, #0]
/home/yin/imx-optee/imx-optee-os/lib/libmpa/mpa_mul.c:57
    5e4e:	601d      	str	r5, [r3, #0]
    5e50:	bd70      	pop	{r4, r5, r6, pc}

00005e52 <__mpa_abs_mul_word>:
__mpa_abs_mul_word():
/home/yin/imx-optee/imx-optee-os/lib/libmpa/mpa_mul.c:73
    5e52:	b5f8      	push	{r3, r4, r5, r6, r7, lr}
    5e54:	4617      	mov	r7, r2
/home/yin/imx-optee/imx-optee-os/lib/libmpa/mpa_mul.c:80
    5e56:	6802      	ldr	r2, [r0, #0]
    5e58:	f100 0508 	add.w	r5, r0, #8
/home/yin/imx-optee/imx-optee-os/lib/libmpa/mpa_mul.c:73
    5e5c:	460e      	mov	r6, r1
    5e5e:	4604      	mov	r4, r0
/home/yin/imx-optee/imx-optee-os/lib/libmpa/mpa_mul.c:80
    5e60:	2100      	movs	r1, #0
    5e62:	4628      	mov	r0, r5
    5e64:	0092      	lsls	r2, r2, #2
    5e66:	f7ff f859 	bl	4f1c <memset>
/home/yin/imx-optee/imx-optee-os/lib/libmpa/mpa_mul.c:84
    5e6a:	2000      	movs	r0, #0
/home/yin/imx-optee/imx-optee-os/lib/libmpa/mpa_mul.c:82
    5e6c:	f106 0c08 	add.w	ip, r6, #8
/home/yin/imx-optee/imx-optee-os/lib/libmpa/mpa_mul.c:85
    5e70:	4603      	mov	r3, r0
/home/yin/imx-optee/imx-optee-os/lib/libmpa/mpa_mul.c:85 (discriminator 1)
    5e72:	6871      	ldr	r1, [r6, #4]
    5e74:	2900      	cmp	r1, #0
    5e76:	bfb8      	it	lt
    5e78:	4249      	neglt	r1, r1
    5e7a:	428b      	cmp	r3, r1
    5e7c:	d307      	bcc.n	5e8e <__mpa_abs_mul_word+0x3c>
/home/yin/imx-optee/imx-optee-os/lib/libmpa/mpa_mul.c:89
    5e7e:	6063      	str	r3, [r4, #4]
/home/yin/imx-optee/imx-optee-os/lib/libmpa/mpa_mul.c:90
    5e80:	b120      	cbz	r0, 5e8c <__mpa_abs_mul_word+0x3a>
/home/yin/imx-optee/imx-optee-os/lib/libmpa/mpa_mul.c:91
    5e82:	f845 0023 	str.w	r0, [r5, r3, lsl #2]
/home/yin/imx-optee/imx-optee-os/lib/libmpa/mpa_mul.c:92
    5e86:	6863      	ldr	r3, [r4, #4]
    5e88:	3301      	adds	r3, #1
    5e8a:	6063      	str	r3, [r4, #4]
    5e8c:	bdf8      	pop	{r3, r4, r5, r6, r7, pc}
__mpa_mul_add_word():
/home/yin/imx-optee/imx-optee-os/lib/libmpa/mpa_mul.c:32 (discriminator 3)
    5e8e:	f85c 2023 	ldr.w	r2, [ip, r3, lsl #2]
    5e92:	2100      	movs	r1, #0
    5e94:	fbe7 0102 	umlal	r0, r1, r7, r2
/home/yin/imx-optee/imx-optee-os/lib/libmpa/mpa_mul.c:33 (discriminator 3)
    5e98:	f845 0023 	str.w	r0, [r5, r3, lsl #2]
__mpa_abs_mul_word():
/home/yin/imx-optee/imx-optee-os/lib/libmpa/mpa_mul.c:85 (discriminator 3)
    5e9c:	3301      	adds	r3, #1
__mpa_mul_add_word():
/home/yin/imx-optee/imx-optee-os/lib/libmpa/mpa_mul.c:34 (discriminator 3)
    5e9e:	4608      	mov	r0, r1
    5ea0:	e7e7      	b.n	5e72 <__mpa_abs_mul_word+0x20>

00005ea2 <__mpa_abs_mul>:
__mpa_abs_mul():
/home/yin/imx-optee/imx-optee-os/lib/libmpa/mpa_mul.c:104
    5ea2:	e92d 4ff0 	stmdb	sp!, {r4, r5, r6, r7, r8, r9, sl, fp, lr}
    5ea6:	4693      	mov	fp, r2
/home/yin/imx-optee/imx-optee-os/lib/libmpa/mpa_mul.c:113
    5ea8:	6802      	ldr	r2, [r0, #0]
/home/yin/imx-optee/imx-optee-os/lib/libmpa/mpa_mul.c:104
    5eaa:	b085      	sub	sp, #20
/home/yin/imx-optee/imx-optee-os/lib/libmpa/mpa_mul.c:107
    5eac:	2400      	movs	r4, #0
/home/yin/imx-optee/imx-optee-os/lib/libmpa/mpa_mul.c:113
    5eae:	f100 0a08 	add.w	sl, r0, #8
/home/yin/imx-optee/imx-optee-os/lib/libmpa/mpa_mul.c:104
    5eb2:	4688      	mov	r8, r1
    5eb4:	4606      	mov	r6, r0
/home/yin/imx-optee/imx-optee-os/lib/libmpa/mpa_mul.c:107
    5eb6:	af04      	add	r7, sp, #16
/home/yin/imx-optee/imx-optee-os/lib/libmpa/mpa_mul.c:113
    5eb8:	4621      	mov	r1, r4
    5eba:	0092      	lsls	r2, r2, #2
    5ebc:	4650      	mov	r0, sl
/home/yin/imx-optee/imx-optee-os/lib/libmpa/mpa_mul.c:107
    5ebe:	f847 4d04 	str.w	r4, [r7, #-4]!
/home/yin/imx-optee/imx-optee-os/lib/libmpa/mpa_mul.c:117
    5ec2:	4625      	mov	r5, r4
/home/yin/imx-optee/imx-optee-os/lib/libmpa/mpa_mul.c:113
    5ec4:	f7ff f82a 	bl	4f1c <memset>
/home/yin/imx-optee/imx-optee-os/lib/libmpa/mpa_mul.c:115
    5ec8:	f108 0308 	add.w	r3, r8, #8
    5ecc:	9300      	str	r3, [sp, #0]
/home/yin/imx-optee/imx-optee-os/lib/libmpa/mpa_mul.c:118
    5ece:	f10b 0308 	add.w	r3, fp, #8
    5ed2:	9301      	str	r3, [sp, #4]
/home/yin/imx-optee/imx-optee-os/lib/libmpa/mpa_mul.c:117 (discriminator 1)
    5ed4:	f8d8 3004 	ldr.w	r3, [r8, #4]
    5ed8:	eb0a 0985 	add.w	r9, sl, r5, lsl #2
    5edc:	2b00      	cmp	r3, #0
    5ede:	bfb8      	it	lt
    5ee0:	425b      	neglt	r3, r3
    5ee2:	429d      	cmp	r5, r3
    5ee4:	d308      	bcc.n	5ef8 <__mpa_abs_mul+0x56>
/home/yin/imx-optee/imx-optee-os/lib/libmpa/mpa_mul.c:129
    5ee6:	442c      	add	r4, r5
    5ee8:	1e63      	subs	r3, r4, #1
    5eea:	6073      	str	r3, [r6, #4]
/home/yin/imx-optee/imx-optee-os/lib/libmpa/mpa_mul.c:130
    5eec:	9b03      	ldr	r3, [sp, #12]
    5eee:	b103      	cbz	r3, 5ef2 <__mpa_abs_mul+0x50>
/home/yin/imx-optee/imx-optee-os/lib/libmpa/mpa_mul.c:131
    5ef0:	6074      	str	r4, [r6, #4]
/home/yin/imx-optee/imx-optee-os/lib/libmpa/mpa_mul.c:132
    5ef2:	b005      	add	sp, #20
    5ef4:	e8bd 8ff0 	ldmia.w	sp!, {r4, r5, r6, r7, r8, r9, sl, fp, pc}
/home/yin/imx-optee/imx-optee-os/lib/libmpa/mpa_mul.c:119
    5ef8:	2400      	movs	r4, #0
    5efa:	9403      	str	r4, [sp, #12]
/home/yin/imx-optee/imx-optee-os/lib/libmpa/mpa_mul.c:120 (discriminator 1)
    5efc:	f8db 3004 	ldr.w	r3, [fp, #4]
    5f00:	2b00      	cmp	r3, #0
    5f02:	bfb8      	it	lt
    5f04:	425b      	neglt	r3, r3
    5f06:	429c      	cmp	r4, r3
    5f08:	d305      	bcc.n	5f16 <__mpa_abs_mul+0x74>
/home/yin/imx-optee/imx-optee-os/lib/libmpa/mpa_mul.c:124
    5f0a:	9b03      	ldr	r3, [sp, #12]
    5f0c:	b10b      	cbz	r3, 5f12 <__mpa_abs_mul+0x70>
/home/yin/imx-optee/imx-optee-os/lib/libmpa/mpa_mul.c:125
    5f0e:	f849 3024 	str.w	r3, [r9, r4, lsl #2]
/home/yin/imx-optee/imx-optee-os/lib/libmpa/mpa_mul.c:117 (discriminator 2)
    5f12:	3501      	adds	r5, #1
    5f14:	e7de      	b.n	5ed4 <__mpa_abs_mul+0x32>
/home/yin/imx-optee/imx-optee-os/lib/libmpa/mpa_mul.c:121 (discriminator 3)
    5f16:	9901      	ldr	r1, [sp, #4]
    5f18:	eb09 0284 	add.w	r2, r9, r4, lsl #2
    5f1c:	9800      	ldr	r0, [sp, #0]
    5f1e:	463b      	mov	r3, r7
    5f20:	f851 1024 	ldr.w	r1, [r1, r4, lsl #2]
/home/yin/imx-optee/imx-optee-os/lib/libmpa/mpa_mul.c:120 (discriminator 3)
    5f24:	3401      	adds	r4, #1
/home/yin/imx-optee/imx-optee-os/lib/libmpa/mpa_mul.c:121 (discriminator 3)
    5f26:	f850 0025 	ldr.w	r0, [r0, r5, lsl #2]
    5f2a:	f7ff ff86 	bl	5e3a <__mpa_mul_add_word_cum>
    5f2e:	e7e5      	b.n	5efc <__mpa_abs_mul+0x5a>

00005f30 <mpa_mul>:
mpa_mul():
/home/yin/imx-optee/imx-optee-os/lib/libmpa/mpa_mul.c:147
    5f30:	e92d 41f3 	stmdb	sp!, {r0, r1, r4, r5, r6, r7, r8, lr}
    5f34:	4698      	mov	r8, r3
/home/yin/imx-optee/imx-optee-os/lib/libmpa/mpa_mul.c:151
    5f36:	684b      	ldr	r3, [r1, #4]
/home/yin/imx-optee/imx-optee-os/lib/libmpa/mpa_mul.c:147
    5f38:	4604      	mov	r4, r0
    5f3a:	460e      	mov	r6, r1
    5f3c:	4615      	mov	r5, r2
/home/yin/imx-optee/imx-optee-os/lib/libmpa/mpa_mul.c:151
    5f3e:	b10b      	cbz	r3, 5f44 <mpa_mul+0x14>
/home/yin/imx-optee/imx-optee-os/lib/libmpa/mpa_mul.c:151 (discriminator 1)
    5f40:	6853      	ldr	r3, [r2, #4]
    5f42:	b933      	cbnz	r3, 5f52 <mpa_mul+0x22>
/home/yin/imx-optee/imx-optee-os/lib/libmpa/mpa_mul.c:152
    5f44:	2100      	movs	r1, #0
    5f46:	4620      	mov	r0, r4
    5f48:	f7ff f9d9 	bl	52fe <mpa_set_word>
/home/yin/imx-optee/imx-optee-os/lib/libmpa/mpa_mul.c:171
    5f4c:	b002      	add	sp, #8
    5f4e:	e8bd 81f0 	ldmia.w	sp!, {r4, r5, r6, r7, r8, pc}
/home/yin/imx-optee/imx-optee-os/lib/libmpa/mpa_mul.c:157
    5f52:	4281      	cmp	r1, r0
    5f54:	d029      	beq.n	5faa <mpa_mul+0x7a>
/home/yin/imx-optee/imx-optee-os/lib/libmpa/mpa_mul.c:157 (discriminator 2)
    5f56:	1a13      	subs	r3, r2, r0
    5f58:	425f      	negs	r7, r3
    5f5a:	415f      	adcs	r7, r3
/home/yin/imx-optee/imx-optee-os/lib/libmpa/mpa_mul.c:158 (discriminator 2)
    5f5c:	b33f      	cbz	r7, 5fae <mpa_mul+0x7e>
/home/yin/imx-optee/imx-optee-os/lib/libmpa/mpa_mul.c:159
    5f5e:	4641      	mov	r1, r8
    5f60:	a801      	add	r0, sp, #4
    5f62:	f7ff ff55 	bl	5e10 <mpa_alloc_static_temp_var>
/home/yin/imx-optee/imx-optee-os/lib/libmpa/mpa_mul.c:163
    5f66:	462a      	mov	r2, r5
    5f68:	4631      	mov	r1, r6
    5f6a:	9801      	ldr	r0, [sp, #4]
    5f6c:	f7ff ff99 	bl	5ea2 <__mpa_abs_mul>
/home/yin/imx-optee/imx-optee-os/lib/libmpa/mpa_mul.c:165
    5f70:	6873      	ldr	r3, [r6, #4]
/home/yin/imx-optee/imx-optee-os/lib/libmpa/mpa_mul.c:168
    5f72:	4620      	mov	r0, r4
    5f74:	9901      	ldr	r1, [sp, #4]
/home/yin/imx-optee/imx-optee-os/lib/libmpa/mpa_mul.c:165
    5f76:	2b00      	cmp	r3, #0
    5f78:	686b      	ldr	r3, [r5, #4]
    5f7a:	bfac      	ite	ge
    5f7c:	2201      	movge	r2, #1
    5f7e:	f04f 32ff 	movlt.w	r2, #4294967295	; 0xffffffff
    5f82:	2b00      	cmp	r3, #0
    5f84:	bfac      	ite	ge
    5f86:	2301      	movge	r3, #1
    5f88:	f04f 33ff 	movlt.w	r3, #4294967295	; 0xffffffff
    5f8c:	429a      	cmp	r2, r3
/home/yin/imx-optee/imx-optee-os/lib/libmpa/mpa_mul.c:166
    5f8e:	bf1f      	itttt	ne
    5f90:	9a01      	ldrne	r2, [sp, #4]
    5f92:	6853      	ldrne	r3, [r2, #4]
    5f94:	425b      	negne	r3, r3
    5f96:	6053      	strne	r3, [r2, #4]
/home/yin/imx-optee/imx-optee-os/lib/libmpa/mpa_mul.c:168
    5f98:	f7fe f9bc 	bl	4314 <mpa_copy>
/home/yin/imx-optee/imx-optee-os/lib/libmpa/mpa_mul.c:169
    5f9c:	2f00      	cmp	r7, #0
    5f9e:	d0d5      	beq.n	5f4c <mpa_mul+0x1c>
/home/yin/imx-optee/imx-optee-os/lib/libmpa/mpa_mul.c:170
    5fa0:	4641      	mov	r1, r8
    5fa2:	a801      	add	r0, sp, #4
    5fa4:	f7ff ff39 	bl	5e1a <mpa_free_static_temp_var>
    5fa8:	e7d0      	b.n	5f4c <mpa_mul+0x1c>
    5faa:	2701      	movs	r7, #1
    5fac:	e7d7      	b.n	5f5e <mpa_mul+0x2e>
/home/yin/imx-optee/imx-optee-os/lib/libmpa/mpa_mul.c:161
    5fae:	9001      	str	r0, [sp, #4]
    5fb0:	e7d9      	b.n	5f66 <mpa_mul+0x36>

00005fb2 <mpa_mul_word>:
mpa_mul_word():
/home/yin/imx-optee/imx-optee-os/lib/libmpa/mpa_mul.c:180
    5fb2:	e92d 41f3 	stmdb	sp!, {r0, r1, r4, r5, r6, r7, r8, lr}
    5fb6:	461e      	mov	r6, r3
/home/yin/imx-optee/imx-optee-os/lib/libmpa/mpa_mul.c:185
    5fb8:	684b      	ldr	r3, [r1, #4]
/home/yin/imx-optee/imx-optee-os/lib/libmpa/mpa_mul.c:180
    5fba:	4604      	mov	r4, r0
    5fbc:	460d      	mov	r5, r1
    5fbe:	4617      	mov	r7, r2
/home/yin/imx-optee/imx-optee-os/lib/libmpa/mpa_mul.c:185
    5fc0:	b103      	cbz	r3, 5fc4 <mpa_mul_word+0x12>
/home/yin/imx-optee/imx-optee-os/lib/libmpa/mpa_mul.c:185 (discriminator 1)
    5fc2:	b932      	cbnz	r2, 5fd2 <mpa_mul_word+0x20>
/home/yin/imx-optee/imx-optee-os/lib/libmpa/mpa_mul.c:186
    5fc4:	2100      	movs	r1, #0
    5fc6:	4620      	mov	r0, r4
    5fc8:	f7ff f999 	bl	52fe <mpa_set_word>
/home/yin/imx-optee/imx-optee-os/lib/libmpa/mpa_mul.c:206
    5fcc:	b002      	add	sp, #8
    5fce:	e8bd 81f0 	ldmia.w	sp!, {r4, r5, r6, r7, r8, pc}
/home/yin/imx-optee/imx-optee-os/lib/libmpa/mpa_mul.c:190
    5fd2:	2b00      	cmp	r3, #0
    5fd4:	bfac      	ite	ge
    5fd6:	f04f 0801 	movge.w	r8, #1
    5fda:	f04f 38ff 	movlt.w	r8, #4294967295	; 0xffffffff
/home/yin/imx-optee/imx-optee-os/lib/libmpa/mpa_mul.c:194
    5fde:	4281      	cmp	r1, r0
    5fe0:	d11b      	bne.n	601a <mpa_mul_word+0x68>
/home/yin/imx-optee/imx-optee-os/lib/libmpa/mpa_mul.c:195
    5fe2:	4631      	mov	r1, r6
    5fe4:	a801      	add	r0, sp, #4
    5fe6:	f7ff ff13 	bl	5e10 <mpa_alloc_static_temp_var>
/home/yin/imx-optee/imx-optee-os/lib/libmpa/mpa_mul.c:199
    5fea:	463a      	mov	r2, r7
    5fec:	4629      	mov	r1, r5
    5fee:	9801      	ldr	r0, [sp, #4]
    5ff0:	f7ff ff2f 	bl	5e52 <__mpa_abs_mul_word>
/home/yin/imx-optee/imx-optee-os/lib/libmpa/mpa_mul.c:201
    5ff4:	f1b8 3fff 	cmp.w	r8, #4294967295	; 0xffffffff
/home/yin/imx-optee/imx-optee-os/lib/libmpa/mpa_mul.c:203
    5ff8:	9901      	ldr	r1, [sp, #4]
/home/yin/imx-optee/imx-optee-os/lib/libmpa/mpa_mul.c:202
    5ffa:	bf08      	it	eq
    5ffc:	9a01      	ldreq	r2, [sp, #4]
/home/yin/imx-optee/imx-optee-os/lib/libmpa/mpa_mul.c:203
    5ffe:	4620      	mov	r0, r4
/home/yin/imx-optee/imx-optee-os/lib/libmpa/mpa_mul.c:202
    6000:	bf02      	ittt	eq
    6002:	6853      	ldreq	r3, [r2, #4]
    6004:	425b      	negeq	r3, r3
    6006:	6053      	streq	r3, [r2, #4]
/home/yin/imx-optee/imx-optee-os/lib/libmpa/mpa_mul.c:203
    6008:	f7fe f984 	bl	4314 <mpa_copy>
/home/yin/imx-optee/imx-optee-os/lib/libmpa/mpa_mul.c:204
    600c:	42a5      	cmp	r5, r4
    600e:	d1dd      	bne.n	5fcc <mpa_mul_word+0x1a>
/home/yin/imx-optee/imx-optee-os/lib/libmpa/mpa_mul.c:205
    6010:	4631      	mov	r1, r6
    6012:	a801      	add	r0, sp, #4
    6014:	f7ff ff01 	bl	5e1a <mpa_free_static_temp_var>
    6018:	e7d8      	b.n	5fcc <mpa_mul_word+0x1a>
/home/yin/imx-optee/imx-optee-os/lib/libmpa/mpa_mul.c:197
    601a:	9001      	str	r0, [sp, #4]
    601c:	e7e5      	b.n	5fea <mpa_mul_word+0x38>

0000601e <mpa_get_random>:
mpa_get_random():
/home/yin/imx-optee/imx-optee-os/lib/libmpa/mpa_random.c:43
    601e:	e92d 47f3 	stmdb	sp!, {r0, r1, r4, r5, r6, r7, r8, r9, sl, lr}
    6022:	460e      	mov	r6, r1
    6024:	4604      	mov	r4, r0
    6026:	2500      	movs	r5, #0
get_rng_array():
/home/yin/imx-optee/imx-optee-os/lib/libmpa/mpa_random.c:24
    6028:	f10d 0707 	add.w	r7, sp, #7
mpa_get_random():
/home/yin/imx-optee/imx-optee-os/lib/libmpa/mpa_random.c:46
    602c:	f7fe f967 	bl	42fe <mpa_wipe>
/home/yin/imx-optee/imx-optee-os/lib/libmpa/mpa_random.c:47
    6030:	6873      	ldr	r3, [r6, #4]
    6032:	6822      	ldr	r2, [r4, #0]
    6034:	2b00      	cmp	r3, #0
    6036:	bfb8      	it	lt
    6038:	425b      	neglt	r3, r3
/home/yin/imx-optee/imx-optee-os/lib/libmpa/mpa_random.c:48
    603a:	429a      	cmp	r2, r3
    603c:	bf94      	ite	ls
    603e:	6062      	strls	r2, [r4, #4]
    6040:	6063      	strhi	r3, [r4, #4]
/home/yin/imx-optee/imx-optee-os/lib/libmpa/mpa_random.c:51
    6042:	2d00      	cmp	r5, #0
    6044:	d138      	bne.n	60b8 <mpa_get_random+0x9a>
    6046:	f104 0a08 	add.w	sl, r4, #8
    604a:	e014      	b.n	6076 <mpa_get_random+0x58>
    604c:	f04f 0904 	mov.w	r9, #4
    6050:	2300      	movs	r3, #0
/home/yin/imx-optee/imx-optee-os/lib/libmpa/mpa_random.c:55 (discriminator 3)
    6052:	ea4f 2803 	mov.w	r8, r3, lsl #8
get_rng_array():
/home/yin/imx-optee/imx-optee-os/lib/libmpa/mpa_random.c:24
    6056:	2101      	movs	r1, #1
    6058:	4638      	mov	r0, r7
    605a:	f7fb ed6a 	blx	1b30 <utee_cryp_random_number_generate>
get_random_byte():
/home/yin/imx-optee/imx-optee-os/lib/libmpa/mpa_random.c:31
    605e:	2800      	cmp	r0, #0
    6060:	d1f9      	bne.n	6056 <mpa_get_random+0x38>
/home/yin/imx-optee/imx-optee-os/lib/libmpa/mpa_random.c:34
    6062:	f89d 3007 	ldrb.w	r3, [sp, #7]
mpa_get_random():
/home/yin/imx-optee/imx-optee-os/lib/libmpa/mpa_random.c:54
    6066:	f1b9 0901 	subs.w	r9, r9, #1
/home/yin/imx-optee/imx-optee-os/lib/libmpa/mpa_random.c:55
    606a:	ea83 0308 	eor.w	r3, r3, r8
/home/yin/imx-optee/imx-optee-os/lib/libmpa/mpa_random.c:54
    606e:	d1f0      	bne.n	6052 <mpa_get_random+0x34>
/home/yin/imx-optee/imx-optee-os/lib/libmpa/mpa_random.c:52 (discriminator 2)
    6070:	3501      	adds	r5, #1
/home/yin/imx-optee/imx-optee-os/lib/libmpa/mpa_random.c:56 (discriminator 2)
    6072:	f84a 3b04 	str.w	r3, [sl], #4
/home/yin/imx-optee/imx-optee-os/lib/libmpa/mpa_random.c:52 (discriminator 1)
    6076:	6862      	ldr	r2, [r4, #4]
    6078:	4295      	cmp	r5, r2
    607a:	dbe7      	blt.n	604c <mpa_get_random+0x2e>
/home/yin/imx-optee/imx-optee-os/lib/libmpa/mpa_random.c:58
    607c:	6873      	ldr	r3, [r6, #4]
/home/yin/imx-optee/imx-optee-os/lib/libmpa/mpa_random.c:59
    607e:	2501      	movs	r5, #1
/home/yin/imx-optee/imx-optee-os/lib/libmpa/mpa_random.c:58
    6080:	2b00      	cmp	r3, #0
    6082:	bfb8      	it	lt
    6084:	425b      	neglt	r3, r3
    6086:	429a      	cmp	r2, r3
    6088:	db16      	blt.n	60b8 <mpa_get_random+0x9a>
/home/yin/imx-optee/imx-optee-os/lib/libmpa/mpa_random.c:62
    608a:	4630      	mov	r0, r6
    608c:	f7fe f95d 	bl	434a <mpa_highest_bit_index>
/home/yin/imx-optee/imx-optee-os/lib/libmpa/mpa_random.c:64
    6090:	f000 001f 	and.w	r0, r0, #31
    6094:	4428      	add	r0, r5
/home/yin/imx-optee/imx-optee-os/lib/libmpa/mpa_random.c:65
    6096:	2820      	cmp	r0, #32
    6098:	d008      	beq.n	60ac <mpa_get_random+0x8e>
    609a:	6863      	ldr	r3, [r4, #4]
/home/yin/imx-optee/imx-optee-os/lib/libmpa/mpa_random.c:66
    609c:	fa05 f000 	lsl.w	r0, r5, r0
    60a0:	3801      	subs	r0, #1
    60a2:	eb04 0383 	add.w	r3, r4, r3, lsl #2
/home/yin/imx-optee/imx-optee-os/lib/libmpa/mpa_random.c:67
    60a6:	685a      	ldr	r2, [r3, #4]
    60a8:	4010      	ands	r0, r2
    60aa:	6058      	str	r0, [r3, #4]
/home/yin/imx-optee/imx-optee-os/lib/libmpa/mpa_random.c:69
    60ac:	4631      	mov	r1, r6
    60ae:	4620      	mov	r0, r4
    60b0:	f000 fc42 	bl	6938 <mpa_cmp>
    60b4:	0fc5      	lsrs	r5, r0, #31
    60b6:	e7c4      	b.n	6042 <mpa_get_random+0x24>
/home/yin/imx-optee/imx-optee-os/lib/libmpa/mpa_random.c:72
    60b8:	b002      	add	sp, #8
    60ba:	e8bd 87f0 	ldmia.w	sp!, {r4, r5, r6, r7, r8, r9, sl, pc}

000060be <mpa_get_random_digits>:
mpa_get_random_digits():
/home/yin/imx-optee/imx-optee-os/lib/libmpa/mpa_random.c:75
    60be:	b538      	push	{r3, r4, r5, lr}
    60c0:	4605      	mov	r5, r0
    60c2:	460c      	mov	r4, r1
/home/yin/imx-optee/imx-optee-os/lib/libmpa/mpa_random.c:76
    60c4:	f7fe f91b 	bl	42fe <mpa_wipe>
/home/yin/imx-optee/imx-optee-os/lib/libmpa/mpa_random.c:78
    60c8:	682b      	ldr	r3, [r5, #0]
    60ca:	42a3      	cmp	r3, r4
    60cc:	d201      	bcs.n	60d2 <mpa_get_random_digits+0x14>
/home/yin/imx-optee/imx-optee-os/lib/libmpa/mpa_random.c:79
    60ce:	2000      	movs	r0, #0
    60d0:	bd38      	pop	{r3, r4, r5, pc}
/home/yin/imx-optee/imx-optee-os/lib/libmpa/mpa_random.c:83
    60d2:	ea84 71e4 	eor.w	r1, r4, r4, asr #31
/home/yin/imx-optee/imx-optee-os/lib/libmpa/mpa_random.c:81
    60d6:	606c      	str	r4, [r5, #4]
get_rng_array():
/home/yin/imx-optee/imx-optee-os/lib/libmpa/mpa_random.c:24
    60d8:	f105 0008 	add.w	r0, r5, #8
mpa_get_random_digits():
/home/yin/imx-optee/imx-optee-os/lib/libmpa/mpa_random.c:83
    60dc:	eba1 71e4 	sub.w	r1, r1, r4, asr #31
get_rng_array():
/home/yin/imx-optee/imx-optee-os/lib/libmpa/mpa_random.c:24
    60e0:	0089      	lsls	r1, r1, #2
    60e2:	f7fb ed26 	blx	1b30 <utee_cryp_random_number_generate>
mpa_get_random_digits():
/home/yin/imx-optee/imx-optee-os/lib/libmpa/mpa_random.c:83
    60e6:	2800      	cmp	r0, #0
    60e8:	d1f1      	bne.n	60ce <mpa_get_random_digits+0x10>
/home/yin/imx-optee/imx-optee-os/lib/libmpa/mpa_random.c:86
    60ea:	6868      	ldr	r0, [r5, #4]
    60ec:	2800      	cmp	r0, #0
    60ee:	bfb8      	it	lt
    60f0:	4240      	neglt	r0, r0
/home/yin/imx-optee/imx-optee-os/lib/libmpa/mpa_random.c:87
    60f2:	bd38      	pop	{r3, r4, r5, pc}

000060f4 <__mpa_shift_words_left>:
__mpa_shift_words_left():
/home/yin/imx-optee/imx-optee-os/lib/libmpa/mpa_shift.c:19
    60f4:	b570      	push	{r4, r5, r6, lr}
    60f6:	4606      	mov	r6, r0
/home/yin/imx-optee/imx-optee-os/lib/libmpa/mpa_shift.c:22
    60f8:	460c      	mov	r4, r1
    60fa:	b1d1      	cbz	r1, 6132 <__mpa_shift_words_left+0x3e>
/home/yin/imx-optee/imx-optee-os/lib/libmpa/mpa_shift.c:22 (discriminator 1)
    60fc:	6845      	ldr	r5, [r0, #4]
    60fe:	b1c5      	cbz	r5, 6132 <__mpa_shift_words_left+0x3e>
/home/yin/imx-optee/imx-optee-os/lib/libmpa/mpa_shift.c:24
    6100:	ea85 72e5 	eor.w	r2, r5, r5, asr #31
    6104:	3901      	subs	r1, #1
    6106:	f1c4 0302 	rsb	r3, r4, #2
    610a:	eba2 72e5 	sub.w	r2, r2, r5, asr #31
    610e:	440a      	add	r2, r1
    6110:	4413      	add	r3, r2
    6112:	eb00 0383 	add.w	r3, r0, r3, lsl #2
    6116:	3304      	adds	r3, #4
/home/yin/imx-optee/imx-optee-os/lib/libmpa/mpa_shift.c:24 (discriminator 1)
    6118:	428a      	cmp	r2, r1
    611a:	d80b      	bhi.n	6134 <__mpa_shift_words_left+0x40>
/home/yin/imx-optee/imx-optee-os/lib/libmpa/mpa_shift.c:27
    611c:	00a2      	lsls	r2, r4, #2
    611e:	2100      	movs	r1, #0
    6120:	f106 0008 	add.w	r0, r6, #8
    6124:	f7fe fefa 	bl	4f1c <memset>
/home/yin/imx-optee/imx-optee-os/lib/libmpa/mpa_shift.c:30
    6128:	2d00      	cmp	r5, #0
/home/yin/imx-optee/imx-optee-os/lib/libmpa/mpa_shift.c:31
    612a:	bfcc      	ite	gt
    612c:	1964      	addgt	r4, r4, r5
/home/yin/imx-optee/imx-optee-os/lib/libmpa/mpa_shift.c:33
    612e:	1b2c      	suble	r4, r5, r4
    6130:	6074      	str	r4, [r6, #4]
    6132:	bd70      	pop	{r4, r5, r6, pc}
/home/yin/imx-optee/imx-optee-os/lib/libmpa/mpa_shift.c:25 (discriminator 3)
    6134:	f853 0d04 	ldr.w	r0, [r3, #-4]!
/home/yin/imx-optee/imx-optee-os/lib/libmpa/mpa_shift.c:24 (discriminator 3)
    6138:	3a01      	subs	r2, #1
/home/yin/imx-optee/imx-optee-os/lib/libmpa/mpa_shift.c:25 (discriminator 3)
    613a:	f843 0024 	str.w	r0, [r3, r4, lsl #2]
    613e:	e7eb      	b.n	6118 <__mpa_shift_words_left+0x24>

00006140 <__mpa_shift_words_right>:
__mpa_shift_words_right():
/home/yin/imx-optee/imx-optee-os/lib/libmpa/mpa_shift.c:42
    6140:	b470      	push	{r4, r5, r6}
    6142:	4602      	mov	r2, r0
/home/yin/imx-optee/imx-optee-os/lib/libmpa/mpa_shift.c:45
    6144:	b191      	cbz	r1, 616c <__mpa_shift_words_right+0x2c>
/home/yin/imx-optee/imx-optee-os/lib/libmpa/mpa_shift.c:45 (discriminator 1)
    6146:	6843      	ldr	r3, [r0, #4]
    6148:	b183      	cbz	r3, 616c <__mpa_shift_words_right+0x2c>
/home/yin/imx-optee/imx-optee-os/lib/libmpa/mpa_shift.c:48
    614a:	ea83 74e3 	eor.w	r4, r3, r3, asr #31
    614e:	eba4 74e3 	sub.w	r4, r4, r3, asr #31
    6152:	42a1      	cmp	r1, r4
    6154:	d20c      	bcs.n	6170 <__mpa_shift_words_right+0x30>
    6156:	f100 0508 	add.w	r5, r0, #8
/home/yin/imx-optee/imx-optee-os/lib/libmpa/mpa_shift.c:53
    615a:	1a64      	subs	r4, r4, r1
/home/yin/imx-optee/imx-optee-os/lib/libmpa/mpa_shift.c:48
    615c:	2000      	movs	r0, #0
/home/yin/imx-optee/imx-optee-os/lib/libmpa/mpa_shift.c:53 (discriminator 1)
    615e:	42a0      	cmp	r0, r4
    6160:	d30a      	bcc.n	6178 <__mpa_shift_words_right+0x38>
/home/yin/imx-optee/imx-optee-os/lib/libmpa/mpa_shift.c:57
    6162:	2b00      	cmp	r3, #0
/home/yin/imx-optee/imx-optee-os/lib/libmpa/mpa_shift.c:58
    6164:	bfcc      	ite	gt
    6166:	1a5b      	subgt	r3, r3, r1
/home/yin/imx-optee/imx-optee-os/lib/libmpa/mpa_shift.c:60
    6168:	185b      	addle	r3, r3, r1
    616a:	6053      	str	r3, [r2, #4]
/home/yin/imx-optee/imx-optee-os/lib/libmpa/mpa_shift.c:61
    616c:	bc70      	pop	{r4, r5, r6}
    616e:	4770      	bx	lr
/home/yin/imx-optee/imx-optee-os/lib/libmpa/mpa_shift.c:49
    6170:	2100      	movs	r1, #0
/home/yin/imx-optee/imx-optee-os/lib/libmpa/mpa_shift.c:61
    6172:	bc70      	pop	{r4, r5, r6}
/home/yin/imx-optee/imx-optee-os/lib/libmpa/mpa_shift.c:49
    6174:	f7ff b8c3 	b.w	52fe <mpa_set_word>
/home/yin/imx-optee/imx-optee-os/lib/libmpa/mpa_shift.c:54 (discriminator 3)
    6178:	f855 6021 	ldr.w	r6, [r5, r1, lsl #2]
/home/yin/imx-optee/imx-optee-os/lib/libmpa/mpa_shift.c:53 (discriminator 3)
    617c:	3001      	adds	r0, #1
/home/yin/imx-optee/imx-optee-os/lib/libmpa/mpa_shift.c:54 (discriminator 3)
    617e:	f845 6b04 	str.w	r6, [r5], #4
    6182:	e7ec      	b.n	615e <__mpa_shift_words_right+0x1e>

00006184 <mpa_shift_left>:
mpa_shift_left():
/home/yin/imx-optee/imx-optee-os/lib/libmpa/mpa_shift.c:76
    6184:	e92d 41f0 	stmdb	sp!, {r4, r5, r6, r7, r8, lr}
    6188:	4605      	mov	r5, r0
    618a:	4616      	mov	r6, r2
/home/yin/imx-optee/imx-optee-os/lib/libmpa/mpa_shift.c:88
    618c:	f7fe f8c2 	bl	4314 <mpa_copy>
/home/yin/imx-optee/imx-optee-os/lib/libmpa/mpa_shift.c:89
    6190:	4628      	mov	r0, r5
    6192:	f7fe f8a7 	bl	42e4 <__mpa_set_unused_digits_to_zero>
/home/yin/imx-optee/imx-optee-os/lib/libmpa/mpa_shift.c:90
    6196:	b306      	cbz	r6, 61da <mpa_shift_left+0x56>
/home/yin/imx-optee/imx-optee-os/lib/libmpa/mpa_shift.c:90 (discriminator 1)
    6198:	686f      	ldr	r7, [r5, #4]
    619a:	b1f7      	cbz	r7, 61da <mpa_shift_left+0x56>
/home/yin/imx-optee/imx-optee-os/lib/libmpa/mpa_shift.c:94
    619c:	0974      	lsrs	r4, r6, #5
/home/yin/imx-optee/imx-optee-os/lib/libmpa/mpa_shift.c:110
    619e:	f016 061f 	ands.w	r6, r6, #31
    61a2:	d122      	bne.n	61ea <mpa_shift_left+0x66>
/home/yin/imx-optee/imx-optee-os/lib/libmpa/mpa_shift.c:114
    61a4:	ea87 72e7 	eor.w	r2, r7, r7, asr #31
    61a8:	1e61      	subs	r1, r4, #1
    61aa:	f1c4 0302 	rsb	r3, r4, #2
    61ae:	eba2 72e7 	sub.w	r2, r2, r7, asr #31
    61b2:	440a      	add	r2, r1
    61b4:	4413      	add	r3, r2
    61b6:	eb05 0383 	add.w	r3, r5, r3, lsl #2
    61ba:	3304      	adds	r3, #4
/home/yin/imx-optee/imx-optee-os/lib/libmpa/mpa_shift.c:114 (discriminator 1)
    61bc:	428a      	cmp	r2, r1
    61be:	d80e      	bhi.n	61de <mpa_shift_left+0x5a>
/home/yin/imx-optee/imx-optee-os/lib/libmpa/mpa_shift.c:140
    61c0:	00a2      	lsls	r2, r4, #2
    61c2:	2100      	movs	r1, #0
    61c4:	f105 0008 	add.w	r0, r5, #8
    61c8:	f7fe fea8 	bl	4f1c <memset>
/home/yin/imx-optee/imx-optee-os/lib/libmpa/mpa_shift.c:142
    61cc:	2f00      	cmp	r7, #0
/home/yin/imx-optee/imx-optee-os/lib/libmpa/mpa_shift.c:143
    61ce:	bfcb      	itete	gt
    61d0:	19e4      	addgt	r4, r4, r7
/home/yin/imx-optee/imx-optee-os/lib/libmpa/mpa_shift.c:145
    61d2:	1b3c      	suble	r4, r7, r4
/home/yin/imx-optee/imx-optee-os/lib/libmpa/mpa_shift.c:143
    61d4:	1936      	addgt	r6, r6, r4
/home/yin/imx-optee/imx-optee-os/lib/libmpa/mpa_shift.c:145
    61d6:	1ba6      	suble	r6, r4, r6
    61d8:	606e      	str	r6, [r5, #4]
    61da:	e8bd 81f0 	ldmia.w	sp!, {r4, r5, r6, r7, r8, pc}
/home/yin/imx-optee/imx-optee-os/lib/libmpa/mpa_shift.c:115 (discriminator 3)
    61de:	f853 0d04 	ldr.w	r0, [r3, #-4]!
/home/yin/imx-optee/imx-optee-os/lib/libmpa/mpa_shift.c:114 (discriminator 3)
    61e2:	3a01      	subs	r2, #1
/home/yin/imx-optee/imx-optee-os/lib/libmpa/mpa_shift.c:115 (discriminator 3)
    61e4:	f843 0024 	str.w	r0, [r3, r4, lsl #2]
    61e8:	e7e8      	b.n	61bc <mpa_shift_left+0x38>
/home/yin/imx-optee/imx-optee-os/lib/libmpa/mpa_shift.c:117
    61ea:	ea87 73e7 	eor.w	r3, r7, r7, asr #31
/home/yin/imx-optee/imx-optee-os/lib/libmpa/mpa_shift.c:118
    61ee:	2201      	movs	r2, #1
    61f0:	40b2      	lsls	r2, r6
    61f2:	f1c6 0120 	rsb	r1, r6, #32
/home/yin/imx-optee/imx-optee-os/lib/libmpa/mpa_shift.c:117
    61f6:	eba3 73e7 	sub.w	r3, r3, r7, asr #31
/home/yin/imx-optee/imx-optee-os/lib/libmpa/mpa_shift.c:118
    61fa:	3a01      	subs	r2, #1
/home/yin/imx-optee/imx-optee-os/lib/libmpa/mpa_shift.c:117
    61fc:	1c58      	adds	r0, r3, #1
/home/yin/imx-optee/imx-optee-os/lib/libmpa/mpa_shift.c:118
    61fe:	408a      	lsls	r2, r1
/home/yin/imx-optee/imx-optee-os/lib/libmpa/mpa_shift.c:117
    6200:	f855 0020 	ldr.w	r0, [r5, r0, lsl #2]
/home/yin/imx-optee/imx-optee-os/lib/libmpa/mpa_shift.c:126
    6204:	4423      	add	r3, r4
/home/yin/imx-optee/imx-optee-os/lib/libmpa/mpa_shift.c:117
    6206:	4002      	ands	r2, r0
    6208:	2a00      	cmp	r2, #0
    620a:	bf14      	ite	ne
    620c:	f04f 0c01 	movne.w	ip, #1
    6210:	f04f 0c00 	moveq.w	ip, #0
/home/yin/imx-optee/imx-optee-os/lib/libmpa/mpa_shift.c:126
    6214:	4463      	add	r3, ip
/home/yin/imx-optee/imx-optee-os/lib/libmpa/mpa_shift.c:127
    6216:	d00b      	beq.n	6230 <mpa_shift_left+0xac>
/home/yin/imx-optee/imx-optee-os/lib/libmpa/mpa_shift.c:128
    6218:	1b1a      	subs	r2, r3, r4
    621a:	eb05 0e83 	add.w	lr, r5, r3, lsl #2
    621e:	3201      	adds	r2, #1
    6220:	f855 0022 	ldr.w	r0, [r5, r2, lsl #2]
/home/yin/imx-optee/imx-optee-os/lib/libmpa/mpa_shift.c:129
    6224:	f8de 2008 	ldr.w	r2, [lr, #8]
/home/yin/imx-optee/imx-optee-os/lib/libmpa/mpa_shift.c:128
    6228:	40c8      	lsrs	r0, r1
/home/yin/imx-optee/imx-optee-os/lib/libmpa/mpa_shift.c:129
    622a:	4042      	eors	r2, r0
    622c:	f8ce 2008 	str.w	r2, [lr, #8]
/home/yin/imx-optee/imx-optee-os/lib/libmpa/mpa_shift.c:131
    6230:	1e5a      	subs	r2, r3, #1
    6232:	f06f 0e03 	mvn.w	lr, #3
/home/yin/imx-optee/imx-optee-os/lib/libmpa/mpa_shift.c:132
    6236:	1b10      	subs	r0, r2, r4
    6238:	3301      	adds	r3, #1
    623a:	3002      	adds	r0, #2
    623c:	fb0e fe04 	mul.w	lr, lr, r4
    6240:	f855 0020 	ldr.w	r0, [r5, r0, lsl #2]
    6244:	40b0      	lsls	r0, r6
    6246:	f845 0023 	str.w	r0, [r5, r3, lsl #2]
    624a:	eb05 0383 	add.w	r3, r5, r3, lsl #2
/home/yin/imx-optee/imx-optee-os/lib/libmpa/mpa_shift.c:133
    624e:	42a2      	cmp	r2, r4
    6250:	d801      	bhi.n	6256 <mpa_shift_left+0xd2>
/home/yin/imx-optee/imx-optee-os/lib/libmpa/mpa_shift.c:108
    6252:	4666      	mov	r6, ip
    6254:	e7b4      	b.n	61c0 <mpa_shift_left+0x3c>
/home/yin/imx-optee/imx-optee-os/lib/libmpa/mpa_shift.c:134
    6256:	eb03 000e 	add.w	r0, r3, lr
/home/yin/imx-optee/imx-optee-os/lib/libmpa/mpa_shift.c:136
    625a:	3a01      	subs	r2, #1
/home/yin/imx-optee/imx-optee-os/lib/libmpa/mpa_shift.c:134
    625c:	f850 0c04 	ldr.w	r0, [r0, #-4]
    6260:	fa20 f801 	lsr.w	r8, r0, r1
/home/yin/imx-optee/imx-optee-os/lib/libmpa/mpa_shift.c:135
    6264:	6818      	ldr	r0, [r3, #0]
    6266:	ea80 0008 	eor.w	r0, r0, r8
    626a:	f843 0904 	str.w	r0, [r3], #-4
/home/yin/imx-optee/imx-optee-os/lib/libmpa/mpa_shift.c:137
    626e:	f853 000e 	ldr.w	r0, [r3, lr]
    6272:	40b0      	lsls	r0, r6
    6274:	6018      	str	r0, [r3, #0]
    6276:	e7ea      	b.n	624e <mpa_shift_left+0xca>

00006278 <mpa_shift_right>:
mpa_shift_right():
/home/yin/imx-optee/imx-optee-os/lib/libmpa/mpa_shift.c:157
    6278:	e92d 43f8 	stmdb	sp!, {r3, r4, r5, r6, r7, r8, r9, lr}
    627c:	4604      	mov	r4, r0
    627e:	4617      	mov	r7, r2
/home/yin/imx-optee/imx-optee-os/lib/libmpa/mpa_shift.c:168
    6280:	f7fe f848 	bl	4314 <mpa_copy>
/home/yin/imx-optee/imx-optee-os/lib/libmpa/mpa_shift.c:169
    6284:	4620      	mov	r0, r4
    6286:	f7fe f82d 	bl	42e4 <__mpa_set_unused_digits_to_zero>
/home/yin/imx-optee/imx-optee-os/lib/libmpa/mpa_shift.c:170
    628a:	2f00      	cmp	r7, #0
    628c:	d045      	beq.n	631a <mpa_shift_right+0xa2>
/home/yin/imx-optee/imx-optee-os/lib/libmpa/mpa_shift.c:170 (discriminator 1)
    628e:	6866      	ldr	r6, [r4, #4]
    6290:	2e00      	cmp	r6, #0
    6292:	d042      	beq.n	631a <mpa_shift_right+0xa2>
/home/yin/imx-optee/imx-optee-os/lib/libmpa/mpa_shift.c:176
    6294:	ea86 71e6 	eor.w	r1, r6, r6, asr #31
/home/yin/imx-optee/imx-optee-os/lib/libmpa/mpa_shift.c:174
    6298:	097a      	lsrs	r2, r7, #5
/home/yin/imx-optee/imx-optee-os/lib/libmpa/mpa_shift.c:176
    629a:	eba1 71e6 	sub.w	r1, r1, r6, asr #31
/home/yin/imx-optee/imx-optee-os/lib/libmpa/mpa_shift.c:173
    629e:	f007 051f 	and.w	r5, r7, #31
/home/yin/imx-optee/imx-optee-os/lib/libmpa/mpa_shift.c:176
    62a2:	428a      	cmp	r2, r1
    62a4:	d305      	bcc.n	62b2 <mpa_shift_right+0x3a>
/home/yin/imx-optee/imx-optee-os/lib/libmpa/mpa_shift.c:177
    62a6:	4620      	mov	r0, r4
    62a8:	2100      	movs	r1, #0
/home/yin/imx-optee/imx-optee-os/lib/libmpa/mpa_shift.c:215
    62aa:	e8bd 43f8 	ldmia.w	sp!, {r3, r4, r5, r6, r7, r8, r9, lr}
/home/yin/imx-optee/imx-optee-os/lib/libmpa/mpa_shift.c:177
    62ae:	f7ff b826 	b.w	52fe <mpa_set_word>
    62b2:	f104 0308 	add.w	r3, r4, #8
/home/yin/imx-optee/imx-optee-os/lib/libmpa/mpa_shift.c:186
    62b6:	b1cd      	cbz	r5, 62ec <mpa_shift_right+0x74>
/home/yin/imx-optee/imx-optee-os/lib/libmpa/mpa_shift.c:194 (discriminator 1)
    62b8:	f04f 37ff 	mov.w	r7, #4294967295	; 0xffffffff
    62bc:	f102 0c02 	add.w	ip, r2, #2
    62c0:	40af      	lsls	r7, r5
/home/yin/imx-optee/imx-optee-os/lib/libmpa/mpa_shift.c:192 (discriminator 1)
    62c2:	43d0      	mvns	r0, r2
    62c4:	eb04 0c8c 	add.w	ip, r4, ip, lsl #2
/home/yin/imx-optee/imx-optee-os/lib/libmpa/mpa_shift.c:194 (discriminator 1)
    62c8:	f04f 0e00 	mov.w	lr, #0
    62cc:	43ff      	mvns	r7, r7
/home/yin/imx-optee/imx-optee-os/lib/libmpa/mpa_shift.c:192 (discriminator 1)
    62ce:	4401      	add	r1, r0
/home/yin/imx-optee/imx-optee-os/lib/libmpa/mpa_shift.c:196 (discriminator 1)
    62d0:	f1c5 0820 	rsb	r8, r5, #32
/home/yin/imx-optee/imx-optee-os/lib/libmpa/mpa_shift.c:192 (discriminator 1)
    62d4:	458e      	cmp	lr, r1
    62d6:	d328      	bcc.n	632a <mpa_shift_right+0xb2>
/home/yin/imx-optee/imx-optee-os/lib/libmpa/mpa_shift.c:199
    62d8:	1c88      	adds	r0, r1, #2
    62da:	4411      	add	r1, r2
    62dc:	3102      	adds	r1, #2
    62de:	f854 3021 	ldr.w	r3, [r4, r1, lsl #2]
    62e2:	fa23 f505 	lsr.w	r5, r3, r5
    62e6:	f844 5020 	str.w	r5, [r4, r0, lsl #2]
    62ea:	e002      	b.n	62f2 <mpa_shift_right+0x7a>
/home/yin/imx-optee/imx-optee-os/lib/libmpa/mpa_shift.c:188 (discriminator 1)
    62ec:	1a89      	subs	r1, r1, r2
    62ee:	428d      	cmp	r5, r1
    62f0:	d315      	bcc.n	631e <mpa_shift_right+0xa6>
/home/yin/imx-optee/imx-optee-os/lib/libmpa/mpa_shift.c:203
    62f2:	2e00      	cmp	r6, #0
/home/yin/imx-optee/imx-optee-os/lib/libmpa/mpa_shift.c:204
    62f4:	bfcc      	ite	gt
    62f6:	1ab2      	subgt	r2, r6, r2
/home/yin/imx-optee/imx-optee-os/lib/libmpa/mpa_shift.c:206
    62f8:	1992      	addle	r2, r2, r6
    62fa:	6062      	str	r2, [r4, #4]
/home/yin/imx-optee/imx-optee-os/lib/libmpa/mpa_shift.c:209
    62fc:	6863      	ldr	r3, [r4, #4]
    62fe:	ea83 72e3 	eor.w	r2, r3, r3, asr #31
    6302:	eba2 72e3 	sub.w	r2, r2, r3, asr #31
    6306:	3201      	adds	r2, #1
    6308:	f854 2022 	ldr.w	r2, [r4, r2, lsl #2]
    630c:	b92a      	cbnz	r2, 631a <mpa_shift_right+0xa2>
/home/yin/imx-optee/imx-optee-os/lib/libmpa/mpa_shift.c:210
    630e:	2b00      	cmp	r3, #0
/home/yin/imx-optee/imx-optee-os/lib/libmpa/mpa_shift.c:211
    6310:	bfcc      	ite	gt
    6312:	f103 33ff 	addgt.w	r3, r3, #4294967295	; 0xffffffff
/home/yin/imx-optee/imx-optee-os/lib/libmpa/mpa_shift.c:213
    6316:	3301      	addle	r3, #1
    6318:	6063      	str	r3, [r4, #4]
    631a:	e8bd 83f8 	ldmia.w	sp!, {r3, r4, r5, r6, r7, r8, r9, pc}
/home/yin/imx-optee/imx-optee-os/lib/libmpa/mpa_shift.c:189 (discriminator 3)
    631e:	f853 0022 	ldr.w	r0, [r3, r2, lsl #2]
/home/yin/imx-optee/imx-optee-os/lib/libmpa/mpa_shift.c:188 (discriminator 3)
    6322:	3501      	adds	r5, #1
/home/yin/imx-optee/imx-optee-os/lib/libmpa/mpa_shift.c:189 (discriminator 3)
    6324:	f843 0b04 	str.w	r0, [r3], #4
    6328:	e7e1      	b.n	62ee <mpa_shift_right+0x76>
/home/yin/imx-optee/imx-optee-os/lib/libmpa/mpa_shift.c:193 (discriminator 3)
    632a:	f8dc 9000 	ldr.w	r9, [ip]
/home/yin/imx-optee/imx-optee-os/lib/libmpa/mpa_shift.c:192 (discriminator 3)
    632e:	f10e 0e01 	add.w	lr, lr, #1
/home/yin/imx-optee/imx-optee-os/lib/libmpa/mpa_shift.c:193 (discriminator 3)
    6332:	f8c3 9000 	str.w	r9, [r3]
/home/yin/imx-optee/imx-optee-os/lib/libmpa/mpa_shift.c:194 (discriminator 3)
    6336:	f85c 0f04 	ldr.w	r0, [ip, #4]!
/home/yin/imx-optee/imx-optee-os/lib/libmpa/mpa_shift.c:196 (discriminator 3)
    633a:	fa29 f905 	lsr.w	r9, r9, r5
/home/yin/imx-optee/imx-optee-os/lib/libmpa/mpa_shift.c:194 (discriminator 3)
    633e:	4038      	ands	r0, r7
/home/yin/imx-optee/imx-optee-os/lib/libmpa/mpa_shift.c:196 (discriminator 3)
    6340:	fa00 f008 	lsl.w	r0, r0, r8
    6344:	ea80 0009 	eor.w	r0, r0, r9
/home/yin/imx-optee/imx-optee-os/lib/libmpa/mpa_shift.c:195 (discriminator 3)
    6348:	f843 0b04 	str.w	r0, [r3], #4
    634c:	e7c2      	b.n	62d4 <mpa_shift_right+0x5c>

0000634e <__mpa_full_adder>:
__mpa_full_adder():
/home/yin/imx-optee/imx-optee-os/lib/libmpa/mpa_addsub.c:29
    634e:	b5f0      	push	{r4, r5, r6, r7, lr}
/home/yin/imx-optee/imx-optee-os/lib/libmpa/mpa_addsub.c:32
    6350:	2500      	movs	r5, #0
    6352:	681e      	ldr	r6, [r3, #0]
    6354:	198c      	adds	r4, r1, r6
    6356:	f145 0500 	adc.w	r5, r5, #0
    635a:	1826      	adds	r6, r4, r0
    635c:	f145 0700 	adc.w	r7, r5, #0
/home/yin/imx-optee/imx-optee-os/lib/libmpa/mpa_addsub.c:33
    6360:	6016      	str	r6, [r2, #0]
/home/yin/imx-optee/imx-optee-os/lib/libmpa/mpa_addsub.c:34
    6362:	601f      	str	r7, [r3, #0]
    6364:	bdf0      	pop	{r4, r5, r6, r7, pc}

00006366 <__mpa_full_sub>:
__mpa_full_sub():
/home/yin/imx-optee/imx-optee-os/lib/libmpa/mpa_addsub.c:52
    6366:	b510      	push	{r4, lr}
/home/yin/imx-optee/imx-optee-os/lib/libmpa/mpa_addsub.c:55
    6368:	1a40      	subs	r0, r0, r1
    636a:	681c      	ldr	r4, [r3, #0]
    636c:	eb60 0100 	sbc.w	r1, r0, r0
    6370:	1b00      	subs	r0, r0, r4
    6372:	f161 0100 	sbc.w	r1, r1, #0
/home/yin/imx-optee/imx-optee-os/lib/libmpa/mpa_addsub.c:56
    6376:	6010      	str	r0, [r2, #0]
/home/yin/imx-optee/imx-optee-os/lib/libmpa/mpa_addsub.c:57
    6378:	424a      	negs	r2, r1
    637a:	601a      	str	r2, [r3, #0]
    637c:	bd10      	pop	{r4, pc}

0000637e <__mpa_full_adder_ackum>:
__mpa_full_adder_ackum():
/home/yin/imx-optee/imx-optee-os/lib/libmpa/mpa_addsub.c:79
    637e:	6813      	ldr	r3, [r2, #0]
/home/yin/imx-optee/imx-optee-os/lib/libmpa/mpa_addsub.c:76
    6380:	b530      	push	{r4, r5, lr}
/home/yin/imx-optee/imx-optee-os/lib/libmpa/mpa_addsub.c:79
    6382:	2500      	movs	r5, #0
    6384:	18cc      	adds	r4, r1, r3
    6386:	6803      	ldr	r3, [r0, #0]
    6388:	f145 0500 	adc.w	r5, r5, #0
    638c:	18e4      	adds	r4, r4, r3
    638e:	f145 0500 	adc.w	r5, r5, #0
/home/yin/imx-optee/imx-optee-os/lib/libmpa/mpa_addsub.c:80
    6392:	6004      	str	r4, [r0, #0]
/home/yin/imx-optee/imx-optee-os/lib/libmpa/mpa_addsub.c:81
    6394:	6015      	str	r5, [r2, #0]
    6396:	bd30      	pop	{r4, r5, pc}

00006398 <__mpa_abs_add>:
__mpa_abs_add():
/home/yin/imx-optee/imx-optee-os/lib/libmpa/mpa_addsub.c:105
    6398:	e92d 4ff8 	stmdb	sp!, {r3, r4, r5, r6, r7, r8, r9, sl, fp, lr}
    639c:	4605      	mov	r5, r0
    639e:	980b      	ldr	r0, [sp, #44]	; 0x2c
    63a0:	4689      	mov	r9, r1
    63a2:	990a      	ldr	r1, [sp, #40]	; 0x28
/home/yin/imx-optee/imx-optee-os/lib/libmpa/mpa_addsub.c:115
    63a4:	4283      	cmp	r3, r0
    63a6:	dc05      	bgt.n	63b4 <__mpa_abs_add+0x1c>
    63a8:	4604      	mov	r4, r0
    63aa:	4618      	mov	r0, r3
    63ac:	4623      	mov	r3, r4
    63ae:	460c      	mov	r4, r1
/home/yin/imx-optee/imx-optee-os/lib/libmpa/mpa_addsub.c:122
    63b0:	4611      	mov	r1, r2
/home/yin/imx-optee/imx-optee-os/lib/libmpa/mpa_addsub.c:121
    63b2:	4622      	mov	r2, r4
/home/yin/imx-optee/imx-optee-os/lib/libmpa/mpa_addsub.c:128
    63b4:	f04f 0c00 	mov.w	ip, #0
/home/yin/imx-optee/imx-optee-os/lib/libmpa/mpa_addsub.c:129
    63b8:	4664      	mov	r4, ip
/home/yin/imx-optee/imx-optee-os/lib/libmpa/mpa_addsub.c:130
    63ba:	42a0      	cmp	r0, r4
    63bc:	dc0f      	bgt.n	63de <__mpa_abs_add+0x46>
    63be:	ea20 70e0 	bic.w	r0, r0, r0, asr #31
    63c2:	0081      	lsls	r1, r0, #2
    63c4:	186e      	adds	r6, r5, r1
    63c6:	4411      	add	r1, r2
/home/yin/imx-optee/imx-optee-os/lib/libmpa/mpa_addsub.c:134
    63c8:	f1bc 0f00 	cmp.w	ip, #0
    63cc:	d029      	beq.n	6422 <__mpa_abs_add+0x8a>
/home/yin/imx-optee/imx-optee-os/lib/libmpa/mpa_addsub.c:134 (discriminator 1)
    63ce:	4283      	cmp	r3, r0
    63d0:	f106 0204 	add.w	r2, r6, #4
    63d4:	dc18      	bgt.n	6408 <__mpa_abs_add+0x70>
/home/yin/imx-optee/imx-optee-os/lib/libmpa/mpa_addsub.c:146
    63d6:	4613      	mov	r3, r2
    63d8:	2201      	movs	r2, #1
    63da:	6032      	str	r2, [r6, #0]
    63dc:	e02b      	b.n	6436 <__mpa_abs_add+0x9e>
__mpa_full_adder():
/home/yin/imx-optee/imx-optee-os/lib/libmpa/mpa_addsub.c:32
    63de:	f852 6024 	ldr.w	r6, [r2, r4, lsl #2]
    63e2:	f04f 0b00 	mov.w	fp, #0
    63e6:	46b2      	mov	sl, r6
    63e8:	f851 6024 	ldr.w	r6, [r1, r4, lsl #2]
    63ec:	46b6      	mov	lr, r6
    63ee:	eb1a 0606 	adds.w	r6, sl, r6
    63f2:	f14b 0700 	adc.w	r7, fp, #0
    63f6:	eb16 0a0c 	adds.w	sl, r6, ip
    63fa:	f147 0b00 	adc.w	fp, r7, #0
/home/yin/imx-optee/imx-optee-os/lib/libmpa/mpa_addsub.c:33
    63fe:	f845 a024 	str.w	sl, [r5, r4, lsl #2]
/home/yin/imx-optee/imx-optee-os/lib/libmpa/mpa_addsub.c:34
    6402:	46dc      	mov	ip, fp
__mpa_abs_add():
/home/yin/imx-optee/imx-optee-os/lib/libmpa/mpa_addsub.c:132
    6404:	3401      	adds	r4, #1
    6406:	e7d8      	b.n	63ba <__mpa_abs_add+0x22>
/home/yin/imx-optee/imx-optee-os/lib/libmpa/mpa_addsub.c:135
    6408:	4616      	mov	r6, r2
__mpa_full_adder():
/home/yin/imx-optee/imx-optee-os/lib/libmpa/mpa_addsub.c:32
    640a:	f851 2b04 	ldr.w	r2, [r1], #4
    640e:	f04f 0b00 	mov.w	fp, #0
__mpa_abs_add():
/home/yin/imx-optee/imx-optee-os/lib/libmpa/mpa_addsub.c:136
    6412:	3001      	adds	r0, #1
__mpa_full_adder():
/home/yin/imx-optee/imx-optee-os/lib/libmpa/mpa_addsub.c:32
    6414:	1c57      	adds	r7, r2, #1
    6416:	f14b 0800 	adc.w	r8, fp, #0
/home/yin/imx-optee/imx-optee-os/lib/libmpa/mpa_addsub.c:33
    641a:	f846 7c04 	str.w	r7, [r6, #-4]
/home/yin/imx-optee/imx-optee-os/lib/libmpa/mpa_addsub.c:34
    641e:	46c4      	mov	ip, r8
    6420:	e7d2      	b.n	63c8 <__mpa_abs_add+0x30>
__mpa_abs_add():
/home/yin/imx-optee/imx-optee-os/lib/libmpa/mpa_addsub.c:139
    6422:	4283      	cmp	r3, r0
    6424:	dd06      	ble.n	6434 <__mpa_abs_add+0x9c>
/home/yin/imx-optee/imx-optee-os/lib/libmpa/mpa_addsub.c:141
    6426:	1a1b      	subs	r3, r3, r0
    6428:	4630      	mov	r0, r6
    642a:	009c      	lsls	r4, r3, #2
/home/yin/imx-optee/imx-optee-os/lib/libmpa/mpa_addsub.c:142
    642c:	4426      	add	r6, r4
/home/yin/imx-optee/imx-optee-os/lib/libmpa/mpa_addsub.c:141
    642e:	4622      	mov	r2, r4
    6430:	f7fe fd4f 	bl	4ed2 <memcpy>
/home/yin/imx-optee/imx-optee-os/lib/libmpa/mpa_addsub.c:129
    6434:	4633      	mov	r3, r6
/home/yin/imx-optee/imx-optee-os/lib/libmpa/mpa_addsub.c:147
    6436:	1b5d      	subs	r5, r3, r5
    6438:	10ad      	asrs	r5, r5, #2
    643a:	f8c9 5000 	str.w	r5, [r9]
/home/yin/imx-optee/imx-optee-os/lib/libmpa/mpa_addsub.c:148
    643e:	e8bd 8ff8 	ldmia.w	sp!, {r3, r4, r5, r6, r7, r8, r9, sl, fp, pc}

00006442 <__mpa_abs_add_ackum>:
__mpa_abs_add_ackum():
/home/yin/imx-optee/imx-optee-os/lib/libmpa/mpa_addsub.c:157
    6442:	e92d 47f3 	stmdb	sp!, {r0, r1, r4, r5, r6, r7, r8, r9, sl, lr}
    6446:	4605      	mov	r5, r0
/home/yin/imx-optee/imx-optee-os/lib/libmpa/mpa_addsub.c:165
    6448:	684a      	ldr	r2, [r1, #4]
/home/yin/imx-optee/imx-optee-os/lib/libmpa/mpa_addsub.c:168
    644a:	f105 0608 	add.w	r6, r5, #8
/home/yin/imx-optee/imx-optee-os/lib/libmpa/mpa_addsub.c:157
    644e:	460f      	mov	r7, r1
/home/yin/imx-optee/imx-optee-os/lib/libmpa/mpa_addsub.c:168
    6450:	2100      	movs	r1, #0
/home/yin/imx-optee/imx-optee-os/lib/libmpa/mpa_addsub.c:165
    6452:	6840      	ldr	r0, [r0, #4]
/home/yin/imx-optee/imx-optee-os/lib/libmpa/mpa_addsub.c:171
    6454:	f107 0908 	add.w	r9, r7, #8
/home/yin/imx-optee/imx-optee-os/lib/libmpa/mpa_addsub.c:174
    6458:	2400      	movs	r4, #0
    645a:	f10d 0808 	add.w	r8, sp, #8
/home/yin/imx-optee/imx-optee-os/lib/libmpa/mpa_addsub.c:165
    645e:	1a12      	subs	r2, r2, r0
/home/yin/imx-optee/imx-optee-os/lib/libmpa/mpa_addsub.c:168
    6460:	ea22 72e2 	bic.w	r2, r2, r2, asr #31
    6464:	eb06 0080 	add.w	r0, r6, r0, lsl #2
    6468:	3201      	adds	r2, #1
    646a:	0092      	lsls	r2, r2, #2
    646c:	f7fe fd56 	bl	4f1c <memset>
/home/yin/imx-optee/imx-optee-os/lib/libmpa/mpa_addsub.c:172
    6470:	4630      	mov	r0, r6
/home/yin/imx-optee/imx-optee-os/lib/libmpa/mpa_addsub.c:174
    6472:	f848 4d04 	str.w	r4, [r8, #-4]!
/home/yin/imx-optee/imx-optee-os/lib/libmpa/mpa_addsub.c:175
    6476:	687b      	ldr	r3, [r7, #4]
    6478:	429c      	cmp	r4, r3
    647a:	db0b      	blt.n	6494 <__mpa_abs_add_ackum+0x52>
/home/yin/imx-optee/imx-optee-os/lib/libmpa/mpa_addsub.c:186
    647c:	ac01      	add	r4, sp, #4
/home/yin/imx-optee/imx-optee-os/lib/libmpa/mpa_addsub.c:185
    647e:	9b01      	ldr	r3, [sp, #4]
    6480:	b993      	cbnz	r3, 64a8 <__mpa_abs_add_ackum+0x66>
/home/yin/imx-optee/imx-optee-os/lib/libmpa/mpa_addsub.c:194
    6482:	686b      	ldr	r3, [r5, #4]
/home/yin/imx-optee/imx-optee-os/lib/libmpa/mpa_addsub.c:193
    6484:	1b80      	subs	r0, r0, r6
    6486:	1080      	asrs	r0, r0, #2
/home/yin/imx-optee/imx-optee-os/lib/libmpa/mpa_addsub.c:194
    6488:	4298      	cmp	r0, r3
/home/yin/imx-optee/imx-optee-os/lib/libmpa/mpa_addsub.c:195
    648a:	bfc8      	it	gt
    648c:	6068      	strgt	r0, [r5, #4]
/home/yin/imx-optee/imx-optee-os/lib/libmpa/mpa_addsub.c:196
    648e:	b002      	add	sp, #8
    6490:	e8bd 87f0 	ldmia.w	sp!, {r4, r5, r6, r7, r8, r9, sl, pc}
/home/yin/imx-optee/imx-optee-os/lib/libmpa/mpa_addsub.c:176
    6494:	f100 0a04 	add.w	sl, r0, #4
    6498:	f859 1024 	ldr.w	r1, [r9, r4, lsl #2]
    649c:	4642      	mov	r2, r8
/home/yin/imx-optee/imx-optee-os/lib/libmpa/mpa_addsub.c:183
    649e:	3401      	adds	r4, #1
/home/yin/imx-optee/imx-optee-os/lib/libmpa/mpa_addsub.c:176
    64a0:	f7ff ff6d 	bl	637e <__mpa_full_adder_ackum>
    64a4:	4650      	mov	r0, sl
    64a6:	e7e6      	b.n	6476 <__mpa_abs_add_ackum+0x34>
/home/yin/imx-optee/imx-optee-os/lib/libmpa/mpa_addsub.c:186
    64a8:	1d07      	adds	r7, r0, #4
    64aa:	4622      	mov	r2, r4
    64ac:	2100      	movs	r1, #0
    64ae:	f7ff ff66 	bl	637e <__mpa_full_adder_ackum>
    64b2:	4638      	mov	r0, r7
    64b4:	e7e3      	b.n	647e <__mpa_abs_add_ackum+0x3c>

000064b6 <__mpa_abs_sub>:
__mpa_abs_sub():
/home/yin/imx-optee/imx-optee-os/lib/libmpa/mpa_addsub.c:211
    64b6:	e92d 4ff7 	stmdb	sp!, {r0, r1, r2, r4, r5, r6, r7, r8, r9, sl, fp, lr}
    64ba:	461e      	mov	r6, r3
    64bc:	9f0c      	ldr	r7, [sp, #48]	; 0x30
/home/yin/imx-optee/imx-optee-os/lib/libmpa/mpa_addsub.c:215
    64be:	2300      	movs	r3, #0
/home/yin/imx-optee/imx-optee-os/lib/libmpa/mpa_addsub.c:211
    64c0:	4605      	mov	r5, r0
    64c2:	4688      	mov	r8, r1
    64c4:	9c0d      	ldr	r4, [sp, #52]	; 0x34
    64c6:	4692      	mov	sl, r2
/home/yin/imx-optee/imx-optee-os/lib/libmpa/mpa_addsub.c:216
    64c8:	4699      	mov	r9, r3
/home/yin/imx-optee/imx-optee-os/lib/libmpa/mpa_addsub.c:215
    64ca:	f10d 0b08 	add.w	fp, sp, #8
    64ce:	f84b 3d04 	str.w	r3, [fp, #-4]!
/home/yin/imx-optee/imx-optee-os/lib/libmpa/mpa_addsub.c:217
    64d2:	45a1      	cmp	r9, r4
    64d4:	eb05 0289 	add.w	r2, r5, r9, lsl #2
    64d8:	db10      	blt.n	64fc <__mpa_abs_sub+0x46>
    64da:	ea24 74e4 	bic.w	r4, r4, r4, asr #31
/home/yin/imx-optee/imx-optee-os/lib/libmpa/mpa_addsub.c:226
    64de:	af01      	add	r7, sp, #4
    64e0:	00a1      	lsls	r1, r4, #2
    64e2:	440d      	add	r5, r1
    64e4:	448a      	add	sl, r1
/home/yin/imx-optee/imx-optee-os/lib/libmpa/mpa_addsub.c:225
    64e6:	9b01      	ldr	r3, [sp, #4]
    64e8:	b1f3      	cbz	r3, 6528 <__mpa_abs_sub+0x72>
/home/yin/imx-optee/imx-optee-os/lib/libmpa/mpa_addsub.c:225 (discriminator 1)
    64ea:	42b4      	cmp	r4, r6
    64ec:	db10      	blt.n	6510 <__mpa_abs_sub+0x5a>
/home/yin/imx-optee/imx-optee-os/lib/libmpa/mpa_addsub.c:240
    64ee:	2e00      	cmp	r6, #0
    64f0:	dc25      	bgt.n	653e <__mpa_abs_sub+0x88>
/home/yin/imx-optee/imx-optee-os/lib/libmpa/mpa_addsub.c:242
    64f2:	f8c8 6000 	str.w	r6, [r8]
/home/yin/imx-optee/imx-optee-os/lib/libmpa/mpa_addsub.c:243
    64f6:	b003      	add	sp, #12
    64f8:	e8bd 8ff0 	ldmia.w	sp!, {r4, r5, r6, r7, r8, r9, sl, fp, pc}
/home/yin/imx-optee/imx-optee-os/lib/libmpa/mpa_addsub.c:218
    64fc:	f857 1029 	ldr.w	r1, [r7, r9, lsl #2]
    6500:	465b      	mov	r3, fp
    6502:	f85a 0029 	ldr.w	r0, [sl, r9, lsl #2]
/home/yin/imx-optee/imx-optee-os/lib/libmpa/mpa_addsub.c:219
    6506:	f109 0901 	add.w	r9, r9, #1
/home/yin/imx-optee/imx-optee-os/lib/libmpa/mpa_addsub.c:218
    650a:	f7ff ff2c 	bl	6366 <__mpa_full_sub>
    650e:	e7e0      	b.n	64d2 <__mpa_abs_sub+0x1c>
/home/yin/imx-optee/imx-optee-os/lib/libmpa/mpa_addsub.c:226
    6510:	462a      	mov	r2, r5
    6512:	f105 0904 	add.w	r9, r5, #4
    6516:	463b      	mov	r3, r7
    6518:	2100      	movs	r1, #0
    651a:	f85a 0b04 	ldr.w	r0, [sl], #4
/home/yin/imx-optee/imx-optee-os/lib/libmpa/mpa_addsub.c:227
    651e:	3401      	adds	r4, #1
/home/yin/imx-optee/imx-optee-os/lib/libmpa/mpa_addsub.c:226
    6520:	f7ff ff21 	bl	6366 <__mpa_full_sub>
    6524:	464d      	mov	r5, r9
    6526:	e7de      	b.n	64e6 <__mpa_abs_sub+0x30>
/home/yin/imx-optee/imx-optee-os/lib/libmpa/mpa_addsub.c:230
    6528:	42b4      	cmp	r4, r6
    652a:	dae0      	bge.n	64ee <__mpa_abs_sub+0x38>
/home/yin/imx-optee/imx-optee-os/lib/libmpa/mpa_addsub.c:235
    652c:	1b34      	subs	r4, r6, r4
    652e:	4628      	mov	r0, r5
    6530:	00a4      	lsls	r4, r4, #2
    6532:	4651      	mov	r1, sl
    6534:	4622      	mov	r2, r4
/home/yin/imx-optee/imx-optee-os/lib/libmpa/mpa_addsub.c:236
    6536:	4425      	add	r5, r4
/home/yin/imx-optee/imx-optee-os/lib/libmpa/mpa_addsub.c:235
    6538:	f7fe fccb 	bl	4ed2 <memcpy>
/home/yin/imx-optee/imx-optee-os/lib/libmpa/mpa_addsub.c:240
    653c:	e7d7      	b.n	64ee <__mpa_abs_sub+0x38>
/home/yin/imx-optee/imx-optee-os/lib/libmpa/mpa_addsub.c:240 (discriminator 1)
    653e:	f855 3d04 	ldr.w	r3, [r5, #-4]!
    6542:	2b00      	cmp	r3, #0
    6544:	d1d5      	bne.n	64f2 <__mpa_abs_sub+0x3c>
/home/yin/imx-optee/imx-optee-os/lib/libmpa/mpa_addsub.c:241
    6546:	3e01      	subs	r6, #1
    6548:	e7d1      	b.n	64ee <__mpa_abs_sub+0x38>

0000654a <mpa_add>:
mpa_add():
/home/yin/imx-optee/imx-optee-os/lib/libmpa/mpa_addsub.c:259
    654a:	e92d 4ff0 	stmdb	sp!, {r4, r5, r6, r7, r8, r9, sl, fp, lr}
    654e:	460d      	mov	r5, r1
/home/yin/imx-optee/imx-optee-os/lib/libmpa/mpa_addsub.c:267
    6550:	6849      	ldr	r1, [r1, #4]
/home/yin/imx-optee/imx-optee-os/lib/libmpa/mpa_addsub.c:259
    6552:	4616      	mov	r6, r2
    6554:	b087      	sub	sp, #28
    6556:	4680      	mov	r8, r0
/home/yin/imx-optee/imx-optee-os/lib/libmpa/mpa_addsub.c:268
    6558:	6852      	ldr	r2, [r2, #4]
/home/yin/imx-optee/imx-optee-os/lib/libmpa/mpa_addsub.c:259
    655a:	469b      	mov	fp, r3
/home/yin/imx-optee/imx-optee-os/lib/libmpa/mpa_addsub.c:270
    655c:	2900      	cmp	r1, #0
    655e:	bfac      	ite	ge
    6560:	f04f 0901 	movge.w	r9, #1
    6564:	f04f 39ff 	movlt.w	r9, #4294967295	; 0xffffffff
/home/yin/imx-optee/imx-optee-os/lib/libmpa/mpa_addsub.c:271
    6568:	2a00      	cmp	r2, #0
/home/yin/imx-optee/imx-optee-os/lib/libmpa/mpa_addsub.c:267
    656a:	ea81 74e1 	eor.w	r4, r1, r1, asr #31
/home/yin/imx-optee/imx-optee-os/lib/libmpa/mpa_addsub.c:268
    656e:	ea82 7ae2 	eor.w	sl, r2, r2, asr #31
/home/yin/imx-optee/imx-optee-os/lib/libmpa/mpa_addsub.c:271
    6572:	bfac      	ite	ge
    6574:	2701      	movge	r7, #1
    6576:	f04f 37ff 	movlt.w	r7, #4294967295	; 0xffffffff
/home/yin/imx-optee/imx-optee-os/lib/libmpa/mpa_addsub.c:267
    657a:	eba4 74e1 	sub.w	r4, r4, r1, asr #31
/home/yin/imx-optee/imx-optee-os/lib/libmpa/mpa_addsub.c:274
    657e:	4285      	cmp	r5, r0
/home/yin/imx-optee/imx-optee-os/lib/libmpa/mpa_addsub.c:268
    6580:	ebaa 7ae2 	sub.w	sl, sl, r2, asr #31
/home/yin/imx-optee/imx-optee-os/lib/libmpa/mpa_addsub.c:274
    6584:	d001      	beq.n	658a <mpa_add+0x40>
/home/yin/imx-optee/imx-optee-os/lib/libmpa/mpa_addsub.c:274 (discriminator 2)
    6586:	4286      	cmp	r6, r0
    6588:	d153      	bne.n	6632 <mpa_add+0xe8>
/home/yin/imx-optee/imx-optee-os/lib/libmpa/mpa_addsub.c:276
    658a:	4659      	mov	r1, fp
    658c:	a805      	add	r0, sp, #20
    658e:	f7ff fc3f 	bl	5e10 <mpa_alloc_static_temp_var>
    6592:	2301      	movs	r3, #1
/home/yin/imx-optee/imx-optee-os/lib/libmpa/mpa_addsub.c:284
    6594:	45b9      	cmp	r9, r7
/home/yin/imx-optee/imx-optee-os/lib/libmpa/mpa_addsub.c:274
    6596:	9302      	str	r3, [sp, #8]
    6598:	f105 0208 	add.w	r2, r5, #8
    659c:	f106 0708 	add.w	r7, r6, #8
/home/yin/imx-optee/imx-optee-os/lib/libmpa/mpa_addsub.c:284
    65a0:	d11b      	bne.n	65da <mpa_add+0x90>
/home/yin/imx-optee/imx-optee-os/lib/libmpa/mpa_addsub.c:286
    65a2:	9805      	ldr	r0, [sp, #20]
    65a4:	4623      	mov	r3, r4
    65a6:	e88d 0480 	stmia.w	sp, {r7, sl}
    65aa:	1d01      	adds	r1, r0, #4
    65ac:	3008      	adds	r0, #8
    65ae:	f7ff fef3 	bl	6398 <__mpa_abs_add>
/home/yin/imx-optee/imx-optee-os/lib/libmpa/mpa_addsub.c:289
    65b2:	f1b9 3fff 	cmp.w	r9, #4294967295	; 0xffffffff
    65b6:	d103      	bne.n	65c0 <mpa_add+0x76>
/home/yin/imx-optee/imx-optee-os/lib/libmpa/mpa_addsub.c:305
    65b8:	9a05      	ldr	r2, [sp, #20]
    65ba:	6853      	ldr	r3, [r2, #4]
    65bc:	425b      	negs	r3, r3
    65be:	6053      	str	r3, [r2, #4]
/home/yin/imx-optee/imx-optee-os/lib/libmpa/mpa_addsub.c:324
    65c0:	9905      	ldr	r1, [sp, #20]
    65c2:	4640      	mov	r0, r8
    65c4:	f7fd fea6 	bl	4314 <mpa_copy>
/home/yin/imx-optee/imx-optee-os/lib/libmpa/mpa_addsub.c:325
    65c8:	9b02      	ldr	r3, [sp, #8]
    65ca:	b11b      	cbz	r3, 65d4 <mpa_add+0x8a>
/home/yin/imx-optee/imx-optee-os/lib/libmpa/mpa_addsub.c:326
    65cc:	4659      	mov	r1, fp
    65ce:	a805      	add	r0, sp, #20
    65d0:	f7ff fc23 	bl	5e1a <mpa_free_static_temp_var>
/home/yin/imx-optee/imx-optee-os/lib/libmpa/mpa_addsub.c:327
    65d4:	b007      	add	sp, #28
    65d6:	e8bd 8ff0 	ldmia.w	sp!, {r4, r5, r6, r7, r8, r9, sl, fp, pc}
/home/yin/imx-optee/imx-optee-os/lib/libmpa/mpa_addsub.c:293
    65da:	f1b9 0f01 	cmp.w	r9, #1
    65de:	9203      	str	r2, [sp, #12]
/home/yin/imx-optee/imx-optee-os/lib/libmpa/mpa_addsub.c:294
    65e0:	4631      	mov	r1, r6
    65e2:	4628      	mov	r0, r5
/home/yin/imx-optee/imx-optee-os/lib/libmpa/mpa_addsub.c:293
    65e4:	d117      	bne.n	6616 <mpa_add+0xcc>
/home/yin/imx-optee/imx-optee-os/lib/libmpa/mpa_addsub.c:294
    65e6:	f000 f99a 	bl	691e <__mpa_abs_greater_than>
    65ea:	9d05      	ldr	r5, [sp, #20]
    65ec:	9a03      	ldr	r2, [sp, #12]
    65ee:	b140      	cbz	r0, 6602 <mpa_add+0xb8>
/home/yin/imx-optee/imx-optee-os/lib/libmpa/mpa_addsub.c:298
    65f0:	4623      	mov	r3, r4
    65f2:	e88d 0480 	stmia.w	sp, {r7, sl}
/home/yin/imx-optee/imx-optee-os/lib/libmpa/mpa_addsub.c:318
    65f6:	1d29      	adds	r1, r5, #4
    65f8:	f105 0008 	add.w	r0, r5, #8
    65fc:	f7ff ff5b 	bl	64b6 <__mpa_abs_sub>
    6600:	e7de      	b.n	65c0 <mpa_add+0x76>
/home/yin/imx-optee/imx-optee-os/lib/libmpa/mpa_addsub.c:303
    6602:	e88d 0014 	stmia.w	sp, {r2, r4}
    6606:	4653      	mov	r3, sl
    6608:	463a      	mov	r2, r7
    660a:	1d29      	adds	r1, r5, #4
    660c:	f105 0008 	add.w	r0, r5, #8
    6610:	f7ff ff51 	bl	64b6 <__mpa_abs_sub>
    6614:	e7d0      	b.n	65b8 <mpa_add+0x6e>
/home/yin/imx-optee/imx-optee-os/lib/libmpa/mpa_addsub.c:309
    6616:	f000 f982 	bl	691e <__mpa_abs_greater_than>
    661a:	9d05      	ldr	r5, [sp, #20]
    661c:	9a03      	ldr	r2, [sp, #12]
    661e:	b118      	cbz	r0, 6628 <mpa_add+0xde>
/home/yin/imx-optee/imx-optee-os/lib/libmpa/mpa_addsub.c:313
    6620:	e88d 0480 	stmia.w	sp, {r7, sl}
    6624:	4623      	mov	r3, r4
    6626:	e7f0      	b.n	660a <mpa_add+0xc0>
/home/yin/imx-optee/imx-optee-os/lib/libmpa/mpa_addsub.c:318
    6628:	e88d 0014 	stmia.w	sp, {r2, r4}
    662c:	4653      	mov	r3, sl
    662e:	463a      	mov	r2, r7
    6630:	e7e1      	b.n	65f6 <mpa_add+0xac>
/home/yin/imx-optee/imx-optee-os/lib/libmpa/mpa_addsub.c:278
    6632:	9005      	str	r0, [sp, #20]
/home/yin/imx-optee/imx-optee-os/lib/libmpa/mpa_addsub.c:274
    6634:	2300      	movs	r3, #0
    6636:	e7ad      	b.n	6594 <mpa_add+0x4a>

00006638 <mpa_sub>:
mpa_sub():
/home/yin/imx-optee/imx-optee-os/lib/libmpa/mpa_addsub.c:337
    6638:	e92d 4ff0 	stmdb	sp!, {r4, r5, r6, r7, r8, r9, sl, fp, lr}
    663c:	469b      	mov	fp, r3
/home/yin/imx-optee/imx-optee-os/lib/libmpa/mpa_addsub.c:345
    663e:	684b      	ldr	r3, [r1, #4]
/home/yin/imx-optee/imx-optee-os/lib/libmpa/mpa_addsub.c:337
    6640:	4688      	mov	r8, r1
    6642:	b087      	sub	sp, #28
    6644:	4681      	mov	r9, r0
/home/yin/imx-optee/imx-optee-os/lib/libmpa/mpa_addsub.c:346
    6646:	6851      	ldr	r1, [r2, #4]
/home/yin/imx-optee/imx-optee-os/lib/libmpa/mpa_addsub.c:348
    6648:	2b00      	cmp	r3, #0
/home/yin/imx-optee/imx-optee-os/lib/libmpa/mpa_addsub.c:345
    664a:	ea83 74e3 	eor.w	r4, r3, r3, asr #31
    664e:	eba4 74e3 	sub.w	r4, r4, r3, asr #31
/home/yin/imx-optee/imx-optee-os/lib/libmpa/mpa_addsub.c:348
    6652:	bfac      	ite	ge
    6654:	2301      	movge	r3, #1
    6656:	f04f 33ff 	movlt.w	r3, #4294967295	; 0xffffffff
/home/yin/imx-optee/imx-optee-os/lib/libmpa/mpa_addsub.c:346
    665a:	ea81 75e1 	eor.w	r5, r1, r1, asr #31
/home/yin/imx-optee/imx-optee-os/lib/libmpa/mpa_addsub.c:349
    665e:	2900      	cmp	r1, #0
    6660:	bfac      	ite	ge
    6662:	2601      	movge	r6, #1
    6664:	f04f 36ff 	movlt.w	r6, #4294967295	; 0xffffffff
/home/yin/imx-optee/imx-optee-os/lib/libmpa/mpa_addsub.c:352
    6668:	4580      	cmp	r8, r0
/home/yin/imx-optee/imx-optee-os/lib/libmpa/mpa_addsub.c:346
    666a:	eba5 75e1 	sub.w	r5, r5, r1, asr #31
/home/yin/imx-optee/imx-optee-os/lib/libmpa/mpa_addsub.c:352
    666e:	d001      	beq.n	6674 <mpa_sub+0x3c>
/home/yin/imx-optee/imx-optee-os/lib/libmpa/mpa_addsub.c:352 (discriminator 2)
    6670:	4282      	cmp	r2, r0
    6672:	d15f      	bne.n	6734 <mpa_sub+0xfc>
/home/yin/imx-optee/imx-optee-os/lib/libmpa/mpa_addsub.c:354
    6674:	4659      	mov	r1, fp
    6676:	a805      	add	r0, sp, #20
    6678:	9203      	str	r2, [sp, #12]
    667a:	f04f 0a01 	mov.w	sl, #1
    667e:	9302      	str	r3, [sp, #8]
    6680:	f7ff fbc6 	bl	5e10 <mpa_alloc_static_temp_var>
    6684:	9b02      	ldr	r3, [sp, #8]
    6686:	9a03      	ldr	r2, [sp, #12]
/home/yin/imx-optee/imx-optee-os/lib/libmpa/mpa_addsub.c:362
    6688:	42b3      	cmp	r3, r6
    668a:	f102 0708 	add.w	r7, r2, #8
    668e:	f108 0608 	add.w	r6, r8, #8
    6692:	d13e      	bne.n	6712 <mpa_sub+0xda>
/home/yin/imx-optee/imx-optee-os/lib/libmpa/mpa_addsub.c:363
    6694:	2b01      	cmp	r3, #1
/home/yin/imx-optee/imx-optee-os/lib/libmpa/mpa_addsub.c:364
    6696:	4611      	mov	r1, r2
    6698:	4640      	mov	r0, r8
/home/yin/imx-optee/imx-optee-os/lib/libmpa/mpa_addsub.c:363
    669a:	d12b      	bne.n	66f4 <mpa_sub+0xbc>
/home/yin/imx-optee/imx-optee-os/lib/libmpa/mpa_addsub.c:364
    669c:	f000 f93f 	bl	691e <__mpa_abs_greater_than>
    66a0:	f8dd c014 	ldr.w	ip, [sp, #20]
    66a4:	b1b8      	cbz	r0, 66d6 <mpa_sub+0x9e>
/home/yin/imx-optee/imx-optee-os/lib/libmpa/mpa_addsub.c:367
    66a6:	4623      	mov	r3, r4
    66a8:	4632      	mov	r2, r6
    66aa:	9501      	str	r5, [sp, #4]
    66ac:	9700      	str	r7, [sp, #0]
/home/yin/imx-optee/imx-optee-os/lib/libmpa/mpa_addsub.c:387
    66ae:	f10c 0104 	add.w	r1, ip, #4
    66b2:	f10c 0008 	add.w	r0, ip, #8
    66b6:	f7ff fefe 	bl	64b6 <__mpa_abs_sub>
/home/yin/imx-optee/imx-optee-os/lib/libmpa/mpa_addsub.c:404
    66ba:	9905      	ldr	r1, [sp, #20]
    66bc:	4648      	mov	r0, r9
    66be:	f7fd fe29 	bl	4314 <mpa_copy>
/home/yin/imx-optee/imx-optee-os/lib/libmpa/mpa_addsub.c:405
    66c2:	f1ba 0f00 	cmp.w	sl, #0
    66c6:	d003      	beq.n	66d0 <mpa_sub+0x98>
/home/yin/imx-optee/imx-optee-os/lib/libmpa/mpa_addsub.c:406
    66c8:	4659      	mov	r1, fp
    66ca:	a805      	add	r0, sp, #20
    66cc:	f7ff fba5 	bl	5e1a <mpa_free_static_temp_var>
/home/yin/imx-optee/imx-optee-os/lib/libmpa/mpa_addsub.c:407
    66d0:	b007      	add	sp, #28
    66d2:	e8bd 8ff0 	ldmia.w	sp!, {r4, r5, r6, r7, r8, r9, sl, fp, pc}
/home/yin/imx-optee/imx-optee-os/lib/libmpa/mpa_addsub.c:371
    66d6:	462b      	mov	r3, r5
    66d8:	463a      	mov	r2, r7
    66da:	9401      	str	r4, [sp, #4]
    66dc:	9600      	str	r6, [sp, #0]
/home/yin/imx-optee/imx-optee-os/lib/libmpa/mpa_addsub.c:382
    66de:	f10c 0104 	add.w	r1, ip, #4
    66e2:	f10c 0008 	add.w	r0, ip, #8
    66e6:	f7ff fee6 	bl	64b6 <__mpa_abs_sub>
/home/yin/imx-optee/imx-optee-os/lib/libmpa/mpa_addsub.c:400
    66ea:	9a05      	ldr	r2, [sp, #20]
    66ec:	6853      	ldr	r3, [r2, #4]
    66ee:	425b      	negs	r3, r3
    66f0:	6053      	str	r3, [r2, #4]
    66f2:	e7e2      	b.n	66ba <mpa_sub+0x82>
/home/yin/imx-optee/imx-optee-os/lib/libmpa/mpa_addsub.c:378
    66f4:	f000 f913 	bl	691e <__mpa_abs_greater_than>
    66f8:	f8dd c014 	ldr.w	ip, [sp, #20]
    66fc:	b120      	cbz	r0, 6708 <mpa_sub+0xd0>
/home/yin/imx-optee/imx-optee-os/lib/libmpa/mpa_addsub.c:382
    66fe:	9501      	str	r5, [sp, #4]
    6700:	4623      	mov	r3, r4
    6702:	9700      	str	r7, [sp, #0]
    6704:	4632      	mov	r2, r6
    6706:	e7ea      	b.n	66de <mpa_sub+0xa6>
/home/yin/imx-optee/imx-optee-os/lib/libmpa/mpa_addsub.c:387
    6708:	9401      	str	r4, [sp, #4]
    670a:	462b      	mov	r3, r5
    670c:	9600      	str	r6, [sp, #0]
    670e:	463a      	mov	r2, r7
    6710:	e7cd      	b.n	66ae <mpa_sub+0x76>
    6712:	9805      	ldr	r0, [sp, #20]
/home/yin/imx-optee/imx-optee-os/lib/libmpa/mpa_addsub.c:392
    6714:	2b01      	cmp	r3, #1
/home/yin/imx-optee/imx-optee-os/lib/libmpa/mpa_addsub.c:394
    6716:	9501      	str	r5, [sp, #4]
    6718:	4623      	mov	r3, r4
    671a:	9700      	str	r7, [sp, #0]
    671c:	4632      	mov	r2, r6
    671e:	f100 0104 	add.w	r1, r0, #4
    6722:	f100 0008 	add.w	r0, r0, #8
/home/yin/imx-optee/imx-optee-os/lib/libmpa/mpa_addsub.c:392
    6726:	d102      	bne.n	672e <mpa_sub+0xf6>
/home/yin/imx-optee/imx-optee-os/lib/libmpa/mpa_addsub.c:394
    6728:	f7ff fe36 	bl	6398 <__mpa_abs_add>
    672c:	e7c5      	b.n	66ba <mpa_sub+0x82>
/home/yin/imx-optee/imx-optee-os/lib/libmpa/mpa_addsub.c:398
    672e:	f7ff fe33 	bl	6398 <__mpa_abs_add>
    6732:	e7da      	b.n	66ea <mpa_sub+0xb2>
/home/yin/imx-optee/imx-optee-os/lib/libmpa/mpa_addsub.c:356
    6734:	9005      	str	r0, [sp, #20]
/home/yin/imx-optee/imx-optee-os/lib/libmpa/mpa_addsub.c:352
    6736:	f04f 0a00 	mov.w	sl, #0
    673a:	e7a5      	b.n	6688 <mpa_sub+0x50>

0000673c <mpa_neg>:
mpa_neg():
/home/yin/imx-optee/imx-optee-os/lib/libmpa/mpa_addsub.c:416
    673c:	b510      	push	{r4, lr}
    673e:	4604      	mov	r4, r0
/home/yin/imx-optee/imx-optee-os/lib/libmpa/mpa_addsub.c:417
    6740:	f7fd fde8 	bl	4314 <mpa_copy>
/home/yin/imx-optee/imx-optee-os/lib/libmpa/mpa_addsub.c:418
    6744:	6863      	ldr	r3, [r4, #4]
    6746:	425b      	negs	r3, r3
    6748:	6063      	str	r3, [r4, #4]
    674a:	bd10      	pop	{r4, pc}

0000674c <mpa_add_word>:
mpa_add_word():
/home/yin/imx-optee/imx-optee-os/lib/libmpa/mpa_addsub.c:428
    674c:	e92d 41f0 	stmdb	sp!, {r4, r5, r6, r7, r8, lr}
    6750:	b086      	sub	sp, #24
    6752:	4605      	mov	r5, r0
    6754:	460c      	mov	r4, r1
    6756:	461f      	mov	r7, r3
    6758:	9203      	str	r2, [sp, #12]
/home/yin/imx-optee/imx-optee-os/lib/libmpa/mpa_addsub.c:434
    675a:	b922      	cbnz	r2, 6766 <mpa_add_word+0x1a>
/home/yin/imx-optee/imx-optee-os/lib/libmpa/mpa_addsub.c:435
    675c:	f7fd fdda 	bl	4314 <mpa_copy>
/home/yin/imx-optee/imx-optee-os/lib/libmpa/mpa_addsub.c:478
    6760:	b006      	add	sp, #24
    6762:	e8bd 81f0 	ldmia.w	sp!, {r4, r5, r6, r7, r8, pc}
/home/yin/imx-optee/imx-optee-os/lib/libmpa/mpa_addsub.c:439
    6766:	684e      	ldr	r6, [r1, #4]
    6768:	2e00      	cmp	r6, #0
    676a:	d103      	bne.n	6774 <mpa_add_word+0x28>
/home/yin/imx-optee/imx-optee-os/lib/libmpa/mpa_addsub.c:440
    676c:	2301      	movs	r3, #1
/home/yin/imx-optee/imx-optee-os/lib/libmpa/mpa_addsub.c:441
    676e:	6082      	str	r2, [r0, #8]
/home/yin/imx-optee/imx-optee-os/lib/libmpa/mpa_addsub.c:440
    6770:	6043      	str	r3, [r0, #4]
/home/yin/imx-optee/imx-optee-os/lib/libmpa/mpa_addsub.c:442
    6772:	e7f5      	b.n	6760 <mpa_add_word+0x14>
/home/yin/imx-optee/imx-optee-os/lib/libmpa/mpa_addsub.c:445
    6774:	bfb4      	ite	lt
    6776:	f04f 38ff 	movlt.w	r8, #4294967295	; 0xffffffff
    677a:	f04f 0801 	movge.w	r8, #1
/home/yin/imx-optee/imx-optee-os/lib/libmpa/mpa_addsub.c:446
    677e:	2e00      	cmp	r6, #0
    6780:	bfb8      	it	lt
    6782:	4276      	neglt	r6, r6
/home/yin/imx-optee/imx-optee-os/lib/libmpa/mpa_addsub.c:450
    6784:	4281      	cmp	r1, r0
    6786:	d11d      	bne.n	67c4 <mpa_add_word+0x78>
/home/yin/imx-optee/imx-optee-os/lib/libmpa/mpa_addsub.c:451
    6788:	4619      	mov	r1, r3
    678a:	a805      	add	r0, sp, #20
    678c:	f7ff fb40 	bl	5e10 <mpa_alloc_static_temp_var>
/home/yin/imx-optee/imx-optee-os/lib/libmpa/mpa_addsub.c:456
    6790:	f1b8 0f01 	cmp.w	r8, #1
    6794:	9805      	ldr	r0, [sp, #20]
    6796:	d117      	bne.n	67c8 <mpa_add_word+0x7c>
/home/yin/imx-optee/imx-optee-os/lib/libmpa/mpa_addsub.c:458
    6798:	ab03      	add	r3, sp, #12
    679a:	1d01      	adds	r1, r0, #4
    679c:	9300      	str	r3, [sp, #0]
    679e:	f104 0208 	add.w	r2, r4, #8
    67a2:	f8cd 8004 	str.w	r8, [sp, #4]
    67a6:	4633      	mov	r3, r6
    67a8:	3008      	adds	r0, #8
    67aa:	f7ff fdf5 	bl	6398 <__mpa_abs_add>
/home/yin/imx-optee/imx-optee-os/lib/libmpa/mpa_addsub.c:475
    67ae:	9905      	ldr	r1, [sp, #20]
    67b0:	4628      	mov	r0, r5
    67b2:	f7fd fdaf 	bl	4314 <mpa_copy>
/home/yin/imx-optee/imx-optee-os/lib/libmpa/mpa_addsub.c:476
    67b6:	42ac      	cmp	r4, r5
    67b8:	d1d2      	bne.n	6760 <mpa_add_word+0x14>
/home/yin/imx-optee/imx-optee-os/lib/libmpa/mpa_addsub.c:477
    67ba:	4639      	mov	r1, r7
    67bc:	a805      	add	r0, sp, #20
    67be:	f7ff fb2c 	bl	5e1a <mpa_free_static_temp_var>
    67c2:	e7cd      	b.n	6760 <mpa_add_word+0x14>
/home/yin/imx-optee/imx-optee-os/lib/libmpa/mpa_addsub.c:453
    67c4:	9005      	str	r0, [sp, #20]
    67c6:	e7e3      	b.n	6790 <mpa_add_word+0x44>
/home/yin/imx-optee/imx-optee-os/lib/libmpa/mpa_addsub.c:461
    67c8:	6863      	ldr	r3, [r4, #4]
    67ca:	2b00      	cmp	r3, #0
    67cc:	bfb8      	it	lt
    67ce:	425b      	neglt	r3, r3
    67d0:	2b01      	cmp	r3, #1
    67d2:	dc03      	bgt.n	67dc <mpa_add_word+0x90>
/home/yin/imx-optee/imx-optee-os/lib/libmpa/mpa_addsub.c:461 (discriminator 1)
    67d4:	68a3      	ldr	r3, [r4, #8]
    67d6:	9a03      	ldr	r2, [sp, #12]
    67d8:	4293      	cmp	r3, r2
    67da:	d90f      	bls.n	67fc <mpa_add_word+0xb0>
/home/yin/imx-optee/imx-optee-os/lib/libmpa/mpa_addsub.c:465
    67dc:	2301      	movs	r3, #1
    67de:	f104 0208 	add.w	r2, r4, #8
    67e2:	9301      	str	r3, [sp, #4]
    67e4:	ab03      	add	r3, sp, #12
    67e6:	9300      	str	r3, [sp, #0]
    67e8:	1d01      	adds	r1, r0, #4
    67ea:	4633      	mov	r3, r6
    67ec:	3008      	adds	r0, #8
    67ee:	f7ff fe62 	bl	64b6 <__mpa_abs_sub>
/home/yin/imx-optee/imx-optee-os/lib/libmpa/mpa_addsub.c:467
    67f2:	9a05      	ldr	r2, [sp, #20]
    67f4:	6853      	ldr	r3, [r2, #4]
    67f6:	425b      	negs	r3, r3
    67f8:	6053      	str	r3, [r2, #4]
    67fa:	e7d8      	b.n	67ae <mpa_add_word+0x62>
/home/yin/imx-optee/imx-optee-os/lib/libmpa/mpa_addsub.c:470
    67fc:	1ad3      	subs	r3, r2, r3
    67fe:	6083      	str	r3, [r0, #8]
/home/yin/imx-optee/imx-optee-os/lib/libmpa/mpa_addsub.c:471
    6800:	3300      	adds	r3, #0
    6802:	bf18      	it	ne
    6804:	2301      	movne	r3, #1
    6806:	6043      	str	r3, [r0, #4]
    6808:	e7d1      	b.n	67ae <mpa_add_word+0x62>

0000680a <mpa_sub_word>:
mpa_sub_word():
/home/yin/imx-optee/imx-optee-os/lib/libmpa/mpa_addsub.c:487
    680a:	e92d 41f0 	stmdb	sp!, {r4, r5, r6, r7, r8, lr}
    680e:	b086      	sub	sp, #24
    6810:	4605      	mov	r5, r0
    6812:	460c      	mov	r4, r1
    6814:	461e      	mov	r6, r3
    6816:	9203      	str	r2, [sp, #12]
/home/yin/imx-optee/imx-optee-os/lib/libmpa/mpa_addsub.c:493
    6818:	b922      	cbnz	r2, 6824 <mpa_sub_word+0x1a>
/home/yin/imx-optee/imx-optee-os/lib/libmpa/mpa_addsub.c:494
    681a:	f7fd fd7b 	bl	4314 <mpa_copy>
/home/yin/imx-optee/imx-optee-os/lib/libmpa/mpa_addsub.c:539
    681e:	b006      	add	sp, #24
    6820:	e8bd 81f0 	ldmia.w	sp!, {r4, r5, r6, r7, r8, pc}
/home/yin/imx-optee/imx-optee-os/lib/libmpa/mpa_addsub.c:498
    6824:	684f      	ldr	r7, [r1, #4]
    6826:	2f00      	cmp	r7, #0
    6828:	d104      	bne.n	6834 <mpa_sub_word+0x2a>
/home/yin/imx-optee/imx-optee-os/lib/libmpa/mpa_addsub.c:499
    682a:	f04f 33ff 	mov.w	r3, #4294967295	; 0xffffffff
/home/yin/imx-optee/imx-optee-os/lib/libmpa/mpa_addsub.c:500
    682e:	6082      	str	r2, [r0, #8]
/home/yin/imx-optee/imx-optee-os/lib/libmpa/mpa_addsub.c:499
    6830:	6043      	str	r3, [r0, #4]
/home/yin/imx-optee/imx-optee-os/lib/libmpa/mpa_addsub.c:501
    6832:	e7f4      	b.n	681e <mpa_sub_word+0x14>
/home/yin/imx-optee/imx-optee-os/lib/libmpa/mpa_addsub.c:504
    6834:	bfb4      	ite	lt
    6836:	f04f 38ff 	movlt.w	r8, #4294967295	; 0xffffffff
    683a:	f04f 0801 	movge.w	r8, #1
/home/yin/imx-optee/imx-optee-os/lib/libmpa/mpa_addsub.c:505
    683e:	2f00      	cmp	r7, #0
    6840:	bfb8      	it	lt
    6842:	427f      	neglt	r7, r7
/home/yin/imx-optee/imx-optee-os/lib/libmpa/mpa_addsub.c:509
    6844:	4281      	cmp	r1, r0
    6846:	d127      	bne.n	6898 <mpa_sub_word+0x8e>
/home/yin/imx-optee/imx-optee-os/lib/libmpa/mpa_addsub.c:510
    6848:	4619      	mov	r1, r3
    684a:	a805      	add	r0, sp, #20
    684c:	f7ff fae0 	bl	5e10 <mpa_alloc_static_temp_var>
/home/yin/imx-optee/imx-optee-os/lib/libmpa/mpa_addsub.c:522
    6850:	f1b8 0f01 	cmp.w	r8, #1
    6854:	9805      	ldr	r0, [sp, #20]
    6856:	d129      	bne.n	68ac <mpa_sub_word+0xa2>
/home/yin/imx-optee/imx-optee-os/lib/libmpa/mpa_addsub.c:523
    6858:	6863      	ldr	r3, [r4, #4]
    685a:	2b00      	cmp	r3, #0
    685c:	bfb8      	it	lt
    685e:	425b      	neglt	r3, r3
    6860:	2b01      	cmp	r3, #1
    6862:	dc03      	bgt.n	686c <mpa_sub_word+0x62>
/home/yin/imx-optee/imx-optee-os/lib/libmpa/mpa_addsub.c:523 (discriminator 1)
    6864:	68a3      	ldr	r3, [r4, #8]
    6866:	9a03      	ldr	r2, [sp, #12]
    6868:	4293      	cmp	r3, r2
    686a:	d917      	bls.n	689c <mpa_sub_word+0x92>
/home/yin/imx-optee/imx-optee-os/lib/libmpa/mpa_addsub.c:524
    686c:	2301      	movs	r3, #1
    686e:	1d01      	adds	r1, r0, #4
    6870:	9301      	str	r3, [sp, #4]
    6872:	ab03      	add	r3, sp, #12
    6874:	9300      	str	r3, [sp, #0]
    6876:	f104 0208 	add.w	r2, r4, #8
    687a:	463b      	mov	r3, r7
    687c:	3008      	adds	r0, #8
    687e:	f7ff fe1a 	bl	64b6 <__mpa_abs_sub>
/home/yin/imx-optee/imx-optee-os/lib/libmpa/mpa_addsub.c:536
    6882:	9905      	ldr	r1, [sp, #20]
    6884:	4628      	mov	r0, r5
    6886:	f7fd fd45 	bl	4314 <mpa_copy>
/home/yin/imx-optee/imx-optee-os/lib/libmpa/mpa_addsub.c:537
    688a:	42ac      	cmp	r4, r5
    688c:	d1c7      	bne.n	681e <mpa_sub_word+0x14>
/home/yin/imx-optee/imx-optee-os/lib/libmpa/mpa_addsub.c:538
    688e:	4631      	mov	r1, r6
    6890:	a805      	add	r0, sp, #20
    6892:	f7ff fac2 	bl	5e1a <mpa_free_static_temp_var>
    6896:	e7c2      	b.n	681e <mpa_sub_word+0x14>
/home/yin/imx-optee/imx-optee-os/lib/libmpa/mpa_addsub.c:512
    6898:	9005      	str	r0, [sp, #20]
    689a:	e7d9      	b.n	6850 <mpa_sub_word+0x46>
/home/yin/imx-optee/imx-optee-os/lib/libmpa/mpa_addsub.c:527
    689c:	1ad3      	subs	r3, r2, r3
    689e:	6083      	str	r3, [r0, #8]
/home/yin/imx-optee/imx-optee-os/lib/libmpa/mpa_addsub.c:528
    68a0:	3300      	adds	r3, #0
    68a2:	bf18      	it	ne
    68a4:	2301      	movne	r3, #1
    68a6:	425b      	negs	r3, r3
    68a8:	6043      	str	r3, [r0, #4]
    68aa:	e7ea      	b.n	6882 <mpa_sub_word+0x78>
/home/yin/imx-optee/imx-optee-os/lib/libmpa/mpa_addsub.c:531
    68ac:	2301      	movs	r3, #1
    68ae:	f104 0208 	add.w	r2, r4, #8
    68b2:	9301      	str	r3, [sp, #4]
    68b4:	ab03      	add	r3, sp, #12
    68b6:	9300      	str	r3, [sp, #0]
    68b8:	1d01      	adds	r1, r0, #4
    68ba:	463b      	mov	r3, r7
    68bc:	3008      	adds	r0, #8
    68be:	f7ff fd6b 	bl	6398 <__mpa_abs_add>
/home/yin/imx-optee/imx-optee-os/lib/libmpa/mpa_addsub.c:533
    68c2:	9a05      	ldr	r2, [sp, #20]
    68c4:	6853      	ldr	r3, [r2, #4]
    68c6:	425b      	negs	r3, r3
    68c8:	6053      	str	r3, [r2, #4]
    68ca:	e7da      	b.n	6882 <mpa_sub_word+0x78>

000068cc <__mpa_abs_cmp>:
__mpa_abs_cmp():
/home/yin/imx-optee/imx-optee-os/lib/libmpa/mpa_cmp.c:26
    68cc:	4288      	cmp	r0, r1
/home/yin/imx-optee/imx-optee-os/lib/libmpa/mpa_cmp.c:21
    68ce:	b530      	push	{r4, r5, lr}
/home/yin/imx-optee/imx-optee-os/lib/libmpa/mpa_cmp.c:26
    68d0:	d016      	beq.n	6900 <__mpa_abs_cmp+0x34>
/home/yin/imx-optee/imx-optee-os/lib/libmpa/mpa_cmp.c:30
    68d2:	6844      	ldr	r4, [r0, #4]
    68d4:	684b      	ldr	r3, [r1, #4]
    68d6:	ea84 72e4 	eor.w	r2, r4, r4, asr #31
    68da:	ea83 75e3 	eor.w	r5, r3, r3, asr #31
    68de:	eba2 72e4 	sub.w	r2, r2, r4, asr #31
    68e2:	eba5 75e3 	sub.w	r5, r5, r3, asr #31
    68e6:	42aa      	cmp	r2, r5
    68e8:	d001      	beq.n	68ee <__mpa_abs_cmp+0x22>
/home/yin/imx-optee/imx-optee-os/lib/libmpa/mpa_cmp.c:31
    68ea:	1b50      	subs	r0, r2, r5
    68ec:	bd30      	pop	{r4, r5, pc}
/home/yin/imx-optee/imx-optee-os/lib/libmpa/mpa_cmp.c:33
    68ee:	b904      	cbnz	r4, 68f2 <__mpa_abs_cmp+0x26>
/home/yin/imx-optee/imx-optee-os/lib/libmpa/mpa_cmp.c:33 (discriminator 1)
    68f0:	b133      	cbz	r3, 6900 <__mpa_abs_cmp+0x34>
/home/yin/imx-optee/imx-optee-os/lib/libmpa/mpa_cmp.c:37
    68f2:	1e53      	subs	r3, r2, #1
    68f4:	0092      	lsls	r2, r2, #2
    68f6:	3208      	adds	r2, #8
    68f8:	4410      	add	r0, r2
    68fa:	440a      	add	r2, r1
/home/yin/imx-optee/imx-optee-os/lib/libmpa/mpa_cmp.c:39 (discriminator 1)
    68fc:	1c59      	adds	r1, r3, #1
    68fe:	d101      	bne.n	6904 <__mpa_abs_cmp+0x38>
/home/yin/imx-optee/imx-optee-os/lib/libmpa/mpa_cmp.c:27
    6900:	2000      	movs	r0, #0
    6902:	bd30      	pop	{r4, r5, pc}
/home/yin/imx-optee/imx-optee-os/lib/libmpa/mpa_cmp.c:40
    6904:	f850 4d04 	ldr.w	r4, [r0, #-4]!
/home/yin/imx-optee/imx-optee-os/lib/libmpa/mpa_cmp.c:41
    6908:	3b01      	subs	r3, #1
/home/yin/imx-optee/imx-optee-os/lib/libmpa/mpa_cmp.c:40
    690a:	f852 1d04 	ldr.w	r1, [r2, #-4]!
/home/yin/imx-optee/imx-optee-os/lib/libmpa/mpa_cmp.c:39
    690e:	428c      	cmp	r4, r1
    6910:	d0f4      	beq.n	68fc <__mpa_abs_cmp+0x30>
/home/yin/imx-optee/imx-optee-os/lib/libmpa/mpa_cmp.c:46
    6912:	d901      	bls.n	6918 <__mpa_abs_cmp+0x4c>
    6914:	2001      	movs	r0, #1
/home/yin/imx-optee/imx-optee-os/lib/libmpa/mpa_cmp.c:47
    6916:	bd30      	pop	{r4, r5, pc}
/home/yin/imx-optee/imx-optee-os/lib/libmpa/mpa_cmp.c:46
    6918:	f04f 30ff 	mov.w	r0, #4294967295	; 0xffffffff
    691c:	bd30      	pop	{r4, r5, pc}

0000691e <__mpa_abs_greater_than>:
__mpa_abs_greater_than():
/home/yin/imx-optee/imx-optee-os/lib/libmpa/mpa_cmp.c:55
    691e:	b508      	push	{r3, lr}
/home/yin/imx-optee/imx-optee-os/lib/libmpa/mpa_cmp.c:56
    6920:	f7ff ffd4 	bl	68cc <__mpa_abs_cmp>
/home/yin/imx-optee/imx-optee-os/lib/libmpa/mpa_cmp.c:57
    6924:	2800      	cmp	r0, #0
    6926:	bfd4      	ite	le
    6928:	2000      	movle	r0, #0
    692a:	2001      	movgt	r0, #1
    692c:	bd08      	pop	{r3, pc}

0000692e <__mpa_abs_less_than>:
__mpa_abs_less_than():
/home/yin/imx-optee/imx-optee-os/lib/libmpa/mpa_cmp.c:65
    692e:	b508      	push	{r3, lr}
/home/yin/imx-optee/imx-optee-os/lib/libmpa/mpa_cmp.c:66
    6930:	f7ff ffcc 	bl	68cc <__mpa_abs_cmp>
/home/yin/imx-optee/imx-optee-os/lib/libmpa/mpa_cmp.c:67
    6934:	0fc0      	lsrs	r0, r0, #31
    6936:	bd08      	pop	{r3, pc}

00006938 <mpa_cmp>:
mpa_cmp():
/home/yin/imx-optee/imx-optee-os/lib/libmpa/mpa_cmp.c:88
    6938:	6842      	ldr	r2, [r0, #4]
/home/yin/imx-optee/imx-optee-os/lib/libmpa/mpa_cmp.c:83
    693a:	b538      	push	{r3, r4, r5, lr}
/home/yin/imx-optee/imx-optee-os/lib/libmpa/mpa_cmp.c:89
    693c:	684b      	ldr	r3, [r1, #4]
/home/yin/imx-optee/imx-optee-os/lib/libmpa/mpa_cmp.c:88
    693e:	2a00      	cmp	r2, #0
    6940:	bfac      	ite	ge
    6942:	2401      	movge	r4, #1
    6944:	f04f 34ff 	movlt.w	r4, #4294967295	; 0xffffffff
/home/yin/imx-optee/imx-optee-os/lib/libmpa/mpa_cmp.c:89
    6948:	2b00      	cmp	r3, #0
    694a:	bfac      	ite	ge
    694c:	2501      	movge	r5, #1
    694e:	f04f 35ff 	movlt.w	r5, #4294967295	; 0xffffffff
    6952:	42ac      	cmp	r4, r5
    6954:	d104      	bne.n	6960 <mpa_cmp+0x28>
/home/yin/imx-optee/imx-optee-os/lib/libmpa/mpa_cmp.c:93
    6956:	b92a      	cbnz	r2, 6964 <mpa_cmp+0x2c>
/home/yin/imx-optee/imx-optee-os/lib/libmpa/mpa_cmp.c:94
    6958:	2b00      	cmp	r3, #0
    695a:	d009      	beq.n	6970 <mpa_cmp+0x38>
/home/yin/imx-optee/imx-optee-os/lib/libmpa/mpa_cmp.c:94 (discriminator 1)
    695c:	da0a      	bge.n	6974 <mpa_cmp+0x3c>
/home/yin/imx-optee/imx-optee-os/lib/libmpa/mpa_cmp.c:94
    695e:	2401      	movs	r4, #1
/home/yin/imx-optee/imx-optee-os/lib/libmpa/mpa_cmp.c:104
    6960:	4620      	mov	r0, r4
    6962:	bd38      	pop	{r3, r4, r5, pc}
/home/yin/imx-optee/imx-optee-os/lib/libmpa/mpa_cmp.c:100
    6964:	f7ff ffb2 	bl	68cc <__mpa_abs_cmp>
/home/yin/imx-optee/imx-optee-os/lib/libmpa/mpa_cmp.c:101
    6968:	2c01      	cmp	r4, #1
    696a:	d006      	beq.n	697a <mpa_cmp+0x42>
/home/yin/imx-optee/imx-optee-os/lib/libmpa/mpa_cmp.c:102
    696c:	4244      	negs	r4, r0
    696e:	e7f7      	b.n	6960 <mpa_cmp+0x28>
/home/yin/imx-optee/imx-optee-os/lib/libmpa/mpa_cmp.c:94
    6970:	461c      	mov	r4, r3
    6972:	e7f5      	b.n	6960 <mpa_cmp+0x28>
    6974:	f04f 34ff 	mov.w	r4, #4294967295	; 0xffffffff
    6978:	e7f2      	b.n	6960 <mpa_cmp+0x28>
/home/yin/imx-optee/imx-optee-os/lib/libmpa/mpa_cmp.c:103
    697a:	4604      	mov	r4, r0
    697c:	e7f0      	b.n	6960 <mpa_cmp+0x28>

0000697e <mpa_cmp_short>:
mpa_cmp_short():
/home/yin/imx-optee/imx-optee-os/lib/libmpa/mpa_cmp.c:122
    697e:	6842      	ldr	r2, [r0, #4]
/home/yin/imx-optee/imx-optee-os/lib/libmpa/mpa_cmp.c:115
    6980:	b510      	push	{r4, lr}
/home/yin/imx-optee/imx-optee-os/lib/libmpa/mpa_cmp.c:122
    6982:	2a00      	cmp	r2, #0
    6984:	db23      	blt.n	69ce <mpa_cmp_short+0x50>
/home/yin/imx-optee/imx-optee-os/lib/libmpa/mpa_cmp.c:123 (discriminator 4)
    6986:	2900      	cmp	r1, #0
    6988:	db1b      	blt.n	69c2 <mpa_cmp_short+0x44>
/home/yin/imx-optee/imx-optee-os/lib/libmpa/mpa_cmp.c:126 (discriminator 4)
    698a:	b932      	cbnz	r2, 699a <mpa_cmp_short+0x1c>
/home/yin/imx-optee/imx-optee-os/lib/libmpa/mpa_cmp.c:127
    698c:	b1b9      	cbz	r1, 69be <mpa_cmp_short+0x40>
/home/yin/imx-optee/imx-optee-os/lib/libmpa/mpa_cmp.c:123
    698e:	2301      	movs	r3, #1
/home/yin/imx-optee/imx-optee-os/lib/libmpa/mpa_cmp.c:144 (discriminator 1)
    6990:	425b      	negs	r3, r3
    6992:	e012      	b.n	69ba <mpa_cmp_short+0x3c>
/home/yin/imx-optee/imx-optee-os/lib/libmpa/mpa_cmp.c:123
    6994:	f04f 33ff 	mov.w	r3, #4294967295	; 0xffffffff
    6998:	e7fa      	b.n	6990 <mpa_cmp_short+0x12>
/home/yin/imx-optee/imx-optee-os/lib/libmpa/mpa_cmp.c:122
    699a:	2301      	movs	r3, #1
/home/yin/imx-optee/imx-optee-os/lib/libmpa/mpa_cmp.c:123
    699c:	2401      	movs	r4, #1
/home/yin/imx-optee/imx-optee-os/lib/libmpa/mpa_cmp.c:130
    699e:	2a00      	cmp	r2, #0
    69a0:	bfb8      	it	lt
    69a2:	4252      	neglt	r2, r2
    69a4:	2a01      	cmp	r2, #1
    69a6:	d108      	bne.n	69ba <mpa_cmp_short+0x3c>
/home/yin/imx-optee/imx-optee-os/lib/libmpa/mpa_cmp.c:134
    69a8:	42a3      	cmp	r3, r4
    69aa:	d106      	bne.n	69ba <mpa_cmp_short+0x3c>
/home/yin/imx-optee/imx-optee-os/lib/libmpa/mpa_cmp.c:141
    69ac:	6882      	ldr	r2, [r0, #8]
/home/yin/imx-optee/imx-optee-os/lib/libmpa/mpa_cmp.c:139
    69ae:	2900      	cmp	r1, #0
    69b0:	bfb8      	it	lt
    69b2:	4249      	neglt	r1, r1
/home/yin/imx-optee/imx-optee-os/lib/libmpa/mpa_cmp.c:141
    69b4:	4291      	cmp	r1, r2
    69b6:	d002      	beq.n	69be <mpa_cmp_short+0x40>
/home/yin/imx-optee/imx-optee-os/lib/libmpa/mpa_cmp.c:144
    69b8:	d2ea      	bcs.n	6990 <mpa_cmp_short+0x12>
/home/yin/imx-optee/imx-optee-os/lib/libmpa/mpa_cmp.c:149
    69ba:	4618      	mov	r0, r3
    69bc:	bd10      	pop	{r4, pc}
/home/yin/imx-optee/imx-optee-os/lib/libmpa/mpa_cmp.c:127
    69be:	2300      	movs	r3, #0
    69c0:	e7fb      	b.n	69ba <mpa_cmp_short+0x3c>
/home/yin/imx-optee/imx-optee-os/lib/libmpa/mpa_cmp.c:126
    69c2:	2a00      	cmp	r2, #0
    69c4:	d0e6      	beq.n	6994 <mpa_cmp_short+0x16>
/home/yin/imx-optee/imx-optee-os/lib/libmpa/mpa_cmp.c:122
    69c6:	2301      	movs	r3, #1
/home/yin/imx-optee/imx-optee-os/lib/libmpa/mpa_cmp.c:123
    69c8:	f04f 34ff 	mov.w	r4, #4294967295	; 0xffffffff
    69cc:	e7e7      	b.n	699e <mpa_cmp_short+0x20>
    69ce:	2900      	cmp	r1, #0
/home/yin/imx-optee/imx-optee-os/lib/libmpa/mpa_cmp.c:122
    69d0:	f04f 33ff 	mov.w	r3, #4294967295	; 0xffffffff
/home/yin/imx-optee/imx-optee-os/lib/libmpa/mpa_cmp.c:123
    69d4:	dae2      	bge.n	699c <mpa_cmp_short+0x1e>
    69d6:	e7f7      	b.n	69c8 <mpa_cmp_short+0x4a>

000069d8 <mpa_init_static>:
mpa_init_static():
/home/yin/imx-optee/imx-optee-os/lib/libmpa/mpa_init.c:13
    69d8:	0089      	lsls	r1, r1, #2
/home/yin/imx-optee/imx-optee-os/lib/libmpa/mpa_init.c:14
    69da:	2300      	movs	r3, #0
    69dc:	6043      	str	r3, [r0, #4]
/home/yin/imx-optee/imx-optee-os/lib/libmpa/mpa_init.c:13
    69de:	3905      	subs	r1, #5
    69e0:	0889      	lsrs	r1, r1, #2
    69e2:	6001      	str	r1, [r0, #0]
/home/yin/imx-optee/imx-optee-os/lib/libmpa/mpa_init.c:15
    69e4:	b101      	cbz	r1, 69e8 <mpa_init_static+0x10>
/home/yin/imx-optee/imx-optee-os/lib/libmpa/mpa_init.c:16
    69e6:	6083      	str	r3, [r0, #8]
    69e8:	4770      	bx	lr

000069ea <mpa_init_static_fmm_context>:
mpa_init_static_fmm_context():
/home/yin/imx-optee/imx-optee-os/lib/libmpa/mpa_init.c:29
    69ea:	0089      	lsls	r1, r1, #2
/home/yin/imx-optee/imx-optee-os/lib/libmpa/mpa_init.c:25
    69ec:	b570      	push	{r4, r5, r6, lr}
/home/yin/imx-optee/imx-optee-os/lib/libmpa/mpa_init.c:32
    69ee:	f100 060c 	add.w	r6, r0, #12
/home/yin/imx-optee/imx-optee-os/lib/libmpa/mpa_init.c:29
    69f2:	f1a1 0409 	sub.w	r4, r1, #9
/home/yin/imx-optee/imx-optee-os/lib/libmpa/mpa_init.c:25
    69f6:	4605      	mov	r5, r0
/home/yin/imx-optee/imx-optee-os/lib/libmpa/mpa_init.c:32
    69f8:	f024 0203 	bic.w	r2, r4, #3
    69fc:	2100      	movs	r1, #0
    69fe:	4630      	mov	r0, r6
    6a00:	f7fe fa8c 	bl	4f1c <memset>
/home/yin/imx-optee/imx-optee-os/lib/libmpa/mpa_init.c:33
    6a04:	08e1      	lsrs	r1, r4, #3
/home/yin/imx-optee/imx-optee-os/lib/libmpa/mpa_init.c:36
    6a06:	2300      	movs	r3, #0
    6a08:	60ab      	str	r3, [r5, #8]
/home/yin/imx-optee/imx-optee-os/lib/libmpa/mpa_init.c:43
    6a0a:	eb06 0281 	add.w	r2, r6, r1, lsl #2
/home/yin/imx-optee/imx-optee-os/lib/libmpa/mpa_init.c:40
    6a0e:	1e88      	subs	r0, r1, #2
/home/yin/imx-optee/imx-optee-os/lib/libmpa/mpa_init.c:38
    6a10:	602e      	str	r6, [r5, #0]
/home/yin/imx-optee/imx-optee-os/lib/libmpa/mpa_init.c:39
    6a12:	60e8      	str	r0, [r5, #12]
/home/yin/imx-optee/imx-optee-os/lib/libmpa/mpa_init.c:41
    6a14:	612b      	str	r3, [r5, #16]
/home/yin/imx-optee/imx-optee-os/lib/libmpa/mpa_init.c:43
    6a16:	606a      	str	r2, [r5, #4]
/home/yin/imx-optee/imx-optee-os/lib/libmpa/mpa_init.c:44
    6a18:	f846 0021 	str.w	r0, [r6, r1, lsl #2]
/home/yin/imx-optee/imx-optee-os/lib/libmpa/mpa_init.c:46
    6a1c:	6053      	str	r3, [r2, #4]
    6a1e:	bd70      	pop	{r4, r5, r6, pc}

00006a20 <mpa_mod>:
mpa_mod():
/home/yin/imx-optee/imx-optee-os/lib/libmpa/mpa_modulus.c:19
    6a20:	b507      	push	{r0, r1, r2, lr}
/home/yin/imx-optee/imx-optee-os/lib/libmpa/mpa_modulus.c:20
    6a22:	9300      	str	r3, [sp, #0]
    6a24:	4613      	mov	r3, r2
    6a26:	460a      	mov	r2, r1
    6a28:	4601      	mov	r1, r0
    6a2a:	2000      	movs	r0, #0
    6a2c:	f7fe fef0 	bl	5810 <mpa_div>
/home/yin/imx-optee/imx-optee-os/lib/libmpa/mpa_modulus.c:21
    6a30:	b003      	add	sp, #12
    6a32:	f85d fb04 	ldr.w	pc, [sp], #4

00006a36 <mpa_add_mod>:
mpa_add_mod():
/home/yin/imx-optee/imx-optee-os/lib/libmpa/mpa_modulus.c:31
    6a36:	e92d 43f0 	stmdb	sp!, {r4, r5, r6, r7, r8, r9, lr}
    6a3a:	b085      	sub	sp, #20
    6a3c:	9d0c      	ldr	r5, [sp, #48]	; 0x30
/home/yin/imx-optee/imx-optee-os/lib/libmpa/mpa_modulus.c:34
    6a3e:	ac03      	add	r4, sp, #12
/home/yin/imx-optee/imx-optee-os/lib/libmpa/mpa_modulus.c:31
    6a40:	4606      	mov	r6, r0
    6a42:	4688      	mov	r8, r1
    6a44:	4691      	mov	r9, r2
/home/yin/imx-optee/imx-optee-os/lib/libmpa/mpa_modulus.c:34
    6a46:	4620      	mov	r0, r4
    6a48:	4629      	mov	r1, r5
/home/yin/imx-optee/imx-optee-os/lib/libmpa/mpa_modulus.c:31
    6a4a:	461f      	mov	r7, r3
/home/yin/imx-optee/imx-optee-os/lib/libmpa/mpa_modulus.c:34
    6a4c:	f7ff f9e0 	bl	5e10 <mpa_alloc_static_temp_var>
/home/yin/imx-optee/imx-optee-os/lib/libmpa/mpa_modulus.c:36
    6a50:	462b      	mov	r3, r5
    6a52:	464a      	mov	r2, r9
    6a54:	4641      	mov	r1, r8
    6a56:	9803      	ldr	r0, [sp, #12]
    6a58:	f7ff fd77 	bl	654a <mpa_add>
/home/yin/imx-optee/imx-optee-os/lib/libmpa/mpa_modulus.c:37
    6a5c:	463b      	mov	r3, r7
    6a5e:	9a03      	ldr	r2, [sp, #12]
    6a60:	4631      	mov	r1, r6
    6a62:	9500      	str	r5, [sp, #0]
    6a64:	2000      	movs	r0, #0
    6a66:	f7fe fed3 	bl	5810 <mpa_div>
/home/yin/imx-optee/imx-optee-os/lib/libmpa/mpa_modulus.c:39
    6a6a:	4629      	mov	r1, r5
    6a6c:	4620      	mov	r0, r4
    6a6e:	f7ff f9d4 	bl	5e1a <mpa_free_static_temp_var>
/home/yin/imx-optee/imx-optee-os/lib/libmpa/mpa_modulus.c:40
    6a72:	b005      	add	sp, #20
    6a74:	e8bd 83f0 	ldmia.w	sp!, {r4, r5, r6, r7, r8, r9, pc}

00006a78 <mpa_sub_mod>:
mpa_sub_mod():
/home/yin/imx-optee/imx-optee-os/lib/libmpa/mpa_modulus.c:50
    6a78:	e92d 43f0 	stmdb	sp!, {r4, r5, r6, r7, r8, r9, lr}
    6a7c:	b085      	sub	sp, #20
    6a7e:	9d0c      	ldr	r5, [sp, #48]	; 0x30
/home/yin/imx-optee/imx-optee-os/lib/libmpa/mpa_modulus.c:53
    6a80:	ac03      	add	r4, sp, #12
/home/yin/imx-optee/imx-optee-os/lib/libmpa/mpa_modulus.c:50
    6a82:	4606      	mov	r6, r0
    6a84:	4688      	mov	r8, r1
    6a86:	4691      	mov	r9, r2
/home/yin/imx-optee/imx-optee-os/lib/libmpa/mpa_modulus.c:53
    6a88:	4620      	mov	r0, r4
    6a8a:	4629      	mov	r1, r5
/home/yin/imx-optee/imx-optee-os/lib/libmpa/mpa_modulus.c:50
    6a8c:	461f      	mov	r7, r3
/home/yin/imx-optee/imx-optee-os/lib/libmpa/mpa_modulus.c:53
    6a8e:	f7ff f9bf 	bl	5e10 <mpa_alloc_static_temp_var>
/home/yin/imx-optee/imx-optee-os/lib/libmpa/mpa_modulus.c:55
    6a92:	462b      	mov	r3, r5
    6a94:	464a      	mov	r2, r9
    6a96:	4641      	mov	r1, r8
    6a98:	9803      	ldr	r0, [sp, #12]
    6a9a:	f7ff fdcd 	bl	6638 <mpa_sub>
/home/yin/imx-optee/imx-optee-os/lib/libmpa/mpa_modulus.c:56
    6a9e:	463b      	mov	r3, r7
    6aa0:	9a03      	ldr	r2, [sp, #12]
    6aa2:	4631      	mov	r1, r6
    6aa4:	9500      	str	r5, [sp, #0]
    6aa6:	2000      	movs	r0, #0
    6aa8:	f7fe feb2 	bl	5810 <mpa_div>
/home/yin/imx-optee/imx-optee-os/lib/libmpa/mpa_modulus.c:58
    6aac:	4629      	mov	r1, r5
    6aae:	4620      	mov	r0, r4
    6ab0:	f7ff f9b3 	bl	5e1a <mpa_free_static_temp_var>
/home/yin/imx-optee/imx-optee-os/lib/libmpa/mpa_modulus.c:59
    6ab4:	b005      	add	sp, #20
    6ab6:	e8bd 83f0 	ldmia.w	sp!, {r4, r5, r6, r7, r8, r9, pc}

00006aba <mpa_mul_mod>:
mpa_mul_mod():
/home/yin/imx-optee/imx-optee-os/lib/libmpa/mpa_modulus.c:69
    6aba:	e92d 43f0 	stmdb	sp!, {r4, r5, r6, r7, r8, r9, lr}
    6abe:	b085      	sub	sp, #20
    6ac0:	9d0c      	ldr	r5, [sp, #48]	; 0x30
/home/yin/imx-optee/imx-optee-os/lib/libmpa/mpa_modulus.c:72
    6ac2:	ac03      	add	r4, sp, #12
/home/yin/imx-optee/imx-optee-os/lib/libmpa/mpa_modulus.c:69
    6ac4:	4606      	mov	r6, r0
    6ac6:	4688      	mov	r8, r1
    6ac8:	4691      	mov	r9, r2
/home/yin/imx-optee/imx-optee-os/lib/libmpa/mpa_modulus.c:72
    6aca:	4620      	mov	r0, r4
    6acc:	4629      	mov	r1, r5
/home/yin/imx-optee/imx-optee-os/lib/libmpa/mpa_modulus.c:69
    6ace:	461f      	mov	r7, r3
/home/yin/imx-optee/imx-optee-os/lib/libmpa/mpa_modulus.c:72
    6ad0:	f7ff f99e 	bl	5e10 <mpa_alloc_static_temp_var>
/home/yin/imx-optee/imx-optee-os/lib/libmpa/mpa_modulus.c:74
    6ad4:	462b      	mov	r3, r5
    6ad6:	464a      	mov	r2, r9
    6ad8:	4641      	mov	r1, r8
    6ada:	9803      	ldr	r0, [sp, #12]
    6adc:	f7ff fa28 	bl	5f30 <mpa_mul>
/home/yin/imx-optee/imx-optee-os/lib/libmpa/mpa_modulus.c:75
    6ae0:	463b      	mov	r3, r7
    6ae2:	9a03      	ldr	r2, [sp, #12]
    6ae4:	4631      	mov	r1, r6
    6ae6:	9500      	str	r5, [sp, #0]
    6ae8:	2000      	movs	r0, #0
    6aea:	f7fe fe91 	bl	5810 <mpa_div>
/home/yin/imx-optee/imx-optee-os/lib/libmpa/mpa_modulus.c:77
    6aee:	4629      	mov	r1, r5
    6af0:	4620      	mov	r0, r4
    6af2:	f7ff f992 	bl	5e1a <mpa_free_static_temp_var>
/home/yin/imx-optee/imx-optee-os/lib/libmpa/mpa_modulus.c:78
    6af6:	b005      	add	sp, #20
    6af8:	e8bd 83f0 	ldmia.w	sp!, {r4, r5, r6, r7, r8, r9, pc}

00006afc <mpa_inv_mod>:
mpa_inv_mod():
/home/yin/imx-optee/imx-optee-os/lib/libmpa/mpa_modulus.c:87
    6afc:	e92d 43f0 	stmdb	sp!, {r4, r5, r6, r7, r8, r9, lr}
    6b00:	460f      	mov	r7, r1
    6b02:	b085      	sub	sp, #20
    6b04:	4604      	mov	r4, r0
/home/yin/imx-optee/imx-optee-os/lib/libmpa/mpa_modulus.c:93
    6b06:	2101      	movs	r1, #1
    6b08:	4638      	mov	r0, r7
/home/yin/imx-optee/imx-optee-os/lib/libmpa/mpa_modulus.c:87
    6b0a:	4690      	mov	r8, r2
    6b0c:	461e      	mov	r6, r3
/home/yin/imx-optee/imx-optee-os/lib/libmpa/mpa_modulus.c:93
    6b0e:	f7ff ff36 	bl	697e <mpa_cmp_short>
    6b12:	4605      	mov	r5, r0
    6b14:	b938      	cbnz	r0, 6b26 <mpa_inv_mod+0x2a>
/home/yin/imx-optee/imx-optee-os/lib/libmpa/mpa_modulus.c:94
    6b16:	2101      	movs	r1, #1
    6b18:	4620      	mov	r0, r4
    6b1a:	f7fe fbc1 	bl	52a0 <mpa_set_S32>
/home/yin/imx-optee/imx-optee-os/lib/libmpa/mpa_modulus.c:122
    6b1e:	4628      	mov	r0, r5
    6b20:	b005      	add	sp, #20
    6b22:	e8bd 83f0 	ldmia.w	sp!, {r4, r5, r6, r7, r8, r9, pc}
/home/yin/imx-optee/imx-optee-os/lib/libmpa/mpa_modulus.c:99
    6b26:	42a7      	cmp	r7, r4
    6b28:	d12b      	bne.n	6b82 <mpa_inv_mod+0x86>
/home/yin/imx-optee/imx-optee-os/lib/libmpa/mpa_modulus.c:100
    6b2a:	4631      	mov	r1, r6
    6b2c:	a803      	add	r0, sp, #12
    6b2e:	f7ff f96f 	bl	5e10 <mpa_alloc_static_temp_var>
/home/yin/imx-optee/imx-optee-os/lib/libmpa/mpa_modulus.c:104
    6b32:	f10d 0908 	add.w	r9, sp, #8
    6b36:	4631      	mov	r1, r6
    6b38:	4648      	mov	r0, r9
    6b3a:	f7ff f969 	bl	5e10 <mpa_alloc_static_temp_var>
/home/yin/imx-optee/imx-optee-os/lib/libmpa/mpa_modulus.c:106
    6b3e:	463b      	mov	r3, r7
    6b40:	2200      	movs	r2, #0
    6b42:	9903      	ldr	r1, [sp, #12]
    6b44:	9802      	ldr	r0, [sp, #8]
    6b46:	9601      	str	r6, [sp, #4]
    6b48:	f8cd 8000 	str.w	r8, [sp]
    6b4c:	f7ff f8af 	bl	5cae <mpa_extended_gcd>
/home/yin/imx-optee/imx-optee-os/lib/libmpa/mpa_modulus.c:107
    6b50:	2101      	movs	r1, #1
    6b52:	9802      	ldr	r0, [sp, #8]
    6b54:	f7ff ff13 	bl	697e <mpa_cmp_short>
/home/yin/imx-optee/imx-optee-os/lib/libmpa/mpa_modulus.c:109
    6b58:	42a7      	cmp	r7, r4
/home/yin/imx-optee/imx-optee-os/lib/libmpa/mpa_modulus.c:107
    6b5a:	4605      	mov	r5, r0
/home/yin/imx-optee/imx-optee-os/lib/libmpa/mpa_modulus.c:109
    6b5c:	d109      	bne.n	6b72 <mpa_inv_mod+0x76>
/home/yin/imx-optee/imx-optee-os/lib/libmpa/mpa_modulus.c:110
    6b5e:	af04      	add	r7, sp, #16
    6b60:	4620      	mov	r0, r4
    6b62:	f857 1d04 	ldr.w	r1, [r7, #-4]!
    6b66:	f7fd fbd5 	bl	4314 <mpa_copy>
/home/yin/imx-optee/imx-optee-os/lib/libmpa/mpa_modulus.c:111
    6b6a:	4631      	mov	r1, r6
    6b6c:	4638      	mov	r0, r7
    6b6e:	f7ff f954 	bl	5e1a <mpa_free_static_temp_var>
/home/yin/imx-optee/imx-optee-os/lib/libmpa/mpa_modulus.c:114
    6b72:	4631      	mov	r1, r6
    6b74:	4648      	mov	r0, r9
    6b76:	f7ff f950 	bl	5e1a <mpa_free_static_temp_var>
/home/yin/imx-optee/imx-optee-os/lib/libmpa/mpa_modulus.c:115
    6b7a:	b155      	cbz	r5, 6b92 <mpa_inv_mod+0x96>
/home/yin/imx-optee/imx-optee-os/lib/libmpa/mpa_modulus.c:120
    6b7c:	f04f 35ff 	mov.w	r5, #4294967295	; 0xffffffff
    6b80:	e7cd      	b.n	6b1e <mpa_inv_mod+0x22>
/home/yin/imx-optee/imx-optee-os/lib/libmpa/mpa_modulus.c:102
    6b82:	9403      	str	r4, [sp, #12]
    6b84:	e7d5      	b.n	6b32 <mpa_inv_mod+0x36>
/home/yin/imx-optee/imx-optee-os/lib/libmpa/mpa_modulus.c:117
    6b86:	4633      	mov	r3, r6
    6b88:	4642      	mov	r2, r8
    6b8a:	4621      	mov	r1, r4
    6b8c:	4620      	mov	r0, r4
    6b8e:	f7ff fcdc 	bl	654a <mpa_add>
/home/yin/imx-optee/imx-optee-os/lib/libmpa/mpa_modulus.c:116
    6b92:	2100      	movs	r1, #0
    6b94:	4620      	mov	r0, r4
    6b96:	f7ff fef2 	bl	697e <mpa_cmp_short>
    6b9a:	2800      	cmp	r0, #0
    6b9c:	dbf3      	blt.n	6b86 <mpa_inv_mod+0x8a>
    6b9e:	e7be      	b.n	6b1e <mpa_inv_mod+0x22>

00006ba0 <__utee_check_access_rights_from_thumb>:
__utee_check_access_rights_from_thumb():
    6ba0:	4778      	bx	pc
    6ba2:	46c0      	nop			; (mov r8, r8)
    6ba4:	e59fc000 	ldr	ip, [pc]	; 6bac <__utee_check_access_rights_from_thumb+0xc>
    6ba8:	e08cf00f 	add	pc, ip, pc
    6bac:	ffffad90 	.word	0xffffad90

00006bb0 <__utee_log_from_thumb>:
__utee_log_from_thumb():
    6bb0:	4778      	bx	pc
    6bb2:	46c0      	nop			; (mov r8, r8)
    6bb4:	e59fc000 	ldr	ip, [pc]	; 6bbc <__utee_log_from_thumb+0xc>
    6bb8:	e08cf00f 	add	pc, ip, pc
    6bbc:	ffffacd4 	.word	0xffffacd4

00006bc0 <__utee_cache_operation_from_thumb>:
__utee_cache_operation_from_thumb():
    6bc0:	4778      	bx	pc
    6bc2:	46c0      	nop			; (mov r8, r8)
    6bc4:	e59fc000 	ldr	ip, [pc]	; 6bcc <__utee_cache_operation_from_thumb+0xc>
    6bc8:	e08cf00f 	add	pc, ip, pc
    6bcc:	ffffb26c 	.word	0xffffb26c

00006bd0 <__utee_panic_from_thumb>:
__utee_panic_from_thumb():
    6bd0:	4778      	bx	pc
    6bd2:	46c0      	nop			; (mov r8, r8)
    6bd4:	e59fc000 	ldr	ip, [pc]	; 6bdc <__utee_panic_from_thumb+0xc>
    6bd8:	e08cf00f 	add	pc, ip, pc
    6bdc:	ffffac8c 	.word	0xffffac8c
