
b6c53aba-9669-4668-a7f2-205629d00f86.elf:     file format elf32-littlearm
b6c53aba-9669-4668-a7f2-205629d00f86.elf
architecture: arm, flags 0x00000150:
HAS_SYMS, DYNAMIC, D_PAGED
start address 0x00000020

Program Header:
0x70000001 off    0x0001824c vaddr 0x0000824c paddr 0x0000824c align 2**2
         filesz 0x00000648 memsz 0x00000648 flags r--
    LOAD off    0x00010000 vaddr 0x00000000 paddr 0x00000000 align 2**16
         filesz 0x00006be0 memsz 0x00006be0 flags r-x
    LOAD off    0x00016be0 vaddr 0x00006be0 paddr 0x00006be0 align 2**16
         filesz 0x00001ff0 memsz 0x00001ff0 flags r--
    LOAD off    0x00019000 vaddr 0x00009000 paddr 0x00009000 align 2**16
         filesz 0x0000008c memsz 0x0000a9c0 flags rw-
 DYNAMIC off    0x000189c4 vaddr 0x000089c4 paddr 0x000089c4 align 2**2
         filesz 0x00000080 memsz 0x00000080 flags rw-

Dynamic Section:
  HASH                 0x00008b8c
  STRTAB               0x00008b04
  SYMTAB               0x00008a44
  STRSZ                0x00000088
  SYMENT               0x00000010
  DEBUG                0x00000000
  REL                  0x000088c4
  RELSZ                0x00000100
  RELENT               0x00000008
  FLAGS_1              0x08000000
  RELCOUNT             0x00000017
private flags = 5000400: [Version5 EABI] [hard-float ABI]

Sections:
Idx Name          Size      VMA       LMA       File off  Algn
  0 .ta_head      00000020  00000000  00000000  00010000  2**3
                  CONTENTS, ALLOC, LOAD, DATA
  1 .text         00006bc0  00000020  00000020  00010020  2**3
                  CONTENTS, ALLOC, LOAD, READONLY, CODE
  2 .rodata       0000153d  00006be0  00006be0  00016be0  2**2
                  CONTENTS, ALLOC, LOAD, READONLY, DATA
  3 .ARM.extab    000000fc  00008120  00008120  00018120  2**2
                  CONTENTS, ALLOC, LOAD, READONLY, DATA
  4 .ARM.extab.text.utee_panic 0000000c  0000821c  0000821c  0001821c  2**2
                  CONTENTS, ALLOC, LOAD, READONLY, DATA
  5 .ARM.extab.text.unlikely 0000000c  00008228  00008228  00018228  2**2
                  CONTENTS, ALLOC, LOAD, READONLY, DATA
  6 .ARM.extab.text.__aeabi_ldivmod 0000000c  00008234  00008234  00018234  2**2
                  CONTENTS, ALLOC, LOAD, READONLY, DATA
  7 .ARM.extab.text.__aeabi_uldivmod 0000000c  00008240  00008240  00018240  2**2
                  CONTENTS, ALLOC, LOAD, READONLY, DATA
  8 .ARM.exidx    00000648  0000824c  0000824c  0001824c  2**2
                  CONTENTS, ALLOC, LOAD, READONLY, DATA
  9 .got          00000030  00008894  00008894  00018894  2**2
                  CONTENTS, ALLOC, LOAD, DATA
 10 .dynsym       000000c0  00008a44  00008a44  00018a44  2**2
                  CONTENTS, ALLOC, LOAD, READONLY, DATA
 11 .rel.got      00000048  0000897c  0000897c  0001897c  2**2
                  CONTENTS, ALLOC, LOAD, READONLY, DATA
 12 .dynamic      00000080  000089c4  000089c4  000189c4  2**2
                  CONTENTS, ALLOC, LOAD, DATA
 13 .dynstr       00000088  00008b04  00008b04  00018b04  2**0
                  CONTENTS, ALLOC, LOAD, READONLY, DATA
 14 .hash         00000044  00008b8c  00008b8c  00018b8c  2**2
                  CONTENTS, ALLOC, LOAD, READONLY, DATA
 15 .data         0000008c  00009000  00009000  00019000  2**2
                  CONTENTS, ALLOC, LOAD, DATA
 16 .bss          0000a934  0000908c  0000908c  0001908c  2**2
                  ALLOC
 17 .debug_info   00011941  00000000  00000000  0001908c  2**0
                  CONTENTS, READONLY, DEBUGGING
 18 .debug_abbrev 00004559  00000000  00000000  0002a9cd  2**0
                  CONTENTS, READONLY, DEBUGGING
 19 .debug_loc    0000fd2e  00000000  00000000  0002ef26  2**0
                  CONTENTS, READONLY, DEBUGGING
 20 .debug_aranges 000007f0  00000000  00000000  0003ec58  2**3
                  CONTENTS, READONLY, DEBUGGING
 21 .debug_ranges 00000970  00000000  00000000  0003f448  2**3
                  CONTENTS, READONLY, DEBUGGING
 22 .debug_macro  00005b9b  00000000  00000000  0003fdb8  2**0
                  CONTENTS, READONLY, DEBUGGING
 23 .debug_line   00006e76  00000000  00000000  00045953  2**0
                  CONTENTS, READONLY, DEBUGGING
 24 .debug_str    00011806  00000000  00000000  0004c7c9  2**0
                  CONTENTS, READONLY, DEBUGGING
 25 .comment      00000024  00000000  00000000  0005dfcf  2**0
                  CONTENTS, READONLY
 26 .ARM.attributes 00000035  00000000  00000000  0005dff3  2**0
                  CONTENTS, READONLY
 27 .debug_frame  00002110  00000000  00000000  0005e028  2**2
                  CONTENTS, READONLY, DEBUGGING
 28 .rel.dyn      000000b8  000088c4  000088c4  000188c4  2**2
                  CONTENTS, ALLOC, LOAD, READONLY, DATA
SYMBOL TABLE:
00000000 l    d  .ta_head	00000000 .ta_head
00000020 l    d  .text	00000000 .text
00006be0 l    d  .rodata	00000000 .rodata
00008120 l    d  .ARM.extab	00000000 .ARM.extab
0000821c l    d  .ARM.extab.text.utee_panic	00000000 .ARM.extab.text.utee_panic
00008228 l    d  .ARM.extab.text.unlikely	00000000 .ARM.extab.text.unlikely
00008234 l    d  .ARM.extab.text.__aeabi_ldivmod	00000000 .ARM.extab.text.__aeabi_ldivmod
00008240 l    d  .ARM.extab.text.__aeabi_uldivmod	00000000 .ARM.extab.text.__aeabi_uldivmod
0000824c l    d  .ARM.exidx	00000000 .ARM.exidx
00008894 l    d  .got	00000000 .got
0000897c l    d  .rel.got	00000000 .rel.got
000089c4 l    d  .dynamic	00000000 .dynamic
00008a44 l    d  .dynsym	00000000 .dynsym
00008b04 l    d  .dynstr	00000000 .dynstr
00008b8c l    d  .hash	00000000 .hash
00009000 l    d  .data	00000000 .data
0000908c l    d  .bss	00000000 .bss
00000000 l    d  .debug_info	00000000 .debug_info
00000000 l    d  .debug_abbrev	00000000 .debug_abbrev
00000000 l    d  .debug_loc	00000000 .debug_loc
00000000 l    d  .debug_aranges	00000000 .debug_aranges
00000000 l    d  .debug_ranges	00000000 .debug_ranges
00000000 l    d  .debug_macro	00000000 .debug_macro
00000000 l    d  .debug_line	00000000 .debug_line
00000000 l    d  .debug_str	00000000 .debug_str
00000000 l    d  .comment	00000000 .comment
00000000 l    d  .ARM.attributes	00000000 .ARM.attributes
00000000 l    d  .debug_frame	00000000 .debug_frame
000088c4 l    d  .rel.dyn	00000000 .rel.dyn
00000000 l    df *ABS*	00000000 user_ta_header.c
00006be4 l     O .rodata	00000004 __compound_literal.5
00006be8 l     O .rodata	00000004 __compound_literal.4
00006bec l     O .rodata	00000004 __compound_literal.3
00006bf0 l     O .rodata	00000001 __compound_literal.2
00006bf1 l     O .rodata	00000001 __compound_literal.1
00006bf2 l     O .rodata	00000001 __compound_literal.0
00000000 l    df *ABS*	00000000 random_example_ta.c
00007954 l     O .rodata	00000017 __func__.6147
00000000 l    df *ABS*	00000000 tee_api_operations.c
00000094 l     F .text	0000015c tee_buffer_update
00000000 l    df *ABS*	00000000 user_ta_entry.c
0000165c l     F .text	0000001c ta_header_get_session
00001678 l     F .text	00000068 ta_header_remove_session
0000908c l     O .bss	00000001 init_done
00009074 l     O .data	00000008 ta_sessions
00000000 l    df *ABS*	00000000 utee_syscalls_a32.o
00000000 l    df *ABS*	00000000 gprof_a32.o
00000000 l    df *ABS*	00000000 tee_api_arith.c
000022d4 l     F .text	0000001c TEE_BigInt_Panic
000090c0 l     O .bss	000018f0 mempool_u32
000090b4 l     O .bss	00000008 mem.6436
000090bc l     O .bss	00000004 mempool
00000000 l    df *ABS*	00000000 tee_api.c
00007b0a l     O .rodata	0000000b __func__.6699
0000a9b0 l     O .bss	00000004 tee_api_instance_data
00000000 l    df *ABS*	00000000 tee_api_objects.c
00000000 l    df *ABS*	00000000 trace_ext.c
00000000 l    df *ABS*	00000000 bget_malloc.c
00002e00 l     F .text	000000d8 create_free_block.constprop.11
00007b26 l     O .rodata	00000012 __func__.5801
00007b38 l     O .rodata	00000005 __func__.5679
00007b3d l     O .rodata	00000006 __func__.5694
00007b43 l     O .rodata	00000005 __func__.5711
00007b48 l     O .rodata	00000006 __func__.5703
00007b4e l     O .rodata	00000006 __func__.5720
00007b54 l     O .rodata	0000000d __func__.5837
00007b61 l     O .rodata	0000000c __func__.5811
00007b6d l     O .rodata	0000000b __func__.5822
00007b78 l     O .rodata	00000010 __func__.5889
00007b88 l     O .rodata	0000000e __func__.5843
00007b96 l     O .rodata	00000013 __func__.5749
0000a9b4 l     O .bss	00000004 malloc_pool_len
0000a9b8 l     O .bss	00000004 malloc_pool
0000907c l     O .data	00000010 malloc_poolset
00000000 l    df *ABS*	00000000 snprintk.c
00007f8a l     O .rodata	00000011 HEXDIGITS
00007f9b l     O .rodata	00000011 hexdigits
00000000 l    df *ABS*	00000000 trace.c
00003f30 l     F .text	0000004e append
00007fe4 l     O .rodata	00000005 lvl_strs.5552
00007fe9 l     O .rodata	0000000a __func__.5603
00000000 l    df *ABS*	00000000 mempool.c
0000802d l     O .rodata	00000013 __func__.5543
00000000 l    df *ABS*	00000000 arm32_aeabi_divmod_a32.o
00000000 l    df *ABS*	00000000 arm32_aeabi_ldivmod_a32.o
00000000 l    df *ABS*	00000000 mpa_misc.c
00000000 l    df *ABS*	00000000 mpa_montgomery.c
00000000 l    df *ABS*	00000000 mpa_primetest.c
0000785c l     O .rodata	00000010 const_miller_rabin_proof_limit
0000786c l     O .rodata	0000001c proof_a.5912
00007888 l     O .rodata	0000000c const_two
00007894 l     O .rodata	000000b8 const_small_prime_factors
00000000 l    df *ABS*	00000000 mpa_expmod.c
00000000 l    df *ABS*	00000000 mpa_io.c
000049b8 l     F .text	0000002a __mpa_word_to_hexstr
000049e2 l     F .text	0000009c __mpa_mpanum_to_hexstr
00004a7e l     F .text	00000026 __mpa_isspace
000129bc l     O .bss	00001002 buf.5972
0000807f l     O .rodata	0000000c __func__.5986
0000808b l     O .rodata	0000000c __func__.6000
00000000 l    df *ABS*	00000000 assert.c
00000000 l    df *ABS*	00000000 tee_api_panic.c
00000000 l    df *ABS*	00000000 snprintf.c
00000000 l    df *ABS*	00000000 memcmp.c
00000000 l    df *ABS*	00000000 memcpy.c
00000000 l    df *ABS*	00000000 memmove.c
00000000 l    df *ABS*	00000000 memset.c
00000000 l    df *ABS*	00000000 strlen.c
00000000 l    df *ABS*	00000000 arm32_aeabi_divmod.c
00004f3c l     F .text	0000004a uint_div_qr
00000000 l    df *ABS*	00000000 buf_compare_ct.c
00000000 l    df *ABS*	00000000 aeabi_unwind.c
00000000 l    df *ABS*	00000000 memchr.c
00000000 l    df *ABS*	00000000 arm32_aeabi_ldivmod.c
00000000 l    df *ABS*	00000000 mpa_conv.c
00000000 l    df *ABS*	00000000 mpa_div.c
00000000 l    df *ABS*	00000000 mpa_gcd.c
0000589e l     F .text	0000004c __mpa_divby2
000058ea l     F .text	000000e4 __mpa_gcd.part.0
000059ce l     F .text	00000236 __mpa_egcd
00000000 l    df *ABS*	00000000 mpa_mem_static.c
00000000 l    df *ABS*	00000000 mpa_mul.c
00000000 l    df *ABS*	00000000 mpa_random.c
00000000 l    df *ABS*	00000000 mpa_shift.c
00000000 l    df *ABS*	00000000 mpa_addsub.c
00000000 l    df *ABS*	00000000 mpa_cmp.c
00000000 l    df *ABS*	00000000 mpa_init.c
00000000 l    df *ABS*	00000000 mpa_modulus.c
00000000 l    df *ABS*	00000000 
000089c4 l     O *ABS*	00000000 _DYNAMIC
00008894 l     O *ABS*	00000000 _GLOBAL_OFFSET_TABLE_
00006ba0 l     F .text	00000010 __utee_check_access_rights_from_thumb
00006bb0 l     F .text	00000010 __utee_log_from_thumb
00006bc0 l     F .text	00000010 __utee_cache_operation_from_thumb
00006bd0 l     F .text	00000010 __utee_panic_from_thumb
00001e10 g     F .text	00000018 utee_se_channel_transmit
000042ac g     F .text	00000004 ret_idivmod_values
00002ddc g     F .text	00000022 putchar
000069d8 g     F .text	00000012 mpa_init_static
00002840 g     F .text	00000070 TEE_PopulateTransientObject
00004314 g     F .text	00000022 mpa_copy
00002248 g     F .text	00000020 TEE_BigIntConvertToFMM
00002180 g     F .text	00000008 TEE_BigIntSquareMod
00001f4c g     F .text	00000004 TEE_BigIntShiftRight
000052bc g     F .text	00000042 mpa_get_S32
0000434a g     F .text	0000002a mpa_highest_bit_index
00001c00 g     F .text	00000018 utee_storage_obj_create
000051b4 g     F .text	000000ec __l_divmod
00001dd4 g     F .text	00000014 utee_se_session_close
00001880 g     F .text	00000014 utee_return
00000a82 g     F .text	00000030 TEE_DigestUpdate
00001d30 g     F .text	00000014 utee_se_service_get_readers
000025bc g     F .text	00000004 TEE_Realloc
00005370 g     F .text	000000be __mpa_div_q_r_internal_word
000008ec g     F .text	000000f4 TEE_SetOperationKey2
00006638 g     F .text	00000104 mpa_sub
00002d7e g     F .text	0000003a printf
00001894 g     F .text	00000014 utee_log
0000794c g     O .rodata	00000004 NR_STORED_PRIMES
000028b0 g     F .text	00000022 TEE_InitRefAttribute
000023da g     F .text	00000066 TEE_InvokeTACommand
000043a0 g     F .text	00000014 mpa_can_hold
00005e52 g     F .text	00000050 __mpa_abs_mul_word
0000107c g     F .text	00000118 TEE_AEEncryptFinal
000045f0 g     F .text	0000003c mpa_montgomery_mul
00003f08 g     F .text	0000000e vsnprintk
000043b4 g     F .text	00000008 mpa_parity
00004ee8 g     F .text	00000034 memmove
0000637e g     F .text	0000001a __mpa_full_adder_ackum
00004e88 g     F .text	0000001e snprintf
00001f48 g     F .text	00000004 TEE_BigIntCmpS32
000028d2 g     F .text	00000022 TEE_InitValueAttribute
0000511e g     F .text	00000002 __aeabi_unwind_cpp_pr0
00001f68 g     F .text	00000010 TEE_BigIntAdd
000018d4 g     F .text	00000014 utee_get_property_name_to_index
00004fa6 g     F .text	00000020 __aeabi_uimod
00006bf4 g     O .rodata	00000004 ta_heap_size
00007950 g     O .rodata	00000004 MAX_TABULATED_PRIME
00002810 g     F .text	00000030 TEE_ResetTransientObject
000019b8 g     F .text	00000018 utee_cryp_state_alloc
00001b88 g     F .text	00000018 utee_authenc_enc_final
00005e3a g     F .text	00000018 __mpa_mul_add_word_cum
00000b24 g     F .text	00000056 TEE_CipherInit
00001f88 g     F .text	00000004 TEE_BigIntNeg
00005810 g     F .text	0000008e mpa_div
00000020 g       .text	00000000 __text_start
00002bb0 g     F .text	0000002c TEE_StartPersistentObjectEnumerator
00006bfc g     O .rodata	0000000c const_one
00003790 g     F .text	00000048 malloc_buffer_overlaps_heap
0000692e g     F .text	0000000a __mpa_abs_less_than
000020a0 g     F .text	00000060 TEE_BigIntSubMod
00000ef8 g     F .text	00000070 TEE_AEInit
0000601e g     F .text	000000a0 mpa_get_random
00003fb0 g     F .text	00000144 trace_printf
00001d08 g     F .text	00000014 utee_se_service_open
00004ed2 g     F .text	00000016 memcpy
000019e4 g     F .text	00000014 utee_cryp_state_free
000042fe g     F .text	00000016 mpa_wipe
00002268 g     F .text	00000050 TEE_BigIntConvertFromFMM
00004e84 g     F .text	00000004 TEE_Panic
00001dfc g     F .text	00000014 utee_se_channel_get_select_resp
000042cc g     F .text	00000018 __aeabi_uldivmod
000009e0 g     F .text	000000a2 TEE_CopyOperation
00002db8 g     F .text	00000024 puts
000022b8 g     F .text	0000001c TEE_BigIntComputeFMM
000052fe g     F .text	0000000c mpa_set_word
00006184 g     F .text	000000f4 mpa_shift_left
00001a64 g     F .text	00000018 utee_cipher_final
00005f30 g     F .text	00000082 mpa_mul
0000255c g     F .text	00000016 TEE_GetREETime
00002b50 g     F .text	00000038 TEE_AllocatePersistentObjectEnumerator
00009004 g     O .data	0000006c ta_props
0000129c g     F .text	000000bc TEE_AsymmetricEncrypt
00003330 g     F .text	00000018 malloc
00001acc g     F .text	00000014 utee_cryp_obj_close
00001d6c g     F .text	00000014 utee_se_reader_open_session
000042b0 g     F .text	00000004 ret_uidivmod_values
00004ea6 g     F .text	0000000e vsnprintf
0000298c g     F .text	00000048 TEE_GenerateKey
00009000 g     O .data	00000004 trace_level
00001f44 g     F .text	00000004 TEE_BigIntCmp
00006be0 g     O .rodata	00000004 ta_num_props
00003218 g     F .text	0000007c bgetr
00001b70 g     F .text	00000018 utee_authenc_update_payload
0000427e g     F .text	0000002e mempool_free
00000b7a g     F .text	000000fa TEE_CipherUpdate
00001ef8 g     F .text	00000034 TEE_BigIntConvertToOctetString
0000076a g     F .text	000000b6 TEE_GetOperationInfoMultiple
00001e3c g     F .text	00000014 utee_cache_operation
00001b44 g     F .text	00000018 utee_authenc_init
00001f50 g     F .text	0000000e TEE_BigIntGetBit
00006bf8 g     O .rodata	00000003 trace_ext_prefix
00006398 g     F .text	000000aa __mpa_abs_add
00002ff4 g     F .text	0000005c bgetz
000024ac g     F .text	0000000c TEE_GetInstanceData
000024da g     F .text	0000001e TEE_Wait
00001cb8 g     F .text	00000014 utee_storage_obj_write
00005e1a g     F .text	00000010 mpa_free_static_temp_var
0000462c g     F .text	00000278 mpa_is_prob_prime
00005122 g     F .text	00000002 __aeabi_unwind_cpp_pr2
00001e28 g     F .text	00000014 utee_se_channel_close
00005fb2 g     F .text	0000006c mpa_mul_word
000025ca g     F .text	00000006 TEE_CacheFlush
00000024 g     F .text	00000002 TA_DestroyEntryPoint
00004e48 g     F .text	00000028 _assert_log
00001ed8 g     F .text	0000000a TEE_BigIntFMMContextSizeInU32
00000e94 g     F .text	00000064 TEE_MACCompareFinal
00005034 g     F .text	00000070 __aeabi_imod
00002b0a g     F .text	00000046 TEE_RenamePersistentObject
00000ab2 g     F .text	00000072 TEE_DigestDoFinal
0000542e g     F .text	000003e2 __mpa_div_q_r
00001e5c g     F .text	00000038 _TEE_MathAPI_Init
00001c90 g     F .text	00000014 utee_storage_next_enum
0000a9bc g     O .bss	00008000 ta_heap
00002188 g     F .text	00000044 TEE_BigIntInvMod
00000034 g     F .text	00000002 TA_CloseSessionEntryPoint
00001358 g     F .text	000000c0 TEE_AsymmetricDecrypt
000029d4 g     F .text	00000064 TEE_OpenPersistentObject
000018a8 g     F .text	00000014 __utee_panic
000019d0 g     F .text	00000014 utee_cryp_state_copy
00000036 g     F .text	0000005e TA_InvokeCommandEntryPoint
00004cd4 g     F .text	0000009c mpa_set_oct_str
00001dbc g     F .text	00000018 utee_se_session_open_channel
00004234 g     F .text	0000004a mempool_alloc
000060f4 g     F .text	0000004c __mpa_shift_words_left
00001ab8 g     F .text	00000014 utee_cryp_obj_alloc
000019a4 g     F .text	00000014 utee_set_ta_time
00001aa4 g     F .text	00000014 utee_cryp_obj_get_attr
0000295c g     F .text	00000030 TEE_CopyObjectAttributes
00004428 g     F .text	00000060 __mpa_montgomery_sub_ack
00003358 g     F .text	00000028 calloc
00002572 g     F .text	0000004a TEE_Malloc
00001968 g     F .text	00000014 utee_mask_cancellation
00001ae0 g     F .text	00000014 utee_cryp_obj_reset
00002494 g     F .text	0000000a TEE_CheckMemoryAccessRights
000139c0 g       .bss	00000000 __gprof_buf_end
00005140 g     F .text	00000074 __ul_divmod
0000673c g     F .text	00000010 mpa_neg
00006c24 g     O .rodata	00000c38 PRIME_TABLE
00002c30 g     F .text	00000040 TEE_ReadObjectData
000026a8 g     F .text	00000070 TEE_GetObjectBufferAttribute
00000026 g     F .text	0000000e TA_OpenSessionEntryPoint
00005c04 g     F .text	000000aa mpa_gcd
00004336 g     F .text	00000014 mpa_abs
00001c7c g     F .text	00000014 utee_storage_start_enum
000001f0 g     F .text	00000026 TEE_FreeOperation
00004aaa g     F .text	000001d6 mpa_set_str
00001c2c g     F .text	00000014 utee_storage_obj_rename
00009090 g     O .bss	00000004 ta_param_types
000025d8 g     F .text	0000003a __utee_from_attr
00004fec g     F .text	00000048 __aeabi_idiv
00002228 g     F .text	00000020 TEE_BigIntIsProbablePrime
00002ad0 g     F .text	00000024 TEE_CloseAndDeletePersistentObject1
00005e10 g     F .text	0000000a mpa_alloc_static_temp_var
000018bc g     F .text	00000018 utee_get_property
00001194 g     F .text	00000108 TEE_AEDecryptFinal
00001e94 g     F .text	00000004 TEE_BigIntInit
000024b8 g     F .text	00000004 TEE_MemMove
00001ee2 g     F .text	00000016 TEE_BigIntConvertFromOctetString
00009070 g     O .data	00000004 _ref__utee_mcount
00000d88 g     F .text	00000056 TEE_MACInit
00001418 g     F .text	000000b4 TEE_AsymmetricSignDigest
00005124 g     F .text	0000001c memchr
0000245c g     F .text	0000001c TEE_UnmaskCancellation
00002612 g     F .text	0000002a TEE_GetObjectInfo
00006aba g     F .text	00000042 mpa_mul_mod
00001c18 g     F .text	00000014 utee_storage_obj_del
00000fae g     F .text	000000ce TEE_AEUpdate
00001ce0 g     F .text	00000014 utee_storage_obj_seek
000027e0 g     F .text	00000030 TEE_FreeTransientObject
00004520 g     F .text	000000d0 mpa_compute_fmm_context
00001a0c g     F .text	00000014 utee_hash_update
00001644 g     F .text	00000018 rand
00001e50  w    F .text	0000000c __utee_mcount
00000748 g     F .text	00000022 TEE_GetOperationInfo
00001fe8 g     F .text	00000058 TEE_BigIntMod
00001de8 g     F .text	00000014 utee_se_channel_select_next
00001900 g     F .text	00000014 utee_close_ta_session
00001fac g     F .text	0000003c TEE_BigIntDiv
00001a4c g     F .text	00000018 utee_cipher_update
0000265c g     F .text	00000020 TEE_RestrictObjectUsage1
00001da8 g     F .text	00000014 utee_se_session_get_atr
00003380 g     F .text	00000018 realloc
00006442 g     F .text	00000074 __mpa_abs_add_ackum
000041f0 g     F .text	00000044 mempool_alloc_pool
00001bd0 g     F .text	00000018 utee_asymm_verify
00001f8c g     F .text	00000010 TEE_BigIntMul
00000820 g     F .text	00000040 TEE_ResetOperation
0000530a g     F .text	0000000c mpa_get_word
000024c0 g     F .text	00000004 TEE_MemFill
00004eb4 g     F .text	0000001e memcmp
000035e4 g     F .text	000000d0 malloc_add_pool
00000dde g     F .text	0000004e TEE_MACUpdate
00003f9c g     F .text	00000014 trace_get_level
00001b30 g     F .text	00000014 utee_cryp_random_number_generate
0000267c g     F .text	0000002c TEE_RestrictObjectUsage
00001ed0 g     F .text	00000008 TEE_BigIntFMMSizeInU32
00001e98 g     F .text	0000000e TEE_BigIntInitFMM
00001bb8 g     F .text	00000018 utee_asymm_operate
0000279c g     F .text	00000014 TEE_CloseObject
000016e0 g     F .text	0000018c __utee_entry
00006be0 g       .text	00000000 __text_end
000021cc g     F .text	00000040 TEE_BigIntRelativePrime
000060be g     F .text	00000036 mpa_get_random_digits
00003294 g     F .text	0000009c bpool
000052a0 g     F .text	0000001c mpa_set_S32
000069ea g     F .text	00000036 mpa_init_static_fmm_context
00002440 g     F .text	0000001c TEE_GetCancellationFlag
00001d1c g     F .text	00000014 utee_se_service_close
00002534 g     F .text	00000028 TEE_SetTAPersistentTime
0000674c g     F .text	000000be mpa_add_word
00001d44 g     F .text	00000014 utee_se_reader_get_prop
00004f1c g     F .text	00000010 memset
000024f8 g     F .text	0000003c TEE_GetTAPersistentTime
000040f4 g     F .text	000000fc dhex_dump
00002a38 g     F .text	00000098 TEE_CreatePersistentObject
00002478 g     F .text	0000001c TEE_MaskCancellation
00006366 g     F .text	00000018 __mpa_full_sub
00001ca4 g     F .text	00000014 utee_storage_obj_read
00000f68 g     F .text	00000046 TEE_AEUpdateAAD
00004f86 g     F .text	00000020 __aeabi_uidiv
00002cb0 g     F .text	00000038 TEE_TruncateObjectData
00001af4 g     F .text	00000014 utee_cryp_obj_populate
00006938 g     F .text	00000046 mpa_cmp
00006afc g     F .text	000000a4 mpa_inv_mod
0000680a g     F .text	000000c2 mpa_sub_word
00005e2a g     F .text	00000010 __mpa_mul_add_word
0000654a g     F .text	000000ee mpa_add
000048a4 g     F .text	00000114 mpa_exp_mod
0000263c g     F .text	00000020 TEE_GetObjectInfo1
00006140 g     F .text	00000044 __mpa_shift_words_right
00003f7e g     F .text	0000001e trace_set_level
00001d94 g     F .text	00000014 utee_se_session_is_closed
00001a7c g     F .text	00000014 utee_cryp_obj_get_info
00002718 g     F .text	00000084 TEE_GetObjectValueAttribute
00000860 g     F .text	0000008c TEE_SetOperationKey
00001c40 g     F .text	00000014 utee_storage_alloc_enum
00001c68 g     F .text	00000014 utee_storage_reset_enum
00001ccc g     F .text	00000014 utee_storage_obj_trunc
00006a20 g     F .text	00000016 mpa_mod
0000691e g     F .text	00000010 __mpa_abs_greater_than
00001f30 g     F .text	00000014 TEE_BigIntConvertToS32
00001f78 g     F .text	00000010 TEE_BigIntSub
0000192c g     F .text	00000014 utee_get_cancellation_flag
000019f8 g     F .text	00000014 utee_hash_init
00004e80 g     F .text	00000004 tahead_get_trace_level
000022f0 g     F .text	00000052 __utee_from_param
00002ce8 g     F .text	0000007c TEE_SeekObjectData
00006c08 g     O .rodata	00000010 Const_1_LShift_Base
00002342 g     F .text	00000040 __utee_to_param
00003398 g     F .text	0000024c memalign
00000c74 g     F .text	00000114 TEE_CipherDoFinal
00001f2c g     F .text	00000004 TEE_BigIntConvertFromS32
00006a78 g     F .text	00000042 mpa_sub_mod
00001a90 g     F .text	00000014 utee_cryp_obj_restrict_usage
000036b4 g     F .text	000000dc malloc_buffer_is_within_alloced
00001b08 g     F .text	00000014 utee_cryp_obj_copy
00006278 g     F .text	000000d6 mpa_shift_right
00001ea6 g     F .text	0000002a TEE_BigIntInitFMMContext
00001b1c g     F .text	00000014 utee_cryp_derive_key
00004488 g     F .text	00000098 __mpa_montgomery_mul
00004d70 g     F .text	000000d6 mpa_get_oct_str
0000697e g     F .text	0000005a mpa_cmp_short
00001ba0 g     F .text	00000018 utee_authenc_dec_final
00002c70 g     F .text	00000040 TEE_WriteObjectData
00002b9c g     F .text	00000014 TEE_ResetPersistentObjectEnumerator
000068cc g     F .text	00000052 __mpa_abs_cmp
00001f9c g     F .text	00000010 TEE_BigIntSquare
00000020 g     F .text	00000004 TA_CreateEntryPoint
00003f16 g     F .text	0000001a snprintk
00001f5e g     F .text	0000000a TEE_BigIntGetBitCount
00002100 g     F .text	00000080 TEE_BigIntMulMod
00001578 g     F .text	000000ba TEE_DeriveKey
00009094 g     O .bss	00000020 ta_params
00005ea2 g     F .text	0000008e __mpa_abs_mul
00002ed8 g     F .text	0000011c bget
000027b0 g     F .text	00000030 TEE_AllocateTransientObject
000025c0 g     F .text	00000004 TEE_Free
00001d58 g     F .text	00000014 utee_se_reader_get_name
000025d0 g     F .text	00000006 TEE_CacheInvalidate
00001a38 g     F .text	00000014 utee_cipher_init
00004fc6 g     F .text	00000026 __aeabi_uidivmod
00004e70 g     F .text	00000010 _assert_break
00002040 g     F .text	00000060 TEE_BigIntAddMod
00001c54 g     F .text	00000014 utee_storage_free_enum
00001b5c g     F .text	00000014 utee_authenc_update_aad
00004374 g     F .text	0000002c mpa_get_bit
00000216 g     F .text	00000532 TEE_AllocateOperation
00001632 g     F .text	00000012 TEE_GenerateRandom
000024bc g     F .text	00000004 TEE_MemCompare
000037d8 g     F .text	00000730 __vsnprintf
00002b88 g     F .text	00000014 TEE_FreePersistentObjectEnumerator
00002382 g     F .text	00000044 TEE_OpenTASession
0000186c g     F .text	00000014 utee_panic
00002d64 g     F .text	00000014 trace_ext_puts
00002d78 g     F .text	00000006 trace_ext_get_thread_id
00002af4 g     F .text	00000016 TEE_CloseAndDeletePersistentObject
000025c4 g     F .text	00000006 TEE_CacheClean
000018e8 g     F .text	00000018 utee_open_ta_session
000050f2 g     F .text	0000002c buf_compare_ct
00005316 g     F .text	0000005a __mpa_div_dword
000042e4 g     F .text	0000001a __mpa_set_unused_digits_to_zero
00006c18 g     O .rodata	0000000c const_largest_deci_base
00004aa4 g     F .text	00000006 mpa_get_str_size
000028f4 g     F .text	00000068 TEE_CopyObjectAttributes1
00001a20 g     F .text	00000018 utee_hash_final
00004f2c g     F .text	00000010 strlen
0000220c g     F .text	0000001c TEE_BigIntComputeExtendedGcd
00005120 g     F .text	00000002 __aeabi_unwind_cpp_pr1
00005cae g     F .text	0000013a mpa_extended_gcd
00006a36 g     F .text	00000042 mpa_add_mod
00001be8 g     F .text	00000018 utee_storage_obj_open
00001914 g     F .text	00000018 utee_invoke_ta_command
00004c80 g     F .text	00000054 mpa_get_str
0000197c g     F .text	00000014 utee_wait
000024c4 g     F .text	00000016 TEE_GetSystemTime
00000000 g     O .ta_head	00000020 ta_head
00003050 g     F .text	000001c8 brel
00005de8 g     F .text	00000028 mpa_alloc_static_temp_var_size
00001990 g     F .text	00000014 utee_get_time
000043c8 g     F .text	00000060 __mpa_montgomery_mul_add
0000249e g     F .text	0000000e TEE_SetInstanceData
000050a4 g     F .text	0000004e __aeabi_idivmod
00001954 g     F .text	00000014 utee_unmask_cancellation
000042b4 g     F .text	00000018 __aeabi_ldivmod
00001940 g     F .text	00000014 utee_check_access_rights
00001d80 g     F .text	00000014 utee_se_reader_close_sessions
00002bdc g     F .text	00000054 TEE_GetNextPersistentObject
00001cf4 g     F .text	00000014 utee_cryp_obj_generate_key
000023c6 g     F .text	00000014 TEE_CloseTASession
000043bc g     F .text	0000000c mpa_constant_one
000014cc g     F .text	000000ac TEE_AsymmetricVerifyDigest
0000634e g     F .text	00000018 __mpa_full_adder
000064b6 g     F .text	00000094 __mpa_abs_sub
000139c0 g       .bss	00000000 __gprof_buf_start
00003348 g     F .text	00000010 free
00000e2c g     F .text	00000068 TEE_MACComputeFinal



Disassembly of section .text:

00000020 <TA_CreateEntryPoint>:
TA_CreateEntryPoint():
/home/yin/imx-optee/optee_examples/random/ta/random_example_ta.c:36
      20:	2000      	movs	r0, #0
      22:	4770      	bx	lr

00000024 <TA_DestroyEntryPoint>:
TA_DestroyEntryPoint():
/home/yin/imx-optee/optee_examples/random/ta/random_example_ta.c:39
      24:	4770      	bx	lr

00000026 <TA_OpenSessionEntryPoint>:
TA_OpenSessionEntryPoint():
/home/yin/imx-optee/optee_examples/random/ta/random_example_ta.c:50
      26:	2800      	cmp	r0, #0
/home/yin/imx-optee/optee_examples/random/ta/random_example_ta.c:57
      28:	4801      	ldr	r0, [pc, #4]	; (30 <TA_OpenSessionEntryPoint+0xa>)
      2a:	bf08      	it	eq
      2c:	2000      	moveq	r0, #0
      2e:	4770      	bx	lr
      30:	ffff0006 	.word	0xffff0006

00000034 <TA_CloseSessionEntryPoint>:
TA_CloseSessionEntryPoint():
/home/yin/imx-optee/optee_examples/random/ta/random_example_ta.c:60
      34:	4770      	bx	lr

00000036 <TA_InvokeCommandEntryPoint>:
TA_InvokeCommandEntryPoint():
/home/yin/imx-optee/optee_examples/random/ta/random_example_ta.c:94
      36:	b5f7      	push	{r0, r1, r2, r4, r5, r6, r7, lr}
      38:	4617      	mov	r7, r2
      3a:	461d      	mov	r5, r3
/home/yin/imx-optee/optee_examples/random/ta/random_example_ta.c:97
      3c:	460c      	mov	r4, r1
      3e:	b9f1      	cbnz	r1, 7e <TA_InvokeCommandEntryPoint+0x48>
random_number_generate():
/home/yin/imx-optee/optee_examples/random/ta/random_example_ta.c:73
      40:	4e11      	ldr	r6, [pc, #68]	; (88 <TA_InvokeCommandEntryPoint+0x52>)
      42:	2203      	movs	r2, #3
      44:	4b11      	ldr	r3, [pc, #68]	; (8c <TA_InvokeCommandEntryPoint+0x56>)
      46:	2149      	movs	r1, #73	; 0x49
      48:	447e      	add	r6, pc
      4a:	447b      	add	r3, pc
      4c:	4630      	mov	r0, r6
      4e:	9300      	str	r3, [sp, #0]
      50:	2301      	movs	r3, #1
      52:	f003 ffad 	bl	3fb0 <trace_printf>
/home/yin/imx-optee/optee_examples/random/ta/random_example_ta.c:74
      56:	2f06      	cmp	r7, #6
      58:	d111      	bne.n	7e <TA_InvokeCommandEntryPoint+0x48>
/home/yin/imx-optee/optee_examples/random/ta/random_example_ta.c:77
      5a:	686b      	ldr	r3, [r5, #4]
      5c:	2202      	movs	r2, #2
      5e:	214d      	movs	r1, #77	; 0x4d
      60:	4630      	mov	r0, r6
      62:	9301      	str	r3, [sp, #4]
      64:	4b0a      	ldr	r3, [pc, #40]	; (90 <TA_InvokeCommandEntryPoint+0x5a>)
      66:	447b      	add	r3, pc
      68:	9300      	str	r3, [sp, #0]
      6a:	2301      	movs	r3, #1
      6c:	f003 ffa0 	bl	3fb0 <trace_printf>
/home/yin/imx-optee/optee_examples/random/ta/random_example_ta.c:86
      70:	e895 0003 	ldmia.w	r5, {r0, r1}
      74:	f001 fadd 	bl	1632 <TEE_GenerateRandom>
/home/yin/imx-optee/optee_examples/random/ta/random_example_ta.c:88
      78:	4620      	mov	r0, r4
TA_InvokeCommandEntryPoint():
/home/yin/imx-optee/optee_examples/random/ta/random_example_ta.c:103
      7a:	b003      	add	sp, #12
      7c:	bdf0      	pop	{r4, r5, r6, r7, pc}
random_number_generate():
/home/yin/imx-optee/optee_examples/random/ta/random_example_ta.c:75
      7e:	4801      	ldr	r0, [pc, #4]	; (84 <TA_InvokeCommandEntryPoint+0x4e>)
      80:	e7fb      	b.n	7a <TA_InvokeCommandEntryPoint+0x44>
      82:	bf00      	nop
      84:	ffff0006 	.word	0xffff0006
      88:	00007908 	.word	0x00007908
      8c:	0000791d 	.word	0x0000791d
      90:	00007911 	.word	0x00007911

00000094 <tee_buffer_update>:
tee_buffer_update():
/home/yin/imx-optee/imx-optee-os/lib/libutee/tee_api_operations.c:845
      94:	e92d 4ff0 	stmdb	sp!, {r4, r5, r6, r7, r8, r9, sl, fp, lr}
      98:	b087      	sub	sp, #28
      9a:	461f      	mov	r7, r3
/home/yin/imx-optee/imx-optee-os/lib/libutee/tee_api_operations.c:850
      9c:	9b11      	ldr	r3, [sp, #68]	; 0x44
/home/yin/imx-optee/imx-optee-os/lib/libutee/tee_api_operations.c:845
      9e:	4604      	mov	r4, r0
      a0:	468b      	mov	fp, r1
      a2:	f8dd 8040 	ldr.w	r8, [sp, #64]	; 0x40
/home/yin/imx-optee/imx-optee-os/lib/libutee/tee_api_operations.c:857
      a6:	4692      	mov	sl, r2
/home/yin/imx-optee/imx-optee-os/lib/libutee/tee_api_operations.c:850
      a8:	e9d3 0100 	ldrd	r0, r1, [r3]
      ac:	e9cd 0102 	strd	r0, r1, [sp, #8]
/home/yin/imx-optee/imx-optee-os/lib/libutee/tee_api_operations.c:857
      b0:	b962      	cbnz	r2, cc <tee_buffer_update+0x38>
/home/yin/imx-optee/imx-optee-os/lib/libutee/tee_api_operations.c:858
      b2:	b93f      	cbnz	r7, c4 <tee_buffer_update+0x30>
/home/yin/imx-optee/imx-optee-os/lib/libutee/tee_api_operations.c:851
      b4:	2500      	movs	r5, #0
/home/yin/imx-optee/imx-optee-os/lib/libutee/tee_api_operations.c:933
      b6:	9b11      	ldr	r3, [sp, #68]	; 0x44
      b8:	2000      	movs	r0, #0
      ba:	601d      	str	r5, [r3, #0]
      bc:	6058      	str	r0, [r3, #4]
/home/yin/imx-optee/imx-optee-os/lib/libutee/tee_api_operations.c:935
      be:	b007      	add	sp, #28
      c0:	e8bd 8ff0 	ldmia.w	sp!, {r4, r5, r6, r7, r8, r9, sl, fp, pc}
/home/yin/imx-optee/imx-optee-os/lib/libutee/tee_api_operations.c:859
      c4:	4610      	mov	r0, r2
      c6:	f004 fedd 	bl	4e84 <TEE_Panic>
      ca:	e7f3      	b.n	b4 <tee_buffer_update+0x20>
/home/yin/imx-optee/imx-optee-os/lib/libutee/tee_api_operations.c:863
      cc:	f894 3030 	ldrb.w	r3, [r4, #48]	; 0x30
      d0:	6b65      	ldr	r5, [r4, #52]	; 0x34
      d2:	2b00      	cmp	r3, #0
      d4:	d058      	beq.n	188 <tee_buffer_update+0xf4>
/home/yin/imx-optee/imx-optee-os/lib/libutee/tee_api_operations.c:864
      d6:	006e      	lsls	r6, r5, #1
/home/yin/imx-optee/imx-optee-os/lib/libutee/tee_api_operations.c:865
      d8:	f04f 0901 	mov.w	r9, #1
/home/yin/imx-optee/imx-optee-os/lib/libutee/tee_api_operations.c:871
      dc:	6ba0      	ldr	r0, [r4, #56]	; 0x38
      de:	b1b0      	cbz	r0, 10e <tee_buffer_update+0x7a>
/home/yin/imx-optee/imx-optee-os/lib/libutee/tee_api_operations.c:873
      e0:	42a8      	cmp	r0, r5
/home/yin/imx-optee/imx-optee-os/lib/libutee/tee_api_operations.c:877
      e2:	6ae3      	ldr	r3, [r4, #44]	; 0x2c
/home/yin/imx-optee/imx-optee-os/lib/libutee/tee_api_operations.c:876
      e4:	bf2c      	ite	cs
      e6:	1a35      	subcs	r5, r6, r0
/home/yin/imx-optee/imx-optee-os/lib/libutee/tee_api_operations.c:874
      e8:	1a2d      	subcc	r5, r5, r0
/home/yin/imx-optee/imx-optee-os/lib/libutee/tee_api_operations.c:876
      ea:	42bd      	cmp	r5, r7
/home/yin/imx-optee/imx-optee-os/lib/libutee/tee_api_operations.c:877
      ec:	4651      	mov	r1, sl
/home/yin/imx-optee/imx-optee-os/lib/libutee/tee_api_operations.c:876
      ee:	bf28      	it	cs
      f0:	463d      	movcs	r5, r7
/home/yin/imx-optee/imx-optee-os/lib/libutee/tee_api_operations.c:877
      f2:	4418      	add	r0, r3
      f4:	462a      	mov	r2, r5
      f6:	f004 feec 	bl	4ed2 <memcpy>
/home/yin/imx-optee/imx-optee-os/lib/libutee/tee_api_operations.c:878
      fa:	6ba0      	ldr	r0, [r4, #56]	; 0x38
/home/yin/imx-optee/imx-optee-os/lib/libutee/tee_api_operations.c:881
      fc:	6b61      	ldr	r1, [r4, #52]	; 0x34
/home/yin/imx-optee/imx-optee-os/lib/libutee/tee_api_operations.c:878
      fe:	4428      	add	r0, r5
     100:	63a0      	str	r0, [r4, #56]	; 0x38
/home/yin/imx-optee/imx-optee-os/lib/libutee/tee_api_operations.c:881
     102:	f004 ff60 	bl	4fc6 <__aeabi_uidivmod>
     106:	2900      	cmp	r1, #0
     108:	d1d4      	bne.n	b4 <tee_buffer_update+0x20>
/home/yin/imx-optee/imx-optee-os/lib/libutee/tee_api_operations.c:879
     10a:	44aa      	add	sl, r5
/home/yin/imx-optee/imx-optee-os/lib/libutee/tee_api_operations.c:880
     10c:	1b7f      	subs	r7, r7, r5
/home/yin/imx-optee/imx-optee-os/lib/libutee/tee_api_operations.c:886
     10e:	6ba5      	ldr	r5, [r4, #56]	; 0x38
/home/yin/imx-optee/imx-optee-os/lib/libutee/tee_api_operations.c:850
     110:	9902      	ldr	r1, [sp, #8]
/home/yin/imx-optee/imx-optee-os/lib/libutee/tee_api_operations.c:886
     112:	2d00      	cmp	r5, #0
     114:	d03c      	beq.n	190 <tee_buffer_update+0xfc>
/home/yin/imx-optee/imx-optee-os/lib/libutee/tee_api_operations.c:887 (discriminator 1)
     116:	1978      	adds	r0, r7, r5
     118:	eb06 0309 	add.w	r3, r6, r9
/home/yin/imx-optee/imx-optee-os/lib/libutee/tee_api_operations.c:886 (discriminator 1)
     11c:	4298      	cmp	r0, r3
     11e:	d336      	bcc.n	18e <tee_buffer_update+0xfa>
/home/yin/imx-optee/imx-optee-os/lib/libutee/tee_api_operations.c:888
     120:	6b62      	ldr	r2, [r4, #52]	; 0x34
     122:	1e53      	subs	r3, r2, #1
     124:	4252      	negs	r2, r2
     126:	1b9b      	subs	r3, r3, r6
     128:	4403      	add	r3, r0
/home/yin/imx-optee/imx-optee-os/lib/libutee/tee_api_operations.c:891
     12a:	e9dd 0102 	ldrd	r0, r1, [sp, #8]
/home/yin/imx-optee/imx-optee-os/lib/libutee/tee_api_operations.c:888
     12e:	4013      	ands	r3, r2
/home/yin/imx-optee/imx-optee-os/lib/libutee/tee_api_operations.c:891
     130:	2100      	movs	r1, #0
/home/yin/imx-optee/imx-optee-os/lib/libutee/tee_api_operations.c:890
     132:	429d      	cmp	r5, r3
     134:	bf28      	it	cs
     136:	461d      	movcs	r5, r3
/home/yin/imx-optee/imx-optee-os/lib/libutee/tee_api_operations.c:891
     138:	ab06      	add	r3, sp, #24
     13a:	e963 0102 	strd	r0, r1, [r3, #-8]!
/home/yin/imx-optee/imx-optee-os/lib/libutee/tee_api_operations.c:892
     13e:	462a      	mov	r2, r5
     140:	9300      	str	r3, [sp, #0]
     142:	4643      	mov	r3, r8
     144:	6ae1      	ldr	r1, [r4, #44]	; 0x2c
     146:	6be0      	ldr	r0, [r4, #60]	; 0x3c
     148:	47d8      	blx	fp
/home/yin/imx-optee/imx-optee-os/lib/libutee/tee_api_operations.c:893
     14a:	b108      	cbz	r0, 150 <tee_buffer_update+0xbc>
/home/yin/imx-optee/imx-optee-os/lib/libutee/tee_api_operations.c:894
     14c:	f004 fe9a 	bl	4e84 <TEE_Panic>
/home/yin/imx-optee/imx-optee-os/lib/libutee/tee_api_operations.c:895
     150:	9b04      	ldr	r3, [sp, #16]
/home/yin/imx-optee/imx-optee-os/lib/libutee/tee_api_operations.c:896
     152:	9a02      	ldr	r2, [sp, #8]
/home/yin/imx-optee/imx-optee-os/lib/libutee/tee_api_operations.c:895
     154:	4498      	add	r8, r3
/home/yin/imx-optee/imx-optee-os/lib/libutee/tee_api_operations.c:896
     156:	1ad1      	subs	r1, r2, r3
/home/yin/imx-optee/imx-optee-os/lib/libutee/tee_api_operations.c:898
     158:	6ba2      	ldr	r2, [r4, #56]	; 0x38
     15a:	1b52      	subs	r2, r2, r5
     15c:	63a2      	str	r2, [r4, #56]	; 0x38
/home/yin/imx-optee/imx-optee-os/lib/libutee/tee_api_operations.c:899
     15e:	2a00      	cmp	r2, #0
     160:	d041      	beq.n	1e6 <tee_buffer_update+0x152>
/home/yin/imx-optee/imx-optee-os/lib/libutee/tee_api_operations.c:903
     162:	6ae0      	ldr	r0, [r4, #44]	; 0x2c
     164:	1b72      	subs	r2, r6, r5
     166:	9302      	str	r3, [sp, #8]
     168:	1941      	adds	r1, r0, r5
     16a:	f004 feb2 	bl	4ed2 <memcpy>
/home/yin/imx-optee/imx-optee-os/lib/libutee/tee_api_operations.c:904
     16e:	6ae5      	ldr	r5, [r4, #44]	; 0x2c
     170:	463a      	mov	r2, r7
     172:	6ba0      	ldr	r0, [r4, #56]	; 0x38
     174:	4651      	mov	r1, sl
     176:	4428      	add	r0, r5
     178:	f004 feab 	bl	4ed2 <memcpy>
/home/yin/imx-optee/imx-optee-os/lib/libutee/tee_api_operations.c:905
     17c:	6ba2      	ldr	r2, [r4, #56]	; 0x38
/home/yin/imx-optee/imx-optee-os/lib/libutee/tee_api_operations.c:897
     17e:	9b02      	ldr	r3, [sp, #8]
/home/yin/imx-optee/imx-optee-os/lib/libutee/tee_api_operations.c:905
     180:	4417      	add	r7, r2
     182:	63a7      	str	r7, [r4, #56]	; 0x38
/home/yin/imx-optee/imx-optee-os/lib/libutee/tee_api_operations.c:897
     184:	461d      	mov	r5, r3
/home/yin/imx-optee/imx-optee-os/lib/libutee/tee_api_operations.c:906
     186:	e796      	b.n	b6 <tee_buffer_update+0x22>
/home/yin/imx-optee/imx-optee-os/lib/libutee/tee_api_operations.c:867
     188:	462e      	mov	r6, r5
/home/yin/imx-optee/imx-optee-os/lib/libutee/tee_api_operations.c:868
     18a:	4699      	mov	r9, r3
     18c:	e7a6      	b.n	dc <tee_buffer_update+0x48>
/home/yin/imx-optee/imx-optee-os/lib/libutee/tee_api_operations.c:851
     18e:	2500      	movs	r5, #0
/home/yin/imx-optee/imx-optee-os/lib/libutee/tee_api_operations.c:910
     190:	44b1      	add	r9, r6
     192:	454f      	cmp	r7, r9
     194:	d31c      	bcc.n	1d0 <tee_buffer_update+0x13c>
/home/yin/imx-optee/imx-optee-os/lib/libutee/tee_api_operations.c:912
     196:	4b15      	ldr	r3, [pc, #84]	; (1ec <tee_buffer_update+0x158>)
     198:	6822      	ldr	r2, [r4, #0]
/home/yin/imx-optee/imx-optee-os/lib/libutee/tee_api_operations.c:917
     19a:	9104      	str	r1, [sp, #16]
/home/yin/imx-optee/imx-optee-os/lib/libutee/tee_api_operations.c:918
     19c:	4651      	mov	r1, sl
     19e:	6be0      	ldr	r0, [r4, #60]	; 0x3c
/home/yin/imx-optee/imx-optee-os/lib/libutee/tee_api_operations.c:912
     1a0:	429a      	cmp	r2, r3
     1a2:	6b62      	ldr	r2, [r4, #52]	; 0x34
/home/yin/imx-optee/imx-optee-os/lib/libutee/tee_api_operations.c:913
     1a4:	bf0a      	itet	eq
     1a6:	f102 33ff 	addeq.w	r3, r2, #4294967295	; 0xffffffff
/home/yin/imx-optee/imx-optee-os/lib/libutee/tee_api_operations.c:915
     1aa:	1b96      	subne	r6, r2, r6
/home/yin/imx-optee/imx-optee-os/lib/libutee/tee_api_operations.c:913
     1ac:	1b9e      	subeq	r6, r3, r6
/home/yin/imx-optee/imx-optee-os/lib/libutee/tee_api_operations.c:915
     1ae:	4252      	negs	r2, r2
/home/yin/imx-optee/imx-optee-os/lib/libutee/tee_api_operations.c:917
     1b0:	2300      	movs	r3, #0
/home/yin/imx-optee/imx-optee-os/lib/libutee/tee_api_operations.c:915
     1b2:	443e      	add	r6, r7
     1b4:	4016      	ands	r6, r2
/home/yin/imx-optee/imx-optee-os/lib/libutee/tee_api_operations.c:917
     1b6:	9305      	str	r3, [sp, #20]
/home/yin/imx-optee/imx-optee-os/lib/libutee/tee_api_operations.c:918
     1b8:	ab04      	add	r3, sp, #16
     1ba:	4632      	mov	r2, r6
     1bc:	9300      	str	r3, [sp, #0]
     1be:	4643      	mov	r3, r8
     1c0:	47d8      	blx	fp
/home/yin/imx-optee/imx-optee-os/lib/libutee/tee_api_operations.c:919
     1c2:	b108      	cbz	r0, 1c8 <tee_buffer_update+0x134>
/home/yin/imx-optee/imx-optee-os/lib/libutee/tee_api_operations.c:920
     1c4:	f004 fe5e 	bl	4e84 <TEE_Panic>
/home/yin/imx-optee/imx-optee-os/lib/libutee/tee_api_operations.c:925
     1c8:	9b04      	ldr	r3, [sp, #16]
/home/yin/imx-optee/imx-optee-os/lib/libutee/tee_api_operations.c:921
     1ca:	44b2      	add	sl, r6
/home/yin/imx-optee/imx-optee-os/lib/libutee/tee_api_operations.c:922
     1cc:	1bbf      	subs	r7, r7, r6
/home/yin/imx-optee/imx-optee-os/lib/libutee/tee_api_operations.c:925
     1ce:	441d      	add	r5, r3
/home/yin/imx-optee/imx-optee-os/lib/libutee/tee_api_operations.c:929
     1d0:	6ba3      	ldr	r3, [r4, #56]	; 0x38
     1d2:	463a      	mov	r2, r7
     1d4:	6ae0      	ldr	r0, [r4, #44]	; 0x2c
     1d6:	4651      	mov	r1, sl
     1d8:	4418      	add	r0, r3
     1da:	f004 fe7a 	bl	4ed2 <memcpy>
/home/yin/imx-optee/imx-optee-os/lib/libutee/tee_api_operations.c:930
     1de:	6ba3      	ldr	r3, [r4, #56]	; 0x38
     1e0:	441f      	add	r7, r3
     1e2:	63a7      	str	r7, [r4, #56]	; 0x38
     1e4:	e767      	b.n	b6 <tee_buffer_update+0x22>
/home/yin/imx-optee/imx-optee-os/lib/libutee/tee_api_operations.c:897
     1e6:	461d      	mov	r5, r3
     1e8:	e7d2      	b.n	190 <tee_buffer_update+0xfc>
     1ea:	bf00      	nop
     1ec:	10000310 	.word	0x10000310

000001f0 <TEE_FreeOperation>:
TEE_FreeOperation():
/home/yin/imx-optee/imx-optee-os/lib/libutee/tee_api_operations.c:344
     1f0:	b510      	push	{r4, lr}
/home/yin/imx-optee/imx-optee-os/lib/libutee/tee_api_operations.c:347
     1f2:	4604      	mov	r4, r0
     1f4:	b908      	cbnz	r0, 1fa <TEE_FreeOperation+0xa>
/home/yin/imx-optee/imx-optee-os/lib/libutee/tee_api_operations.c:348
     1f6:	f004 fe45 	bl	4e84 <TEE_Panic>
/home/yin/imx-optee/imx-optee-os/lib/libutee/tee_api_operations.c:355
     1fa:	6be0      	ldr	r0, [r4, #60]	; 0x3c
     1fc:	f001 ebf2 	blx	19e4 <utee_cryp_state_free>
/home/yin/imx-optee/imx-optee-os/lib/libutee/tee_api_operations.c:356
     200:	b108      	cbz	r0, 206 <TEE_FreeOperation+0x16>
/home/yin/imx-optee/imx-optee-os/lib/libutee/tee_api_operations.c:357
     202:	f004 fe3f 	bl	4e84 <TEE_Panic>
/home/yin/imx-optee/imx-optee-os/lib/libutee/tee_api_operations.c:359
     206:	6ae0      	ldr	r0, [r4, #44]	; 0x2c
     208:	f002 f9da 	bl	25c0 <TEE_Free>
/home/yin/imx-optee/imx-optee-os/lib/libutee/tee_api_operations.c:360
     20c:	4620      	mov	r0, r4
/home/yin/imx-optee/imx-optee-os/lib/libutee/tee_api_operations.c:361
     20e:	e8bd 4010 	ldmia.w	sp!, {r4, lr}
/home/yin/imx-optee/imx-optee-os/lib/libutee/tee_api_operations.c:360
     212:	f002 b9d5 	b.w	25c0 <TEE_Free>

00000216 <TEE_AllocateOperation>:
TEE_AllocateOperation():
/home/yin/imx-optee/imx-optee-os/lib/libutee/tee_api_operations.c:37
     216:	e92d 4ff0 	stmdb	sp!, {r4, r5, r6, r7, r8, r9, sl, fp, lr}
     21a:	b087      	sub	sp, #28
     21c:	460c      	mov	r4, r1
     21e:	4617      	mov	r7, r2
     220:	4699      	mov	r9, r3
/home/yin/imx-optee/imx-optee-os/lib/libutee/tee_api_operations.c:46
     222:	9003      	str	r0, [sp, #12]
     224:	b908      	cbnz	r0, 22a <TEE_AllocateOperation+0x14>
/home/yin/imx-optee/imx-optee-os/lib/libutee/tee_api_operations.c:47
     226:	f004 fe2d 	bl	4e84 <TEE_Panic>
/home/yin/imx-optee/imx-optee-os/lib/libutee/tee_api_operations.c:49
     22a:	4bc0      	ldr	r3, [pc, #768]	; (52c <TEE_AllocateOperation+0x316>)
     22c:	429c      	cmp	r4, r3
     22e:	f000 81b9 	beq.w	5a4 <TEE_AllocateOperation+0x38e>
/home/yin/imx-optee/imx-optee-os/lib/libutee/tee_api_operations.c:53
     232:	4bbf      	ldr	r3, [pc, #764]	; (530 <TEE_AllocateOperation+0x31a>)
     234:	429c      	cmp	r4, r3
     236:	d06e      	beq.n	316 <TEE_AllocateOperation+0x100>
     238:	d83f      	bhi.n	2ba <TEE_AllocateOperation+0xa4>
     23a:	4abe      	ldr	r2, [pc, #760]	; (534 <TEE_AllocateOperation+0x31e>)
     23c:	4294      	cmp	r4, r2
     23e:	d055      	beq.n	2ec <TEE_AllocateOperation+0xd6>
     240:	d82d      	bhi.n	29e <TEE_AllocateOperation+0x88>
     242:	f5a2 5287 	sub.w	r2, r2, #4320	; 0x10e0
     246:	3a10      	subs	r2, #16
     248:	4294      	cmp	r4, r2
     24a:	d040      	beq.n	2ce <TEE_AllocateOperation+0xb8>
     24c:	f502 5280 	add.w	r2, r2, #4096	; 0x1000
     250:	4294      	cmp	r4, r2
     252:	d065      	beq.n	320 <TEE_AllocateOperation+0x10a>
/home/yin/imx-optee/imx-optee-os/lib/libutee/tee_api_operations.c:108
     254:	4ab7      	ldr	r2, [pc, #732]	; (534 <TEE_AllocateOperation+0x31e>)
     256:	4294      	cmp	r4, r2
     258:	d050      	beq.n	2fc <TEE_AllocateOperation+0xe6>
     25a:	f200 80d6 	bhi.w	40a <TEE_AllocateOperation+0x1f4>
     25e:	4bb6      	ldr	r3, [pc, #728]	; (538 <TEE_AllocateOperation+0x322>)
     260:	429c      	cmp	r4, r3
     262:	d07d      	beq.n	360 <TEE_AllocateOperation+0x14a>
     264:	f200 808e 	bhi.w	384 <TEE_AllocateOperation+0x16e>
     268:	4bb4      	ldr	r3, [pc, #720]	; (53c <TEE_AllocateOperation+0x326>)
     26a:	429c      	cmp	r4, r3
     26c:	f000 81ab 	beq.w	5c6 <TEE_AllocateOperation+0x3b0>
     270:	d86b      	bhi.n	34a <TEE_AllocateOperation+0x134>
     272:	f46f 70ff 	mvn.w	r0, #510	; 0x1fe
     276:	4403      	add	r3, r0
     278:	429c      	cmp	r4, r3
     27a:	d85b      	bhi.n	334 <TEE_AllocateOperation+0x11e>
     27c:	3b01      	subs	r3, #1
     27e:	429c      	cmp	r4, r3
     280:	d209      	bcs.n	296 <TEE_AllocateOperation+0x80>
     282:	f5a3 7380 	sub.w	r3, r3, #256	; 0x100
     286:	429c      	cmp	r4, r3
     288:	d324      	bcc.n	2d4 <TEE_AllocateOperation+0xbe>
     28a:	3301      	adds	r3, #1
     28c:	429c      	cmp	r4, r3
     28e:	d902      	bls.n	296 <TEE_AllocateOperation+0x80>
     290:	3302      	adds	r3, #2
     292:	429c      	cmp	r4, r3
     294:	d11e      	bne.n	2d4 <TEE_AllocateOperation+0xbe>
     296:	f04f 0800 	mov.w	r8, #0
/home/yin/imx-optee/imx-optee-os/lib/libutee/tee_api_operations.c:44
     29a:	4646      	mov	r6, r8
     29c:	e185      	b.n	5aa <TEE_AllocateOperation+0x394>
/home/yin/imx-optee/imx-optee-os/lib/libutee/tee_api_operations.c:53
     29e:	4aa8      	ldr	r2, [pc, #672]	; (540 <TEE_AllocateOperation+0x32a>)
     2a0:	4294      	cmp	r4, r2
     2a2:	d034      	beq.n	30e <TEE_AllocateOperation+0xf8>
     2a4:	f502 6271 	add.w	r2, r2, #3856	; 0xf10
     2a8:	4294      	cmp	r4, r2
     2aa:	d03c      	beq.n	326 <TEE_AllocateOperation+0x110>
     2ac:	f5a2 5280 	sub.w	r2, r2, #4096	; 0x1000
     2b0:	4294      	cmp	r4, r2
     2b2:	d1cf      	bne.n	254 <TEE_AllocateOperation+0x3e>
/home/yin/imx-optee/imx-optee-os/lib/libutee/tee_api_operations.c:87
     2b4:	f5b9 7f80 	cmp.w	r9, #256	; 0x100
     2b8:	e00b      	b.n	2d2 <TEE_AllocateOperation+0xbc>
/home/yin/imx-optee/imx-optee-os/lib/libutee/tee_api_operations.c:53
     2ba:	4aa2      	ldr	r2, [pc, #648]	; (544 <TEE_AllocateOperation+0x32e>)
     2bc:	4294      	cmp	r4, r2
     2be:	d02f      	beq.n	320 <TEE_AllocateOperation+0x10a>
     2c0:	d80a      	bhi.n	2d8 <TEE_AllocateOperation+0xc2>
     2c2:	4aa1      	ldr	r2, [pc, #644]	; (548 <TEE_AllocateOperation+0x332>)
     2c4:	4294      	cmp	r4, r2
     2c6:	d031      	beq.n	32c <TEE_AllocateOperation+0x116>
     2c8:	4aa0      	ldr	r2, [pc, #640]	; (54c <TEE_AllocateOperation+0x336>)
     2ca:	4294      	cmp	r4, r2
     2cc:	d1c2      	bne.n	254 <TEE_AllocateOperation+0x3e>
/home/yin/imx-optee/imx-optee-os/lib/libutee/tee_api_operations.c:75
     2ce:	f1b9 0fc0 	cmp.w	r9, #192	; 0xc0
/home/yin/imx-optee/imx-optee-os/lib/libutee/tee_api_operations.c:99
     2d2:	d0bf      	beq.n	254 <TEE_AllocateOperation+0x3e>
/home/yin/imx-optee/imx-optee-os/lib/libutee/tee_api_operations.c:56
     2d4:	4e9e      	ldr	r6, [pc, #632]	; (550 <TEE_AllocateOperation+0x33a>)
     2d6:	e1c9      	b.n	66c <TEE_AllocateOperation+0x456>
/home/yin/imx-optee/imx-optee-os/lib/libutee/tee_api_operations.c:53
     2d8:	4a9e      	ldr	r2, [pc, #632]	; (554 <TEE_AllocateOperation+0x33e>)
     2da:	4294      	cmp	r4, r2
     2dc:	d023      	beq.n	326 <TEE_AllocateOperation+0x110>
     2de:	f502 5280 	add.w	r2, r2, #4096	; 0x1000
     2e2:	4294      	cmp	r4, r2
     2e4:	d022      	beq.n	32c <TEE_AllocateOperation+0x116>
     2e6:	f5a2 5200 	sub.w	r2, r2, #8192	; 0x2000
     2ea:	e7e1      	b.n	2b0 <TEE_AllocateOperation+0x9a>
/home/yin/imx-optee/imx-optee-os/lib/libutee/tee_api_operations.c:55
     2ec:	f5a9 7300 	sub.w	r3, r9, #512	; 0x200
     2f0:	f5b3 7f00 	cmp.w	r3, #512	; 0x200
     2f4:	d8ee      	bhi.n	2d4 <TEE_AllocateOperation+0xbe>
/home/yin/imx-optee/imx-optee-os/lib/libutee/tee_api_operations.c:59
     2f6:	f019 0f3f 	tst.w	r9, #63	; 0x3f
     2fa:	d1eb      	bne.n	2d4 <TEE_AllocateOperation+0xbe>
/home/yin/imx-optee/imx-optee-os/lib/libutee/tee_api_operations.c:154
     2fc:	2f02      	cmp	r7, #2
     2fe:	f000 81bc 	beq.w	67a <TEE_AllocateOperation+0x464>
/home/yin/imx-optee/imx-optee-os/lib/libutee/tee_api_operations.c:157
     302:	2f03      	cmp	r7, #3
     304:	d1e6      	bne.n	2d4 <TEE_AllocateOperation+0xbe>
/home/yin/imx-optee/imx-optee-os/lib/libutee/tee_api_operations.c:44
     306:	2600      	movs	r6, #0
/home/yin/imx-optee/imx-optee-os/lib/libutee/tee_api_operations.c:158
     308:	2220      	movs	r2, #32
/home/yin/imx-optee/imx-optee-os/lib/libutee/tee_api_operations.c:43
     30a:	46b2      	mov	sl, r6
     30c:	e02d      	b.n	36a <TEE_AllocateOperation+0x154>
/home/yin/imx-optee/imx-optee-os/lib/libutee/tee_api_operations.c:64
     30e:	f5b9 6f00 	cmp.w	r9, #2048	; 0x800
/home/yin/imx-optee/imx-optee-os/lib/libutee/tee_api_operations.c:108
     312:	d1df      	bne.n	2d4 <TEE_AllocateOperation+0xbe>
     314:	e7f2      	b.n	2fc <TEE_AllocateOperation+0xe6>
/home/yin/imx-optee/imx-optee-os/lib/libutee/tee_api_operations.c:69
     316:	f429 6380 	bic.w	r3, r9, #1024	; 0x400
     31a:	f5b3 6f00 	cmp.w	r3, #2048	; 0x800
     31e:	e7f8      	b.n	312 <TEE_AllocateOperation+0xfc>
/home/yin/imx-optee/imx-optee-os/lib/libutee/tee_api_operations.c:81
     320:	f1b9 0fe0 	cmp.w	r9, #224	; 0xe0
     324:	e7d5      	b.n	2d2 <TEE_AllocateOperation+0xbc>
/home/yin/imx-optee/imx-optee-os/lib/libutee/tee_api_operations.c:93
     326:	f5b9 7fc0 	cmp.w	r9, #384	; 0x180
     32a:	e7d2      	b.n	2d2 <TEE_AllocateOperation+0xbc>
/home/yin/imx-optee/imx-optee-os/lib/libutee/tee_api_operations.c:99
     32c:	f240 2209 	movw	r2, #521	; 0x209
     330:	4591      	cmp	r9, r2
     332:	e7ce      	b.n	2d2 <TEE_AllocateOperation+0xbc>
/home/yin/imx-optee/imx-optee-os/lib/libutee/tee_api_operations.c:108
     334:	4b88      	ldr	r3, [pc, #544]	; (558 <TEE_AllocateOperation+0x342>)
     336:	429c      	cmp	r4, r3
     338:	d0ad      	beq.n	296 <TEE_AllocateOperation+0x80>
     33a:	33fd      	adds	r3, #253	; 0xfd
     33c:	429c      	cmp	r4, r3
     33e:	d1c9      	bne.n	2d4 <TEE_AllocateOperation+0xbe>
     340:	f04f 0800 	mov.w	r8, #0
/home/yin/imx-optee/imx-optee-os/lib/libutee/tee_api_operations.c:41
     344:	2301      	movs	r3, #1
/home/yin/imx-optee/imx-optee-os/lib/libutee/tee_api_operations.c:44
     346:	4646      	mov	r6, r8
     348:	e134      	b.n	5b4 <TEE_AllocateOperation+0x39e>
/home/yin/imx-optee/imx-optee-os/lib/libutee/tee_api_operations.c:108
     34a:	4b84      	ldr	r3, [pc, #528]	; (55c <TEE_AllocateOperation+0x346>)
     34c:	429c      	cmp	r4, r3
     34e:	d80f      	bhi.n	370 <TEE_AllocateOperation+0x15a>
     350:	3b01      	subs	r3, #1
     352:	429c      	cmp	r4, r3
     354:	d204      	bcs.n	360 <TEE_AllocateOperation+0x14a>
     356:	f104 4350 	add.w	r3, r4, #3489660928	; 0xd0000000
     35a:	3b01      	subs	r3, #1
     35c:	2b05      	cmp	r3, #5
     35e:	d8b9      	bhi.n	2d4 <TEE_AllocateOperation+0xbe>
/home/yin/imx-optee/imx-optee-os/lib/libutee/tee_api_operations.c:241
     360:	2f04      	cmp	r7, #4
     362:	d1b7      	bne.n	2d4 <TEE_AllocateOperation+0xbe>
/home/yin/imx-optee/imx-optee-os/lib/libutee/tee_api_operations.c:44
     364:	2600      	movs	r6, #0
/home/yin/imx-optee/imx-optee-os/lib/libutee/tee_api_operations.c:243
     366:	2208      	movs	r2, #8
/home/yin/imx-optee/imx-optee-os/lib/libutee/tee_api_operations.c:43
     368:	46b2      	mov	sl, r6
/home/yin/imx-optee/imx-optee-os/lib/libutee/tee_api_operations.c:41
     36a:	2301      	movs	r3, #1
     36c:	46b0      	mov	r8, r6
     36e:	e140      	b.n	5f2 <TEE_AllocateOperation+0x3dc>
/home/yin/imx-optee/imx-optee-os/lib/libutee/tee_api_operations.c:108
     370:	4b7b      	ldr	r3, [pc, #492]	; (560 <TEE_AllocateOperation+0x34a>)
     372:	429c      	cmp	r4, r3
     374:	d0f4      	beq.n	360 <TEE_AllocateOperation+0x14a>
     376:	d3ad      	bcc.n	2d4 <TEE_AllocateOperation+0xbe>
     378:	f104 4350 	add.w	r3, r4, #3489660928	; 0xd0000000
     37c:	f5a3 63a2 	sub.w	r3, r3, #1296	; 0x510
     380:	2b01      	cmp	r3, #1
     382:	e7ec      	b.n	35e <TEE_AllocateOperation+0x148>
     384:	4b77      	ldr	r3, [pc, #476]	; (564 <TEE_AllocateOperation+0x34e>)
     386:	429c      	cmp	r4, r3
     388:	d01b      	beq.n	3c2 <TEE_AllocateOperation+0x1ac>
     38a:	d823      	bhi.n	3d4 <TEE_AllocateOperation+0x1be>
     38c:	4b76      	ldr	r3, [pc, #472]	; (568 <TEE_AllocateOperation+0x352>)
     38e:	429c      	cmp	r4, r3
     390:	d80f      	bhi.n	3b2 <TEE_AllocateOperation+0x19c>
     392:	f1b4 4fa0 	cmp.w	r4, #1342177280	; 0x50000000
     396:	f200 8123 	bhi.w	5e0 <TEE_AllocateOperation+0x3ca>
     39a:	4b74      	ldr	r3, [pc, #464]	; (56c <TEE_AllocateOperation+0x356>)
     39c:	429c      	cmp	r4, r3
     39e:	f43f af7a 	beq.w	296 <TEE_AllocateOperation+0x80>
     3a2:	f503 7380 	add.w	r3, r3, #256	; 0x100
     3a6:	429c      	cmp	r4, r3
     3a8:	d0ca      	beq.n	340 <TEE_AllocateOperation+0x12a>
     3aa:	4b71      	ldr	r3, [pc, #452]	; (570 <TEE_AllocateOperation+0x35a>)
     3ac:	429c      	cmp	r4, r3
     3ae:	d191      	bne.n	2d4 <TEE_AllocateOperation+0xbe>
     3b0:	e7d6      	b.n	360 <TEE_AllocateOperation+0x14a>
     3b2:	4b70      	ldr	r3, [pc, #448]	; (574 <TEE_AllocateOperation+0x35e>)
     3b4:	429c      	cmp	r4, r3
     3b6:	f000 8109 	beq.w	5cc <TEE_AllocateOperation+0x3b6>
     3ba:	f503 7380 	add.w	r3, r3, #256	; 0x100
     3be:	429c      	cmp	r4, r3
     3c0:	d188      	bne.n	2d4 <TEE_AllocateOperation+0xbe>
/home/yin/imx-optee/imx-optee-os/lib/libutee/tee_api_operations.c:170
     3c2:	2f00      	cmp	r7, #0
     3c4:	f000 815e 	beq.w	684 <TEE_AllocateOperation+0x46e>
/home/yin/imx-optee/imx-optee-os/lib/libutee/tee_api_operations.c:172
     3c8:	2f01      	cmp	r7, #1
     3ca:	d183      	bne.n	2d4 <TEE_AllocateOperation+0xbe>
/home/yin/imx-optee/imx-optee-os/lib/libutee/tee_api_operations.c:44
     3cc:	2600      	movs	r6, #0
/home/yin/imx-optee/imx-optee-os/lib/libutee/tee_api_operations.c:173
     3ce:	46ba      	mov	sl, r7
/home/yin/imx-optee/imx-optee-os/lib/libutee/tee_api_operations.c:174
     3d0:	2204      	movs	r2, #4
     3d2:	e7ca      	b.n	36a <TEE_AllocateOperation+0x154>
/home/yin/imx-optee/imx-optee-os/lib/libutee/tee_api_operations.c:108
     3d4:	4b68      	ldr	r3, [pc, #416]	; (578 <TEE_AllocateOperation+0x362>)
     3d6:	429c      	cmp	r4, r3
     3d8:	d0f3      	beq.n	3c2 <TEE_AllocateOperation+0x1ac>
     3da:	d80a      	bhi.n	3f2 <TEE_AllocateOperation+0x1dc>
     3dc:	f5a3 1300 	sub.w	r3, r3, #2097152	; 0x200000
     3e0:	429c      	cmp	r4, r3
     3e2:	d0ee      	beq.n	3c2 <TEE_AllocateOperation+0x1ac>
     3e4:	f503 1380 	add.w	r3, r3, #1048576	; 0x100000
     3e8:	429c      	cmp	r4, r3
     3ea:	d0ea      	beq.n	3c2 <TEE_AllocateOperation+0x1ac>
     3ec:	f5a3 1300 	sub.w	r3, r3, #2097152	; 0x200000
     3f0:	e7e5      	b.n	3be <TEE_AllocateOperation+0x1a8>
     3f2:	4b62      	ldr	r3, [pc, #392]	; (57c <TEE_AllocateOperation+0x366>)
     3f4:	429c      	cmp	r4, r3
     3f6:	d081      	beq.n	2fc <TEE_AllocateOperation+0xe6>
     3f8:	f603 0311 	addw	r3, r3, #2065	; 0x811
     3fc:	429c      	cmp	r4, r3
     3fe:	f43f af7d 	beq.w	2fc <TEE_AllocateOperation+0xe6>
     402:	f5a3 5380 	sub.w	r3, r3, #4096	; 0x1000
     406:	429c      	cmp	r4, r3
     408:	e783      	b.n	312 <TEE_AllocateOperation+0xfc>
     40a:	4a5d      	ldr	r2, [pc, #372]	; (580 <TEE_AllocateOperation+0x36a>)
     40c:	4294      	cmp	r4, r2
     40e:	d05e      	beq.n	4ce <TEE_AllocateOperation+0x2b8>
     410:	d849      	bhi.n	4a6 <TEE_AllocateOperation+0x290>
     412:	4a4d      	ldr	r2, [pc, #308]	; (548 <TEE_AllocateOperation+0x332>)
     414:	4294      	cmp	r4, r2
     416:	f43f af71 	beq.w	2fc <TEE_AllocateOperation+0xe6>
     41a:	d81c      	bhi.n	456 <TEE_AllocateOperation+0x240>
     41c:	f5a2 52c0 	sub.w	r2, r2, #6144	; 0x1800
     420:	3a11      	subs	r2, #17
     422:	4294      	cmp	r4, r2
     424:	f43f af6a 	beq.w	2fc <TEE_AllocateOperation+0xe6>
     428:	d80b      	bhi.n	442 <TEE_AllocateOperation+0x22c>
     42a:	4b56      	ldr	r3, [pc, #344]	; (584 <TEE_AllocateOperation+0x36e>)
     42c:	429c      	cmp	r4, r3
     42e:	f43f af65 	beq.w	2fc <TEE_AllocateOperation+0xe6>
     432:	33f0      	adds	r3, #240	; 0xf0
     434:	429c      	cmp	r4, r3
     436:	f43f af61 	beq.w	2fc <TEE_AllocateOperation+0xe6>
     43a:	f46f 6110 	mvn.w	r1, #2304	; 0x900
     43e:	440b      	add	r3, r1
     440:	e7e1      	b.n	406 <TEE_AllocateOperation+0x1f0>
     442:	429c      	cmp	r4, r3
     444:	f43f af5a 	beq.w	2fc <TEE_AllocateOperation+0xe6>
     448:	4b4f      	ldr	r3, [pc, #316]	; (588 <TEE_AllocateOperation+0x372>)
     44a:	429c      	cmp	r4, r3
     44c:	f43f af56 	beq.w	2fc <TEE_AllocateOperation+0xe6>
     450:	f2a3 73ef 	subw	r3, r3, #2031	; 0x7ef
     454:	e7d7      	b.n	406 <TEE_AllocateOperation+0x1f0>
     456:	4b4d      	ldr	r3, [pc, #308]	; (58c <TEE_AllocateOperation+0x376>)
     458:	429c      	cmp	r4, r3
     45a:	f43f af4f 	beq.w	2fc <TEE_AllocateOperation+0xe6>
     45e:	d812      	bhi.n	486 <TEE_AllocateOperation+0x270>
     460:	f5a3 1343 	sub.w	r3, r3, #3194880	; 0x30c000
     464:	f5a3 5388 	sub.w	r3, r3, #4352	; 0x1100
     468:	429c      	cmp	r4, r3
     46a:	f43f af47 	beq.w	2fc <TEE_AllocateOperation+0xe6>
     46e:	f503 1303 	add.w	r3, r3, #2146304	; 0x20c000
     472:	f503 7380 	add.w	r3, r3, #256	; 0x100
     476:	429c      	cmp	r4, r3
     478:	f43f af40 	beq.w	2fc <TEE_AllocateOperation+0xe6>
     47c:	f5a3 1303 	sub.w	r3, r3, #2146304	; 0x20c000
     480:	f5a3 5388 	sub.w	r3, r3, #4352	; 0x1100
     484:	e7bf      	b.n	406 <TEE_AllocateOperation+0x1f0>
     486:	4b42      	ldr	r3, [pc, #264]	; (590 <TEE_AllocateOperation+0x37a>)
     488:	429c      	cmp	r4, r3
     48a:	f43f af37 	beq.w	2fc <TEE_AllocateOperation+0xe6>
     48e:	f503 1380 	add.w	r3, r3, #1048576	; 0x100000
     492:	f503 5380 	add.w	r3, r3, #4096	; 0x1000
     496:	429c      	cmp	r4, r3
     498:	f43f af30 	beq.w	2fc <TEE_AllocateOperation+0xe6>
     49c:	f5a3 1300 	sub.w	r3, r3, #2097152	; 0x200000
     4a0:	f5a3 5300 	sub.w	r3, r3, #8192	; 0x2000
     4a4:	e7af      	b.n	406 <TEE_AllocateOperation+0x1f0>
     4a6:	4b3b      	ldr	r3, [pc, #236]	; (594 <TEE_AllocateOperation+0x37e>)
     4a8:	429c      	cmp	r4, r3
     4aa:	d823      	bhi.n	4f4 <TEE_AllocateOperation+0x2de>
     4ac:	3b01      	subs	r3, #1
     4ae:	429c      	cmp	r4, r3
     4b0:	d20d      	bcs.n	4ce <TEE_AllocateOperation+0x2b8>
     4b2:	f5a3 5383 	sub.w	r3, r3, #4192	; 0x1060
     4b6:	3b1e      	subs	r3, #30
     4b8:	429c      	cmp	r4, r3
     4ba:	d008      	beq.n	4ce <TEE_AllocateOperation+0x2b8>
     4bc:	d810      	bhi.n	4e0 <TEE_AllocateOperation+0x2ca>
     4be:	f5a3 5380 	sub.w	r3, r3, #4096	; 0x1000
     4c2:	429c      	cmp	r4, r3
     4c4:	d003      	beq.n	4ce <TEE_AllocateOperation+0x2b8>
     4c6:	337e      	adds	r3, #126	; 0x7e
     4c8:	429c      	cmp	r4, r3
     4ca:	f47f af03 	bne.w	2d4 <TEE_AllocateOperation+0xbe>
/home/yin/imx-optee/imx-optee-os/lib/libutee/tee_api_operations.c:209
     4ce:	2f06      	cmp	r7, #6
     4d0:	f47f af00 	bne.w	2d4 <TEE_AllocateOperation+0xbe>
/home/yin/imx-optee/imx-optee-os/lib/libutee/tee_api_operations.c:44
     4d4:	2600      	movs	r6, #0
/home/yin/imx-optee/imx-optee-os/lib/libutee/tee_api_operations.c:211
     4d6:	f04f 0a01 	mov.w	sl, #1
/home/yin/imx-optee/imx-optee-os/lib/libutee/tee_api_operations.c:212
     4da:	2240      	movs	r2, #64	; 0x40
/home/yin/imx-optee/imx-optee-os/lib/libutee/tee_api_operations.c:41
     4dc:	4653      	mov	r3, sl
     4de:	e745      	b.n	36c <TEE_AllocateOperation+0x156>
/home/yin/imx-optee/imx-optee-os/lib/libutee/tee_api_operations.c:108
     4e0:	4b2d      	ldr	r3, [pc, #180]	; (598 <TEE_AllocateOperation+0x382>)
     4e2:	429c      	cmp	r4, r3
     4e4:	f4ff aef6 	bcc.w	2d4 <TEE_AllocateOperation+0xbe>
     4e8:	3302      	adds	r3, #2
     4ea:	429c      	cmp	r4, r3
     4ec:	d9ef      	bls.n	4ce <TEE_AllocateOperation+0x2b8>
     4ee:	f503 6378 	add.w	r3, r3, #3968	; 0xf80
     4f2:	e7e9      	b.n	4c8 <TEE_AllocateOperation+0x2b2>
     4f4:	4b29      	ldr	r3, [pc, #164]	; (59c <TEE_AllocateOperation+0x386>)
     4f6:	429c      	cmp	r4, r3
     4f8:	d0e9      	beq.n	4ce <TEE_AllocateOperation+0x2b8>
     4fa:	d80c      	bhi.n	516 <TEE_AllocateOperation+0x300>
     4fc:	f5a3 5380 	sub.w	r3, r3, #4096	; 0x1000
     500:	429c      	cmp	r4, r3
     502:	d0e4      	beq.n	4ce <TEE_AllocateOperation+0x2b8>
     504:	f4ff aee6 	bcc.w	2d4 <TEE_AllocateOperation+0xbe>
     508:	f5a3 4301 	sub.w	r3, r3, #33024	; 0x8100
     50c:	3b02      	subs	r3, #2
     50e:	4423      	add	r3, r4
     510:	2b01      	cmp	r3, #1
     512:	d9dc      	bls.n	4ce <TEE_AllocateOperation+0x2b8>
     514:	e6de      	b.n	2d4 <TEE_AllocateOperation+0xbe>
     516:	4b22      	ldr	r3, [pc, #136]	; (5a0 <TEE_AllocateOperation+0x38a>)
     518:	429c      	cmp	r4, r3
     51a:	f4ff aedb 	bcc.w	2d4 <TEE_AllocateOperation+0xbe>
     51e:	3301      	adds	r3, #1
     520:	429c      	cmp	r4, r3
     522:	d9d4      	bls.n	4ce <TEE_AllocateOperation+0x2b8>
     524:	f5a3 4331 	sub.w	r3, r3, #45312	; 0xb100
     528:	3b81      	subs	r3, #129	; 0x81
     52a:	e7f0      	b.n	50e <TEE_AllocateOperation+0x2f8>
     52c:	10000410 	.word	0x10000410
     530:	70004131 	.word	0x70004131
     534:	70002131 	.word	0x70002131
     538:	30000513 	.word	0x30000513
     53c:	10000310 	.word	0x10000310
     540:	70003131 	.word	0x70003131
     544:	80002042 	.word	0x80002042
     548:	70005041 	.word	0x70005041
     54c:	80001042 	.word	0x80001042
     550:	ffff000a 	.word	0xffff000a
     554:	80004042 	.word	0x80004042
     558:	10000113 	.word	0x10000113
     55c:	30000111 	.word	0x30000111
     560:	30000113 	.word	0x30000113
     564:	60210230 	.word	0x60210230
     568:	50000006 	.word	0x50000006
     56c:	40000710 	.word	0x40000710
     570:	30000610 	.word	0x30000610
     574:	60000030 	.word	0x60000030
     578:	60610230 	.word	0x60610230
     57c:	70001830 	.word	0x70001830
     580:	80000032 	.word	0x80000032
     584:	70003041 	.word	0x70003041
     588:	70004830 	.word	0x70004830
     58c:	70313930 	.word	0x70313930
     590:	70515930 	.word	0x70515930
     594:	800030c1 	.word	0x800030c1
     598:	800020c0 	.word	0x800020c0
     59c:	80005042 	.word	0x80005042
     5a0:	800050c0 	.word	0x800050c0
/home/yin/imx-optee/imx-optee-os/lib/libutee/tee_api_operations.c:50
     5a4:	f44f 2800 	mov.w	r8, #524288	; 0x80000
/home/yin/imx-optee/imx-optee-os/lib/libutee/tee_api_operations.c:111
     5a8:	2601      	movs	r6, #1
/home/yin/imx-optee/imx-optee-os/lib/libutee/tee_api_operations.c:120
     5aa:	b2e3      	uxtb	r3, r4
/home/yin/imx-optee/imx-optee-os/lib/libutee/tee_api_operations.c:123
     5ac:	2b10      	cmp	r3, #16
     5ae:	bf0c      	ite	eq
     5b0:	2310      	moveq	r3, #16
     5b2:	2308      	movne	r3, #8
/home/yin/imx-optee/imx-optee-os/lib/libutee/tee_api_operations.c:127
     5b4:	2f00      	cmp	r7, #0
     5b6:	d05d      	beq.n	674 <TEE_AllocateOperation+0x45e>
/home/yin/imx-optee/imx-optee-os/lib/libutee/tee_api_operations.c:129
     5b8:	2f01      	cmp	r7, #1
     5ba:	f47f ae8b 	bne.w	2d4 <TEE_AllocateOperation+0xbe>
/home/yin/imx-optee/imx-optee-os/lib/libutee/tee_api_operations.c:43
     5be:	f04f 0a00 	mov.w	sl, #0
/home/yin/imx-optee/imx-optee-os/lib/libutee/tee_api_operations.c:130
     5c2:	2204      	movs	r2, #4
     5c4:	e015      	b.n	5f2 <TEE_AllocateOperation+0x3dc>
/home/yin/imx-optee/imx-optee-os/lib/libutee/tee_api_operations.c:108
     5c6:	f04f 0800 	mov.w	r8, #0
     5ca:	e7ed      	b.n	5a8 <TEE_AllocateOperation+0x392>
/home/yin/imx-optee/imx-optee-os/lib/libutee/tee_api_operations.c:181
     5cc:	2f00      	cmp	r7, #0
     5ce:	d05f      	beq.n	690 <TEE_AllocateOperation+0x47a>
/home/yin/imx-optee/imx-optee-os/lib/libutee/tee_api_operations.c:183
     5d0:	2f01      	cmp	r7, #1
     5d2:	f47f ae7f 	bne.w	2d4 <TEE_AllocateOperation+0xbe>
/home/yin/imx-optee/imx-optee-os/lib/libutee/tee_api_operations.c:44
     5d6:	2600      	movs	r6, #0
/home/yin/imx-optee/imx-optee-os/lib/libutee/tee_api_operations.c:184
     5d8:	f04f 0a01 	mov.w	sl, #1
/home/yin/imx-optee/imx-optee-os/lib/libutee/tee_api_operations.c:185
     5dc:	2214      	movs	r2, #20
     5de:	e77d      	b.n	4dc <TEE_AllocateOperation+0x2c6>
/home/yin/imx-optee/imx-optee-os/lib/libutee/tee_api_operations.c:221
     5e0:	2f05      	cmp	r7, #5
     5e2:	f47f ae77 	bne.w	2d4 <TEE_AllocateOperation+0xbe>
/home/yin/imx-optee/imx-optee-os/lib/libutee/tee_api_operations.c:44
     5e6:	2600      	movs	r6, #0
/home/yin/imx-optee/imx-optee-os/lib/libutee/tee_api_operations.c:41
     5e8:	2301      	movs	r3, #1
/home/yin/imx-optee/imx-optee-os/lib/libutee/tee_api_operations.c:43
     5ea:	46b2      	mov	sl, r6
/home/yin/imx-optee/imx-optee-os/lib/libutee/tee_api_operations.c:225
     5ec:	4632      	mov	r2, r6
/home/yin/imx-optee/imx-optee-os/lib/libutee/tee_api_operations.c:224
     5ee:	f44f 2880 	mov.w	r8, #262144	; 0x40000
/home/yin/imx-optee/imx-optee-os/lib/libutee/tee_api_operations.c:250
     5f2:	2100      	movs	r1, #0
     5f4:	2044      	movs	r0, #68	; 0x44
     5f6:	9205      	str	r2, [sp, #20]
     5f8:	9304      	str	r3, [sp, #16]
     5fa:	f001 ffba 	bl	2572 <TEE_Malloc>
/home/yin/imx-optee/imx-optee-os/lib/libutee/tee_api_operations.c:251
     5fe:	4605      	mov	r5, r0
     600:	2800      	cmp	r0, #0
     602:	f000 8099 	beq.w	738 <TEE_AllocateOperation+0x522>
/home/yin/imx-optee/imx-optee-os/lib/libutee/tee_api_operations.c:261
     606:	9b04      	ldr	r3, [sp, #16]
/home/yin/imx-optee/imx-optee-os/lib/libutee/tee_api_operations.c:255
     608:	ea4f 7b14 	mov.w	fp, r4, lsr #28
/home/yin/imx-optee/imx-optee-os/lib/libutee/tee_api_operations.c:258
     60c:	9a05      	ldr	r2, [sp, #20]
/home/yin/imx-optee/imx-optee-os/lib/libutee/tee_api_operations.c:254
     60e:	6004      	str	r4, [r0, #0]
/home/yin/imx-optee/imx-optee-os/lib/libutee/tee_api_operations.c:261
     610:	2b01      	cmp	r3, #1
/home/yin/imx-optee/imx-optee-os/lib/libutee/tee_api_operations.c:255
     612:	f8c0 b004 	str.w	fp, [r0, #4]
/home/yin/imx-optee/imx-optee-os/lib/libutee/tee_api_operations.c:256
     616:	6087      	str	r7, [r0, #8]
/home/yin/imx-optee/imx-optee-os/lib/libutee/tee_api_operations.c:257
     618:	f8c0 9010 	str.w	r9, [r0, #16]
/home/yin/imx-optee/imx-optee-os/lib/libutee/tee_api_operations.c:258
     61c:	6182      	str	r2, [r0, #24]
/home/yin/imx-optee/imx-optee-os/lib/libutee/tee_api_operations.c:259
     61e:	f8c0 801c 	str.w	r8, [r0, #28]
/home/yin/imx-optee/imx-optee-os/lib/libutee/tee_api_operations.c:261
     622:	d13a      	bne.n	69a <TEE_AllocateOperation+0x484>
/home/yin/imx-optee/imx-optee-os/lib/libutee/tee_api_operations.c:277
     624:	f1bb 0f05 	cmp.w	fp, #5
/home/yin/imx-optee/imx-optee-os/lib/libutee/tee_api_operations.c:274
     628:	636b      	str	r3, [r5, #52]	; 0x34
/home/yin/imx-optee/imx-optee-os/lib/libutee/tee_api_operations.c:275
     62a:	f885 6030 	strb.w	r6, [r5, #48]	; 0x30
/home/yin/imx-optee/imx-optee-os/lib/libutee/tee_api_operations.c:277
     62e:	d143      	bne.n	6b8 <TEE_AllocateOperation+0x4a2>
/home/yin/imx-optee/imx-optee-os/lib/libutee/tee_api_operations.c:301
     630:	f105 033c 	add.w	r3, r5, #60	; 0x3c
     634:	4639      	mov	r1, r7
     636:	9300      	str	r3, [sp, #0]
     638:	4620      	mov	r0, r4
     63a:	6a2a      	ldr	r2, [r5, #32]
     63c:	6a6b      	ldr	r3, [r5, #36]	; 0x24
     63e:	f001 e9bc 	blx	19b8 <utee_cryp_state_alloc>
/home/yin/imx-optee/imx-optee-os/lib/libutee/tee_api_operations.c:303
     642:	4602      	mov	r2, r0
     644:	2800      	cmp	r0, #0
     646:	d179      	bne.n	73c <TEE_AllocateOperation+0x526>
/home/yin/imx-optee/imx-optee-os/lib/libutee/tee_api_operations.c:311
     648:	f1bb 0f05 	cmp.w	fp, #5
     64c:	d10a      	bne.n	664 <TEE_AllocateOperation+0x44e>
/home/yin/imx-optee/imx-optee-os/lib/libutee/tee_api_operations.c:312
     64e:	4601      	mov	r1, r0
     650:	6be8      	ldr	r0, [r5, #60]	; 0x3c
     652:	f001 e9d2 	blx	19f8 <utee_hash_init>
/home/yin/imx-optee/imx-optee-os/lib/libutee/tee_api_operations.c:313
     656:	4606      	mov	r6, r0
     658:	2800      	cmp	r0, #0
     65a:	d151      	bne.n	700 <TEE_AllocateOperation+0x4ea>
/home/yin/imx-optee/imx-optee-os/lib/libutee/tee_api_operations.c:316
     65c:	69eb      	ldr	r3, [r5, #28]
     65e:	f443 3300 	orr.w	r3, r3, #131072	; 0x20000
     662:	61eb      	str	r3, [r5, #28]
/home/yin/imx-optee/imx-optee-os/lib/libutee/tee_api_operations.c:321
     664:	9b03      	ldr	r3, [sp, #12]
/home/yin/imx-optee/imx-optee-os/lib/libutee/tee_api_operations.c:319
     666:	2600      	movs	r6, #0
     668:	62ae      	str	r6, [r5, #40]	; 0x28
/home/yin/imx-optee/imx-optee-os/lib/libutee/tee_api_operations.c:321
     66a:	601d      	str	r5, [r3, #0]
/home/yin/imx-optee/imx-optee-os/lib/libutee/tee_api_operations.c:341
     66c:	4630      	mov	r0, r6
     66e:	b007      	add	sp, #28
     670:	e8bd 8ff0 	ldmia.w	sp!, {r4, r5, r6, r7, r8, r9, sl, fp, pc}
/home/yin/imx-optee/imx-optee-os/lib/libutee/tee_api_operations.c:43
     674:	46ba      	mov	sl, r7
/home/yin/imx-optee/imx-optee-os/lib/libutee/tee_api_operations.c:128
     676:	2202      	movs	r2, #2
     678:	e7bb      	b.n	5f2 <TEE_AllocateOperation+0x3dc>
/home/yin/imx-optee/imx-optee-os/lib/libutee/tee_api_operations.c:44
     67a:	2600      	movs	r6, #0
/home/yin/imx-optee/imx-optee-os/lib/libutee/tee_api_operations.c:155
     67c:	f04f 0a01 	mov.w	sl, #1
/home/yin/imx-optee/imx-optee-os/lib/libutee/tee_api_operations.c:156
     680:	2210      	movs	r2, #16
     682:	e72b      	b.n	4dc <TEE_AllocateOperation+0x2c6>
     684:	46b8      	mov	r8, r7
/home/yin/imx-optee/imx-optee-os/lib/libutee/tee_api_operations.c:44
     686:	463e      	mov	r6, r7
/home/yin/imx-optee/imx-optee-os/lib/libutee/tee_api_operations.c:43
     688:	46ba      	mov	sl, r7
/home/yin/imx-optee/imx-optee-os/lib/libutee/tee_api_operations.c:171
     68a:	2202      	movs	r2, #2
/home/yin/imx-optee/imx-optee-os/lib/libutee/tee_api_operations.c:41
     68c:	2301      	movs	r3, #1
     68e:	e7b0      	b.n	5f2 <TEE_AllocateOperation+0x3dc>
     690:	46b8      	mov	r8, r7
/home/yin/imx-optee/imx-optee-os/lib/libutee/tee_api_operations.c:44
     692:	463e      	mov	r6, r7
/home/yin/imx-optee/imx-optee-os/lib/libutee/tee_api_operations.c:43
     694:	46ba      	mov	sl, r7
/home/yin/imx-optee/imx-optee-os/lib/libutee/tee_api_operations.c:182
     696:	2222      	movs	r2, #34	; 0x22
     698:	e7f8      	b.n	68c <TEE_AllocateOperation+0x476>
/home/yin/imx-optee/imx-optee-os/lib/libutee/tee_api_operations.c:264
     69a:	b15e      	cbz	r6, 6b4 <TEE_AllocateOperation+0x49e>
/home/yin/imx-optee/imx-optee-os/lib/libutee/tee_api_operations.c:265
     69c:	0058      	lsls	r0, r3, #1
/home/yin/imx-optee/imx-optee-os/lib/libutee/tee_api_operations.c:267
     69e:	f04f 4100 	mov.w	r1, #2147483648	; 0x80000000
     6a2:	9304      	str	r3, [sp, #16]
     6a4:	f001 ff65 	bl	2572 <TEE_Malloc>
/home/yin/imx-optee/imx-optee-os/lib/libutee/tee_api_operations.c:269
     6a8:	9b04      	ldr	r3, [sp, #16]
/home/yin/imx-optee/imx-optee-os/lib/libutee/tee_api_operations.c:267
     6aa:	62e8      	str	r0, [r5, #44]	; 0x2c
/home/yin/imx-optee/imx-optee-os/lib/libutee/tee_api_operations.c:269
     6ac:	2800      	cmp	r0, #0
     6ae:	d1b9      	bne.n	624 <TEE_AllocateOperation+0x40e>
/home/yin/imx-optee/imx-optee-os/lib/libutee/tee_api_operations.c:270
     6b0:	4e23      	ldr	r6, [pc, #140]	; (740 <TEE_AllocateOperation+0x52a>)
     6b2:	e02e      	b.n	712 <TEE_AllocateOperation+0x4fc>
     6b4:	4618      	mov	r0, r3
     6b6:	e7f2      	b.n	69e <TEE_AllocateOperation+0x488>
/home/yin/imx-optee/imx-optee-os/lib/libutee/tee_api_operations.c:279
     6b8:	f1ba 0f00 	cmp.w	sl, #0
     6bc:	fa5f f884 	uxtb.w	r8, r4
     6c0:	bf14      	ite	ne
     6c2:	f04f 4321 	movne.w	r3, #2701131776	; 0xa1000000
     6c6:	f04f 4320 	moveq.w	r3, #2684354560	; 0xa0000000
     6ca:	ea43 0808 	orr.w	r8, r3, r8
/home/yin/imx-optee/imx-optee-os/lib/libutee/tee_api_operations.c:286
     6ce:	69eb      	ldr	r3, [r5, #28]
/home/yin/imx-optee/imx-optee-os/lib/libutee/tee_api_operations.c:289
     6d0:	4640      	mov	r0, r8
/home/yin/imx-optee/imx-optee-os/lib/libutee/tee_api_operations.c:286
     6d2:	031a      	lsls	r2, r3, #12
/home/yin/imx-optee/imx-optee-os/lib/libutee/tee_api_operations.c:289
     6d4:	f105 0220 	add.w	r2, r5, #32
/home/yin/imx-optee/imx-optee-os/lib/libutee/tee_api_operations.c:287
     6d8:	bf48      	it	mi
     6da:	ea4f 0959 	movmi.w	r9, r9, lsr #1
/home/yin/imx-optee/imx-optee-os/lib/libutee/tee_api_operations.c:289
     6de:	4649      	mov	r1, r9
     6e0:	f002 f866 	bl	27b0 <TEE_AllocateTransientObject>
/home/yin/imx-optee/imx-optee-os/lib/libutee/tee_api_operations.c:290
     6e4:	4606      	mov	r6, r0
     6e6:	b958      	cbnz	r0, 700 <TEE_AllocateOperation+0x4ea>
/home/yin/imx-optee/imx-optee-os/lib/libutee/tee_api_operations.c:293
     6e8:	69eb      	ldr	r3, [r5, #28]
     6ea:	031b      	lsls	r3, r3, #12
     6ec:	d5a0      	bpl.n	630 <TEE_AllocateOperation+0x41a>
/home/yin/imx-optee/imx-optee-os/lib/libutee/tee_api_operations.c:294
     6ee:	f105 0224 	add.w	r2, r5, #36	; 0x24
     6f2:	4649      	mov	r1, r9
     6f4:	4640      	mov	r0, r8
     6f6:	f002 f85b 	bl	27b0 <TEE_AllocateTransientObject>
/home/yin/imx-optee/imx-optee-os/lib/libutee/tee_api_operations.c:296
     6fa:	4606      	mov	r6, r0
     6fc:	2800      	cmp	r0, #0
     6fe:	d097      	beq.n	630 <TEE_AllocateOperation+0x41a>
/home/yin/imx-optee/imx-optee-os/lib/libutee/tee_api_operations.c:325
     700:	4b0f      	ldr	r3, [pc, #60]	; (740 <TEE_AllocateOperation+0x52a>)
     702:	429e      	cmp	r6, r3
     704:	d005      	beq.n	712 <TEE_AllocateOperation+0x4fc>
/home/yin/imx-optee/imx-optee-os/lib/libutee/tee_api_operations.c:325 (discriminator 1)
     706:	4b0f      	ldr	r3, [pc, #60]	; (744 <TEE_AllocateOperation+0x52e>)
     708:	429e      	cmp	r6, r3
     70a:	d002      	beq.n	712 <TEE_AllocateOperation+0x4fc>
/home/yin/imx-optee/imx-optee-os/lib/libutee/tee_api_operations.c:327
     70c:	4630      	mov	r0, r6
     70e:	f004 fbb9 	bl	4e84 <TEE_Panic>
/home/yin/imx-optee/imx-optee-os/lib/libutee/tee_api_operations.c:329
     712:	6beb      	ldr	r3, [r5, #60]	; 0x3c
     714:	b11b      	cbz	r3, 71e <TEE_AllocateOperation+0x508>
/home/yin/imx-optee/imx-optee-os/lib/libutee/tee_api_operations.c:330
     716:	4628      	mov	r0, r5
     718:	f7ff fd6a 	bl	1f0 <TEE_FreeOperation>
     71c:	e7a6      	b.n	66c <TEE_AllocateOperation+0x456>
/home/yin/imx-optee/imx-optee-os/lib/libutee/tee_api_operations.c:332
     71e:	6ae8      	ldr	r0, [r5, #44]	; 0x2c
     720:	f001 ff4e 	bl	25c0 <TEE_Free>
/home/yin/imx-optee/imx-optee-os/lib/libutee/tee_api_operations.c:333
     724:	6a28      	ldr	r0, [r5, #32]
     726:	f002 f85b 	bl	27e0 <TEE_FreeTransientObject>
/home/yin/imx-optee/imx-optee-os/lib/libutee/tee_api_operations.c:334
     72a:	6a68      	ldr	r0, [r5, #36]	; 0x24
     72c:	f002 f858 	bl	27e0 <TEE_FreeTransientObject>
/home/yin/imx-optee/imx-optee-os/lib/libutee/tee_api_operations.c:335
     730:	4628      	mov	r0, r5
     732:	f001 ff45 	bl	25c0 <TEE_Free>
     736:	e799      	b.n	66c <TEE_AllocateOperation+0x456>
/home/yin/imx-optee/imx-optee-os/lib/libutee/tee_api_operations.c:252
     738:	4e01      	ldr	r6, [pc, #4]	; (740 <TEE_AllocateOperation+0x52a>)
     73a:	e797      	b.n	66c <TEE_AllocateOperation+0x456>
     73c:	4606      	mov	r6, r0
     73e:	e7df      	b.n	700 <TEE_AllocateOperation+0x4ea>
     740:	ffff000c 	.word	0xffff000c
     744:	ffff000a 	.word	0xffff000a

00000748 <TEE_GetOperationInfo>:
TEE_GetOperationInfo():
/home/yin/imx-optee/imx-optee-os/lib/libutee/tee_api_operations.c:365
     748:	b538      	push	{r3, r4, r5, lr}
     74a:	460c      	mov	r4, r1
/home/yin/imx-optee/imx-optee-os/lib/libutee/tee_api_operations.c:366
     74c:	4605      	mov	r5, r0
     74e:	b908      	cbnz	r0, 754 <TEE_GetOperationInfo+0xc>
/home/yin/imx-optee/imx-optee-os/lib/libutee/tee_api_operations.c:367
     750:	f004 fb98 	bl	4e84 <TEE_Panic>
/home/yin/imx-optee/imx-optee-os/lib/libutee/tee_api_operations.c:369
     754:	b914      	cbnz	r4, 75c <TEE_GetOperationInfo+0x14>
/home/yin/imx-optee/imx-optee-os/lib/libutee/tee_api_operations.c:370
     756:	4620      	mov	r0, r4
     758:	f004 fb94 	bl	4e84 <TEE_Panic>
/home/yin/imx-optee/imx-optee-os/lib/libutee/tee_api_operations.c:372
     75c:	cd0f      	ldmia	r5!, {r0, r1, r2, r3}
     75e:	c40f      	stmia	r4!, {r0, r1, r2, r3}
     760:	e895 000f 	ldmia.w	r5, {r0, r1, r2, r3}
     764:	e884 000f 	stmia.w	r4, {r0, r1, r2, r3}
     768:	bd38      	pop	{r3, r4, r5, pc}

0000076a <TEE_GetOperationInfoMultiple>:
TEE_GetOperationInfoMultiple():
/home/yin/imx-optee/imx-optee-os/lib/libutee/tee_api_operations.c:378
     76a:	b5f0      	push	{r4, r5, r6, r7, lr}
     76c:	460c      	mov	r4, r1
     76e:	b08f      	sub	sp, #60	; 0x3c
/home/yin/imx-optee/imx-optee-os/lib/libutee/tee_api_operations.c:385
     770:	4605      	mov	r5, r0
     772:	2800      	cmp	r0, #0
     774:	d04b      	beq.n	80e <TEE_GetOperationInfoMultiple+0xa4>
/home/yin/imx-optee/imx-optee-os/lib/libutee/tee_api_operations.c:390
     776:	2900      	cmp	r1, #0
     778:	d049      	beq.n	80e <TEE_GetOperationInfoMultiple+0xa4>
/home/yin/imx-optee/imx-optee-os/lib/libutee/tee_api_operations.c:395
     77a:	2a00      	cmp	r2, #0
     77c:	d047      	beq.n	80e <TEE_GetOperationInfoMultiple+0xa4>
/home/yin/imx-optee/imx-optee-os/lib/libutee/tee_api_operations.c:400
     77e:	6817      	ldr	r7, [r2, #0]
     780:	3f20      	subs	r7, #32
     782:	08ff      	lsrs	r7, r7, #3
/home/yin/imx-optee/imx-optee-os/lib/libutee/tee_api_operations.c:403
     784:	2f02      	cmp	r7, #2
     786:	d842      	bhi.n	80e <TEE_GetOperationInfoMultiple+0xa4>
/home/yin/imx-optee/imx-optee-os/lib/libutee/tee_api_operations.c:409
     788:	69c3      	ldr	r3, [r0, #28]
     78a:	031b      	lsls	r3, r3, #12
     78c:	d421      	bmi.n	7d2 <TEE_GetOperationInfoMultiple+0x68>
/home/yin/imx-optee/imx-optee-os/lib/libutee/tee_api_operations.c:417 (discriminator 1)
     78e:	b347      	cbz	r7, 7e2 <TEE_GetOperationInfoMultiple+0x78>
/home/yin/imx-optee/imx-optee-os/lib/libutee/tee_api_operations.c:417
     790:	2f02      	cmp	r7, #2
/home/yin/imx-optee/imx-optee-os/lib/libutee/tee_api_operations.c:418
     792:	f04f 0300 	mov.w	r3, #0
     796:	6223      	str	r3, [r4, #32]
/home/yin/imx-optee/imx-optee-os/lib/libutee/tee_api_operations.c:419
     798:	6263      	str	r3, [r4, #36]	; 0x24
/home/yin/imx-optee/imx-optee-os/lib/libutee/tee_api_operations.c:417
     79a:	d120      	bne.n	7de <TEE_GetOperationInfoMultiple+0x74>
/home/yin/imx-optee/imx-optee-os/lib/libutee/tee_api_operations.c:418
     79c:	62a3      	str	r3, [r4, #40]	; 0x28
/home/yin/imx-optee/imx-optee-os/lib/libutee/tee_api_operations.c:423
     79e:	a907      	add	r1, sp, #28
/home/yin/imx-optee/imx-optee-os/lib/libutee/tee_api_operations.c:419
     7a0:	62e3      	str	r3, [r4, #44]	; 0x2c
/home/yin/imx-optee/imx-optee-os/lib/libutee/tee_api_operations.c:423
     7a2:	6a68      	ldr	r0, [r5, #36]	; 0x24
     7a4:	f001 ff4a 	bl	263c <TEE_GetObjectInfo1>
/home/yin/imx-optee/imx-optee-os/lib/libutee/tee_api_operations.c:425
     7a8:	4606      	mov	r6, r0
     7aa:	b970      	cbnz	r0, 7ca <TEE_GetOperationInfoMultiple+0x60>
/home/yin/imx-optee/imx-optee-os/lib/libutee/tee_api_operations.c:428
     7ac:	9b08      	ldr	r3, [sp, #32]
     7ae:	62a3      	str	r3, [r4, #40]	; 0x28
/home/yin/imx-optee/imx-optee-os/lib/libutee/tee_api_operations.c:430
     7b0:	69ab      	ldr	r3, [r5, #24]
     7b2:	62e3      	str	r3, [r4, #44]	; 0x2c
/home/yin/imx-optee/imx-optee-os/lib/libutee/tee_api_operations.c:435
     7b4:	4669      	mov	r1, sp
     7b6:	6a28      	ldr	r0, [r5, #32]
     7b8:	f001 ff40 	bl	263c <TEE_GetObjectInfo1>
/home/yin/imx-optee/imx-optee-os/lib/libutee/tee_api_operations.c:437
     7bc:	4606      	mov	r6, r0
     7be:	b308      	cbz	r0, 804 <TEE_GetOperationInfoMultiple+0x9a>
/home/yin/imx-optee/imx-optee-os/lib/libutee/tee_api_operations.c:438
     7c0:	2f02      	cmp	r7, #2
     7c2:	d102      	bne.n	7ca <TEE_GetOperationInfoMultiple+0x60>
/home/yin/imx-optee/imx-optee-os/lib/libutee/tee_api_operations.c:440
     7c4:	2300      	movs	r3, #0
     7c6:	62a3      	str	r3, [r4, #40]	; 0x28
/home/yin/imx-optee/imx-optee-os/lib/libutee/tee_api_operations.c:442
     7c8:	62e3      	str	r3, [r4, #44]	; 0x2c
/home/yin/imx-optee/imx-optee-os/lib/libutee/tee_api_operations.c:464
     7ca:	4b13      	ldr	r3, [pc, #76]	; (818 <TEE_GetOperationInfoMultiple+0xae>)
     7cc:	429e      	cmp	r6, r3
     7ce:	d002      	beq.n	7d6 <TEE_GetOperationInfoMultiple+0x6c>
     7d0:	e01e      	b.n	810 <TEE_GetOperationInfoMultiple+0xa6>
/home/yin/imx-optee/imx-optee-os/lib/libutee/tee_api_operations.c:410
     7d2:	2f02      	cmp	r7, #2
     7d4:	d0dc      	beq.n	790 <TEE_GetOperationInfoMultiple+0x26>
/home/yin/imx-optee/imx-optee-os/lib/libutee/tee_api_operations.c:461
     7d6:	4e10      	ldr	r6, [pc, #64]	; (818 <TEE_GetOperationInfoMultiple+0xae>)
/home/yin/imx-optee/imx-optee-os/lib/libutee/tee_api_operations.c:469
     7d8:	4630      	mov	r0, r6
     7da:	b00f      	add	sp, #60	; 0x3c
     7dc:	bdf0      	pop	{r4, r5, r6, r7, pc}
/home/yin/imx-optee/imx-optee-os/lib/libutee/tee_api_operations.c:434
     7de:	2f00      	cmp	r7, #0
     7e0:	d1e8      	bne.n	7b4 <TEE_GetOperationInfoMultiple+0x4a>
/home/yin/imx-optee/imx-optee-os/lib/libutee/tee_api_operations.c:454
     7e2:	682b      	ldr	r3, [r5, #0]
/home/yin/imx-optee/imx-optee-os/lib/libutee/tee_api_operations.c:461
     7e4:	2600      	movs	r6, #0
/home/yin/imx-optee/imx-optee-os/lib/libutee/tee_api_operations.c:454
     7e6:	6023      	str	r3, [r4, #0]
/home/yin/imx-optee/imx-optee-os/lib/libutee/tee_api_operations.c:455
     7e8:	686b      	ldr	r3, [r5, #4]
     7ea:	6063      	str	r3, [r4, #4]
/home/yin/imx-optee/imx-optee-os/lib/libutee/tee_api_operations.c:456
     7ec:	68ab      	ldr	r3, [r5, #8]
     7ee:	60a3      	str	r3, [r4, #8]
/home/yin/imx-optee/imx-optee-os/lib/libutee/tee_api_operations.c:457
     7f0:	68eb      	ldr	r3, [r5, #12]
     7f2:	60e3      	str	r3, [r4, #12]
/home/yin/imx-optee/imx-optee-os/lib/libutee/tee_api_operations.c:458
     7f4:	692b      	ldr	r3, [r5, #16]
     7f6:	6123      	str	r3, [r4, #16]
/home/yin/imx-optee/imx-optee-os/lib/libutee/tee_api_operations.c:459
     7f8:	69eb      	ldr	r3, [r5, #28]
     7fa:	6163      	str	r3, [r4, #20]
/home/yin/imx-optee/imx-optee-os/lib/libutee/tee_api_operations.c:460
     7fc:	6aab      	ldr	r3, [r5, #40]	; 0x28
/home/yin/imx-optee/imx-optee-os/lib/libutee/tee_api_operations.c:461
     7fe:	61e7      	str	r7, [r4, #28]
/home/yin/imx-optee/imx-optee-os/lib/libutee/tee_api_operations.c:460
     800:	61a3      	str	r3, [r4, #24]
     802:	e7e9      	b.n	7d8 <TEE_GetOperationInfoMultiple+0x6e>
/home/yin/imx-optee/imx-optee-os/lib/libutee/tee_api_operations.c:447
     804:	9b01      	ldr	r3, [sp, #4]
     806:	6223      	str	r3, [r4, #32]
/home/yin/imx-optee/imx-optee-os/lib/libutee/tee_api_operations.c:449
     808:	69ab      	ldr	r3, [r5, #24]
     80a:	6263      	str	r3, [r4, #36]	; 0x24
     80c:	e7e9      	b.n	7e2 <TEE_GetOperationInfoMultiple+0x78>
     80e:	4e03      	ldr	r6, [pc, #12]	; (81c <TEE_GetOperationInfoMultiple+0xb2>)
/home/yin/imx-optee/imx-optee-os/lib/libutee/tee_api_operations.c:466
     810:	4630      	mov	r0, r6
     812:	f004 fb37 	bl	4e84 <TEE_Panic>
/home/yin/imx-optee/imx-optee-os/lib/libutee/tee_api_operations.c:468
     816:	e7df      	b.n	7d8 <TEE_GetOperationInfoMultiple+0x6e>
     818:	ffff0010 	.word	0xffff0010
     81c:	ffff0006 	.word	0xffff0006

00000820 <TEE_ResetOperation>:
TEE_ResetOperation():
/home/yin/imx-optee/imx-optee-os/lib/libutee/tee_api_operations.c:472
     820:	b510      	push	{r4, lr}
/home/yin/imx-optee/imx-optee-os/lib/libutee/tee_api_operations.c:475
     822:	4604      	mov	r4, r0
     824:	b908      	cbnz	r0, 82a <TEE_ResetOperation+0xa>
/home/yin/imx-optee/imx-optee-os/lib/libutee/tee_api_operations.c:476
     826:	f004 fb2d 	bl	4e84 <TEE_Panic>
/home/yin/imx-optee/imx-optee-os/lib/libutee/tee_api_operations.c:478
     82a:	69e0      	ldr	r0, [r4, #28]
     82c:	f410 2080 	ands.w	r0, r0, #262144	; 0x40000
     830:	d101      	bne.n	836 <TEE_ResetOperation+0x16>
/home/yin/imx-optee/imx-optee-os/lib/libutee/tee_api_operations.c:479
     832:	f004 fb27 	bl	4e84 <TEE_Panic>
/home/yin/imx-optee/imx-optee-os/lib/libutee/tee_api_operations.c:483
     836:	6863      	ldr	r3, [r4, #4]
/home/yin/imx-optee/imx-optee-os/lib/libutee/tee_api_operations.c:481
     838:	2200      	movs	r2, #0
     83a:	62a2      	str	r2, [r4, #40]	; 0x28
/home/yin/imx-optee/imx-optee-os/lib/libutee/tee_api_operations.c:483
     83c:	2b05      	cmp	r3, #5
     83e:	d10b      	bne.n	858 <TEE_ResetOperation+0x38>
/home/yin/imx-optee/imx-optee-os/lib/libutee/tee_api_operations.c:484
     840:	4611      	mov	r1, r2
     842:	6be0      	ldr	r0, [r4, #60]	; 0x3c
     844:	f001 e8d8 	blx	19f8 <utee_hash_init>
/home/yin/imx-optee/imx-optee-os/lib/libutee/tee_api_operations.c:485
     848:	b108      	cbz	r0, 84e <TEE_ResetOperation+0x2e>
/home/yin/imx-optee/imx-optee-os/lib/libutee/tee_api_operations.c:486
     84a:	f004 fb1b 	bl	4e84 <TEE_Panic>
/home/yin/imx-optee/imx-optee-os/lib/libutee/tee_api_operations.c:487
     84e:	69e3      	ldr	r3, [r4, #28]
     850:	f443 3300 	orr.w	r3, r3, #131072	; 0x20000
/home/yin/imx-optee/imx-optee-os/lib/libutee/tee_api_operations.c:489
     854:	61e3      	str	r3, [r4, #28]
     856:	bd10      	pop	{r4, pc}
     858:	69e3      	ldr	r3, [r4, #28]
     85a:	f423 3300 	bic.w	r3, r3, #131072	; 0x20000
     85e:	e7f9      	b.n	854 <TEE_ResetOperation+0x34>

00000860 <TEE_SetOperationKey>:
TEE_SetOperationKey():
/home/yin/imx-optee/imx-optee-os/lib/libutee/tee_api_operations.c:495
     860:	b5f0      	push	{r4, r5, r6, r7, lr}
     862:	460e      	mov	r6, r1
     864:	b089      	sub	sp, #36	; 0x24
/home/yin/imx-optee/imx-optee-os/lib/libutee/tee_api_operations.c:500
     866:	4604      	mov	r4, r0
     868:	b128      	cbz	r0, 876 <TEE_SetOperationKey+0x16>
/home/yin/imx-optee/imx-optee-os/lib/libutee/tee_api_operations.c:505
     86a:	6a83      	ldr	r3, [r0, #40]	; 0x28
     86c:	b91b      	cbnz	r3, 876 <TEE_SetOperationKey+0x16>
/home/yin/imx-optee/imx-optee-os/lib/libutee/tee_api_operations.c:510
     86e:	b921      	cbnz	r1, 87a <TEE_SetOperationKey+0x1a>
/home/yin/imx-optee/imx-optee-os/lib/libutee/tee_api_operations.c:512
     870:	6a00      	ldr	r0, [r0, #32]
     872:	f001 ffcd 	bl	2810 <TEE_ResetTransientObject>
/home/yin/imx-optee/imx-optee-os/lib/libutee/tee_api_operations.c:495
     876:	4d1a      	ldr	r5, [pc, #104]	; (8e0 <TEE_SetOperationKey+0x80>)
     878:	e02e      	b.n	8d8 <TEE_SetOperationKey+0x78>
/home/yin/imx-optee/imx-optee-os/lib/libutee/tee_api_operations.c:518
     87a:	6843      	ldr	r3, [r0, #4]
     87c:	2b05      	cmp	r3, #5
     87e:	d0fa      	beq.n	876 <TEE_SetOperationKey+0x16>
/home/yin/imx-optee/imx-optee-os/lib/libutee/tee_api_operations.c:524
     880:	69c3      	ldr	r3, [r0, #28]
     882:	031b      	lsls	r3, r3, #12
     884:	d4f7      	bmi.n	876 <TEE_SetOperationKey+0x16>
/home/yin/imx-optee/imx-optee-os/lib/libutee/tee_api_operations.c:530
     886:	a901      	add	r1, sp, #4
     888:	4630      	mov	r0, r6
     88a:	f001 fed7 	bl	263c <TEE_GetObjectInfo1>
/home/yin/imx-optee/imx-optee-os/lib/libutee/tee_api_operations.c:532
     88e:	4605      	mov	r5, r0
     890:	b9e0      	cbnz	r0, 8cc <TEE_SetOperationKey+0x6c>
/home/yin/imx-optee/imx-optee-os/lib/libutee/tee_api_operations.c:536
     892:	69a3      	ldr	r3, [r4, #24]
     894:	9a04      	ldr	r2, [sp, #16]
     896:	4393      	bics	r3, r2
     898:	d1ed      	bne.n	876 <TEE_SetOperationKey+0x16>
/home/yin/imx-optee/imx-optee-os/lib/libutee/tee_api_operations.c:542
     89a:	9f02      	ldr	r7, [sp, #8]
     89c:	6923      	ldr	r3, [r4, #16]
     89e:	42bb      	cmp	r3, r7
     8a0:	d3e9      	bcc.n	876 <TEE_SetOperationKey+0x16>
/home/yin/imx-optee/imx-optee-os/lib/libutee/tee_api_operations.c:549
     8a2:	6a20      	ldr	r0, [r4, #32]
     8a4:	f001 ffb4 	bl	2810 <TEE_ResetTransientObject>
/home/yin/imx-optee/imx-optee-os/lib/libutee/tee_api_operations.c:550
     8a8:	69e3      	ldr	r3, [r4, #28]
/home/yin/imx-optee/imx-optee-os/lib/libutee/tee_api_operations.c:552
     8aa:	4631      	mov	r1, r6
     8ac:	6a20      	ldr	r0, [r4, #32]
/home/yin/imx-optee/imx-optee-os/lib/libutee/tee_api_operations.c:550
     8ae:	f423 2380 	bic.w	r3, r3, #262144	; 0x40000
     8b2:	61e3      	str	r3, [r4, #28]
/home/yin/imx-optee/imx-optee-os/lib/libutee/tee_api_operations.c:552
     8b4:	f002 f81e 	bl	28f4 <TEE_CopyObjectAttributes1>
/home/yin/imx-optee/imx-optee-os/lib/libutee/tee_api_operations.c:553
     8b8:	4605      	mov	r5, r0
     8ba:	b938      	cbnz	r0, 8cc <TEE_SetOperationKey+0x6c>
/home/yin/imx-optee/imx-optee-os/lib/libutee/tee_api_operations.c:556
     8bc:	69e3      	ldr	r3, [r4, #28]
/home/yin/imx-optee/imx-optee-os/lib/libutee/tee_api_operations.c:558
     8be:	6167      	str	r7, [r4, #20]
/home/yin/imx-optee/imx-optee-os/lib/libutee/tee_api_operations.c:556
     8c0:	f443 2380 	orr.w	r3, r3, #262144	; 0x40000
     8c4:	61e3      	str	r3, [r4, #28]
/home/yin/imx-optee/imx-optee-os/lib/libutee/tee_api_operations.c:567
     8c6:	4628      	mov	r0, r5
     8c8:	b009      	add	sp, #36	; 0x24
     8ca:	bdf0      	pop	{r4, r5, r6, r7, pc}
/home/yin/imx-optee/imx-optee-os/lib/libutee/tee_api_operations.c:561
     8cc:	4b05      	ldr	r3, [pc, #20]	; (8e4 <TEE_SetOperationKey+0x84>)
     8ce:	429d      	cmp	r5, r3
     8d0:	d0f9      	beq.n	8c6 <TEE_SetOperationKey+0x66>
/home/yin/imx-optee/imx-optee-os/lib/libutee/tee_api_operations.c:562
     8d2:	4b05      	ldr	r3, [pc, #20]	; (8e8 <TEE_SetOperationKey+0x88>)
     8d4:	429d      	cmp	r5, r3
     8d6:	d0f6      	beq.n	8c6 <TEE_SetOperationKey+0x66>
/home/yin/imx-optee/imx-optee-os/lib/libutee/tee_api_operations.c:564
     8d8:	4628      	mov	r0, r5
     8da:	f004 fad3 	bl	4e84 <TEE_Panic>
/home/yin/imx-optee/imx-optee-os/lib/libutee/tee_api_operations.c:566
     8de:	e7f2      	b.n	8c6 <TEE_SetOperationKey+0x66>
     8e0:	ffff0006 	.word	0xffff0006
     8e4:	f0100001 	.word	0xf0100001
     8e8:	f0100003 	.word	0xf0100003

000008ec <TEE_SetOperationKey2>:
TEE_SetOperationKey2():
/home/yin/imx-optee/imx-optee-os/lib/libutee/tee_api_operations.c:571
     8ec:	e92d 41f0 	stmdb	sp!, {r4, r5, r6, r7, r8, lr}
     8f0:	4688      	mov	r8, r1
     8f2:	b08e      	sub	sp, #56	; 0x38
     8f4:	4616      	mov	r6, r2
/home/yin/imx-optee/imx-optee-os/lib/libutee/tee_api_operations.c:577
     8f6:	4604      	mov	r4, r0
     8f8:	b130      	cbz	r0, 908 <TEE_SetOperationKey2+0x1c>
/home/yin/imx-optee/imx-optee-os/lib/libutee/tee_api_operations.c:582
     8fa:	6a83      	ldr	r3, [r0, #40]	; 0x28
     8fc:	b923      	cbnz	r3, 908 <TEE_SetOperationKey2+0x1c>
/home/yin/imx-optee/imx-optee-os/lib/libutee/tee_api_operations.c:591
     8fe:	b129      	cbz	r1, 90c <TEE_SetOperationKey2+0x20>
/home/yin/imx-optee/imx-optee-os/lib/libutee/tee_api_operations.c:591 (discriminator 1)
     900:	b952      	cbnz	r2, 918 <TEE_SetOperationKey2+0x2c>
/home/yin/imx-optee/imx-optee-os/lib/libutee/tee_api_operations.c:597
     902:	6a60      	ldr	r0, [r4, #36]	; 0x24
     904:	f001 ff84 	bl	2810 <TEE_ResetTransientObject>
/home/yin/imx-optee/imx-optee-os/lib/libutee/tee_api_operations.c:571
     908:	4d31      	ldr	r5, [pc, #196]	; (9d0 <TEE_SetOperationKey2+0xe4>)
     90a:	e05c      	b.n	9c6 <TEE_SetOperationKey2+0xda>
/home/yin/imx-optee/imx-optee-os/lib/libutee/tee_api_operations.c:594
     90c:	6a00      	ldr	r0, [r0, #32]
     90e:	f001 ff7f 	bl	2810 <TEE_ResetTransientObject>
/home/yin/imx-optee/imx-optee-os/lib/libutee/tee_api_operations.c:596
     912:	2e00      	cmp	r6, #0
     914:	d1f8      	bne.n	908 <TEE_SetOperationKey2+0x1c>
     916:	e7f4      	b.n	902 <TEE_SetOperationKey2+0x16>
/home/yin/imx-optee/imx-optee-os/lib/libutee/tee_api_operations.c:603
     918:	6843      	ldr	r3, [r0, #4]
     91a:	2b05      	cmp	r3, #5
     91c:	d0f4      	beq.n	908 <TEE_SetOperationKey2+0x1c>
/home/yin/imx-optee/imx-optee-os/lib/libutee/tee_api_operations.c:609
     91e:	69c3      	ldr	r3, [r0, #28]
     920:	031b      	lsls	r3, r3, #12
     922:	d5f1      	bpl.n	908 <TEE_SetOperationKey2+0x1c>
/home/yin/imx-optee/imx-optee-os/lib/libutee/tee_api_operations.c:615
     924:	4669      	mov	r1, sp
     926:	4640      	mov	r0, r8
     928:	f001 fe88 	bl	263c <TEE_GetObjectInfo1>
/home/yin/imx-optee/imx-optee-os/lib/libutee/tee_api_operations.c:617
     92c:	4605      	mov	r5, r0
     92e:	2800      	cmp	r0, #0
     930:	d13d      	bne.n	9ae <TEE_SetOperationKey2+0xc2>
/home/yin/imx-optee/imx-optee-os/lib/libutee/tee_api_operations.c:621
     932:	69a3      	ldr	r3, [r4, #24]
     934:	9a03      	ldr	r2, [sp, #12]
     936:	4393      	bics	r3, r2
     938:	d1e6      	bne.n	908 <TEE_SetOperationKey2+0x1c>
/home/yin/imx-optee/imx-optee-os/lib/libutee/tee_api_operations.c:627
     93a:	a907      	add	r1, sp, #28
     93c:	4630      	mov	r0, r6
     93e:	f001 fe7d 	bl	263c <TEE_GetObjectInfo1>
/home/yin/imx-optee/imx-optee-os/lib/libutee/tee_api_operations.c:629
     942:	4605      	mov	r5, r0
     944:	b120      	cbz	r0, 950 <TEE_SetOperationKey2+0x64>
/home/yin/imx-optee/imx-optee-os/lib/libutee/tee_api_operations.c:674
     946:	4b23      	ldr	r3, [pc, #140]	; (9d4 <TEE_SetOperationKey2+0xe8>)
     948:	429d      	cmp	r5, r3
     94a:	d133      	bne.n	9b4 <TEE_SetOperationKey2+0xc8>
/home/yin/imx-optee/imx-optee-os/lib/libutee/tee_api_operations.c:571
     94c:	4d22      	ldr	r5, [pc, #136]	; (9d8 <TEE_SetOperationKey2+0xec>)
     94e:	e02a      	b.n	9a6 <TEE_SetOperationKey2+0xba>
/home/yin/imx-optee/imx-optee-os/lib/libutee/tee_api_operations.c:636
     950:	69a3      	ldr	r3, [r4, #24]
     952:	9a0a      	ldr	r2, [sp, #40]	; 0x28
     954:	4393      	bics	r3, r2
     956:	d1d7      	bne.n	908 <TEE_SetOperationKey2+0x1c>
/home/yin/imx-optee/imx-optee-os/lib/libutee/tee_api_operations.c:646
     958:	6822      	ldr	r2, [r4, #0]
     95a:	4b20      	ldr	r3, [pc, #128]	; (9dc <TEE_SetOperationKey2+0xf0>)
     95c:	9f01      	ldr	r7, [sp, #4]
     95e:	429a      	cmp	r2, r3
     960:	d102      	bne.n	968 <TEE_SetOperationKey2+0x7c>
/home/yin/imx-optee/imx-optee-os/lib/libutee/tee_api_operations.c:646 (discriminator 1)
     962:	9b08      	ldr	r3, [sp, #32]
     964:	429f      	cmp	r7, r3
     966:	d1cf      	bne.n	908 <TEE_SetOperationKey2+0x1c>
/home/yin/imx-optee/imx-optee-os/lib/libutee/tee_api_operations.c:653
     968:	6923      	ldr	r3, [r4, #16]
     96a:	42bb      	cmp	r3, r7
     96c:	d3cc      	bcc.n	908 <TEE_SetOperationKey2+0x1c>
/home/yin/imx-optee/imx-optee-os/lib/libutee/tee_api_operations.c:664
     96e:	6a20      	ldr	r0, [r4, #32]
     970:	f001 ff4e 	bl	2810 <TEE_ResetTransientObject>
/home/yin/imx-optee/imx-optee-os/lib/libutee/tee_api_operations.c:665
     974:	6a60      	ldr	r0, [r4, #36]	; 0x24
     976:	f001 ff4b 	bl	2810 <TEE_ResetTransientObject>
/home/yin/imx-optee/imx-optee-os/lib/libutee/tee_api_operations.c:666
     97a:	69e3      	ldr	r3, [r4, #28]
/home/yin/imx-optee/imx-optee-os/lib/libutee/tee_api_operations.c:668
     97c:	4641      	mov	r1, r8
     97e:	6a20      	ldr	r0, [r4, #32]
/home/yin/imx-optee/imx-optee-os/lib/libutee/tee_api_operations.c:666
     980:	f423 2380 	bic.w	r3, r3, #262144	; 0x40000
     984:	61e3      	str	r3, [r4, #28]
/home/yin/imx-optee/imx-optee-os/lib/libutee/tee_api_operations.c:668
     986:	f001 ffb5 	bl	28f4 <TEE_CopyObjectAttributes1>
/home/yin/imx-optee/imx-optee-os/lib/libutee/tee_api_operations.c:669
     98a:	4605      	mov	r5, r0
     98c:	b978      	cbnz	r0, 9ae <TEE_SetOperationKey2+0xc2>
/home/yin/imx-optee/imx-optee-os/lib/libutee/tee_api_operations.c:672
     98e:	4631      	mov	r1, r6
     990:	6a60      	ldr	r0, [r4, #36]	; 0x24
     992:	f001 ffaf 	bl	28f4 <TEE_CopyObjectAttributes1>
/home/yin/imx-optee/imx-optee-os/lib/libutee/tee_api_operations.c:673
     996:	4605      	mov	r5, r0
     998:	2800      	cmp	r0, #0
     99a:	d1d4      	bne.n	946 <TEE_SetOperationKey2+0x5a>
/home/yin/imx-optee/imx-optee-os/lib/libutee/tee_api_operations.c:679
     99c:	69e3      	ldr	r3, [r4, #28]
/home/yin/imx-optee/imx-optee-os/lib/libutee/tee_api_operations.c:681
     99e:	6167      	str	r7, [r4, #20]
/home/yin/imx-optee/imx-optee-os/lib/libutee/tee_api_operations.c:679
     9a0:	f443 2380 	orr.w	r3, r3, #262144	; 0x40000
     9a4:	61e3      	str	r3, [r4, #28]
/home/yin/imx-optee/imx-optee-os/lib/libutee/tee_api_operations.c:692
     9a6:	4628      	mov	r0, r5
     9a8:	b00e      	add	sp, #56	; 0x38
     9aa:	e8bd 81f0 	ldmia.w	sp!, {r4, r5, r6, r7, r8, pc}
/home/yin/imx-optee/imx-optee-os/lib/libutee/tee_api_operations.c:684
     9ae:	4b09      	ldr	r3, [pc, #36]	; (9d4 <TEE_SetOperationKey2+0xe8>)
     9b0:	429d      	cmp	r5, r3
     9b2:	d0f8      	beq.n	9a6 <TEE_SetOperationKey2+0xba>
/home/yin/imx-optee/imx-optee-os/lib/libutee/tee_api_operations.c:685
     9b4:	4b08      	ldr	r3, [pc, #32]	; (9d8 <TEE_SetOperationKey2+0xec>)
     9b6:	429d      	cmp	r5, r3
     9b8:	d0c8      	beq.n	94c <TEE_SetOperationKey2+0x60>
/home/yin/imx-optee/imx-optee-os/lib/libutee/tee_api_operations.c:686
     9ba:	3301      	adds	r3, #1
     9bc:	429d      	cmp	r5, r3
     9be:	d0f2      	beq.n	9a6 <TEE_SetOperationKey2+0xba>
/home/yin/imx-optee/imx-optee-os/lib/libutee/tee_api_operations.c:687
     9c0:	3301      	adds	r3, #1
     9c2:	429d      	cmp	r5, r3
     9c4:	d0ef      	beq.n	9a6 <TEE_SetOperationKey2+0xba>
/home/yin/imx-optee/imx-optee-os/lib/libutee/tee_api_operations.c:689
     9c6:	4628      	mov	r0, r5
     9c8:	f004 fa5c 	bl	4e84 <TEE_Panic>
/home/yin/imx-optee/imx-optee-os/lib/libutee/tee_api_operations.c:691
     9cc:	e7eb      	b.n	9a6 <TEE_SetOperationKey2+0xba>
     9ce:	bf00      	nop
     9d0:	ffff0006 	.word	0xffff0006
     9d4:	f0100001 	.word	0xf0100001
     9d8:	f0100002 	.word	0xf0100002
     9dc:	10000410 	.word	0x10000410

000009e0 <TEE_CopyOperation>:
TEE_CopyOperation():
/home/yin/imx-optee/imx-optee-os/lib/libutee/tee_api_operations.c:695
     9e0:	b538      	push	{r3, r4, r5, lr}
     9e2:	460c      	mov	r4, r1
/home/yin/imx-optee/imx-optee-os/lib/libutee/tee_api_operations.c:698
     9e4:	4605      	mov	r5, r0
     9e6:	b100      	cbz	r0, 9ea <TEE_CopyOperation+0xa>
/home/yin/imx-optee/imx-optee-os/lib/libutee/tee_api_operations.c:698 (discriminator 1)
     9e8:	b911      	cbnz	r1, 9f0 <TEE_CopyOperation+0x10>
/home/yin/imx-optee/imx-optee-os/lib/libutee/tee_api_operations.c:699
     9ea:	2000      	movs	r0, #0
     9ec:	f004 fa4a 	bl	4e84 <TEE_Panic>
/home/yin/imx-optee/imx-optee-os/lib/libutee/tee_api_operations.c:700
     9f0:	682a      	ldr	r2, [r5, #0]
     9f2:	6823      	ldr	r3, [r4, #0]
     9f4:	429a      	cmp	r2, r3
     9f6:	d002      	beq.n	9fe <TEE_CopyOperation+0x1e>
/home/yin/imx-optee/imx-optee-os/lib/libutee/tee_api_operations.c:701
     9f8:	2000      	movs	r0, #0
     9fa:	f004 fa43 	bl	4e84 <TEE_Panic>
/home/yin/imx-optee/imx-optee-os/lib/libutee/tee_api_operations.c:702
     9fe:	6863      	ldr	r3, [r4, #4]
     a00:	2b05      	cmp	r3, #5
     a02:	d00b      	beq.n	a1c <TEE_CopyOperation+0x3c>
/home/yin/imx-optee/imx-optee-os/lib/libutee/tee_api_operations.c:706
     a04:	69e3      	ldr	r3, [r4, #28]
/home/yin/imx-optee/imx-optee-os/lib/libutee/tee_api_operations.c:713
     a06:	4628      	mov	r0, r5
/home/yin/imx-optee/imx-optee-os/lib/libutee/tee_api_operations.c:706
     a08:	f413 2280 	ands.w	r2, r3, #262144	; 0x40000
/home/yin/imx-optee/imx-optee-os/lib/libutee/tee_api_operations.c:707
     a0c:	bf16      	itet	ne
     a0e:	6a21      	ldrne	r1, [r4, #32]
/home/yin/imx-optee/imx-optee-os/lib/libutee/tee_api_operations.c:703
     a10:	4611      	moveq	r1, r2
/home/yin/imx-optee/imx-optee-os/lib/libutee/tee_api_operations.c:708
     a12:	6a62      	ldrne	r2, [r4, #36]	; 0x24
/home/yin/imx-optee/imx-optee-os/lib/libutee/tee_api_operations.c:711
     a14:	031b      	lsls	r3, r3, #12
     a16:	d42b      	bmi.n	a70 <TEE_CopyOperation+0x90>
/home/yin/imx-optee/imx-optee-os/lib/libutee/tee_api_operations.c:713
     a18:	f7ff ff22 	bl	860 <TEE_SetOperationKey>
/home/yin/imx-optee/imx-optee-os/lib/libutee/tee_api_operations.c:718
     a1c:	69e3      	ldr	r3, [r4, #28]
/home/yin/imx-optee/imx-optee-os/lib/libutee/tee_api_operations.c:722
     a1e:	f895 2030 	ldrb.w	r2, [r5, #48]	; 0x30
/home/yin/imx-optee/imx-optee-os/lib/libutee/tee_api_operations.c:718
     a22:	61eb      	str	r3, [r5, #28]
/home/yin/imx-optee/imx-optee-os/lib/libutee/tee_api_operations.c:719
     a24:	6963      	ldr	r3, [r4, #20]
     a26:	616b      	str	r3, [r5, #20]
/home/yin/imx-optee/imx-optee-os/lib/libutee/tee_api_operations.c:720
     a28:	6aa3      	ldr	r3, [r4, #40]	; 0x28
     a2a:	62ab      	str	r3, [r5, #40]	; 0x28
/home/yin/imx-optee/imx-optee-os/lib/libutee/tee_api_operations.c:722
     a2c:	f894 3030 	ldrb.w	r3, [r4, #48]	; 0x30
     a30:	429a      	cmp	r2, r3
     a32:	d103      	bne.n	a3c <TEE_CopyOperation+0x5c>
/home/yin/imx-optee/imx-optee-os/lib/libutee/tee_api_operations.c:722 (discriminator 1)
     a34:	6b6a      	ldr	r2, [r5, #52]	; 0x34
     a36:	6b63      	ldr	r3, [r4, #52]	; 0x34
     a38:	429a      	cmp	r2, r3
     a3a:	d002      	beq.n	a42 <TEE_CopyOperation+0x62>
/home/yin/imx-optee/imx-optee-os/lib/libutee/tee_api_operations.c:724
     a3c:	2000      	movs	r0, #0
     a3e:	f004 fa21 	bl	4e84 <TEE_Panic>
/home/yin/imx-optee/imx-optee-os/lib/libutee/tee_api_operations.c:726
     a42:	6ae8      	ldr	r0, [r5, #44]	; 0x2c
     a44:	6ae3      	ldr	r3, [r4, #44]	; 0x2c
     a46:	b1b0      	cbz	r0, a76 <TEE_CopyOperation+0x96>
/home/yin/imx-optee/imx-optee-os/lib/libutee/tee_api_operations.c:727
     a48:	b913      	cbnz	r3, a50 <TEE_CopyOperation+0x70>
/home/yin/imx-optee/imx-optee-os/lib/libutee/tee_api_operations.c:728
     a4a:	4618      	mov	r0, r3
     a4c:	f004 fa1a 	bl	4e84 <TEE_Panic>
/home/yin/imx-optee/imx-optee-os/lib/libutee/tee_api_operations.c:730
     a50:	6ba2      	ldr	r2, [r4, #56]	; 0x38
     a52:	6ae1      	ldr	r1, [r4, #44]	; 0x2c
     a54:	6ae8      	ldr	r0, [r5, #44]	; 0x2c
     a56:	f004 fa3c 	bl	4ed2 <memcpy>
/home/yin/imx-optee/imx-optee-os/lib/libutee/tee_api_operations.c:731
     a5a:	6ba3      	ldr	r3, [r4, #56]	; 0x38
     a5c:	63ab      	str	r3, [r5, #56]	; 0x38
/home/yin/imx-optee/imx-optee-os/lib/libutee/tee_api_operations.c:736
     a5e:	6be1      	ldr	r1, [r4, #60]	; 0x3c
     a60:	6be8      	ldr	r0, [r5, #60]	; 0x3c
     a62:	f000 efb6 	blx	19d0 <utee_cryp_state_copy>
/home/yin/imx-optee/imx-optee-os/lib/libutee/tee_api_operations.c:737
     a66:	b158      	cbz	r0, a80 <TEE_CopyOperation+0xa0>
/home/yin/imx-optee/imx-optee-os/lib/libutee/tee_api_operations.c:739
     a68:	e8bd 4038 	ldmia.w	sp!, {r3, r4, r5, lr}
/home/yin/imx-optee/imx-optee-os/lib/libutee/tee_api_operations.c:738
     a6c:	f004 ba0a 	b.w	4e84 <TEE_Panic>
/home/yin/imx-optee/imx-optee-os/lib/libutee/tee_api_operations.c:715
     a70:	f7ff ff3c 	bl	8ec <TEE_SetOperationKey2>
     a74:	e7d2      	b.n	a1c <TEE_CopyOperation+0x3c>
/home/yin/imx-optee/imx-optee-os/lib/libutee/tee_api_operations.c:732
     a76:	2b00      	cmp	r3, #0
     a78:	d0f1      	beq.n	a5e <TEE_CopyOperation+0x7e>
/home/yin/imx-optee/imx-optee-os/lib/libutee/tee_api_operations.c:733
     a7a:	f004 fa03 	bl	4e84 <TEE_Panic>
     a7e:	e7ee      	b.n	a5e <TEE_CopyOperation+0x7e>
     a80:	bd38      	pop	{r3, r4, r5, pc}

00000a82 <TEE_DigestUpdate>:
TEE_DigestUpdate():
/home/yin/imx-optee/imx-optee-os/lib/libutee/tee_api_operations.c:761
     a82:	b570      	push	{r4, r5, r6, lr}
     a84:	460d      	mov	r5, r1
     a86:	4616      	mov	r6, r2
/home/yin/imx-optee/imx-optee-os/lib/libutee/tee_api_operations.c:764
     a88:	4604      	mov	r4, r0
     a8a:	b110      	cbz	r0, a92 <TEE_DigestUpdate+0x10>
/home/yin/imx-optee/imx-optee-os/lib/libutee/tee_api_operations.c:764 (discriminator 1)
     a8c:	6843      	ldr	r3, [r0, #4]
     a8e:	2b05      	cmp	r3, #5
     a90:	d002      	beq.n	a98 <TEE_DigestUpdate+0x16>
/home/yin/imx-optee/imx-optee-os/lib/libutee/tee_api_operations.c:766
     a92:	2000      	movs	r0, #0
     a94:	f004 f9f6 	bl	4e84 <TEE_Panic>
/home/yin/imx-optee/imx-optee-os/lib/libutee/tee_api_operations.c:768
     a98:	2301      	movs	r3, #1
/home/yin/imx-optee/imx-optee-os/lib/libutee/tee_api_operations.c:770
     a9a:	4632      	mov	r2, r6
/home/yin/imx-optee/imx-optee-os/lib/libutee/tee_api_operations.c:768
     a9c:	62a3      	str	r3, [r4, #40]	; 0x28
/home/yin/imx-optee/imx-optee-os/lib/libutee/tee_api_operations.c:770
     a9e:	4629      	mov	r1, r5
     aa0:	6be0      	ldr	r0, [r4, #60]	; 0x3c
     aa2:	f000 efb4 	blx	1a0c <utee_hash_update>
/home/yin/imx-optee/imx-optee-os/lib/libutee/tee_api_operations.c:771
     aa6:	b118      	cbz	r0, ab0 <TEE_DigestUpdate+0x2e>
/home/yin/imx-optee/imx-optee-os/lib/libutee/tee_api_operations.c:773
     aa8:	e8bd 4070 	ldmia.w	sp!, {r4, r5, r6, lr}
/home/yin/imx-optee/imx-optee-os/lib/libutee/tee_api_operations.c:772
     aac:	f004 b9ea 	b.w	4e84 <TEE_Panic>
     ab0:	bd70      	pop	{r4, r5, r6, pc}

00000ab2 <TEE_DigestDoFinal>:
TEE_DigestDoFinal():
/home/yin/imx-optee/imx-optee-os/lib/libutee/tee_api_operations.c:777
     ab2:	b530      	push	{r4, r5, lr}
     ab4:	b085      	sub	sp, #20
     ab6:	9c08      	ldr	r4, [sp, #32]
/home/yin/imx-optee/imx-optee-os/lib/libutee/tee_api_operations.c:781
     ab8:	4605      	mov	r5, r0
     aba:	b328      	cbz	r0, b08 <TEE_DigestDoFinal+0x56>
/home/yin/imx-optee/imx-optee-os/lib/libutee/tee_api_operations.c:781 (discriminator 1)
     abc:	b901      	cbnz	r1, ac0 <TEE_DigestDoFinal+0xe>
/home/yin/imx-optee/imx-optee-os/lib/libutee/tee_api_operations.c:782
     abe:	bb1a      	cbnz	r2, b08 <TEE_DigestDoFinal+0x56>
/home/yin/imx-optee/imx-optee-os/lib/libutee/tee_api_operations.c:782 (discriminator 1)
     ac0:	b313      	cbz	r3, b08 <TEE_DigestDoFinal+0x56>
/home/yin/imx-optee/imx-optee-os/lib/libutee/tee_api_operations.c:783
     ac2:	b30c      	cbz	r4, b08 <TEE_DigestDoFinal+0x56>
/home/yin/imx-optee/imx-optee-os/lib/libutee/tee_api_operations.c:784
     ac4:	6868      	ldr	r0, [r5, #4]
     ac6:	2805      	cmp	r0, #5
     ac8:	d11e      	bne.n	b08 <TEE_DigestDoFinal+0x56>
/home/yin/imx-optee/imx-optee-os/lib/libutee/tee_api_operations.c:790
     aca:	6820      	ldr	r0, [r4, #0]
     acc:	9002      	str	r0, [sp, #8]
     ace:	2000      	movs	r0, #0
     ad0:	9003      	str	r0, [sp, #12]
/home/yin/imx-optee/imx-optee-os/lib/libutee/tee_api_operations.c:791
     ad2:	a802      	add	r0, sp, #8
     ad4:	9000      	str	r0, [sp, #0]
     ad6:	6be8      	ldr	r0, [r5, #60]	; 0x3c
     ad8:	f000 efa2 	blx	1a20 <utee_hash_final>
/home/yin/imx-optee/imx-optee-os/lib/libutee/tee_api_operations.c:792
     adc:	9b02      	ldr	r3, [sp, #8]
     ade:	6023      	str	r3, [r4, #0]
/home/yin/imx-optee/imx-optee-os/lib/libutee/tee_api_operations.c:793
     ae0:	4604      	mov	r4, r0
     ae2:	b9b0      	cbnz	r0, b12 <TEE_DigestDoFinal+0x60>
init_hash_operation():
/home/yin/imx-optee/imx-optee-os/lib/libutee/tee_api_operations.c:752
     ae4:	4602      	mov	r2, r0
     ae6:	4601      	mov	r1, r0
     ae8:	6be8      	ldr	r0, [r5, #60]	; 0x3c
     aea:	f000 ef86 	blx	19f8 <utee_hash_init>
/home/yin/imx-optee/imx-optee-os/lib/libutee/tee_api_operations.c:753
     aee:	b108      	cbz	r0, af4 <TEE_DigestDoFinal+0x42>
/home/yin/imx-optee/imx-optee-os/lib/libutee/tee_api_operations.c:754
     af0:	f004 f9c8 	bl	4e84 <TEE_Panic>
/home/yin/imx-optee/imx-optee-os/lib/libutee/tee_api_operations.c:756
     af4:	69eb      	ldr	r3, [r5, #28]
/home/yin/imx-optee/imx-optee-os/lib/libutee/tee_api_operations.c:755
     af6:	2200      	movs	r2, #0
     af8:	63aa      	str	r2, [r5, #56]	; 0x38
TEE_DigestDoFinal():
/home/yin/imx-optee/imx-optee-os/lib/libutee/tee_api_operations.c:799
     afa:	62aa      	str	r2, [r5, #40]	; 0x28
init_hash_operation():
/home/yin/imx-optee/imx-optee-os/lib/libutee/tee_api_operations.c:756
     afc:	f443 3300 	orr.w	r3, r3, #131072	; 0x20000
     b00:	61eb      	str	r3, [r5, #28]
TEE_DigestDoFinal():
/home/yin/imx-optee/imx-optee-os/lib/libutee/tee_api_operations.c:807
     b02:	4620      	mov	r0, r4
     b04:	b005      	add	sp, #20
     b06:	bd30      	pop	{r4, r5, pc}
     b08:	4c04      	ldr	r4, [pc, #16]	; (b1c <TEE_DigestDoFinal+0x6a>)
/home/yin/imx-optee/imx-optee-os/lib/libutee/tee_api_operations.c:804
     b0a:	4620      	mov	r0, r4
     b0c:	f004 f9ba 	bl	4e84 <TEE_Panic>
/home/yin/imx-optee/imx-optee-os/lib/libutee/tee_api_operations.c:806
     b10:	e7f7      	b.n	b02 <TEE_DigestDoFinal+0x50>
/home/yin/imx-optee/imx-optee-os/lib/libutee/tee_api_operations.c:802
     b12:	4b03      	ldr	r3, [pc, #12]	; (b20 <TEE_DigestDoFinal+0x6e>)
     b14:	4298      	cmp	r0, r3
     b16:	d0f4      	beq.n	b02 <TEE_DigestDoFinal+0x50>
     b18:	e7f7      	b.n	b0a <TEE_DigestDoFinal+0x58>
     b1a:	bf00      	nop
     b1c:	ffff0006 	.word	0xffff0006
     b20:	ffff0010 	.word	0xffff0010

00000b24 <TEE_CipherInit>:
TEE_CipherInit():
/home/yin/imx-optee/imx-optee-os/lib/libutee/tee_api_operations.c:813
     b24:	b570      	push	{r4, r5, r6, lr}
     b26:	460d      	mov	r5, r1
     b28:	4616      	mov	r6, r2
/home/yin/imx-optee/imx-optee-os/lib/libutee/tee_api_operations.c:816
     b2a:	4604      	mov	r4, r0
     b2c:	b908      	cbnz	r0, b32 <TEE_CipherInit+0xe>
/home/yin/imx-optee/imx-optee-os/lib/libutee/tee_api_operations.c:817
     b2e:	f004 f9a9 	bl	4e84 <TEE_Panic>
/home/yin/imx-optee/imx-optee-os/lib/libutee/tee_api_operations.c:819
     b32:	6863      	ldr	r3, [r4, #4]
     b34:	2b01      	cmp	r3, #1
     b36:	d002      	beq.n	b3e <TEE_CipherInit+0x1a>
/home/yin/imx-optee/imx-optee-os/lib/libutee/tee_api_operations.c:820
     b38:	2000      	movs	r0, #0
     b3a:	f004 f9a3 	bl	4e84 <TEE_Panic>
/home/yin/imx-optee/imx-optee-os/lib/libutee/tee_api_operations.c:822
     b3e:	69e3      	ldr	r3, [r4, #28]
     b40:	035b      	lsls	r3, r3, #13
     b42:	d501      	bpl.n	b48 <TEE_CipherInit+0x24>
/home/yin/imx-optee/imx-optee-os/lib/libutee/tee_api_operations.c:822 (discriminator 1)
     b44:	6a23      	ldr	r3, [r4, #32]
     b46:	b913      	cbnz	r3, b4e <TEE_CipherInit+0x2a>
/home/yin/imx-optee/imx-optee-os/lib/libutee/tee_api_operations.c:824
     b48:	2000      	movs	r0, #0
     b4a:	f004 f99b 	bl	4e84 <TEE_Panic>
/home/yin/imx-optee/imx-optee-os/lib/libutee/tee_api_operations.c:826
     b4e:	6aa3      	ldr	r3, [r4, #40]	; 0x28
     b50:	b113      	cbz	r3, b58 <TEE_CipherInit+0x34>
/home/yin/imx-optee/imx-optee-os/lib/libutee/tee_api_operations.c:827
     b52:	4620      	mov	r0, r4
     b54:	f7ff fe64 	bl	820 <TEE_ResetOperation>
/home/yin/imx-optee/imx-optee-os/lib/libutee/tee_api_operations.c:829
     b58:	2301      	movs	r3, #1
/home/yin/imx-optee/imx-optee-os/lib/libutee/tee_api_operations.c:831
     b5a:	4632      	mov	r2, r6
/home/yin/imx-optee/imx-optee-os/lib/libutee/tee_api_operations.c:829
     b5c:	62a3      	str	r3, [r4, #40]	; 0x28
/home/yin/imx-optee/imx-optee-os/lib/libutee/tee_api_operations.c:831
     b5e:	4629      	mov	r1, r5
     b60:	6be0      	ldr	r0, [r4, #60]	; 0x3c
     b62:	f000 ef6a 	blx	1a38 <utee_cipher_init>
/home/yin/imx-optee/imx-optee-os/lib/libutee/tee_api_operations.c:832
     b66:	b108      	cbz	r0, b6c <TEE_CipherInit+0x48>
/home/yin/imx-optee/imx-optee-os/lib/libutee/tee_api_operations.c:833
     b68:	f004 f98c 	bl	4e84 <TEE_Panic>
/home/yin/imx-optee/imx-optee-os/lib/libutee/tee_api_operations.c:835
     b6c:	2300      	movs	r3, #0
     b6e:	63a3      	str	r3, [r4, #56]	; 0x38
/home/yin/imx-optee/imx-optee-os/lib/libutee/tee_api_operations.c:836
     b70:	69e3      	ldr	r3, [r4, #28]
     b72:	f443 3300 	orr.w	r3, r3, #131072	; 0x20000
     b76:	61e3      	str	r3, [r4, #28]
     b78:	bd70      	pop	{r4, r5, r6, pc}

00000b7a <TEE_CipherUpdate>:
TEE_CipherUpdate():
/home/yin/imx-optee/imx-optee-os/lib/libutee/tee_api_operations.c:939
     b7a:	e92d 47f0 	stmdb	sp!, {r4, r5, r6, r7, r8, r9, sl, lr}
     b7e:	b086      	sub	sp, #24
     b80:	f8df a0e8 	ldr.w	sl, [pc, #232]	; c6c <TEE_CipherUpdate+0xf2>
     b84:	4688      	mov	r8, r1
     b86:	4614      	mov	r4, r2
     b88:	4699      	mov	r9, r3
     b8a:	9e0e      	ldr	r6, [sp, #56]	; 0x38
/home/yin/imx-optee/imx-optee-os/lib/libutee/tee_api_operations.c:944
     b8c:	4605      	mov	r5, r0
/home/yin/imx-optee/imx-optee-os/lib/libutee/tee_api_operations.c:939
     b8e:	44fa      	add	sl, pc
/home/yin/imx-optee/imx-optee-os/lib/libutee/tee_api_operations.c:944
     b90:	2800      	cmp	r0, #0
     b92:	d064      	beq.n	c5e <TEE_CipherUpdate+0xe4>
/home/yin/imx-optee/imx-optee-os/lib/libutee/tee_api_operations.c:944 (discriminator 1)
     b94:	b909      	cbnz	r1, b9a <TEE_CipherUpdate+0x20>
/home/yin/imx-optee/imx-optee-os/lib/libutee/tee_api_operations.c:945
     b96:	2a00      	cmp	r2, #0
     b98:	d161      	bne.n	c5e <TEE_CipherUpdate+0xe4>
/home/yin/imx-optee/imx-optee-os/lib/libutee/tee_api_operations.c:945 (discriminator 1)
     b9a:	2e00      	cmp	r6, #0
     b9c:	d05f      	beq.n	c5e <TEE_CipherUpdate+0xe4>
/home/yin/imx-optee/imx-optee-os/lib/libutee/tee_api_operations.c:946
     b9e:	f1b9 0f00 	cmp.w	r9, #0
     ba2:	d102      	bne.n	baa <TEE_CipherUpdate+0x30>
/home/yin/imx-optee/imx-optee-os/lib/libutee/tee_api_operations.c:947
     ba4:	6833      	ldr	r3, [r6, #0]
     ba6:	2b00      	cmp	r3, #0
     ba8:	d159      	bne.n	c5e <TEE_CipherUpdate+0xe4>
/home/yin/imx-optee/imx-optee-os/lib/libutee/tee_api_operations.c:952
     baa:	686b      	ldr	r3, [r5, #4]
     bac:	2b01      	cmp	r3, #1
     bae:	d156      	bne.n	c5e <TEE_CipherUpdate+0xe4>
/home/yin/imx-optee/imx-optee-os/lib/libutee/tee_api_operations.c:957
     bb0:	69eb      	ldr	r3, [r5, #28]
     bb2:	039b      	lsls	r3, r3, #14
     bb4:	d553      	bpl.n	c5e <TEE_CipherUpdate+0xe4>
/home/yin/imx-optee/imx-optee-os/lib/libutee/tee_api_operations.c:962
     bb6:	6aab      	ldr	r3, [r5, #40]	; 0x28
     bb8:	2b01      	cmp	r3, #1
     bba:	d150      	bne.n	c5e <TEE_CipherUpdate+0xe4>
/home/yin/imx-optee/imx-optee-os/lib/libutee/tee_api_operations.c:967
     bbc:	f1b8 0f00 	cmp.w	r8, #0
     bc0:	d105      	bne.n	bce <TEE_CipherUpdate+0x54>
/home/yin/imx-optee/imx-optee-os/lib/libutee/tee_api_operations.c:967 (discriminator 1)
     bc2:	b924      	cbnz	r4, bce <TEE_CipherUpdate+0x54>
/home/yin/imx-optee/imx-optee-os/lib/libutee/tee_api_operations.c:968
     bc4:	6034      	str	r4, [r6, #0]
/home/yin/imx-optee/imx-optee-os/lib/libutee/tee_api_operations.c:1018
     bc6:	4620      	mov	r0, r4
     bc8:	b006      	add	sp, #24
     bca:	e8bd 87f0 	ldmia.w	sp!, {r4, r5, r6, r7, r8, r9, sl, pc}
/home/yin/imx-optee/imx-optee-os/lib/libutee/tee_api_operations.c:974
     bce:	6b6f      	ldr	r7, [r5, #52]	; 0x34
     bd0:	2f01      	cmp	r7, #1
     bd2:	d913      	bls.n	bfc <TEE_CipherUpdate+0x82>
/home/yin/imx-optee/imx-optee-os/lib/libutee/tee_api_operations.c:975
     bd4:	6ba8      	ldr	r0, [r5, #56]	; 0x38
     bd6:	4639      	mov	r1, r7
     bd8:	4420      	add	r0, r4
     bda:	f004 f9d4 	bl	4f86 <__aeabi_uidiv>
     bde:	4378      	muls	r0, r7
/home/yin/imx-optee/imx-optee-os/lib/libutee/tee_api_operations.c:980
     be0:	f895 3030 	ldrb.w	r3, [r5, #48]	; 0x30
     be4:	b123      	cbz	r3, bf0 <TEE_CipherUpdate+0x76>
/home/yin/imx-optee/imx-optee-os/lib/libutee/tee_api_operations.c:981
     be6:	007b      	lsls	r3, r7, #1
     be8:	4298      	cmp	r0, r3
/home/yin/imx-optee/imx-optee-os/lib/libutee/tee_api_operations.c:982
     bea:	bf8c      	ite	hi
     bec:	1ac0      	subhi	r0, r0, r3
/home/yin/imx-optee/imx-optee-os/lib/libutee/tee_api_operations.c:984
     bee:	2000      	movls	r0, #0
/home/yin/imx-optee/imx-optee-os/lib/libutee/tee_api_operations.c:991
     bf0:	6833      	ldr	r3, [r6, #0]
     bf2:	4298      	cmp	r0, r3
     bf4:	d904      	bls.n	c00 <TEE_CipherUpdate+0x86>
/home/yin/imx-optee/imx-optee-os/lib/libutee/tee_api_operations.c:992
     bf6:	6030      	str	r0, [r6, #0]
     bf8:	4c1a      	ldr	r4, [pc, #104]	; (c64 <TEE_CipherUpdate+0xea>)
     bfa:	e7e4      	b.n	bc6 <TEE_CipherUpdate+0x4c>
     bfc:	4620      	mov	r0, r4
     bfe:	e7ef      	b.n	be0 <TEE_CipherUpdate+0x66>
/home/yin/imx-optee/imx-optee-os/lib/libutee/tee_api_operations.c:998
     c00:	2f01      	cmp	r7, #1
/home/yin/imx-optee/imx-optee-os/lib/libutee/tee_api_operations.c:997
     c02:	9304      	str	r3, [sp, #16]
     c04:	f04f 0300 	mov.w	r3, #0
     c08:	9305      	str	r3, [sp, #20]
/home/yin/imx-optee/imx-optee-os/lib/libutee/tee_api_operations.c:998
     c0a:	d919      	bls.n	c40 <TEE_CipherUpdate+0xc6>
/home/yin/imx-optee/imx-optee-os/lib/libutee/tee_api_operations.c:999
     c0c:	4b18      	ldr	r3, [pc, #96]	; (c70 <TEE_CipherUpdate+0xf6>)
     c0e:	4642      	mov	r2, r8
     c10:	4628      	mov	r0, r5
     c12:	f85a 3003 	ldr.w	r3, [sl, r3]
     c16:	f8cd 9000 	str.w	r9, [sp]
     c1a:	9303      	str	r3, [sp, #12]
     c1c:	ab04      	add	r3, sp, #16
     c1e:	9301      	str	r3, [sp, #4]
     c20:	4623      	mov	r3, r4
     c22:	9903      	ldr	r1, [sp, #12]
     c24:	f7ff fa36 	bl	94 <tee_buffer_update>
/home/yin/imx-optee/imx-optee-os/lib/libutee/tee_api_operations.c:1003
     c28:	4604      	mov	r4, r0
/home/yin/imx-optee/imx-optee-os/lib/libutee/tee_api_operations.c:1010
     c2a:	9b04      	ldr	r3, [sp, #16]
     c2c:	6033      	str	r3, [r6, #0]
/home/yin/imx-optee/imx-optee-os/lib/libutee/tee_api_operations.c:1013
     c2e:	2c00      	cmp	r4, #0
     c30:	d0c9      	beq.n	bc6 <TEE_CipherUpdate+0x4c>
/home/yin/imx-optee/imx-optee-os/lib/libutee/tee_api_operations.c:1013 (discriminator 1)
     c32:	4b0c      	ldr	r3, [pc, #48]	; (c64 <TEE_CipherUpdate+0xea>)
     c34:	429c      	cmp	r4, r3
     c36:	d0c6      	beq.n	bc6 <TEE_CipherUpdate+0x4c>
/home/yin/imx-optee/imx-optee-os/lib/libutee/tee_api_operations.c:1015
     c38:	4620      	mov	r0, r4
     c3a:	f004 f923 	bl	4e84 <TEE_Panic>
/home/yin/imx-optee/imx-optee-os/lib/libutee/tee_api_operations.c:1017
     c3e:	e7c2      	b.n	bc6 <TEE_CipherUpdate+0x4c>
/home/yin/imx-optee/imx-optee-os/lib/libutee/tee_api_operations.c:1002
     c40:	b144      	cbz	r4, c54 <TEE_CipherUpdate+0xda>
/home/yin/imx-optee/imx-optee-os/lib/libutee/tee_api_operations.c:1003
     c42:	ab04      	add	r3, sp, #16
     c44:	4622      	mov	r2, r4
     c46:	9300      	str	r3, [sp, #0]
     c48:	4641      	mov	r1, r8
     c4a:	464b      	mov	r3, r9
     c4c:	6be8      	ldr	r0, [r5, #60]	; 0x3c
     c4e:	f000 eefe 	blx	1a4c <utee_cipher_update>
     c52:	e7e9      	b.n	c28 <TEE_CipherUpdate+0xae>
/home/yin/imx-optee/imx-optee-os/lib/libutee/tee_api_operations.c:1007
     c54:	2200      	movs	r2, #0
     c56:	2300      	movs	r3, #0
     c58:	e9cd 2304 	strd	r2, r3, [sp, #16]
     c5c:	e7e5      	b.n	c2a <TEE_CipherUpdate+0xb0>
     c5e:	4c02      	ldr	r4, [pc, #8]	; (c68 <TEE_CipherUpdate+0xee>)
     c60:	e7ea      	b.n	c38 <TEE_CipherUpdate+0xbe>
     c62:	bf00      	nop
     c64:	ffff0010 	.word	0xffff0010
     c68:	ffff0006 	.word	0xffff0006
     c6c:	00007d02 	.word	0x00007d02
     c70:	00000024 	.word	0x00000024

00000c74 <TEE_CipherDoFinal>:
TEE_CipherDoFinal():
/home/yin/imx-optee/imx-optee-os/lib/libutee/tee_api_operations.c:1023
     c74:	e92d 4ff0 	stmdb	sp!, {r4, r5, r6, r7, r8, r9, sl, fp, lr}
     c78:	b087      	sub	sp, #28
     c7a:	f8df b104 	ldr.w	fp, [pc, #260]	; d80 <TEE_CipherDoFinal+0x10c>
     c7e:	468a      	mov	sl, r1
     c80:	4614      	mov	r4, r2
     c82:	4698      	mov	r8, r3
     c84:	9f10      	ldr	r7, [sp, #64]	; 0x40
/home/yin/imx-optee/imx-optee-os/lib/libutee/tee_api_operations.c:1030
     c86:	4605      	mov	r5, r0
/home/yin/imx-optee/imx-optee-os/lib/libutee/tee_api_operations.c:1023
     c88:	44fb      	add	fp, pc
/home/yin/imx-optee/imx-optee-os/lib/libutee/tee_api_operations.c:1030
     c8a:	2800      	cmp	r0, #0
     c8c:	d069      	beq.n	d62 <TEE_CipherDoFinal+0xee>
/home/yin/imx-optee/imx-optee-os/lib/libutee/tee_api_operations.c:1030 (discriminator 1)
     c8e:	b909      	cbnz	r1, c94 <TEE_CipherDoFinal+0x20>
/home/yin/imx-optee/imx-optee-os/lib/libutee/tee_api_operations.c:1031
     c90:	2a00      	cmp	r2, #0
     c92:	d166      	bne.n	d62 <TEE_CipherDoFinal+0xee>
/home/yin/imx-optee/imx-optee-os/lib/libutee/tee_api_operations.c:1031 (discriminator 1)
     c94:	2f00      	cmp	r7, #0
     c96:	d064      	beq.n	d62 <TEE_CipherDoFinal+0xee>
/home/yin/imx-optee/imx-optee-os/lib/libutee/tee_api_operations.c:1032
     c98:	f1b8 0f00 	cmp.w	r8, #0
     c9c:	d102      	bne.n	ca4 <TEE_CipherDoFinal+0x30>
/home/yin/imx-optee/imx-optee-os/lib/libutee/tee_api_operations.c:1033
     c9e:	683b      	ldr	r3, [r7, #0]
     ca0:	2b00      	cmp	r3, #0
     ca2:	d15e      	bne.n	d62 <TEE_CipherDoFinal+0xee>
/home/yin/imx-optee/imx-optee-os/lib/libutee/tee_api_operations.c:1038
     ca4:	686b      	ldr	r3, [r5, #4]
     ca6:	2b01      	cmp	r3, #1
     ca8:	d15b      	bne.n	d62 <TEE_CipherDoFinal+0xee>
/home/yin/imx-optee/imx-optee-os/lib/libutee/tee_api_operations.c:1043
     caa:	69eb      	ldr	r3, [r5, #28]
     cac:	039b      	lsls	r3, r3, #14
     cae:	d558      	bpl.n	d62 <TEE_CipherDoFinal+0xee>
/home/yin/imx-optee/imx-optee-os/lib/libutee/tee_api_operations.c:1048
     cb0:	6aab      	ldr	r3, [r5, #40]	; 0x28
     cb2:	2b01      	cmp	r3, #1
     cb4:	d155      	bne.n	d62 <TEE_CipherDoFinal+0xee>
/home/yin/imx-optee/imx-optee-os/lib/libutee/tee_api_operations.c:1057
     cb6:	682b      	ldr	r3, [r5, #0]
     cb8:	f423 7380 	bic.w	r3, r3, #256	; 0x100
     cbc:	f103 4270 	add.w	r2, r3, #4026531840	; 0xf0000000
     cc0:	3a10      	subs	r2, #16
     cc2:	2a01      	cmp	r2, #1
     cc4:	d902      	bls.n	ccc <TEE_CipherDoFinal+0x58>
/home/yin/imx-optee/imx-optee-os/lib/libutee/tee_api_operations.c:1060 (discriminator 1)
     cc6:	4a2b      	ldr	r2, [pc, #172]	; (d74 <TEE_CipherDoFinal+0x100>)
     cc8:	4293      	cmp	r3, r2
     cca:	d106      	bne.n	cda <TEE_CipherDoFinal+0x66>
/home/yin/imx-optee/imx-optee-os/lib/libutee/tee_api_operations.c:1063
     ccc:	6ba8      	ldr	r0, [r5, #56]	; 0x38
     cce:	6b69      	ldr	r1, [r5, #52]	; 0x34
     cd0:	4420      	add	r0, r4
     cd2:	f004 f978 	bl	4fc6 <__aeabi_uidivmod>
     cd6:	2900      	cmp	r1, #0
     cd8:	d143      	bne.n	d62 <TEE_CipherDoFinal+0xee>
/home/yin/imx-optee/imx-optee-os/lib/libutee/tee_api_operations.c:1075
     cda:	6b6a      	ldr	r2, [r5, #52]	; 0x34
/home/yin/imx-optee/imx-optee-os/lib/libutee/tee_api_operations.c:1080
     cdc:	6839      	ldr	r1, [r7, #0]
/home/yin/imx-optee/imx-optee-os/lib/libutee/tee_api_operations.c:1075
     cde:	2a01      	cmp	r2, #1
/home/yin/imx-optee/imx-optee-os/lib/libutee/tee_api_operations.c:1076
     ce0:	bf8a      	itet	hi
     ce2:	6bab      	ldrhi	r3, [r5, #56]	; 0x38
     ce4:	4623      	movls	r3, r4
     ce6:	191b      	addhi	r3, r3, r4
/home/yin/imx-optee/imx-optee-os/lib/libutee/tee_api_operations.c:1080
     ce8:	428b      	cmp	r3, r1
     cea:	d905      	bls.n	cf8 <TEE_CipherDoFinal+0x84>
/home/yin/imx-optee/imx-optee-os/lib/libutee/tee_api_operations.c:1081
     cec:	4c22      	ldr	r4, [pc, #136]	; (d78 <TEE_CipherDoFinal+0x104>)
     cee:	603b      	str	r3, [r7, #0]
/home/yin/imx-optee/imx-optee-os/lib/libutee/tee_api_operations.c:1119
     cf0:	4620      	mov	r0, r4
     cf2:	b007      	add	sp, #28
     cf4:	e8bd 8ff0 	ldmia.w	sp!, {r4, r5, r6, r7, r8, r9, sl, fp, pc}
/home/yin/imx-optee/imx-optee-os/lib/libutee/tee_api_operations.c:1087
     cf8:	2a01      	cmp	r2, #1
/home/yin/imx-optee/imx-optee-os/lib/libutee/tee_api_operations.c:1086
     cfa:	f04f 0600 	mov.w	r6, #0
     cfe:	9104      	str	r1, [sp, #16]
     d00:	f10d 0910 	add.w	r9, sp, #16
     d04:	9605      	str	r6, [sp, #20]
/home/yin/imx-optee/imx-optee-os/lib/libutee/tee_api_operations.c:1087
     d06:	d926      	bls.n	d56 <TEE_CipherDoFinal+0xe2>
/home/yin/imx-optee/imx-optee-os/lib/libutee/tee_api_operations.c:1088
     d08:	4b1e      	ldr	r3, [pc, #120]	; (d84 <TEE_CipherDoFinal+0x110>)
     d0a:	4652      	mov	r2, sl
     d0c:	4628      	mov	r0, r5
     d0e:	f85b 3003 	ldr.w	r3, [fp, r3]
     d12:	e88d 0300 	stmia.w	sp, {r8, r9}
     d16:	9303      	str	r3, [sp, #12]
     d18:	4623      	mov	r3, r4
     d1a:	9903      	ldr	r1, [sp, #12]
     d1c:	f7ff f9ba 	bl	94 <tee_buffer_update>
/home/yin/imx-optee/imx-optee-os/lib/libutee/tee_api_operations.c:1090
     d20:	4604      	mov	r4, r0
     d22:	bb18      	cbnz	r0, d6c <TEE_CipherDoFinal+0xf8>
/home/yin/imx-optee/imx-optee-os/lib/libutee/tee_api_operations.c:1093
     d24:	9e04      	ldr	r6, [sp, #16]
/home/yin/imx-optee/imx-optee-os/lib/libutee/tee_api_operations.c:1096
     d26:	683b      	ldr	r3, [r7, #0]
/home/yin/imx-optee/imx-optee-os/lib/libutee/tee_api_operations.c:1097
     d28:	f8cd 9000 	str.w	r9, [sp]
     d2c:	6baa      	ldr	r2, [r5, #56]	; 0x38
     d2e:	6ae9      	ldr	r1, [r5, #44]	; 0x2c
/home/yin/imx-optee/imx-optee-os/lib/libutee/tee_api_operations.c:1096
     d30:	1b9b      	subs	r3, r3, r6
     d32:	9304      	str	r3, [sp, #16]
/home/yin/imx-optee/imx-optee-os/lib/libutee/tee_api_operations.c:1097
     d34:	eb08 0306 	add.w	r3, r8, r6
/home/yin/imx-optee/imx-optee-os/lib/libutee/tee_api_operations.c:1096
     d38:	9005      	str	r0, [sp, #20]
/home/yin/imx-optee/imx-optee-os/lib/libutee/tee_api_operations.c:1100
     d3a:	6be8      	ldr	r0, [r5, #60]	; 0x3c
     d3c:	f000 ee92 	blx	1a64 <utee_cipher_final>
     d40:	4604      	mov	r4, r0
/home/yin/imx-optee/imx-optee-os/lib/libutee/tee_api_operations.c:1103
     d42:	b998      	cbnz	r0, d6c <TEE_CipherDoFinal+0xf8>
/home/yin/imx-optee/imx-optee-os/lib/libutee/tee_api_operations.c:1106
     d44:	9b04      	ldr	r3, [sp, #16]
     d46:	441e      	add	r6, r3
/home/yin/imx-optee/imx-optee-os/lib/libutee/tee_api_operations.c:1107
     d48:	603e      	str	r6, [r7, #0]
/home/yin/imx-optee/imx-optee-os/lib/libutee/tee_api_operations.c:1109
     d4a:	69eb      	ldr	r3, [r5, #28]
/home/yin/imx-optee/imx-optee-os/lib/libutee/tee_api_operations.c:1111
     d4c:	62a8      	str	r0, [r5, #40]	; 0x28
/home/yin/imx-optee/imx-optee-os/lib/libutee/tee_api_operations.c:1109
     d4e:	f423 3300 	bic.w	r3, r3, #131072	; 0x20000
     d52:	61eb      	str	r3, [r5, #28]
     d54:	e7cc      	b.n	cf0 <TEE_CipherDoFinal+0x7c>
/home/yin/imx-optee/imx-optee-os/lib/libutee/tee_api_operations.c:1100
     d56:	f8cd 9000 	str.w	r9, [sp]
     d5a:	4643      	mov	r3, r8
     d5c:	4622      	mov	r2, r4
     d5e:	4651      	mov	r1, sl
     d60:	e7eb      	b.n	d3a <TEE_CipherDoFinal+0xc6>
     d62:	4c06      	ldr	r4, [pc, #24]	; (d7c <TEE_CipherDoFinal+0x108>)
/home/yin/imx-optee/imx-optee-os/lib/libutee/tee_api_operations.c:1116
     d64:	4620      	mov	r0, r4
     d66:	f004 f88d 	bl	4e84 <TEE_Panic>
/home/yin/imx-optee/imx-optee-os/lib/libutee/tee_api_operations.c:1118
     d6a:	e7c1      	b.n	cf0 <TEE_CipherDoFinal+0x7c>
/home/yin/imx-optee/imx-optee-os/lib/libutee/tee_api_operations.c:1114
     d6c:	4b02      	ldr	r3, [pc, #8]	; (d78 <TEE_CipherDoFinal+0x104>)
     d6e:	429c      	cmp	r4, r3
     d70:	d0be      	beq.n	cf0 <TEE_CipherDoFinal+0x7c>
     d72:	e7f7      	b.n	d64 <TEE_CipherDoFinal+0xf0>
     d74:	10000013 	.word	0x10000013
     d78:	ffff0010 	.word	0xffff0010
     d7c:	ffff0006 	.word	0xffff0006
     d80:	00007c08 	.word	0x00007c08
     d84:	00000024 	.word	0x00000024

00000d88 <TEE_MACInit>:
TEE_MACInit():
/home/yin/imx-optee/imx-optee-os/lib/libutee/tee_api_operations.c:1124
     d88:	b570      	push	{r4, r5, r6, lr}
     d8a:	460d      	mov	r5, r1
     d8c:	4616      	mov	r6, r2
/home/yin/imx-optee/imx-optee-os/lib/libutee/tee_api_operations.c:1125
     d8e:	4604      	mov	r4, r0
     d90:	b908      	cbnz	r0, d96 <TEE_MACInit+0xe>
/home/yin/imx-optee/imx-optee-os/lib/libutee/tee_api_operations.c:1126
     d92:	f004 f877 	bl	4e84 <TEE_Panic>
/home/yin/imx-optee/imx-optee-os/lib/libutee/tee_api_operations.c:1128
     d96:	6863      	ldr	r3, [r4, #4]
     d98:	2b03      	cmp	r3, #3
     d9a:	d002      	beq.n	da2 <TEE_MACInit+0x1a>
/home/yin/imx-optee/imx-optee-os/lib/libutee/tee_api_operations.c:1129
     d9c:	2000      	movs	r0, #0
     d9e:	f004 f871 	bl	4e84 <TEE_Panic>
/home/yin/imx-optee/imx-optee-os/lib/libutee/tee_api_operations.c:1131
     da2:	69e3      	ldr	r3, [r4, #28]
     da4:	035b      	lsls	r3, r3, #13
     da6:	d501      	bpl.n	dac <TEE_MACInit+0x24>
/home/yin/imx-optee/imx-optee-os/lib/libutee/tee_api_operations.c:1131 (discriminator 1)
     da8:	6a23      	ldr	r3, [r4, #32]
     daa:	b913      	cbnz	r3, db2 <TEE_MACInit+0x2a>
/home/yin/imx-optee/imx-optee-os/lib/libutee/tee_api_operations.c:1133
     dac:	2000      	movs	r0, #0
     dae:	f004 f869 	bl	4e84 <TEE_Panic>
/home/yin/imx-optee/imx-optee-os/lib/libutee/tee_api_operations.c:1135
     db2:	6aa3      	ldr	r3, [r4, #40]	; 0x28
     db4:	b113      	cbz	r3, dbc <TEE_MACInit+0x34>
/home/yin/imx-optee/imx-optee-os/lib/libutee/tee_api_operations.c:1136
     db6:	4620      	mov	r0, r4
     db8:	f7ff fd32 	bl	820 <TEE_ResetOperation>
/home/yin/imx-optee/imx-optee-os/lib/libutee/tee_api_operations.c:1138
     dbc:	2301      	movs	r3, #1
init_hash_operation():
/home/yin/imx-optee/imx-optee-os/lib/libutee/tee_api_operations.c:752
     dbe:	4632      	mov	r2, r6
TEE_MACInit():
/home/yin/imx-optee/imx-optee-os/lib/libutee/tee_api_operations.c:1138
     dc0:	62a3      	str	r3, [r4, #40]	; 0x28
init_hash_operation():
/home/yin/imx-optee/imx-optee-os/lib/libutee/tee_api_operations.c:752
     dc2:	4629      	mov	r1, r5
     dc4:	6be0      	ldr	r0, [r4, #60]	; 0x3c
     dc6:	f000 ee18 	blx	19f8 <utee_hash_init>
/home/yin/imx-optee/imx-optee-os/lib/libutee/tee_api_operations.c:753
     dca:	b108      	cbz	r0, dd0 <TEE_MACInit+0x48>
/home/yin/imx-optee/imx-optee-os/lib/libutee/tee_api_operations.c:754
     dcc:	f004 f85a 	bl	4e84 <TEE_Panic>
/home/yin/imx-optee/imx-optee-os/lib/libutee/tee_api_operations.c:755
     dd0:	2300      	movs	r3, #0
     dd2:	63a3      	str	r3, [r4, #56]	; 0x38
/home/yin/imx-optee/imx-optee-os/lib/libutee/tee_api_operations.c:756
     dd4:	69e3      	ldr	r3, [r4, #28]
     dd6:	f443 3300 	orr.w	r3, r3, #131072	; 0x20000
     dda:	61e3      	str	r3, [r4, #28]
     ddc:	bd70      	pop	{r4, r5, r6, pc}

00000dde <TEE_MACUpdate>:
TEE_MACUpdate():
/home/yin/imx-optee/imx-optee-os/lib/libutee/tee_api_operations.c:1145
     dde:	b570      	push	{r4, r5, r6, lr}
     de0:	460d      	mov	r5, r1
     de2:	4616      	mov	r6, r2
/home/yin/imx-optee/imx-optee-os/lib/libutee/tee_api_operations.c:1148
     de4:	4604      	mov	r4, r0
     de6:	b108      	cbz	r0, dec <TEE_MACUpdate+0xe>
/home/yin/imx-optee/imx-optee-os/lib/libutee/tee_api_operations.c:1148 (discriminator 1)
     de8:	b919      	cbnz	r1, df2 <TEE_MACUpdate+0x14>
/home/yin/imx-optee/imx-optee-os/lib/libutee/tee_api_operations.c:1148 (discriminator 2)
     dea:	b112      	cbz	r2, df2 <TEE_MACUpdate+0x14>
/home/yin/imx-optee/imx-optee-os/lib/libutee/tee_api_operations.c:1149
     dec:	2000      	movs	r0, #0
     dee:	f004 f849 	bl	4e84 <TEE_Panic>
/home/yin/imx-optee/imx-optee-os/lib/libutee/tee_api_operations.c:1151
     df2:	6863      	ldr	r3, [r4, #4]
     df4:	2b03      	cmp	r3, #3
     df6:	d002      	beq.n	dfe <TEE_MACUpdate+0x20>
/home/yin/imx-optee/imx-optee-os/lib/libutee/tee_api_operations.c:1152
     df8:	2000      	movs	r0, #0
     dfa:	f004 f843 	bl	4e84 <TEE_Panic>
/home/yin/imx-optee/imx-optee-os/lib/libutee/tee_api_operations.c:1154
     dfe:	69e0      	ldr	r0, [r4, #28]
     e00:	f410 3000 	ands.w	r0, r0, #131072	; 0x20000
     e04:	d101      	bne.n	e0a <TEE_MACUpdate+0x2c>
/home/yin/imx-optee/imx-optee-os/lib/libutee/tee_api_operations.c:1155
     e06:	f004 f83d 	bl	4e84 <TEE_Panic>
/home/yin/imx-optee/imx-optee-os/lib/libutee/tee_api_operations.c:1157
     e0a:	6aa3      	ldr	r3, [r4, #40]	; 0x28
     e0c:	2b01      	cmp	r3, #1
     e0e:	d002      	beq.n	e16 <TEE_MACUpdate+0x38>
/home/yin/imx-optee/imx-optee-os/lib/libutee/tee_api_operations.c:1158
     e10:	2000      	movs	r0, #0
     e12:	f004 f837 	bl	4e84 <TEE_Panic>
/home/yin/imx-optee/imx-optee-os/lib/libutee/tee_api_operations.c:1160
     e16:	4632      	mov	r2, r6
     e18:	4629      	mov	r1, r5
     e1a:	6be0      	ldr	r0, [r4, #60]	; 0x3c
     e1c:	f000 edf6 	blx	1a0c <utee_hash_update>
/home/yin/imx-optee/imx-optee-os/lib/libutee/tee_api_operations.c:1161
     e20:	b118      	cbz	r0, e2a <TEE_MACUpdate+0x4c>
/home/yin/imx-optee/imx-optee-os/lib/libutee/tee_api_operations.c:1163
     e22:	e8bd 4070 	ldmia.w	sp!, {r4, r5, r6, lr}
/home/yin/imx-optee/imx-optee-os/lib/libutee/tee_api_operations.c:1162
     e26:	f004 b82d 	b.w	4e84 <TEE_Panic>
     e2a:	bd70      	pop	{r4, r5, r6, pc}

00000e2c <TEE_MACComputeFinal>:
TEE_MACComputeFinal():
/home/yin/imx-optee/imx-optee-os/lib/libutee/tee_api_operations.c:1168
     e2c:	b530      	push	{r4, r5, lr}
     e2e:	b085      	sub	sp, #20
     e30:	9c08      	ldr	r4, [sp, #32]
/home/yin/imx-optee/imx-optee-os/lib/libutee/tee_api_operations.c:1172
     e32:	4605      	mov	r5, r0
     e34:	b308      	cbz	r0, e7a <TEE_MACComputeFinal+0x4e>
/home/yin/imx-optee/imx-optee-os/lib/libutee/tee_api_operations.c:1172 (discriminator 1)
     e36:	b901      	cbnz	r1, e3a <TEE_MACComputeFinal+0xe>
/home/yin/imx-optee/imx-optee-os/lib/libutee/tee_api_operations.c:1173
     e38:	b9fa      	cbnz	r2, e7a <TEE_MACComputeFinal+0x4e>
/home/yin/imx-optee/imx-optee-os/lib/libutee/tee_api_operations.c:1173 (discriminator 1)
     e3a:	b1f3      	cbz	r3, e7a <TEE_MACComputeFinal+0x4e>
/home/yin/imx-optee/imx-optee-os/lib/libutee/tee_api_operations.c:1174
     e3c:	b1ec      	cbz	r4, e7a <TEE_MACComputeFinal+0x4e>
/home/yin/imx-optee/imx-optee-os/lib/libutee/tee_api_operations.c:1180
     e3e:	6868      	ldr	r0, [r5, #4]
     e40:	2803      	cmp	r0, #3
     e42:	d11a      	bne.n	e7a <TEE_MACComputeFinal+0x4e>
/home/yin/imx-optee/imx-optee-os/lib/libutee/tee_api_operations.c:1185
     e44:	69e8      	ldr	r0, [r5, #28]
     e46:	0380      	lsls	r0, r0, #14
     e48:	d517      	bpl.n	e7a <TEE_MACComputeFinal+0x4e>
/home/yin/imx-optee/imx-optee-os/lib/libutee/tee_api_operations.c:1190
     e4a:	6aa8      	ldr	r0, [r5, #40]	; 0x28
     e4c:	2801      	cmp	r0, #1
     e4e:	d114      	bne.n	e7a <TEE_MACComputeFinal+0x4e>
/home/yin/imx-optee/imx-optee-os/lib/libutee/tee_api_operations.c:1195
     e50:	6820      	ldr	r0, [r4, #0]
     e52:	9002      	str	r0, [sp, #8]
     e54:	2000      	movs	r0, #0
     e56:	9003      	str	r0, [sp, #12]
/home/yin/imx-optee/imx-optee-os/lib/libutee/tee_api_operations.c:1196
     e58:	a802      	add	r0, sp, #8
     e5a:	9000      	str	r0, [sp, #0]
     e5c:	6be8      	ldr	r0, [r5, #60]	; 0x3c
     e5e:	f000 ede0 	blx	1a20 <utee_hash_final>
/home/yin/imx-optee/imx-optee-os/lib/libutee/tee_api_operations.c:1197
     e62:	9b02      	ldr	r3, [sp, #8]
     e64:	6023      	str	r3, [r4, #0]
/home/yin/imx-optee/imx-optee-os/lib/libutee/tee_api_operations.c:1198
     e66:	4604      	mov	r4, r0
     e68:	b960      	cbnz	r0, e84 <TEE_MACComputeFinal+0x58>
/home/yin/imx-optee/imx-optee-os/lib/libutee/tee_api_operations.c:1201
     e6a:	69eb      	ldr	r3, [r5, #28]
/home/yin/imx-optee/imx-optee-os/lib/libutee/tee_api_operations.c:1203
     e6c:	62a8      	str	r0, [r5, #40]	; 0x28
/home/yin/imx-optee/imx-optee-os/lib/libutee/tee_api_operations.c:1201
     e6e:	f423 3300 	bic.w	r3, r3, #131072	; 0x20000
     e72:	61eb      	str	r3, [r5, #28]
/home/yin/imx-optee/imx-optee-os/lib/libutee/tee_api_operations.c:1211
     e74:	4620      	mov	r0, r4
     e76:	b005      	add	sp, #20
     e78:	bd30      	pop	{r4, r5, pc}
     e7a:	4c04      	ldr	r4, [pc, #16]	; (e8c <TEE_MACComputeFinal+0x60>)
/home/yin/imx-optee/imx-optee-os/lib/libutee/tee_api_operations.c:1208
     e7c:	4620      	mov	r0, r4
     e7e:	f004 f801 	bl	4e84 <TEE_Panic>
/home/yin/imx-optee/imx-optee-os/lib/libutee/tee_api_operations.c:1210
     e82:	e7f7      	b.n	e74 <TEE_MACComputeFinal+0x48>
/home/yin/imx-optee/imx-optee-os/lib/libutee/tee_api_operations.c:1206
     e84:	4b02      	ldr	r3, [pc, #8]	; (e90 <TEE_MACComputeFinal+0x64>)
     e86:	4298      	cmp	r0, r3
     e88:	d0f4      	beq.n	e74 <TEE_MACComputeFinal+0x48>
     e8a:	e7f7      	b.n	e7c <TEE_MACComputeFinal+0x50>
     e8c:	ffff0006 	.word	0xffff0006
     e90:	ffff0010 	.word	0xffff0010

00000e94 <TEE_MACCompareFinal>:
TEE_MACCompareFinal():
/home/yin/imx-optee/imx-optee-os/lib/libutee/tee_api_operations.c:1216
     e94:	b5f0      	push	{r4, r5, r6, r7, lr}
     e96:	461f      	mov	r7, r3
     e98:	b095      	sub	sp, #84	; 0x54
/home/yin/imx-optee/imx-optee-os/lib/libutee/tee_api_operations.c:1219
     e9a:	2340      	movs	r3, #64	; 0x40
/home/yin/imx-optee/imx-optee-os/lib/libutee/tee_api_operations.c:1216
     e9c:	4605      	mov	r5, r0
/home/yin/imx-optee/imx-optee-os/lib/libutee/tee_api_operations.c:1219
     e9e:	9303      	str	r3, [sp, #12]
/home/yin/imx-optee/imx-optee-os/lib/libutee/tee_api_operations.c:1221
     ea0:	6843      	ldr	r3, [r0, #4]
     ea2:	2b03      	cmp	r3, #3
     ea4:	d11a      	bne.n	edc <TEE_MACCompareFinal+0x48>
/home/yin/imx-optee/imx-optee-os/lib/libutee/tee_api_operations.c:1226
     ea6:	69c3      	ldr	r3, [r0, #28]
     ea8:	039b      	lsls	r3, r3, #14
     eaa:	d517      	bpl.n	edc <TEE_MACCompareFinal+0x48>
/home/yin/imx-optee/imx-optee-os/lib/libutee/tee_api_operations.c:1231
     eac:	6a83      	ldr	r3, [r0, #40]	; 0x28
     eae:	2b01      	cmp	r3, #1
     eb0:	d114      	bne.n	edc <TEE_MACCompareFinal+0x48>
/home/yin/imx-optee/imx-optee-os/lib/libutee/tee_api_operations.c:1236
     eb2:	ab03      	add	r3, sp, #12
     eb4:	ae04      	add	r6, sp, #16
     eb6:	9300      	str	r3, [sp, #0]
     eb8:	4633      	mov	r3, r6
     eba:	f7ff ffb7 	bl	e2c <TEE_MACComputeFinal>
/home/yin/imx-optee/imx-optee-os/lib/libutee/tee_api_operations.c:1238
     ebe:	4604      	mov	r4, r0
     ec0:	b988      	cbnz	r0, ee6 <TEE_MACCompareFinal+0x52>
/home/yin/imx-optee/imx-optee-os/lib/libutee/tee_api_operations.c:1241
     ec2:	9a03      	ldr	r2, [sp, #12]
     ec4:	9b1a      	ldr	r3, [sp, #104]	; 0x68
     ec6:	429a      	cmp	r2, r3
     ec8:	d110      	bne.n	eec <TEE_MACCompareFinal+0x58>
/home/yin/imx-optee/imx-optee-os/lib/libutee/tee_api_operations.c:1246
     eca:	4631      	mov	r1, r6
     ecc:	4638      	mov	r0, r7
     ece:	f004 f910 	bl	50f2 <buf_compare_ct>
     ed2:	b958      	cbnz	r0, eec <TEE_MACCompareFinal+0x58>
/home/yin/imx-optee/imx-optee-os/lib/libutee/tee_api_operations.c:1251
     ed4:	62ac      	str	r4, [r5, #40]	; 0x28
/home/yin/imx-optee/imx-optee-os/lib/libutee/tee_api_operations.c:1259
     ed6:	4620      	mov	r0, r4
     ed8:	b015      	add	sp, #84	; 0x54
     eda:	bdf0      	pop	{r4, r5, r6, r7, pc}
     edc:	4c04      	ldr	r4, [pc, #16]	; (ef0 <TEE_MACCompareFinal+0x5c>)
/home/yin/imx-optee/imx-optee-os/lib/libutee/tee_api_operations.c:1256
     ede:	4620      	mov	r0, r4
     ee0:	f003 ffd0 	bl	4e84 <TEE_Panic>
/home/yin/imx-optee/imx-optee-os/lib/libutee/tee_api_operations.c:1258
     ee4:	e7f7      	b.n	ed6 <TEE_MACCompareFinal+0x42>
/home/yin/imx-optee/imx-optee-os/lib/libutee/tee_api_operations.c:1254
     ee6:	4b03      	ldr	r3, [pc, #12]	; (ef4 <TEE_MACCompareFinal+0x60>)
     ee8:	4298      	cmp	r0, r3
     eea:	d1f8      	bne.n	ede <TEE_MACCompareFinal+0x4a>
     eec:	4c01      	ldr	r4, [pc, #4]	; (ef4 <TEE_MACCompareFinal+0x60>)
     eee:	e7f2      	b.n	ed6 <TEE_MACCompareFinal+0x42>
     ef0:	ffff0006 	.word	0xffff0006
     ef4:	ffff3071 	.word	0xffff3071

00000ef8 <TEE_AEInit>:
TEE_AEInit():
/home/yin/imx-optee/imx-optee-os/lib/libutee/tee_api_operations.c:1266
     ef8:	b573      	push	{r0, r1, r4, r5, r6, lr}
/home/yin/imx-optee/imx-optee-os/lib/libutee/tee_api_operations.c:1269
     efa:	4605      	mov	r5, r0
     efc:	b320      	cbz	r0, f48 <TEE_AEInit+0x50>
/home/yin/imx-optee/imx-optee-os/lib/libutee/tee_api_operations.c:1269 (discriminator 1)
     efe:	b319      	cbz	r1, f48 <TEE_AEInit+0x50>
/home/yin/imx-optee/imx-optee-os/lib/libutee/tee_api_operations.c:1274
     f00:	6840      	ldr	r0, [r0, #4]
     f02:	2804      	cmp	r0, #4
     f04:	d120      	bne.n	f48 <TEE_AEInit+0x50>
/home/yin/imx-optee/imx-optee-os/lib/libutee/tee_api_operations.c:1279
     f06:	6aa8      	ldr	r0, [r5, #40]	; 0x28
     f08:	b9f0      	cbnz	r0, f48 <TEE_AEInit+0x50>
/home/yin/imx-optee/imx-optee-os/lib/libutee/tee_api_operations.c:1290
     f0a:	682c      	ldr	r4, [r5, #0]
     f0c:	4813      	ldr	r0, [pc, #76]	; (f5c <TEE_AEInit+0x64>)
     f0e:	4284      	cmp	r4, r0
     f10:	d109      	bne.n	f26 <TEE_AEInit+0x2e>
/home/yin/imx-optee/imx-optee-os/lib/libutee/tee_api_operations.c:1294
     f12:	f1a3 0060 	sub.w	r0, r3, #96	; 0x60
     f16:	2820      	cmp	r0, #32
     f18:	d903      	bls.n	f22 <TEE_AEInit+0x2a>
     f1a:	4c11      	ldr	r4, [pc, #68]	; (f60 <TEE_AEInit+0x68>)
/home/yin/imx-optee/imx-optee-os/lib/libutee/tee_api_operations.c:1314
     f1c:	4620      	mov	r0, r4
     f1e:	b002      	add	sp, #8
     f20:	bd70      	pop	{r4, r5, r6, pc}
/home/yin/imx-optee/imx-optee-os/lib/libutee/tee_api_operations.c:1294 (discriminator 1)
     f22:	0758      	lsls	r0, r3, #29
     f24:	d1f9      	bne.n	f1a <TEE_AEInit+0x22>
/home/yin/imx-optee/imx-optee-os/lib/libutee/tee_api_operations.c:1300
     f26:	08de      	lsrs	r6, r3, #3
     f28:	9b07      	ldr	r3, [sp, #28]
     f2a:	9301      	str	r3, [sp, #4]
     f2c:	9b06      	ldr	r3, [sp, #24]
     f2e:	9300      	str	r3, [sp, #0]
     f30:	4633      	mov	r3, r6
     f32:	6be8      	ldr	r0, [r5, #60]	; 0x3c
     f34:	f000 ee06 	blx	1b44 <utee_authenc_init>
/home/yin/imx-optee/imx-optee-os/lib/libutee/tee_api_operations.c:1302
     f38:	4604      	mov	r4, r0
     f3a:	b950      	cbnz	r0, f52 <TEE_AEInit+0x5a>
/home/yin/imx-optee/imx-optee-os/lib/libutee/tee_api_operations.c:1306
     f3c:	69eb      	ldr	r3, [r5, #28]
/home/yin/imx-optee/imx-optee-os/lib/libutee/tee_api_operations.c:1305
     f3e:	642e      	str	r6, [r5, #64]	; 0x40
/home/yin/imx-optee/imx-optee-os/lib/libutee/tee_api_operations.c:1306
     f40:	f443 3300 	orr.w	r3, r3, #131072	; 0x20000
     f44:	61eb      	str	r3, [r5, #28]
     f46:	e7e9      	b.n	f1c <TEE_AEInit+0x24>
     f48:	4c06      	ldr	r4, [pc, #24]	; (f64 <TEE_AEInit+0x6c>)
/home/yin/imx-optee/imx-optee-os/lib/libutee/tee_api_operations.c:1311
     f4a:	4620      	mov	r0, r4
     f4c:	f003 ff9a 	bl	4e84 <TEE_Panic>
/home/yin/imx-optee/imx-optee-os/lib/libutee/tee_api_operations.c:1313
     f50:	e7e4      	b.n	f1c <TEE_AEInit+0x24>
/home/yin/imx-optee/imx-optee-os/lib/libutee/tee_api_operations.c:1309
     f52:	4b03      	ldr	r3, [pc, #12]	; (f60 <TEE_AEInit+0x68>)
     f54:	4298      	cmp	r0, r3
     f56:	d0e0      	beq.n	f1a <TEE_AEInit+0x22>
     f58:	e7f7      	b.n	f4a <TEE_AEInit+0x52>
     f5a:	bf00      	nop
     f5c:	40000810 	.word	0x40000810
     f60:	ffff000a 	.word	0xffff000a
     f64:	ffff0006 	.word	0xffff0006

00000f68 <TEE_AEUpdateAAD>:
TEE_AEUpdateAAD():
/home/yin/imx-optee/imx-optee-os/lib/libutee/tee_api_operations.c:1318
     f68:	b570      	push	{r4, r5, r6, lr}
     f6a:	460d      	mov	r5, r1
     f6c:	4616      	mov	r6, r2
/home/yin/imx-optee/imx-optee-os/lib/libutee/tee_api_operations.c:1321
     f6e:	4604      	mov	r4, r0
     f70:	b108      	cbz	r0, f76 <TEE_AEUpdateAAD+0xe>
/home/yin/imx-optee/imx-optee-os/lib/libutee/tee_api_operations.c:1321 (discriminator 1)
     f72:	b919      	cbnz	r1, f7c <TEE_AEUpdateAAD+0x14>
/home/yin/imx-optee/imx-optee-os/lib/libutee/tee_api_operations.c:1322
     f74:	b112      	cbz	r2, f7c <TEE_AEUpdateAAD+0x14>
/home/yin/imx-optee/imx-optee-os/lib/libutee/tee_api_operations.c:1323
     f76:	2000      	movs	r0, #0
     f78:	f003 ff84 	bl	4e84 <TEE_Panic>
/home/yin/imx-optee/imx-optee-os/lib/libutee/tee_api_operations.c:1325
     f7c:	6863      	ldr	r3, [r4, #4]
     f7e:	2b04      	cmp	r3, #4
     f80:	d002      	beq.n	f88 <TEE_AEUpdateAAD+0x20>
/home/yin/imx-optee/imx-optee-os/lib/libutee/tee_api_operations.c:1326
     f82:	2000      	movs	r0, #0
     f84:	f003 ff7e 	bl	4e84 <TEE_Panic>
/home/yin/imx-optee/imx-optee-os/lib/libutee/tee_api_operations.c:1328
     f88:	69e0      	ldr	r0, [r4, #28]
     f8a:	f410 3000 	ands.w	r0, r0, #131072	; 0x20000
     f8e:	d101      	bne.n	f94 <TEE_AEUpdateAAD+0x2c>
/home/yin/imx-optee/imx-optee-os/lib/libutee/tee_api_operations.c:1329
     f90:	f003 ff78 	bl	4e84 <TEE_Panic>
/home/yin/imx-optee/imx-optee-os/lib/libutee/tee_api_operations.c:1331
     f94:	4632      	mov	r2, r6
     f96:	4629      	mov	r1, r5
     f98:	6be0      	ldr	r0, [r4, #60]	; 0x3c
     f9a:	f000 ede0 	blx	1b5c <utee_authenc_update_aad>
/home/yin/imx-optee/imx-optee-os/lib/libutee/tee_api_operations.c:1333
     f9e:	2301      	movs	r3, #1
     fa0:	62a3      	str	r3, [r4, #40]	; 0x28
/home/yin/imx-optee/imx-optee-os/lib/libutee/tee_api_operations.c:1335
     fa2:	b118      	cbz	r0, fac <TEE_AEUpdateAAD+0x44>
/home/yin/imx-optee/imx-optee-os/lib/libutee/tee_api_operations.c:1337
     fa4:	e8bd 4070 	ldmia.w	sp!, {r4, r5, r6, lr}
/home/yin/imx-optee/imx-optee-os/lib/libutee/tee_api_operations.c:1336
     fa8:	f003 bf6c 	b.w	4e84 <TEE_Panic>
     fac:	bd70      	pop	{r4, r5, r6, pc}

00000fae <TEE_AEUpdate>:
TEE_AEUpdate():
/home/yin/imx-optee/imx-optee-os/lib/libutee/tee_api_operations.c:1341
     fae:	b5f0      	push	{r4, r5, r6, r7, lr}
     fb0:	b087      	sub	sp, #28
     fb2:	4f30      	ldr	r7, [pc, #192]	; (1074 <TEE_AEUpdate+0xc6>)
/home/yin/imx-optee/imx-optee-os/lib/libutee/tee_api_operations.c:1346
     fb4:	4605      	mov	r5, r0
/home/yin/imx-optee/imx-optee-os/lib/libutee/tee_api_operations.c:1341
     fb6:	9e0c      	ldr	r6, [sp, #48]	; 0x30
     fb8:	447f      	add	r7, pc
/home/yin/imx-optee/imx-optee-os/lib/libutee/tee_api_operations.c:1346
     fba:	2800      	cmp	r0, #0
     fbc:	d04d      	beq.n	105a <TEE_AEUpdate+0xac>
/home/yin/imx-optee/imx-optee-os/lib/libutee/tee_api_operations.c:1346 (discriminator 1)
     fbe:	b909      	cbnz	r1, fc4 <TEE_AEUpdate+0x16>
/home/yin/imx-optee/imx-optee-os/lib/libutee/tee_api_operations.c:1347
     fc0:	2a00      	cmp	r2, #0
     fc2:	d14a      	bne.n	105a <TEE_AEUpdate+0xac>
/home/yin/imx-optee/imx-optee-os/lib/libutee/tee_api_operations.c:1347 (discriminator 1)
     fc4:	2e00      	cmp	r6, #0
     fc6:	d048      	beq.n	105a <TEE_AEUpdate+0xac>
/home/yin/imx-optee/imx-optee-os/lib/libutee/tee_api_operations.c:1348
     fc8:	b913      	cbnz	r3, fd0 <TEE_AEUpdate+0x22>
/home/yin/imx-optee/imx-optee-os/lib/libutee/tee_api_operations.c:1349
     fca:	6830      	ldr	r0, [r6, #0]
     fcc:	2800      	cmp	r0, #0
     fce:	d144      	bne.n	105a <TEE_AEUpdate+0xac>
/home/yin/imx-optee/imx-optee-os/lib/libutee/tee_api_operations.c:1354
     fd0:	6868      	ldr	r0, [r5, #4]
     fd2:	2804      	cmp	r0, #4
     fd4:	d141      	bne.n	105a <TEE_AEUpdate+0xac>
/home/yin/imx-optee/imx-optee-os/lib/libutee/tee_api_operations.c:1359
     fd6:	69e8      	ldr	r0, [r5, #28]
     fd8:	0380      	lsls	r0, r0, #14
     fda:	d53e      	bpl.n	105a <TEE_AEUpdate+0xac>
/home/yin/imx-optee/imx-optee-os/lib/libutee/tee_api_operations.c:1364
     fdc:	b919      	cbnz	r1, fe6 <TEE_AEUpdate+0x38>
/home/yin/imx-optee/imx-optee-os/lib/libutee/tee_api_operations.c:1364 (discriminator 1)
     fde:	b912      	cbnz	r2, fe6 <TEE_AEUpdate+0x38>
/home/yin/imx-optee/imx-optee-os/lib/libutee/tee_api_operations.c:1365
     fe0:	6032      	str	r2, [r6, #0]
/home/yin/imx-optee/imx-optee-os/lib/libutee/tee_api_operations.c:1407
     fe2:	2400      	movs	r4, #0
     fe4:	e010      	b.n	1008 <TEE_AEUpdate+0x5a>
/home/yin/imx-optee/imx-optee-os/lib/libutee/tee_api_operations.c:1375
     fe6:	6b6c      	ldr	r4, [r5, #52]	; 0x34
     fe8:	2c01      	cmp	r4, #1
/home/yin/imx-optee/imx-optee-os/lib/libutee/tee_api_operations.c:1376
     fea:	bf85      	ittet	hi
     fec:	6ba8      	ldrhi	r0, [r5, #56]	; 0x38
     fee:	f1c4 0c00 	rsbhi	ip, r4, #0
     ff2:	4610      	movls	r0, r2
     ff4:	1880      	addhi	r0, r0, r2
     ff6:	bf88      	it	hi
     ff8:	ea00 000c 	andhi.w	r0, r0, ip
/home/yin/imx-optee/imx-optee-os/lib/libutee/tee_api_operations.c:1382
     ffc:	f8d6 c000 	ldr.w	ip, [r6]
    1000:	4560      	cmp	r0, ip
    1002:	d904      	bls.n	100e <TEE_AEUpdate+0x60>
/home/yin/imx-optee/imx-optee-os/lib/libutee/tee_api_operations.c:1383
    1004:	4c19      	ldr	r4, [pc, #100]	; (106c <TEE_AEUpdate+0xbe>)
    1006:	6030      	str	r0, [r6, #0]
/home/yin/imx-optee/imx-optee-os/lib/libutee/tee_api_operations.c:1415
    1008:	4620      	mov	r0, r4
    100a:	b007      	add	sp, #28
    100c:	bdf0      	pop	{r4, r5, r6, r7, pc}
/home/yin/imx-optee/imx-optee-os/lib/libutee/tee_api_operations.c:1389
    100e:	2c01      	cmp	r4, #1
/home/yin/imx-optee/imx-optee-os/lib/libutee/tee_api_operations.c:1388
    1010:	f04f 0000 	mov.w	r0, #0
    1014:	f8cd c010 	str.w	ip, [sp, #16]
    1018:	9005      	str	r0, [sp, #20]
/home/yin/imx-optee/imx-optee-os/lib/libutee/tee_api_operations.c:1389
    101a:	d912      	bls.n	1042 <TEE_AEUpdate+0x94>
/home/yin/imx-optee/imx-optee-os/lib/libutee/tee_api_operations.c:1390
    101c:	4816      	ldr	r0, [pc, #88]	; (1078 <TEE_AEUpdate+0xca>)
    101e:	5838      	ldr	r0, [r7, r0]
    1020:	9300      	str	r3, [sp, #0]
    1022:	4613      	mov	r3, r2
    1024:	460a      	mov	r2, r1
    1026:	9003      	str	r0, [sp, #12]
    1028:	a804      	add	r0, sp, #16
    102a:	9001      	str	r0, [sp, #4]
    102c:	4628      	mov	r0, r5
    102e:	9903      	ldr	r1, [sp, #12]
    1030:	f7ff f830 	bl	94 <tee_buffer_update>
/home/yin/imx-optee/imx-optee-os/lib/libutee/tee_api_operations.c:1394
    1034:	4604      	mov	r4, r0
/home/yin/imx-optee/imx-optee-os/lib/libutee/tee_api_operations.c:1402
    1036:	b9a8      	cbnz	r0, 1064 <TEE_AEUpdate+0xb6>
/home/yin/imx-optee/imx-optee-os/lib/libutee/tee_api_operations.c:1405
    1038:	9b04      	ldr	r3, [sp, #16]
    103a:	6033      	str	r3, [r6, #0]
/home/yin/imx-optee/imx-optee-os/lib/libutee/tee_api_operations.c:1407
    103c:	2301      	movs	r3, #1
    103e:	62ab      	str	r3, [r5, #40]	; 0x28
    1040:	e7cf      	b.n	fe2 <TEE_AEUpdate+0x34>
/home/yin/imx-optee/imx-optee-os/lib/libutee/tee_api_operations.c:1393
    1042:	b12a      	cbz	r2, 1050 <TEE_AEUpdate+0xa2>
/home/yin/imx-optee/imx-optee-os/lib/libutee/tee_api_operations.c:1394
    1044:	a804      	add	r0, sp, #16
    1046:	9000      	str	r0, [sp, #0]
    1048:	6be8      	ldr	r0, [r5, #60]	; 0x3c
    104a:	f000 ed92 	blx	1b70 <utee_authenc_update_payload>
    104e:	e7f1      	b.n	1034 <TEE_AEUpdate+0x86>
/home/yin/imx-optee/imx-optee-os/lib/libutee/tee_api_operations.c:1398
    1050:	2200      	movs	r2, #0
    1052:	2300      	movs	r3, #0
    1054:	e9cd 2304 	strd	r2, r3, [sp, #16]
    1058:	e7ee      	b.n	1038 <TEE_AEUpdate+0x8a>
    105a:	4c05      	ldr	r4, [pc, #20]	; (1070 <TEE_AEUpdate+0xc2>)
/home/yin/imx-optee/imx-optee-os/lib/libutee/tee_api_operations.c:1412
    105c:	4620      	mov	r0, r4
    105e:	f003 ff11 	bl	4e84 <TEE_Panic>
/home/yin/imx-optee/imx-optee-os/lib/libutee/tee_api_operations.c:1414
    1062:	e7d1      	b.n	1008 <TEE_AEUpdate+0x5a>
/home/yin/imx-optee/imx-optee-os/lib/libutee/tee_api_operations.c:1410
    1064:	4b01      	ldr	r3, [pc, #4]	; (106c <TEE_AEUpdate+0xbe>)
    1066:	4298      	cmp	r0, r3
    1068:	d0ce      	beq.n	1008 <TEE_AEUpdate+0x5a>
    106a:	e7f7      	b.n	105c <TEE_AEUpdate+0xae>
    106c:	ffff0010 	.word	0xffff0010
    1070:	ffff0006 	.word	0xffff0006
    1074:	000078d8 	.word	0x000078d8
    1078:	00000018 	.word	0x00000018

0000107c <TEE_AEEncryptFinal>:
TEE_AEEncryptFinal():
/home/yin/imx-optee/imx-optee-os/lib/libutee/tee_api_operations.c:1421
    107c:	f8df c10c 	ldr.w	ip, [pc, #268]	; 118c <TEE_AEEncryptFinal+0x110>
    1080:	e92d 4ff0 	stmdb	sp!, {r4, r5, r6, r7, r8, r9, sl, fp, lr}
    1084:	b08b      	sub	sp, #44	; 0x2c
    1086:	4698      	mov	r8, r3
    1088:	9e14      	ldr	r6, [sp, #80]	; 0x50
    108a:	44fc      	add	ip, pc
/home/yin/imx-optee/imx-optee-os/lib/libutee/tee_api_operations.c:1429
    108c:	4604      	mov	r4, r0
/home/yin/imx-optee/imx-optee-os/lib/libutee/tee_api_operations.c:1421
    108e:	f8dd b054 	ldr.w	fp, [sp, #84]	; 0x54
    1092:	9f16      	ldr	r7, [sp, #88]	; 0x58
/home/yin/imx-optee/imx-optee-os/lib/libutee/tee_api_operations.c:1429
    1094:	2800      	cmp	r0, #0
    1096:	d069      	beq.n	116c <TEE_AEEncryptFinal+0xf0>
/home/yin/imx-optee/imx-optee-os/lib/libutee/tee_api_operations.c:1429 (discriminator 1)
    1098:	b909      	cbnz	r1, 109e <TEE_AEEncryptFinal+0x22>
/home/yin/imx-optee/imx-optee-os/lib/libutee/tee_api_operations.c:1430
    109a:	2a00      	cmp	r2, #0
    109c:	d166      	bne.n	116c <TEE_AEEncryptFinal+0xf0>
/home/yin/imx-optee/imx-optee-os/lib/libutee/tee_api_operations.c:1430 (discriminator 1)
    109e:	2e00      	cmp	r6, #0
    10a0:	d064      	beq.n	116c <TEE_AEEncryptFinal+0xf0>
/home/yin/imx-optee/imx-optee-os/lib/libutee/tee_api_operations.c:1431
    10a2:	f1b8 0f00 	cmp.w	r8, #0
    10a6:	d102      	bne.n	10ae <TEE_AEEncryptFinal+0x32>
/home/yin/imx-optee/imx-optee-os/lib/libutee/tee_api_operations.c:1432
    10a8:	6833      	ldr	r3, [r6, #0]
    10aa:	2b00      	cmp	r3, #0
    10ac:	d15e      	bne.n	116c <TEE_AEEncryptFinal+0xf0>
/home/yin/imx-optee/imx-optee-os/lib/libutee/tee_api_operations.c:1432 (discriminator 1)
    10ae:	f1bb 0f00 	cmp.w	fp, #0
    10b2:	d05b      	beq.n	116c <TEE_AEEncryptFinal+0xf0>
/home/yin/imx-optee/imx-optee-os/lib/libutee/tee_api_operations.c:1433
    10b4:	2f00      	cmp	r7, #0
    10b6:	d059      	beq.n	116c <TEE_AEEncryptFinal+0xf0>
/home/yin/imx-optee/imx-optee-os/lib/libutee/tee_api_operations.c:1438
    10b8:	6863      	ldr	r3, [r4, #4]
    10ba:	2b04      	cmp	r3, #4
    10bc:	d156      	bne.n	116c <TEE_AEEncryptFinal+0xf0>
/home/yin/imx-optee/imx-optee-os/lib/libutee/tee_api_operations.c:1443
    10be:	69e3      	ldr	r3, [r4, #28]
    10c0:	039b      	lsls	r3, r3, #14
    10c2:	d553      	bpl.n	116c <TEE_AEEncryptFinal+0xf0>
/home/yin/imx-optee/imx-optee-os/lib/libutee/tee_api_operations.c:1458
    10c4:	6ba3      	ldr	r3, [r4, #56]	; 0x38
/home/yin/imx-optee/imx-optee-os/lib/libutee/tee_api_operations.c:1459
    10c6:	6830      	ldr	r0, [r6, #0]
    10c8:	f8df 90b8 	ldr.w	r9, [pc, #184]	; 1184 <TEE_AEEncryptFinal+0x108>
/home/yin/imx-optee/imx-optee-os/lib/libutee/tee_api_operations.c:1458
    10cc:	4413      	add	r3, r2
/home/yin/imx-optee/imx-optee-os/lib/libutee/tee_api_operations.c:1459
    10ce:	4283      	cmp	r3, r0
/home/yin/imx-optee/imx-optee-os/lib/libutee/tee_api_operations.c:1460
    10d0:	bf84      	itt	hi
    10d2:	6033      	strhi	r3, [r6, #0]
/home/yin/imx-optee/imx-optee-os/lib/libutee/tee_api_operations.c:1461
    10d4:	4648      	movhi	r0, r9
/home/yin/imx-optee/imx-optee-os/lib/libutee/tee_api_operations.c:1464
    10d6:	683b      	ldr	r3, [r7, #0]
    10d8:	6c25      	ldr	r5, [r4, #64]	; 0x40
/home/yin/imx-optee/imx-optee-os/lib/libutee/tee_api_operations.c:1456
    10da:	bf98      	it	ls
    10dc:	4828      	ldrls	r0, [pc, #160]	; (1180 <TEE_AEEncryptFinal+0x104>)
/home/yin/imx-optee/imx-optee-os/lib/libutee/tee_api_operations.c:1464
    10de:	42ab      	cmp	r3, r5
    10e0:	d202      	bcs.n	10e8 <TEE_AEEncryptFinal+0x6c>
/home/yin/imx-optee/imx-optee-os/lib/libutee/tee_api_operations.c:1465
    10e2:	603d      	str	r5, [r7, #0]
    10e4:	4b27      	ldr	r3, [pc, #156]	; (1184 <TEE_AEEncryptFinal+0x108>)
    10e6:	e037      	b.n	1158 <TEE_AEEncryptFinal+0xdc>
/home/yin/imx-optee/imx-optee-os/lib/libutee/tee_api_operations.c:1469
    10e8:	4548      	cmp	r0, r9
    10ea:	d0fb      	beq.n	10e4 <TEE_AEEncryptFinal+0x68>
/home/yin/imx-optee/imx-optee-os/lib/libutee/tee_api_operations.c:1472
    10ec:	9308      	str	r3, [sp, #32]
    10ee:	2500      	movs	r5, #0
/home/yin/imx-optee/imx-optee-os/lib/libutee/tee_api_operations.c:1473
    10f0:	6833      	ldr	r3, [r6, #0]
    10f2:	f10d 0a18 	add.w	sl, sp, #24
/home/yin/imx-optee/imx-optee-os/lib/libutee/tee_api_operations.c:1472
    10f6:	9509      	str	r5, [sp, #36]	; 0x24
/home/yin/imx-optee/imx-optee-os/lib/libutee/tee_api_operations.c:1473
    10f8:	9507      	str	r5, [sp, #28]
    10fa:	9306      	str	r3, [sp, #24]
/home/yin/imx-optee/imx-optee-os/lib/libutee/tee_api_operations.c:1474
    10fc:	6b63      	ldr	r3, [r4, #52]	; 0x34
    10fe:	2b01      	cmp	r3, #1
    1100:	d92e      	bls.n	1160 <TEE_AEEncryptFinal+0xe4>
/home/yin/imx-optee/imx-optee-os/lib/libutee/tee_api_operations.c:1475
    1102:	4b23      	ldr	r3, [pc, #140]	; (1190 <TEE_AEEncryptFinal+0x114>)
    1104:	4620      	mov	r0, r4
    1106:	f85c 3003 	ldr.w	r3, [ip, r3]
    110a:	e88d 0500 	stmia.w	sp, {r8, sl}
    110e:	9305      	str	r3, [sp, #20]
    1110:	4613      	mov	r3, r2
    1112:	460a      	mov	r2, r1
    1114:	9905      	ldr	r1, [sp, #20]
    1116:	f7fe ffbd 	bl	94 <tee_buffer_update>
/home/yin/imx-optee/imx-optee-os/lib/libutee/tee_api_operations.c:1477
    111a:	4603      	mov	r3, r0
    111c:	2800      	cmp	r0, #0
    111e:	d12c      	bne.n	117a <TEE_AEEncryptFinal+0xfe>
/home/yin/imx-optee/imx-optee-os/lib/libutee/tee_api_operations.c:1480
    1120:	9d06      	ldr	r5, [sp, #24]
/home/yin/imx-optee/imx-optee-os/lib/libutee/tee_api_operations.c:1484
    1122:	ab08      	add	r3, sp, #32
/home/yin/imx-optee/imx-optee-os/lib/libutee/tee_api_operations.c:1483
    1124:	6832      	ldr	r2, [r6, #0]
/home/yin/imx-optee/imx-optee-os/lib/libutee/tee_api_operations.c:1484
    1126:	9302      	str	r3, [sp, #8]
    1128:	e88d 0c00 	stmia.w	sp, {sl, fp}
    112c:	eb08 0305 	add.w	r3, r8, r5
/home/yin/imx-optee/imx-optee-os/lib/libutee/tee_api_operations.c:1483
    1130:	1b52      	subs	r2, r2, r5
/home/yin/imx-optee/imx-optee-os/lib/libutee/tee_api_operations.c:1484
    1132:	6ae1      	ldr	r1, [r4, #44]	; 0x2c
/home/yin/imx-optee/imx-optee-os/lib/libutee/tee_api_operations.c:1483
    1134:	9206      	str	r2, [sp, #24]
/home/yin/imx-optee/imx-optee-os/lib/libutee/tee_api_operations.c:1484
    1136:	6ba2      	ldr	r2, [r4, #56]	; 0x38
/home/yin/imx-optee/imx-optee-os/lib/libutee/tee_api_operations.c:1483
    1138:	9007      	str	r0, [sp, #28]
/home/yin/imx-optee/imx-optee-os/lib/libutee/tee_api_operations.c:1489
    113a:	6be0      	ldr	r0, [r4, #60]	; 0x3c
    113c:	f000 ed24 	blx	1b88 <utee_authenc_enc_final>
/home/yin/imx-optee/imx-optee-os/lib/libutee/tee_api_operations.c:1493
    1140:	9a08      	ldr	r2, [sp, #32]
/home/yin/imx-optee/imx-optee-os/lib/libutee/tee_api_operations.c:1489
    1142:	4603      	mov	r3, r0
/home/yin/imx-optee/imx-optee-os/lib/libutee/tee_api_operations.c:1493
    1144:	603a      	str	r2, [r7, #0]
/home/yin/imx-optee/imx-optee-os/lib/libutee/tee_api_operations.c:1494
    1146:	b9c0      	cbnz	r0, 117a <TEE_AEEncryptFinal+0xfe>
/home/yin/imx-optee/imx-optee-os/lib/libutee/tee_api_operations.c:1497
    1148:	9a06      	ldr	r2, [sp, #24]
    114a:	4415      	add	r5, r2
/home/yin/imx-optee/imx-optee-os/lib/libutee/tee_api_operations.c:1498
    114c:	6035      	str	r5, [r6, #0]
/home/yin/imx-optee/imx-optee-os/lib/libutee/tee_api_operations.c:1500
    114e:	69e2      	ldr	r2, [r4, #28]
/home/yin/imx-optee/imx-optee-os/lib/libutee/tee_api_operations.c:1502
    1150:	62a0      	str	r0, [r4, #40]	; 0x28
/home/yin/imx-optee/imx-optee-os/lib/libutee/tee_api_operations.c:1500
    1152:	f422 3200 	bic.w	r2, r2, #131072	; 0x20000
    1156:	61e2      	str	r2, [r4, #28]
/home/yin/imx-optee/imx-optee-os/lib/libutee/tee_api_operations.c:1510
    1158:	4618      	mov	r0, r3
    115a:	b00b      	add	sp, #44	; 0x2c
    115c:	e8bd 8ff0 	ldmia.w	sp!, {r4, r5, r6, r7, r8, r9, sl, fp, pc}
/home/yin/imx-optee/imx-optee-os/lib/libutee/tee_api_operations.c:1489
    1160:	ab08      	add	r3, sp, #32
    1162:	e88d 0c00 	stmia.w	sp, {sl, fp}
    1166:	9302      	str	r3, [sp, #8]
    1168:	4643      	mov	r3, r8
    116a:	e7e6      	b.n	113a <TEE_AEEncryptFinal+0xbe>
    116c:	4b06      	ldr	r3, [pc, #24]	; (1188 <TEE_AEEncryptFinal+0x10c>)
/home/yin/imx-optee/imx-optee-os/lib/libutee/tee_api_operations.c:1507
    116e:	4618      	mov	r0, r3
    1170:	9305      	str	r3, [sp, #20]
    1172:	f003 fe87 	bl	4e84 <TEE_Panic>
/home/yin/imx-optee/imx-optee-os/lib/libutee/tee_api_operations.c:1509
    1176:	9b05      	ldr	r3, [sp, #20]
    1178:	e7ee      	b.n	1158 <TEE_AEEncryptFinal+0xdc>
/home/yin/imx-optee/imx-optee-os/lib/libutee/tee_api_operations.c:1505
    117a:	454b      	cmp	r3, r9
    117c:	d0b2      	beq.n	10e4 <TEE_AEEncryptFinal+0x68>
    117e:	e7f6      	b.n	116e <TEE_AEEncryptFinal+0xf2>
    1180:	ffff0000 	.word	0xffff0000
    1184:	ffff0010 	.word	0xffff0010
    1188:	ffff0006 	.word	0xffff0006
    118c:	00007806 	.word	0x00007806
    1190:	00000018 	.word	0x00000018

00001194 <TEE_AEDecryptFinal>:
TEE_AEDecryptFinal():
/home/yin/imx-optee/imx-optee-os/lib/libutee/tee_api_operations.c:1516
    1194:	e92d 4ff0 	stmdb	sp!, {r4, r5, r6, r7, r8, r9, sl, fp, lr}
    1198:	b089      	sub	sp, #36	; 0x24
    119a:	4c3e      	ldr	r4, [pc, #248]	; (1294 <TEE_AEDecryptFinal+0x100>)
    119c:	4699      	mov	r9, r3
/home/yin/imx-optee/imx-optee-os/lib/libutee/tee_api_operations.c:1523
    119e:	4605      	mov	r5, r0
/home/yin/imx-optee/imx-optee-os/lib/libutee/tee_api_operations.c:1516
    11a0:	9f12      	ldr	r7, [sp, #72]	; 0x48
    11a2:	447c      	add	r4, pc
    11a4:	f8dd b04c 	ldr.w	fp, [sp, #76]	; 0x4c
    11a8:	f8dd 8050 	ldr.w	r8, [sp, #80]	; 0x50
/home/yin/imx-optee/imx-optee-os/lib/libutee/tee_api_operations.c:1523
    11ac:	2800      	cmp	r0, #0
    11ae:	d068      	beq.n	1282 <TEE_AEDecryptFinal+0xee>
/home/yin/imx-optee/imx-optee-os/lib/libutee/tee_api_operations.c:1523 (discriminator 1)
    11b0:	b909      	cbnz	r1, 11b6 <TEE_AEDecryptFinal+0x22>
/home/yin/imx-optee/imx-optee-os/lib/libutee/tee_api_operations.c:1524
    11b2:	2a00      	cmp	r2, #0
    11b4:	d165      	bne.n	1282 <TEE_AEDecryptFinal+0xee>
/home/yin/imx-optee/imx-optee-os/lib/libutee/tee_api_operations.c:1524 (discriminator 1)
    11b6:	2f00      	cmp	r7, #0
    11b8:	d063      	beq.n	1282 <TEE_AEDecryptFinal+0xee>
/home/yin/imx-optee/imx-optee-os/lib/libutee/tee_api_operations.c:1525
    11ba:	f1b9 0f00 	cmp.w	r9, #0
    11be:	d102      	bne.n	11c6 <TEE_AEDecryptFinal+0x32>
/home/yin/imx-optee/imx-optee-os/lib/libutee/tee_api_operations.c:1526
    11c0:	683b      	ldr	r3, [r7, #0]
    11c2:	2b00      	cmp	r3, #0
    11c4:	d15d      	bne.n	1282 <TEE_AEDecryptFinal+0xee>
/home/yin/imx-optee/imx-optee-os/lib/libutee/tee_api_operations.c:1526 (discriminator 1)
    11c6:	f1bb 0f00 	cmp.w	fp, #0
    11ca:	d102      	bne.n	11d2 <TEE_AEDecryptFinal+0x3e>
/home/yin/imx-optee/imx-optee-os/lib/libutee/tee_api_operations.c:1527
    11cc:	f1b8 0f00 	cmp.w	r8, #0
    11d0:	d157      	bne.n	1282 <TEE_AEDecryptFinal+0xee>
/home/yin/imx-optee/imx-optee-os/lib/libutee/tee_api_operations.c:1532
    11d2:	686b      	ldr	r3, [r5, #4]
    11d4:	2b04      	cmp	r3, #4
    11d6:	d154      	bne.n	1282 <TEE_AEDecryptFinal+0xee>
/home/yin/imx-optee/imx-optee-os/lib/libutee/tee_api_operations.c:1537
    11d8:	69eb      	ldr	r3, [r5, #28]
    11da:	039b      	lsls	r3, r3, #14
    11dc:	d551      	bpl.n	1282 <TEE_AEDecryptFinal+0xee>
/home/yin/imx-optee/imx-optee-os/lib/libutee/tee_api_operations.c:1547
    11de:	6bab      	ldr	r3, [r5, #56]	; 0x38
/home/yin/imx-optee/imx-optee-os/lib/libutee/tee_api_operations.c:1548
    11e0:	6838      	ldr	r0, [r7, #0]
/home/yin/imx-optee/imx-optee-os/lib/libutee/tee_api_operations.c:1547
    11e2:	4413      	add	r3, r2
/home/yin/imx-optee/imx-optee-os/lib/libutee/tee_api_operations.c:1548
    11e4:	4283      	cmp	r3, r0
    11e6:	d905      	bls.n	11f4 <TEE_AEDecryptFinal+0x60>
/home/yin/imx-optee/imx-optee-os/lib/libutee/tee_api_operations.c:1549
    11e8:	4c27      	ldr	r4, [pc, #156]	; (1288 <TEE_AEDecryptFinal+0xf4>)
    11ea:	603b      	str	r3, [r7, #0]
/home/yin/imx-optee/imx-optee-os/lib/libutee/tee_api_operations.c:1595
    11ec:	4620      	mov	r0, r4
    11ee:	b009      	add	sp, #36	; 0x24
    11f0:	e8bd 8ff0 	ldmia.w	sp!, {r4, r5, r6, r7, r8, r9, sl, fp, pc}
/home/yin/imx-optee/imx-optee-os/lib/libutee/tee_api_operations.c:1555
    11f4:	6b6b      	ldr	r3, [r5, #52]	; 0x34
/home/yin/imx-optee/imx-optee-os/lib/libutee/tee_api_operations.c:1554
    11f6:	2600      	movs	r6, #0
    11f8:	9006      	str	r0, [sp, #24]
    11fa:	f10d 0a18 	add.w	sl, sp, #24
    11fe:	9607      	str	r6, [sp, #28]
/home/yin/imx-optee/imx-optee-os/lib/libutee/tee_api_operations.c:1555
    1200:	2b01      	cmp	r3, #1
    1202:	d938      	bls.n	1276 <TEE_AEDecryptFinal+0xe2>
/home/yin/imx-optee/imx-optee-os/lib/libutee/tee_api_operations.c:1556
    1204:	4b24      	ldr	r3, [pc, #144]	; (1298 <TEE_AEDecryptFinal+0x104>)
    1206:	4628      	mov	r0, r5
    1208:	58e3      	ldr	r3, [r4, r3]
    120a:	e88d 0600 	stmia.w	sp, {r9, sl}
    120e:	9305      	str	r3, [sp, #20]
    1210:	4613      	mov	r3, r2
    1212:	460a      	mov	r2, r1
    1214:	9905      	ldr	r1, [sp, #20]
    1216:	f7fe ff3d 	bl	94 <tee_buffer_update>
/home/yin/imx-optee/imx-optee-os/lib/libutee/tee_api_operations.c:1558
    121a:	4604      	mov	r4, r0
    121c:	bb08      	cbnz	r0, 1262 <TEE_AEDecryptFinal+0xce>
/home/yin/imx-optee/imx-optee-os/lib/libutee/tee_api_operations.c:1561
    121e:	9e06      	ldr	r6, [sp, #24]
/home/yin/imx-optee/imx-optee-os/lib/libutee/tee_api_operations.c:1564
    1220:	683b      	ldr	r3, [r7, #0]
/home/yin/imx-optee/imx-optee-os/lib/libutee/tee_api_operations.c:1565
    1222:	f8cd 8008 	str.w	r8, [sp, #8]
    1226:	e88d 0c00 	stmia.w	sp, {sl, fp}
    122a:	6baa      	ldr	r2, [r5, #56]	; 0x38
/home/yin/imx-optee/imx-optee-os/lib/libutee/tee_api_operations.c:1564
    122c:	1b9b      	subs	r3, r3, r6
/home/yin/imx-optee/imx-optee-os/lib/libutee/tee_api_operations.c:1565
    122e:	6ae9      	ldr	r1, [r5, #44]	; 0x2c
/home/yin/imx-optee/imx-optee-os/lib/libutee/tee_api_operations.c:1564
    1230:	9306      	str	r3, [sp, #24]
/home/yin/imx-optee/imx-optee-os/lib/libutee/tee_api_operations.c:1565
    1232:	eb09 0306 	add.w	r3, r9, r6
/home/yin/imx-optee/imx-optee-os/lib/libutee/tee_api_operations.c:1564
    1236:	9007      	str	r0, [sp, #28]
/home/yin/imx-optee/imx-optee-os/lib/libutee/tee_api_operations.c:1570
    1238:	6be8      	ldr	r0, [r5, #60]	; 0x3c
    123a:	f000 ecb2 	blx	1ba0 <utee_authenc_dec_final>
    123e:	4604      	mov	r4, r0
/home/yin/imx-optee/imx-optee-os/lib/libutee/tee_api_operations.c:1574
    1240:	b978      	cbnz	r0, 1262 <TEE_AEDecryptFinal+0xce>
/home/yin/imx-optee/imx-optee-os/lib/libutee/tee_api_operations.c:1578
    1242:	6c2a      	ldr	r2, [r5, #64]	; 0x40
/home/yin/imx-optee/imx-optee-os/lib/libutee/tee_api_operations.c:1579
    1244:	4b11      	ldr	r3, [pc, #68]	; (128c <TEE_AEDecryptFinal+0xf8>)
    1246:	4590      	cmp	r8, r2
    1248:	bf18      	it	ne
    124a:	461c      	movne	r4, r3
/home/yin/imx-optee/imx-optee-os/lib/libutee/tee_api_operations.c:1581
    124c:	9b06      	ldr	r3, [sp, #24]
    124e:	441e      	add	r6, r3
/home/yin/imx-optee/imx-optee-os/lib/libutee/tee_api_operations.c:1582
    1250:	603e      	str	r6, [r7, #0]
/home/yin/imx-optee/imx-optee-os/lib/libutee/tee_api_operations.c:1584
    1252:	69eb      	ldr	r3, [r5, #28]
    1254:	f423 3300 	bic.w	r3, r3, #131072	; 0x20000
    1258:	61eb      	str	r3, [r5, #28]
/home/yin/imx-optee/imx-optee-os/lib/libutee/tee_api_operations.c:1586
    125a:	2300      	movs	r3, #0
    125c:	62ab      	str	r3, [r5, #40]	; 0x28
/home/yin/imx-optee/imx-optee-os/lib/libutee/tee_api_operations.c:1589
    125e:	2c00      	cmp	r4, #0
    1260:	d0c4      	beq.n	11ec <TEE_AEDecryptFinal+0x58>
/home/yin/imx-optee/imx-optee-os/lib/libutee/tee_api_operations.c:1589 (discriminator 1)
    1262:	4b09      	ldr	r3, [pc, #36]	; (1288 <TEE_AEDecryptFinal+0xf4>)
    1264:	429c      	cmp	r4, r3
    1266:	d0c1      	beq.n	11ec <TEE_AEDecryptFinal+0x58>
/home/yin/imx-optee/imx-optee-os/lib/libutee/tee_api_operations.c:1590
    1268:	4b08      	ldr	r3, [pc, #32]	; (128c <TEE_AEDecryptFinal+0xf8>)
    126a:	429c      	cmp	r4, r3
    126c:	d0be      	beq.n	11ec <TEE_AEDecryptFinal+0x58>
/home/yin/imx-optee/imx-optee-os/lib/libutee/tee_api_operations.c:1592
    126e:	4620      	mov	r0, r4
    1270:	f003 fe08 	bl	4e84 <TEE_Panic>
/home/yin/imx-optee/imx-optee-os/lib/libutee/tee_api_operations.c:1594
    1274:	e7ba      	b.n	11ec <TEE_AEDecryptFinal+0x58>
/home/yin/imx-optee/imx-optee-os/lib/libutee/tee_api_operations.c:1570
    1276:	f8cd 8008 	str.w	r8, [sp, #8]
    127a:	464b      	mov	r3, r9
    127c:	e88d 0c00 	stmia.w	sp, {sl, fp}
    1280:	e7da      	b.n	1238 <TEE_AEDecryptFinal+0xa4>
    1282:	4c03      	ldr	r4, [pc, #12]	; (1290 <TEE_AEDecryptFinal+0xfc>)
    1284:	e7f3      	b.n	126e <TEE_AEDecryptFinal+0xda>
    1286:	bf00      	nop
    1288:	ffff0010 	.word	0xffff0010
    128c:	ffff3071 	.word	0xffff3071
    1290:	ffff0006 	.word	0xffff0006
    1294:	000076ee 	.word	0x000076ee
    1298:	00000018 	.word	0x00000018

0000129c <TEE_AsymmetricEncrypt>:
TEE_AsymmetricEncrypt():
/home/yin/imx-optee/imx-optee-os/lib/libutee/tee_api_operations.c:1604
    129c:	e92d 4ff0 	stmdb	sp!, {r4, r5, r6, r7, r8, r9, sl, fp, lr}
    12a0:	469a      	mov	sl, r3
/home/yin/imx-optee/imx-optee-os/lib/libutee/tee_api_operations.c:1606
    12a2:	2318      	movs	r3, #24
/home/yin/imx-optee/imx-optee-os/lib/libutee/tee_api_operations.c:1604
    12a4:	b087      	sub	sp, #28
/home/yin/imx-optee/imx-optee-os/lib/libutee/tee_api_operations.c:1606
    12a6:	4353      	muls	r3, r2
/home/yin/imx-optee/imx-optee-os/lib/libutee/tee_api_operations.c:1604
    12a8:	af04      	add	r7, sp, #16
    12aa:	4688      	mov	r8, r1
    12ac:	4616      	mov	r6, r2
    12ae:	f8d7 b034 	ldr.w	fp, [r7, #52]	; 0x34
    12b2:	6bbd      	ldr	r5, [r7, #56]	; 0x38
/home/yin/imx-optee/imx-optee-os/lib/libutee/tee_api_operations.c:1609
    12b4:	4604      	mov	r4, r0
/home/yin/imx-optee/imx-optee-os/lib/libutee/tee_api_operations.c:1606
    12b6:	3308      	adds	r3, #8
    12b8:	ebad 0d03 	sub.w	sp, sp, r3
    12bc:	f10d 0910 	add.w	r9, sp, #16
/home/yin/imx-optee/imx-optee-os/lib/libutee/tee_api_operations.c:1609
    12c0:	b150      	cbz	r0, 12d8 <TEE_AsymmetricEncrypt+0x3c>
/home/yin/imx-optee/imx-optee-os/lib/libutee/tee_api_operations.c:1609 (discriminator 1)
    12c2:	f1ba 0f00 	cmp.w	sl, #0
    12c6:	d101      	bne.n	12cc <TEE_AsymmetricEncrypt+0x30>
/home/yin/imx-optee/imx-optee-os/lib/libutee/tee_api_operations.c:1609 (discriminator 2)
    12c8:	6b3b      	ldr	r3, [r7, #48]	; 0x30
    12ca:	b92b      	cbnz	r3, 12d8 <TEE_AsymmetricEncrypt+0x3c>
/home/yin/imx-optee/imx-optee-os/lib/libutee/tee_api_operations.c:1609 (discriminator 4)
    12cc:	b125      	cbz	r5, 12d8 <TEE_AsymmetricEncrypt+0x3c>
/home/yin/imx-optee/imx-optee-os/lib/libutee/tee_api_operations.c:1610
    12ce:	f1bb 0f00 	cmp.w	fp, #0
    12d2:	d104      	bne.n	12de <TEE_AsymmetricEncrypt+0x42>
/home/yin/imx-optee/imx-optee-os/lib/libutee/tee_api_operations.c:1610 (discriminator 1)
    12d4:	682b      	ldr	r3, [r5, #0]
    12d6:	b113      	cbz	r3, 12de <TEE_AsymmetricEncrypt+0x42>
/home/yin/imx-optee/imx-optee-os/lib/libutee/tee_api_operations.c:1611
    12d8:	2000      	movs	r0, #0
    12da:	f003 fdd3 	bl	4e84 <TEE_Panic>
/home/yin/imx-optee/imx-optee-os/lib/libutee/tee_api_operations.c:1612
    12de:	f1b8 0f00 	cmp.w	r8, #0
    12e2:	d103      	bne.n	12ec <TEE_AsymmetricEncrypt+0x50>
/home/yin/imx-optee/imx-optee-os/lib/libutee/tee_api_operations.c:1612 (discriminator 1)
    12e4:	b116      	cbz	r6, 12ec <TEE_AsymmetricEncrypt+0x50>
/home/yin/imx-optee/imx-optee-os/lib/libutee/tee_api_operations.c:1613
    12e6:	4640      	mov	r0, r8
    12e8:	f003 fdcc 	bl	4e84 <TEE_Panic>
/home/yin/imx-optee/imx-optee-os/lib/libutee/tee_api_operations.c:1614
    12ec:	6a20      	ldr	r0, [r4, #32]
    12ee:	b908      	cbnz	r0, 12f4 <TEE_AsymmetricEncrypt+0x58>
/home/yin/imx-optee/imx-optee-os/lib/libutee/tee_api_operations.c:1615
    12f0:	f003 fdc8 	bl	4e84 <TEE_Panic>
/home/yin/imx-optee/imx-optee-os/lib/libutee/tee_api_operations.c:1616
    12f4:	6863      	ldr	r3, [r4, #4]
    12f6:	2b06      	cmp	r3, #6
    12f8:	d002      	beq.n	1300 <TEE_AsymmetricEncrypt+0x64>
/home/yin/imx-optee/imx-optee-os/lib/libutee/tee_api_operations.c:1617
    12fa:	2000      	movs	r0, #0
    12fc:	f003 fdc2 	bl	4e84 <TEE_Panic>
/home/yin/imx-optee/imx-optee-os/lib/libutee/tee_api_operations.c:1618
    1300:	68a3      	ldr	r3, [r4, #8]
    1302:	b113      	cbz	r3, 130a <TEE_AsymmetricEncrypt+0x6e>
/home/yin/imx-optee/imx-optee-os/lib/libutee/tee_api_operations.c:1619
    1304:	2000      	movs	r0, #0
    1306:	f003 fdbd 	bl	4e84 <TEE_Panic>
/home/yin/imx-optee/imx-optee-os/lib/libutee/tee_api_operations.c:1621
    130a:	4632      	mov	r2, r6
    130c:	4641      	mov	r1, r8
    130e:	4648      	mov	r0, r9
    1310:	f001 f962 	bl	25d8 <__utee_from_attr>
/home/yin/imx-optee/imx-optee-os/lib/libutee/tee_api_operations.c:1622
    1314:	682b      	ldr	r3, [r5, #0]
/home/yin/imx-optee/imx-optee-os/lib/libutee/tee_api_operations.c:1623
    1316:	4632      	mov	r2, r6
    1318:	9702      	str	r7, [sp, #8]
    131a:	4649      	mov	r1, r9
    131c:	f8cd b004 	str.w	fp, [sp, #4]
/home/yin/imx-optee/imx-optee-os/lib/libutee/tee_api_operations.c:1622
    1320:	603b      	str	r3, [r7, #0]
    1322:	2300      	movs	r3, #0
    1324:	607b      	str	r3, [r7, #4]
/home/yin/imx-optee/imx-optee-os/lib/libutee/tee_api_operations.c:1623
    1326:	6b3b      	ldr	r3, [r7, #48]	; 0x30
    1328:	9300      	str	r3, [sp, #0]
    132a:	4653      	mov	r3, sl
    132c:	6be0      	ldr	r0, [r4, #60]	; 0x3c
    132e:	f000 ec44 	blx	1bb8 <utee_asymm_operate>
/home/yin/imx-optee/imx-optee-os/lib/libutee/tee_api_operations.c:1625
    1332:	683b      	ldr	r3, [r7, #0]
/home/yin/imx-optee/imx-optee-os/lib/libutee/tee_api_operations.c:1627
    1334:	4604      	mov	r4, r0
/home/yin/imx-optee/imx-optee-os/lib/libutee/tee_api_operations.c:1625
    1336:	602b      	str	r3, [r5, #0]
/home/yin/imx-optee/imx-optee-os/lib/libutee/tee_api_operations.c:1627
    1338:	b138      	cbz	r0, 134a <TEE_AsymmetricEncrypt+0xae>
/home/yin/imx-optee/imx-optee-os/lib/libutee/tee_api_operations.c:1627 (discriminator 1)
    133a:	4b06      	ldr	r3, [pc, #24]	; (1354 <TEE_AsymmetricEncrypt+0xb8>)
    133c:	4298      	cmp	r0, r3
    133e:	d004      	beq.n	134a <TEE_AsymmetricEncrypt+0xae>
/home/yin/imx-optee/imx-optee-os/lib/libutee/tee_api_operations.c:1628
    1340:	3b0a      	subs	r3, #10
    1342:	4298      	cmp	r0, r3
    1344:	d001      	beq.n	134a <TEE_AsymmetricEncrypt+0xae>
/home/yin/imx-optee/imx-optee-os/lib/libutee/tee_api_operations.c:1630
    1346:	f003 fd9d 	bl	4e84 <TEE_Panic>
/home/yin/imx-optee/imx-optee-os/lib/libutee/tee_api_operations.c:1633
    134a:	4620      	mov	r0, r4
    134c:	370c      	adds	r7, #12
    134e:	46bd      	mov	sp, r7
    1350:	e8bd 8ff0 	ldmia.w	sp!, {r4, r5, r6, r7, r8, r9, sl, fp, pc}
    1354:	ffff0010 	.word	0xffff0010

00001358 <TEE_AsymmetricDecrypt>:
TEE_AsymmetricDecrypt():
/home/yin/imx-optee/imx-optee-os/lib/libutee/tee_api_operations.c:1640
    1358:	e92d 4ff0 	stmdb	sp!, {r4, r5, r6, r7, r8, r9, sl, fp, lr}
    135c:	469a      	mov	sl, r3
/home/yin/imx-optee/imx-optee-os/lib/libutee/tee_api_operations.c:1642
    135e:	2318      	movs	r3, #24
/home/yin/imx-optee/imx-optee-os/lib/libutee/tee_api_operations.c:1640
    1360:	b087      	sub	sp, #28
/home/yin/imx-optee/imx-optee-os/lib/libutee/tee_api_operations.c:1642
    1362:	4353      	muls	r3, r2
/home/yin/imx-optee/imx-optee-os/lib/libutee/tee_api_operations.c:1640
    1364:	af04      	add	r7, sp, #16
    1366:	4688      	mov	r8, r1
    1368:	4616      	mov	r6, r2
    136a:	f8d7 b034 	ldr.w	fp, [r7, #52]	; 0x34
    136e:	6bbd      	ldr	r5, [r7, #56]	; 0x38
/home/yin/imx-optee/imx-optee-os/lib/libutee/tee_api_operations.c:1645
    1370:	4604      	mov	r4, r0
/home/yin/imx-optee/imx-optee-os/lib/libutee/tee_api_operations.c:1642
    1372:	3308      	adds	r3, #8
    1374:	ebad 0d03 	sub.w	sp, sp, r3
    1378:	f10d 0910 	add.w	r9, sp, #16
/home/yin/imx-optee/imx-optee-os/lib/libutee/tee_api_operations.c:1645
    137c:	b150      	cbz	r0, 1394 <TEE_AsymmetricDecrypt+0x3c>
/home/yin/imx-optee/imx-optee-os/lib/libutee/tee_api_operations.c:1645 (discriminator 1)
    137e:	f1ba 0f00 	cmp.w	sl, #0
    1382:	d101      	bne.n	1388 <TEE_AsymmetricDecrypt+0x30>
/home/yin/imx-optee/imx-optee-os/lib/libutee/tee_api_operations.c:1645 (discriminator 2)
    1384:	6b3b      	ldr	r3, [r7, #48]	; 0x30
    1386:	b92b      	cbnz	r3, 1394 <TEE_AsymmetricDecrypt+0x3c>
/home/yin/imx-optee/imx-optee-os/lib/libutee/tee_api_operations.c:1645 (discriminator 4)
    1388:	b125      	cbz	r5, 1394 <TEE_AsymmetricDecrypt+0x3c>
/home/yin/imx-optee/imx-optee-os/lib/libutee/tee_api_operations.c:1646
    138a:	f1bb 0f00 	cmp.w	fp, #0
    138e:	d104      	bne.n	139a <TEE_AsymmetricDecrypt+0x42>
/home/yin/imx-optee/imx-optee-os/lib/libutee/tee_api_operations.c:1646 (discriminator 1)
    1390:	682b      	ldr	r3, [r5, #0]
    1392:	b113      	cbz	r3, 139a <TEE_AsymmetricDecrypt+0x42>
/home/yin/imx-optee/imx-optee-os/lib/libutee/tee_api_operations.c:1647
    1394:	2000      	movs	r0, #0
    1396:	f003 fd75 	bl	4e84 <TEE_Panic>
/home/yin/imx-optee/imx-optee-os/lib/libutee/tee_api_operations.c:1648
    139a:	f1b8 0f00 	cmp.w	r8, #0
    139e:	d103      	bne.n	13a8 <TEE_AsymmetricDecrypt+0x50>
/home/yin/imx-optee/imx-optee-os/lib/libutee/tee_api_operations.c:1648 (discriminator 1)
    13a0:	b116      	cbz	r6, 13a8 <TEE_AsymmetricDecrypt+0x50>
/home/yin/imx-optee/imx-optee-os/lib/libutee/tee_api_operations.c:1649
    13a2:	4640      	mov	r0, r8
    13a4:	f003 fd6e 	bl	4e84 <TEE_Panic>
/home/yin/imx-optee/imx-optee-os/lib/libutee/tee_api_operations.c:1650
    13a8:	6a20      	ldr	r0, [r4, #32]
    13aa:	b908      	cbnz	r0, 13b0 <TEE_AsymmetricDecrypt+0x58>
/home/yin/imx-optee/imx-optee-os/lib/libutee/tee_api_operations.c:1651
    13ac:	f003 fd6a 	bl	4e84 <TEE_Panic>
/home/yin/imx-optee/imx-optee-os/lib/libutee/tee_api_operations.c:1652
    13b0:	6863      	ldr	r3, [r4, #4]
    13b2:	2b06      	cmp	r3, #6
    13b4:	d002      	beq.n	13bc <TEE_AsymmetricDecrypt+0x64>
/home/yin/imx-optee/imx-optee-os/lib/libutee/tee_api_operations.c:1653
    13b6:	2000      	movs	r0, #0
    13b8:	f003 fd64 	bl	4e84 <TEE_Panic>
/home/yin/imx-optee/imx-optee-os/lib/libutee/tee_api_operations.c:1654
    13bc:	68a3      	ldr	r3, [r4, #8]
    13be:	2b01      	cmp	r3, #1
    13c0:	d002      	beq.n	13c8 <TEE_AsymmetricDecrypt+0x70>
/home/yin/imx-optee/imx-optee-os/lib/libutee/tee_api_operations.c:1655
    13c2:	2000      	movs	r0, #0
    13c4:	f003 fd5e 	bl	4e84 <TEE_Panic>
/home/yin/imx-optee/imx-optee-os/lib/libutee/tee_api_operations.c:1657
    13c8:	4632      	mov	r2, r6
    13ca:	4641      	mov	r1, r8
    13cc:	4648      	mov	r0, r9
    13ce:	f001 f903 	bl	25d8 <__utee_from_attr>
/home/yin/imx-optee/imx-optee-os/lib/libutee/tee_api_operations.c:1658
    13d2:	682b      	ldr	r3, [r5, #0]
/home/yin/imx-optee/imx-optee-os/lib/libutee/tee_api_operations.c:1659
    13d4:	4632      	mov	r2, r6
    13d6:	9702      	str	r7, [sp, #8]
    13d8:	4649      	mov	r1, r9
    13da:	f8cd b004 	str.w	fp, [sp, #4]
/home/yin/imx-optee/imx-optee-os/lib/libutee/tee_api_operations.c:1658
    13de:	603b      	str	r3, [r7, #0]
    13e0:	2300      	movs	r3, #0
    13e2:	607b      	str	r3, [r7, #4]
/home/yin/imx-optee/imx-optee-os/lib/libutee/tee_api_operations.c:1659
    13e4:	6b3b      	ldr	r3, [r7, #48]	; 0x30
    13e6:	9300      	str	r3, [sp, #0]
    13e8:	4653      	mov	r3, sl
    13ea:	6be0      	ldr	r0, [r4, #60]	; 0x3c
    13ec:	f000 ebe4 	blx	1bb8 <utee_asymm_operate>
/home/yin/imx-optee/imx-optee-os/lib/libutee/tee_api_operations.c:1661
    13f0:	683b      	ldr	r3, [r7, #0]
/home/yin/imx-optee/imx-optee-os/lib/libutee/tee_api_operations.c:1663
    13f2:	4604      	mov	r4, r0
/home/yin/imx-optee/imx-optee-os/lib/libutee/tee_api_operations.c:1661
    13f4:	602b      	str	r3, [r5, #0]
/home/yin/imx-optee/imx-optee-os/lib/libutee/tee_api_operations.c:1663
    13f6:	b138      	cbz	r0, 1408 <TEE_AsymmetricDecrypt+0xb0>
/home/yin/imx-optee/imx-optee-os/lib/libutee/tee_api_operations.c:1663 (discriminator 1)
    13f8:	4b06      	ldr	r3, [pc, #24]	; (1414 <TEE_AsymmetricDecrypt+0xbc>)
    13fa:	4298      	cmp	r0, r3
    13fc:	d004      	beq.n	1408 <TEE_AsymmetricDecrypt+0xb0>
/home/yin/imx-optee/imx-optee-os/lib/libutee/tee_api_operations.c:1664
    13fe:	3b0a      	subs	r3, #10
    1400:	4298      	cmp	r0, r3
    1402:	d001      	beq.n	1408 <TEE_AsymmetricDecrypt+0xb0>
/home/yin/imx-optee/imx-optee-os/lib/libutee/tee_api_operations.c:1666
    1404:	f003 fd3e 	bl	4e84 <TEE_Panic>
/home/yin/imx-optee/imx-optee-os/lib/libutee/tee_api_operations.c:1669
    1408:	4620      	mov	r0, r4
    140a:	370c      	adds	r7, #12
    140c:	46bd      	mov	sp, r7
    140e:	e8bd 8ff0 	ldmia.w	sp!, {r4, r5, r6, r7, r8, r9, sl, fp, pc}
    1412:	bf00      	nop
    1414:	ffff0010 	.word	0xffff0010

00001418 <TEE_AsymmetricSignDigest>:
TEE_AsymmetricSignDigest():
/home/yin/imx-optee/imx-optee-os/lib/libutee/tee_api_operations.c:1676
    1418:	e92d 4ff0 	stmdb	sp!, {r4, r5, r6, r7, r8, r9, sl, fp, lr}
    141c:	469a      	mov	sl, r3
/home/yin/imx-optee/imx-optee-os/lib/libutee/tee_api_operations.c:1678
    141e:	2318      	movs	r3, #24
/home/yin/imx-optee/imx-optee-os/lib/libutee/tee_api_operations.c:1676
    1420:	b087      	sub	sp, #28
/home/yin/imx-optee/imx-optee-os/lib/libutee/tee_api_operations.c:1678
    1422:	4353      	muls	r3, r2
/home/yin/imx-optee/imx-optee-os/lib/libutee/tee_api_operations.c:1676
    1424:	af04      	add	r7, sp, #16
    1426:	4688      	mov	r8, r1
    1428:	4615      	mov	r5, r2
    142a:	f8d7 b034 	ldr.w	fp, [r7, #52]	; 0x34
    142e:	6bbe      	ldr	r6, [r7, #56]	; 0x38
/home/yin/imx-optee/imx-optee-os/lib/libutee/tee_api_operations.c:1681
    1430:	4604      	mov	r4, r0
/home/yin/imx-optee/imx-optee-os/lib/libutee/tee_api_operations.c:1678
    1432:	3308      	adds	r3, #8
    1434:	ebad 0d03 	sub.w	sp, sp, r3
    1438:	f10d 0910 	add.w	r9, sp, #16
/home/yin/imx-optee/imx-optee-os/lib/libutee/tee_api_operations.c:1681
    143c:	b140      	cbz	r0, 1450 <TEE_AsymmetricSignDigest+0x38>
/home/yin/imx-optee/imx-optee-os/lib/libutee/tee_api_operations.c:1681 (discriminator 1)
    143e:	f1ba 0f00 	cmp.w	sl, #0
    1442:	d101      	bne.n	1448 <TEE_AsymmetricSignDigest+0x30>
/home/yin/imx-optee/imx-optee-os/lib/libutee/tee_api_operations.c:1682
    1444:	6b3b      	ldr	r3, [r7, #48]	; 0x30
    1446:	b91b      	cbnz	r3, 1450 <TEE_AsymmetricSignDigest+0x38>
/home/yin/imx-optee/imx-optee-os/lib/libutee/tee_api_operations.c:1682 (discriminator 1)
    1448:	f1bb 0f00 	cmp.w	fp, #0
    144c:	d000      	beq.n	1450 <TEE_AsymmetricSignDigest+0x38>
/home/yin/imx-optee/imx-optee-os/lib/libutee/tee_api_operations.c:1683
    144e:	b916      	cbnz	r6, 1456 <TEE_AsymmetricSignDigest+0x3e>
/home/yin/imx-optee/imx-optee-os/lib/libutee/tee_api_operations.c:1684
    1450:	2000      	movs	r0, #0
    1452:	f003 fd17 	bl	4e84 <TEE_Panic>
/home/yin/imx-optee/imx-optee-os/lib/libutee/tee_api_operations.c:1685
    1456:	f1b8 0f00 	cmp.w	r8, #0
    145a:	d103      	bne.n	1464 <TEE_AsymmetricSignDigest+0x4c>
/home/yin/imx-optee/imx-optee-os/lib/libutee/tee_api_operations.c:1685 (discriminator 1)
    145c:	b115      	cbz	r5, 1464 <TEE_AsymmetricSignDigest+0x4c>
/home/yin/imx-optee/imx-optee-os/lib/libutee/tee_api_operations.c:1686
    145e:	4640      	mov	r0, r8
    1460:	f003 fd10 	bl	4e84 <TEE_Panic>
/home/yin/imx-optee/imx-optee-os/lib/libutee/tee_api_operations.c:1687
    1464:	6a20      	ldr	r0, [r4, #32]
    1466:	b908      	cbnz	r0, 146c <TEE_AsymmetricSignDigest+0x54>
/home/yin/imx-optee/imx-optee-os/lib/libutee/tee_api_operations.c:1688
    1468:	f003 fd0c 	bl	4e84 <TEE_Panic>
/home/yin/imx-optee/imx-optee-os/lib/libutee/tee_api_operations.c:1689
    146c:	6863      	ldr	r3, [r4, #4]
    146e:	2b07      	cmp	r3, #7
    1470:	d002      	beq.n	1478 <TEE_AsymmetricSignDigest+0x60>
/home/yin/imx-optee/imx-optee-os/lib/libutee/tee_api_operations.c:1691
    1472:	2000      	movs	r0, #0
    1474:	f003 fd06 	bl	4e84 <TEE_Panic>
/home/yin/imx-optee/imx-optee-os/lib/libutee/tee_api_operations.c:1692
    1478:	68a3      	ldr	r3, [r4, #8]
    147a:	2b02      	cmp	r3, #2
    147c:	d002      	beq.n	1484 <TEE_AsymmetricSignDigest+0x6c>
/home/yin/imx-optee/imx-optee-os/lib/libutee/tee_api_operations.c:1693
    147e:	2000      	movs	r0, #0
    1480:	f003 fd00 	bl	4e84 <TEE_Panic>
/home/yin/imx-optee/imx-optee-os/lib/libutee/tee_api_operations.c:1695
    1484:	462a      	mov	r2, r5
    1486:	4641      	mov	r1, r8
    1488:	4648      	mov	r0, r9
    148a:	f001 f8a5 	bl	25d8 <__utee_from_attr>
/home/yin/imx-optee/imx-optee-os/lib/libutee/tee_api_operations.c:1696
    148e:	6833      	ldr	r3, [r6, #0]
/home/yin/imx-optee/imx-optee-os/lib/libutee/tee_api_operations.c:1697
    1490:	462a      	mov	r2, r5
    1492:	9702      	str	r7, [sp, #8]
    1494:	4649      	mov	r1, r9
    1496:	f8cd b004 	str.w	fp, [sp, #4]
/home/yin/imx-optee/imx-optee-os/lib/libutee/tee_api_operations.c:1696
    149a:	603b      	str	r3, [r7, #0]
    149c:	2300      	movs	r3, #0
    149e:	607b      	str	r3, [r7, #4]
/home/yin/imx-optee/imx-optee-os/lib/libutee/tee_api_operations.c:1697
    14a0:	6b3b      	ldr	r3, [r7, #48]	; 0x30
    14a2:	9300      	str	r3, [sp, #0]
    14a4:	4653      	mov	r3, sl
    14a6:	6be0      	ldr	r0, [r4, #60]	; 0x3c
    14a8:	f000 eb86 	blx	1bb8 <utee_asymm_operate>
/home/yin/imx-optee/imx-optee-os/lib/libutee/tee_api_operations.c:1699
    14ac:	683b      	ldr	r3, [r7, #0]
/home/yin/imx-optee/imx-optee-os/lib/libutee/tee_api_operations.c:1701
    14ae:	4604      	mov	r4, r0
/home/yin/imx-optee/imx-optee-os/lib/libutee/tee_api_operations.c:1699
    14b0:	6033      	str	r3, [r6, #0]
/home/yin/imx-optee/imx-optee-os/lib/libutee/tee_api_operations.c:1701
    14b2:	b120      	cbz	r0, 14be <TEE_AsymmetricSignDigest+0xa6>
/home/yin/imx-optee/imx-optee-os/lib/libutee/tee_api_operations.c:1701 (discriminator 1)
    14b4:	4b04      	ldr	r3, [pc, #16]	; (14c8 <TEE_AsymmetricSignDigest+0xb0>)
    14b6:	4298      	cmp	r0, r3
    14b8:	d001      	beq.n	14be <TEE_AsymmetricSignDigest+0xa6>
/home/yin/imx-optee/imx-optee-os/lib/libutee/tee_api_operations.c:1702
    14ba:	f003 fce3 	bl	4e84 <TEE_Panic>
/home/yin/imx-optee/imx-optee-os/lib/libutee/tee_api_operations.c:1705
    14be:	4620      	mov	r0, r4
    14c0:	370c      	adds	r7, #12
    14c2:	46bd      	mov	sp, r7
    14c4:	e8bd 8ff0 	ldmia.w	sp!, {r4, r5, r6, r7, r8, r9, sl, fp, pc}
    14c8:	ffff0010 	.word	0xffff0010

000014cc <TEE_AsymmetricVerifyDigest>:
TEE_AsymmetricVerifyDigest():
/home/yin/imx-optee/imx-optee-os/lib/libutee/tee_api_operations.c:1713
    14cc:	e92d 4ff0 	stmdb	sp!, {r4, r5, r6, r7, r8, r9, sl, fp, lr}
    14d0:	4699      	mov	r9, r3
/home/yin/imx-optee/imx-optee-os/lib/libutee/tee_api_operations.c:1715
    14d2:	2318      	movs	r3, #24
/home/yin/imx-optee/imx-optee-os/lib/libutee/tee_api_operations.c:1713
    14d4:	b085      	sub	sp, #20
/home/yin/imx-optee/imx-optee-os/lib/libutee/tee_api_operations.c:1715
    14d6:	4353      	muls	r3, r2
/home/yin/imx-optee/imx-optee-os/lib/libutee/tee_api_operations.c:1713
    14d8:	af04      	add	r7, sp, #16
    14da:	460e      	mov	r6, r1
    14dc:	4615      	mov	r5, r2
    14de:	f8d7 a02c 	ldr.w	sl, [r7, #44]	; 0x2c
    14e2:	f8d7 b030 	ldr.w	fp, [r7, #48]	; 0x30
/home/yin/imx-optee/imx-optee-os/lib/libutee/tee_api_operations.c:1717
    14e6:	4604      	mov	r4, r0
/home/yin/imx-optee/imx-optee-os/lib/libutee/tee_api_operations.c:1715
    14e8:	3308      	adds	r3, #8
    14ea:	ebad 0d03 	sub.w	sp, sp, r3
    14ee:	f10d 0810 	add.w	r8, sp, #16
/home/yin/imx-optee/imx-optee-os/lib/libutee/tee_api_operations.c:1717
    14f2:	b150      	cbz	r0, 150a <TEE_AsymmetricVerifyDigest+0x3e>
/home/yin/imx-optee/imx-optee-os/lib/libutee/tee_api_operations.c:1717 (discriminator 1)
    14f4:	f1b9 0f00 	cmp.w	r9, #0
    14f8:	d101      	bne.n	14fe <TEE_AsymmetricVerifyDigest+0x32>
/home/yin/imx-optee/imx-optee-os/lib/libutee/tee_api_operations.c:1718
    14fa:	6abb      	ldr	r3, [r7, #40]	; 0x28
    14fc:	b92b      	cbnz	r3, 150a <TEE_AsymmetricVerifyDigest+0x3e>
/home/yin/imx-optee/imx-optee-os/lib/libutee/tee_api_operations.c:1718 (discriminator 1)
    14fe:	f1ba 0f00 	cmp.w	sl, #0
    1502:	d105      	bne.n	1510 <TEE_AsymmetricVerifyDigest+0x44>
/home/yin/imx-optee/imx-optee-os/lib/libutee/tee_api_operations.c:1719
    1504:	f1bb 0f00 	cmp.w	fp, #0
    1508:	d002      	beq.n	1510 <TEE_AsymmetricVerifyDigest+0x44>
/home/yin/imx-optee/imx-optee-os/lib/libutee/tee_api_operations.c:1720
    150a:	2000      	movs	r0, #0
    150c:	f003 fcba 	bl	4e84 <TEE_Panic>
/home/yin/imx-optee/imx-optee-os/lib/libutee/tee_api_operations.c:1721
    1510:	b91e      	cbnz	r6, 151a <TEE_AsymmetricVerifyDigest+0x4e>
/home/yin/imx-optee/imx-optee-os/lib/libutee/tee_api_operations.c:1721 (discriminator 1)
    1512:	b115      	cbz	r5, 151a <TEE_AsymmetricVerifyDigest+0x4e>
/home/yin/imx-optee/imx-optee-os/lib/libutee/tee_api_operations.c:1722
    1514:	4630      	mov	r0, r6
    1516:	f003 fcb5 	bl	4e84 <TEE_Panic>
/home/yin/imx-optee/imx-optee-os/lib/libutee/tee_api_operations.c:1723
    151a:	6a20      	ldr	r0, [r4, #32]
    151c:	b908      	cbnz	r0, 1522 <TEE_AsymmetricVerifyDigest+0x56>
/home/yin/imx-optee/imx-optee-os/lib/libutee/tee_api_operations.c:1724
    151e:	f003 fcb1 	bl	4e84 <TEE_Panic>
/home/yin/imx-optee/imx-optee-os/lib/libutee/tee_api_operations.c:1725
    1522:	6863      	ldr	r3, [r4, #4]
    1524:	2b07      	cmp	r3, #7
    1526:	d002      	beq.n	152e <TEE_AsymmetricVerifyDigest+0x62>
/home/yin/imx-optee/imx-optee-os/lib/libutee/tee_api_operations.c:1727
    1528:	2000      	movs	r0, #0
    152a:	f003 fcab 	bl	4e84 <TEE_Panic>
/home/yin/imx-optee/imx-optee-os/lib/libutee/tee_api_operations.c:1728
    152e:	68a3      	ldr	r3, [r4, #8]
    1530:	2b03      	cmp	r3, #3
    1532:	d002      	beq.n	153a <TEE_AsymmetricVerifyDigest+0x6e>
/home/yin/imx-optee/imx-optee-os/lib/libutee/tee_api_operations.c:1729
    1534:	2000      	movs	r0, #0
    1536:	f003 fca5 	bl	4e84 <TEE_Panic>
/home/yin/imx-optee/imx-optee-os/lib/libutee/tee_api_operations.c:1731
    153a:	462a      	mov	r2, r5
    153c:	4631      	mov	r1, r6
    153e:	4640      	mov	r0, r8
    1540:	f001 f84a 	bl	25d8 <__utee_from_attr>
/home/yin/imx-optee/imx-optee-os/lib/libutee/tee_api_operations.c:1732
    1544:	6abb      	ldr	r3, [r7, #40]	; 0x28
    1546:	462a      	mov	r2, r5
    1548:	f8cd b008 	str.w	fp, [sp, #8]
    154c:	4641      	mov	r1, r8
    154e:	f8cd a004 	str.w	sl, [sp, #4]
    1552:	9300      	str	r3, [sp, #0]
    1554:	464b      	mov	r3, r9
    1556:	6be0      	ldr	r0, [r4, #60]	; 0x3c
    1558:	f000 eb3a 	blx	1bd0 <utee_asymm_verify>
/home/yin/imx-optee/imx-optee-os/lib/libutee/tee_api_operations.c:1735
    155c:	4604      	mov	r4, r0
    155e:	b120      	cbz	r0, 156a <TEE_AsymmetricVerifyDigest+0x9e>
/home/yin/imx-optee/imx-optee-os/lib/libutee/tee_api_operations.c:1735 (discriminator 1)
    1560:	4b04      	ldr	r3, [pc, #16]	; (1574 <TEE_AsymmetricVerifyDigest+0xa8>)
    1562:	4298      	cmp	r0, r3
    1564:	d001      	beq.n	156a <TEE_AsymmetricVerifyDigest+0x9e>
/home/yin/imx-optee/imx-optee-os/lib/libutee/tee_api_operations.c:1736
    1566:	f003 fc8d 	bl	4e84 <TEE_Panic>
/home/yin/imx-optee/imx-optee-os/lib/libutee/tee_api_operations.c:1739
    156a:	4620      	mov	r0, r4
    156c:	3704      	adds	r7, #4
    156e:	46bd      	mov	sp, r7
    1570:	e8bd 8ff0 	ldmia.w	sp!, {r4, r5, r6, r7, r8, r9, sl, fp, pc}
    1574:	ffff3072 	.word	0xffff3072

00001578 <TEE_DeriveKey>:
TEE_DeriveKey():
/home/yin/imx-optee/imx-optee-os/lib/libutee/tee_api_operations.c:1746
    1578:	e92d 43f0 	stmdb	sp!, {r4, r5, r6, r7, r8, r9, lr}
    157c:	461e      	mov	r6, r3
/home/yin/imx-optee/imx-optee-os/lib/libutee/tee_api_operations.c:1749
    157e:	2318      	movs	r3, #24
/home/yin/imx-optee/imx-optee-os/lib/libutee/tee_api_operations.c:1746
    1580:	b089      	sub	sp, #36	; 0x24
/home/yin/imx-optee/imx-optee-os/lib/libutee/tee_api_operations.c:1749
    1582:	4353      	muls	r3, r2
/home/yin/imx-optee/imx-optee-os/lib/libutee/tee_api_operations.c:1746
    1584:	af00      	add	r7, sp, #0
    1586:	4688      	mov	r8, r1
    1588:	4615      	mov	r5, r2
/home/yin/imx-optee/imx-optee-os/lib/libutee/tee_api_operations.c:1751
    158a:	4604      	mov	r4, r0
/home/yin/imx-optee/imx-optee-os/lib/libutee/tee_api_operations.c:1749
    158c:	3308      	adds	r3, #8
    158e:	ebad 0d03 	sub.w	sp, sp, r3
    1592:	46e9      	mov	r9, sp
/home/yin/imx-optee/imx-optee-os/lib/libutee/tee_api_operations.c:1751
    1594:	b100      	cbz	r0, 1598 <TEE_DeriveKey+0x20>
/home/yin/imx-optee/imx-optee-os/lib/libutee/tee_api_operations.c:1751 (discriminator 1)
    1596:	b916      	cbnz	r6, 159e <TEE_DeriveKey+0x26>
/home/yin/imx-optee/imx-optee-os/lib/libutee/tee_api_operations.c:1752
    1598:	2000      	movs	r0, #0
    159a:	f003 fc73 	bl	4e84 <TEE_Panic>
/home/yin/imx-optee/imx-optee-os/lib/libutee/tee_api_operations.c:1753
    159e:	f1b8 0f00 	cmp.w	r8, #0
    15a2:	d103      	bne.n	15ac <TEE_DeriveKey+0x34>
/home/yin/imx-optee/imx-optee-os/lib/libutee/tee_api_operations.c:1753 (discriminator 1)
    15a4:	b115      	cbz	r5, 15ac <TEE_DeriveKey+0x34>
/home/yin/imx-optee/imx-optee-os/lib/libutee/tee_api_operations.c:1754
    15a6:	4640      	mov	r0, r8
    15a8:	f003 fc6c 	bl	4e84 <TEE_Panic>
/home/yin/imx-optee/imx-optee-os/lib/libutee/tee_api_operations.c:1755
    15ac:	6823      	ldr	r3, [r4, #0]
    15ae:	0f1b      	lsrs	r3, r3, #28
    15b0:	2b08      	cmp	r3, #8
    15b2:	d002      	beq.n	15ba <TEE_DeriveKey+0x42>
/home/yin/imx-optee/imx-optee-os/lib/libutee/tee_api_operations.c:1757
    15b4:	2000      	movs	r0, #0
    15b6:	f003 fc65 	bl	4e84 <TEE_Panic>
/home/yin/imx-optee/imx-optee-os/lib/libutee/tee_api_operations.c:1759
    15ba:	6863      	ldr	r3, [r4, #4]
    15bc:	2b08      	cmp	r3, #8
    15be:	d002      	beq.n	15c6 <TEE_DeriveKey+0x4e>
/home/yin/imx-optee/imx-optee-os/lib/libutee/tee_api_operations.c:1760
    15c0:	2000      	movs	r0, #0
    15c2:	f003 fc5f 	bl	4e84 <TEE_Panic>
/home/yin/imx-optee/imx-optee-os/lib/libutee/tee_api_operations.c:1761
    15c6:	6a20      	ldr	r0, [r4, #32]
    15c8:	b908      	cbnz	r0, 15ce <TEE_DeriveKey+0x56>
/home/yin/imx-optee/imx-optee-os/lib/libutee/tee_api_operations.c:1762
    15ca:	f003 fc5b 	bl	4e84 <TEE_Panic>
/home/yin/imx-optee/imx-optee-os/lib/libutee/tee_api_operations.c:1763
    15ce:	68a3      	ldr	r3, [r4, #8]
    15d0:	2b06      	cmp	r3, #6
    15d2:	d002      	beq.n	15da <TEE_DeriveKey+0x62>
/home/yin/imx-optee/imx-optee-os/lib/libutee/tee_api_operations.c:1764
    15d4:	2000      	movs	r0, #0
    15d6:	f003 fc55 	bl	4e84 <TEE_Panic>
/home/yin/imx-optee/imx-optee-os/lib/libutee/tee_api_operations.c:1765
    15da:	69e0      	ldr	r0, [r4, #28]
    15dc:	f410 2080 	ands.w	r0, r0, #262144	; 0x40000
    15e0:	d101      	bne.n	15e6 <TEE_DeriveKey+0x6e>
/home/yin/imx-optee/imx-optee-os/lib/libutee/tee_api_operations.c:1766
    15e2:	f003 fc4f 	bl	4e84 <TEE_Panic>
/home/yin/imx-optee/imx-optee-os/lib/libutee/tee_api_operations.c:1768
    15e6:	1d39      	adds	r1, r7, #4
    15e8:	4630      	mov	r0, r6
    15ea:	f000 ea48 	blx	1a7c <utee_cryp_obj_get_info>
/home/yin/imx-optee/imx-optee-os/lib/libutee/tee_api_operations.c:1769
    15ee:	b108      	cbz	r0, 15f4 <TEE_DeriveKey+0x7c>
/home/yin/imx-optee/imx-optee-os/lib/libutee/tee_api_operations.c:1770
    15f0:	f003 fc48 	bl	4e84 <TEE_Panic>
/home/yin/imx-optee/imx-optee-os/lib/libutee/tee_api_operations.c:1772
    15f4:	687b      	ldr	r3, [r7, #4]
    15f6:	f1b3 4f20 	cmp.w	r3, #2684354560	; 0xa0000000
    15fa:	d002      	beq.n	1602 <TEE_DeriveKey+0x8a>
/home/yin/imx-optee/imx-optee-os/lib/libutee/tee_api_operations.c:1773
    15fc:	2000      	movs	r0, #0
    15fe:	f003 fc41 	bl	4e84 <TEE_Panic>
/home/yin/imx-optee/imx-optee-os/lib/libutee/tee_api_operations.c:1774
    1602:	69fb      	ldr	r3, [r7, #28]
    1604:	039b      	lsls	r3, r3, #14
    1606:	d502      	bpl.n	160e <TEE_DeriveKey+0x96>
/home/yin/imx-optee/imx-optee-os/lib/libutee/tee_api_operations.c:1775
    1608:	2000      	movs	r0, #0
    160a:	f003 fc3b 	bl	4e84 <TEE_Panic>
/home/yin/imx-optee/imx-optee-os/lib/libutee/tee_api_operations.c:1777
    160e:	462a      	mov	r2, r5
    1610:	4641      	mov	r1, r8
    1612:	4648      	mov	r0, r9
    1614:	f000 ffe0 	bl	25d8 <__utee_from_attr>
/home/yin/imx-optee/imx-optee-os/lib/libutee/tee_api_operations.c:1778
    1618:	4633      	mov	r3, r6
    161a:	462a      	mov	r2, r5
    161c:	4649      	mov	r1, r9
    161e:	6be0      	ldr	r0, [r4, #60]	; 0x3c
    1620:	f000 ea7c 	blx	1b1c <utee_cryp_derive_key>
/home/yin/imx-optee/imx-optee-os/lib/libutee/tee_api_operations.c:1780
    1624:	b108      	cbz	r0, 162a <TEE_DeriveKey+0xb2>
/home/yin/imx-optee/imx-optee-os/lib/libutee/tee_api_operations.c:1781
    1626:	f003 fc2d 	bl	4e84 <TEE_Panic>
/home/yin/imx-optee/imx-optee-os/lib/libutee/tee_api_operations.c:1782
    162a:	3724      	adds	r7, #36	; 0x24
    162c:	46bd      	mov	sp, r7
    162e:	e8bd 83f0 	ldmia.w	sp!, {r4, r5, r6, r7, r8, r9, pc}

00001632 <TEE_GenerateRandom>:
TEE_GenerateRandom():
/home/yin/imx-optee/imx-optee-os/lib/libutee/tee_api_operations.c:1787
    1632:	b508      	push	{r3, lr}
/home/yin/imx-optee/imx-optee-os/lib/libutee/tee_api_operations.c:1790
    1634:	f000 ea7c 	blx	1b30 <utee_cryp_random_number_generate>
/home/yin/imx-optee/imx-optee-os/lib/libutee/tee_api_operations.c:1791
    1638:	b118      	cbz	r0, 1642 <TEE_GenerateRandom+0x10>
/home/yin/imx-optee/imx-optee-os/lib/libutee/tee_api_operations.c:1793
    163a:	e8bd 4008 	ldmia.w	sp!, {r3, lr}
/home/yin/imx-optee/imx-optee-os/lib/libutee/tee_api_operations.c:1792
    163e:	f003 bc21 	b.w	4e84 <TEE_Panic>
    1642:	bd08      	pop	{r3, pc}

00001644 <rand>:
rand():
/home/yin/imx-optee/imx-optee-os/lib/libutee/tee_api_operations.c:1796
    1644:	b507      	push	{r0, r1, r2, lr}
/home/yin/imx-optee/imx-optee-os/lib/libutee/tee_api_operations.c:1799
    1646:	2104      	movs	r1, #4
    1648:	eb0d 0001 	add.w	r0, sp, r1
    164c:	f7ff fff1 	bl	1632 <TEE_GenerateRandom>
/home/yin/imx-optee/imx-optee-os/lib/libutee/tee_api_operations.c:1806
    1650:	9801      	ldr	r0, [sp, #4]
    1652:	f020 4000 	bic.w	r0, r0, #2147483648	; 0x80000000
    1656:	b003      	add	sp, #12
    1658:	f85d fb04 	ldr.w	pc, [sp], #4

0000165c <ta_header_get_session>:
ta_header_get_session():
/home/yin/imx-optee/imx-optee-os/lib/libutee/arch/arm/user_ta_entry.c:81
    165c:	4b05      	ldr	r3, [pc, #20]	; (1674 <ta_header_get_session+0x18>)
    165e:	447b      	add	r3, pc
    1660:	681b      	ldr	r3, [r3, #0]
/home/yin/imx-optee/imx-optee-os/lib/libutee/arch/arm/user_ta_entry.c:81 (discriminator 1)
    1662:	b90b      	cbnz	r3, 1668 <ta_header_get_session+0xc>
/home/yin/imx-optee/imx-optee-os/lib/libutee/arch/arm/user_ta_entry.c:86
    1664:	4618      	mov	r0, r3
    1666:	4770      	bx	lr
/home/yin/imx-optee/imx-optee-os/lib/libutee/arch/arm/user_ta_entry.c:82
    1668:	681a      	ldr	r2, [r3, #0]
    166a:	4282      	cmp	r2, r0
    166c:	d0fa      	beq.n	1664 <ta_header_get_session+0x8>
/home/yin/imx-optee/imx-optee-os/lib/libutee/arch/arm/user_ta_entry.c:81 (discriminator 2)
    166e:	689b      	ldr	r3, [r3, #8]
    1670:	e7f7      	b.n	1662 <ta_header_get_session+0x6>
    1672:	bf00      	nop
    1674:	00007a12 	.word	0x00007a12

00001678 <ta_header_remove_session>:
ta_header_remove_session():
/home/yin/imx-optee/imx-optee-os/lib/libutee/arch/arm/user_ta_entry.c:119
    1678:	4b14      	ldr	r3, [pc, #80]	; (16cc <ta_header_remove_session+0x54>)
/home/yin/imx-optee/imx-optee-os/lib/libutee/arch/arm/user_ta_entry.c:115
    167a:	b510      	push	{r4, lr}
    167c:	4c14      	ldr	r4, [pc, #80]	; (16d0 <ta_header_remove_session+0x58>)
/home/yin/imx-optee/imx-optee-os/lib/libutee/arch/arm/user_ta_entry.c:119
    167e:	447b      	add	r3, pc
    1680:	681b      	ldr	r3, [r3, #0]
/home/yin/imx-optee/imx-optee-os/lib/libutee/arch/arm/user_ta_entry.c:115
    1682:	447c      	add	r4, pc
/home/yin/imx-optee/imx-optee-os/lib/libutee/arch/arm/user_ta_entry.c:119 (discriminator 1)
    1684:	b903      	cbnz	r3, 1688 <ta_header_remove_session+0x10>
    1686:	bd10      	pop	{r4, pc}
/home/yin/imx-optee/imx-optee-os/lib/libutee/arch/arm/user_ta_entry.c:120
    1688:	681a      	ldr	r2, [r3, #0]
    168a:	4282      	cmp	r2, r0
    168c:	689a      	ldr	r2, [r3, #8]
    168e:	d11b      	bne.n	16c8 <ta_header_remove_session+0x50>
    1690:	68d9      	ldr	r1, [r3, #12]
/home/yin/imx-optee/imx-optee-os/lib/libutee/arch/arm/user_ta_entry.c:121
    1692:	b1aa      	cbz	r2, 16c0 <ta_header_remove_session+0x48>
/home/yin/imx-optee/imx-optee-os/lib/libutee/arch/arm/user_ta_entry.c:121 (discriminator 1)
    1694:	60d1      	str	r1, [r2, #12]
/home/yin/imx-optee/imx-optee-os/lib/libutee/arch/arm/user_ta_entry.c:121 (discriminator 4)
    1696:	68d9      	ldr	r1, [r3, #12]
/home/yin/imx-optee/imx-optee-os/lib/libutee/arch/arm/user_ta_entry.c:122 (discriminator 4)
    1698:	4618      	mov	r0, r3
/home/yin/imx-optee/imx-optee-os/lib/libutee/arch/arm/user_ta_entry.c:121 (discriminator 4)
    169a:	600a      	str	r2, [r1, #0]
/home/yin/imx-optee/imx-optee-os/lib/libutee/arch/arm/user_ta_entry.c:122 (discriminator 4)
    169c:	f000 ff90 	bl	25c0 <TEE_Free>
/home/yin/imx-optee/imx-optee-os/lib/libutee/arch/arm/user_ta_entry.c:127 (discriminator 4)
    16a0:	4b0c      	ldr	r3, [pc, #48]	; (16d4 <ta_header_remove_session+0x5c>)
    16a2:	447b      	add	r3, pc
    16a4:	681b      	ldr	r3, [r3, #0]
    16a6:	2b00      	cmp	r3, #0
    16a8:	d1ed      	bne.n	1686 <ta_header_remove_session+0xe>
/home/yin/imx-optee/imx-optee-os/lib/libutee/arch/arm/user_ta_entry.c:125 (discriminator 1)
    16aa:	4b0b      	ldr	r3, [pc, #44]	; (16d8 <ta_header_remove_session+0x60>)
    16ac:	58e3      	ldr	r3, [r4, r3]
    16ae:	695b      	ldr	r3, [r3, #20]
    16b0:	f003 0314 	and.w	r3, r3, #20
/home/yin/imx-optee/imx-optee-os/lib/libutee/arch/arm/user_ta_entry.c:127 (discriminator 1)
    16b4:	2b14      	cmp	r3, #20
    16b6:	d0e6      	beq.n	1686 <ta_header_remove_session+0xe>
/home/yin/imx-optee/imx-optee-os/lib/libutee/arch/arm/user_ta_entry.c:133
    16b8:	e8bd 4010 	ldmia.w	sp!, {r4, lr}
uninit_instance():
/home/yin/imx-optee/imx-optee-os/lib/libutee/arch/arm/user_ta_entry.c:63
    16bc:	f7fe bcb2 	b.w	24 <TA_DestroyEntryPoint>
ta_header_remove_session():
/home/yin/imx-optee/imx-optee-os/lib/libutee/arch/arm/user_ta_entry.c:121 (discriminator 2)
    16c0:	4806      	ldr	r0, [pc, #24]	; (16dc <ta_header_remove_session+0x64>)
    16c2:	4478      	add	r0, pc
    16c4:	6041      	str	r1, [r0, #4]
    16c6:	e7e6      	b.n	1696 <ta_header_remove_session+0x1e>
/home/yin/imx-optee/imx-optee-os/lib/libutee/arch/arm/user_ta_entry.c:119 (discriminator 2)
    16c8:	4613      	mov	r3, r2
    16ca:	e7db      	b.n	1684 <ta_header_remove_session+0xc>
    16cc:	000079f2 	.word	0x000079f2
    16d0:	0000720e 	.word	0x0000720e
    16d4:	000079ce 	.word	0x000079ce
    16d8:	0000002c 	.word	0x0000002c
    16dc:	000079ae 	.word	0x000079ae

000016e0 <__utee_entry>:
__utee_entry():
/home/yin/imx-optee/imx-optee-os/lib/libutee/arch/arm/user_ta_entry.c:200
    16e0:	4c5a      	ldr	r4, [pc, #360]	; (184c <__utee_entry+0x16c>)
    16e2:	4616      	mov	r6, r2
    16e4:	b580      	push	{r7, lr}
    16e6:	4698      	mov	r8, r3
    16e8:	b08c      	sub	sp, #48	; 0x30
    16ea:	460f      	mov	r7, r1
    16ec:	447c      	add	r4, pc
/home/yin/imx-optee/imx-optee-os/lib/libutee/arch/arm/user_ta_entry.c:211
    16ee:	2801      	cmp	r0, #1
    16f0:	d073      	beq.n	17da <__utee_entry+0xfa>
    16f2:	d307      	bcc.n	1704 <__utee_entry+0x24>
    16f4:	2802      	cmp	r0, #2
    16f6:	d07d      	beq.n	17f4 <__utee_entry+0x114>
/home/yin/imx-optee/imx-optee-os/lib/libutee/arch/arm/user_ta_entry.c:223
    16f8:	2000      	movs	r0, #0
/home/yin/imx-optee/imx-optee-os/lib/libutee/arch/arm/user_ta_entry.c:222
    16fa:	f04f 34ff 	mov.w	r4, #4294967295	; 0xffffffff
/home/yin/imx-optee/imx-optee-os/lib/libutee/arch/arm/user_ta_entry.c:223
    16fe:	f003 fbc1 	bl	4e84 <TEE_Panic>
/home/yin/imx-optee/imx-optee-os/lib/libutee/arch/arm/user_ta_entry.c:224
    1702:	e026      	b.n	1752 <__utee_entry+0x72>
ta_header_add_session():
/home/yin/imx-optee/imx-optee-os/lib/libutee/arch/arm/user_ta_entry.c:90
    1704:	4608      	mov	r0, r1
    1706:	f7ff ffa9 	bl	165c <ta_header_get_session>
/home/yin/imx-optee/imx-optee-os/lib/libutee/arch/arm/user_ta_entry.c:93
    170a:	2800      	cmp	r0, #0
    170c:	d137      	bne.n	177e <__utee_entry+0x9e>
/home/yin/imx-optee/imx-optee-os/lib/libutee/arch/arm/user_ta_entry.c:96
    170e:	4b50      	ldr	r3, [pc, #320]	; (1850 <__utee_entry+0x170>)
    1710:	447b      	add	r3, pc
    1712:	781a      	ldrb	r2, [r3, #0]
    1714:	b13a      	cbz	r2, 1726 <__utee_entry+0x46>
/home/yin/imx-optee/imx-optee-os/lib/libutee/arch/arm/user_ta_entry.c:103
    1716:	f04f 4100 	mov.w	r1, #2147483648	; 0x80000000
    171a:	2010      	movs	r0, #16
    171c:	f000 ff29 	bl	2572 <TEE_Malloc>
/home/yin/imx-optee/imx-optee-os/lib/libutee/arch/arm/user_ta_entry.c:105
    1720:	bb10      	cbnz	r0, 1768 <__utee_entry+0x88>
/home/yin/imx-optee/imx-optee-os/lib/libutee/arch/arm/user_ta_entry.c:106
    1722:	4c48      	ldr	r4, [pc, #288]	; (1844 <__utee_entry+0x164>)
    1724:	e015      	b.n	1752 <__utee_entry+0x72>
/home/yin/imx-optee/imx-optee-os/lib/libutee/arch/arm/user_ta_entry.c:97
    1726:	2201      	movs	r2, #1
    1728:	701a      	strb	r2, [r3, #0]
init_instance():
/home/yin/imx-optee/imx-optee-os/lib/libutee/arch/arm/user_ta_entry.c:53
    172a:	f003 fba9 	bl	4e80 <tahead_get_trace_level>
    172e:	f002 fc26 	bl	3f7e <trace_set_level>
/home/yin/imx-optee/imx-optee-os/lib/libutee/arch/arm/user_ta_entry.c:55
    1732:	4b48      	ldr	r3, [pc, #288]	; (1854 <__utee_entry+0x174>)
    1734:	4a48      	ldr	r2, [pc, #288]	; (1858 <__utee_entry+0x178>)
    1736:	58e3      	ldr	r3, [r4, r3]
    1738:	58a2      	ldr	r2, [r4, r2]
    173a:	6819      	ldr	r1, [r3, #0]
    173c:	4610      	mov	r0, r2
    173e:	9201      	str	r2, [sp, #4]
    1740:	f001 ff50 	bl	35e4 <malloc_add_pool>
/home/yin/imx-optee/imx-optee-os/lib/libutee/arch/arm/user_ta_entry.c:56
    1744:	f000 fb8a 	bl	1e5c <_TEE_MathAPI_Init>
/home/yin/imx-optee/imx-optee-os/lib/libutee/arch/arm/user_ta_entry.c:57
    1748:	f7fe fc6a 	bl	20 <TA_CreateEntryPoint>
ta_header_add_session():
/home/yin/imx-optee/imx-optee-os/lib/libutee/arch/arm/user_ta_entry.c:99
    174c:	4604      	mov	r4, r0
    174e:	2800      	cmp	r0, #0
    1750:	d0e1      	beq.n	1716 <__utee_entry+0x36>
ta_header_save_params():
/home/yin/imx-optee/imx-optee-os/lib/libutee/arch/arm/user_ta_entry.c:69
    1752:	4842      	ldr	r0, [pc, #264]	; (185c <__utee_entry+0x17c>)
    1754:	2100      	movs	r1, #0
/home/yin/imx-optee/imx-optee-os/lib/libutee/arch/arm/user_ta_entry.c:74
    1756:	2220      	movs	r2, #32
/home/yin/imx-optee/imx-optee-os/lib/libutee/arch/arm/user_ta_entry.c:69
    1758:	4478      	add	r0, pc
    175a:	6041      	str	r1, [r0, #4]
/home/yin/imx-optee/imx-optee-os/lib/libutee/arch/arm/user_ta_entry.c:74
    175c:	3008      	adds	r0, #8
    175e:	f003 fbdd 	bl	4f1c <memset>
__utee_entry():
/home/yin/imx-optee/imx-optee-os/lib/libutee/arch/arm/user_ta_entry.c:227
    1762:	4620      	mov	r0, r4
    1764:	f000 e88c 	blx	1880 <utee_return>
ta_header_add_session():
/home/yin/imx-optee/imx-optee-os/lib/libutee/arch/arm/user_ta_entry.c:108
    1768:	2300      	movs	r3, #0
/home/yin/imx-optee/imx-optee-os/lib/libutee/arch/arm/user_ta_entry.c:107
    176a:	6007      	str	r7, [r0, #0]
/home/yin/imx-optee/imx-optee-os/lib/libutee/arch/arm/user_ta_entry.c:108
    176c:	6043      	str	r3, [r0, #4]
/home/yin/imx-optee/imx-optee-os/lib/libutee/arch/arm/user_ta_entry.c:109
    176e:	6083      	str	r3, [r0, #8]
    1770:	4b3b      	ldr	r3, [pc, #236]	; (1860 <__utee_entry+0x180>)
    1772:	447b      	add	r3, pc
    1774:	685a      	ldr	r2, [r3, #4]
    1776:	60c2      	str	r2, [r0, #12]
    1778:	6010      	str	r0, [r2, #0]
    177a:	3008      	adds	r0, #8
    177c:	6058      	str	r0, [r3, #4]
entry_open_session():
/home/yin/imx-optee/imx-optee-os/lib/libutee/arch/arm/user_ta_entry.c:147
    177e:	4638      	mov	r0, r7
    1780:	f7ff ff6c 	bl	165c <ta_header_get_session>
/home/yin/imx-optee/imx-optee-os/lib/libutee/arch/arm/user_ta_entry.c:148
    1784:	4681      	mov	r9, r0
    1786:	b908      	cbnz	r0, 178c <__utee_entry+0xac>
entry_close_session():
/home/yin/imx-optee/imx-optee-os/lib/libutee/arch/arm/user_ta_entry.c:169
    1788:	4c2f      	ldr	r4, [pc, #188]	; (1848 <__utee_entry+0x168>)
    178a:	e7e2      	b.n	1752 <__utee_entry+0x72>
entry_open_session():
/home/yin/imx-optee/imx-optee-os/lib/libutee/arch/arm/user_ta_entry.c:151
    178c:	f10d 0810 	add.w	r8, sp, #16
    1790:	4632      	mov	r2, r6
    1792:	a903      	add	r1, sp, #12
    1794:	4640      	mov	r0, r8
ta_header_save_params():
/home/yin/imx-optee/imx-optee-os/lib/libutee/arch/arm/user_ta_entry.c:69
    1796:	4c33      	ldr	r4, [pc, #204]	; (1864 <__utee_entry+0x184>)
/home/yin/imx-optee/imx-optee-os/lib/libutee/arch/arm/user_ta_entry.c:72
    1798:	4645      	mov	r5, r8
entry_open_session():
/home/yin/imx-optee/imx-optee-os/lib/libutee/arch/arm/user_ta_entry.c:151
    179a:	f000 fdd2 	bl	2342 <__utee_to_param>
/home/yin/imx-optee/imx-optee-os/lib/libutee/arch/arm/user_ta_entry.c:152
    179e:	f8dd c00c 	ldr.w	ip, [sp, #12]
ta_header_save_params():
/home/yin/imx-optee/imx-optee-os/lib/libutee/arch/arm/user_ta_entry.c:72
    17a2:	cd0f      	ldmia	r5!, {r0, r1, r2, r3}
/home/yin/imx-optee/imx-optee-os/lib/libutee/arch/arm/user_ta_entry.c:69
    17a4:	447c      	add	r4, pc
/home/yin/imx-optee/imx-optee-os/lib/libutee/arch/arm/user_ta_entry.c:72
    17a6:	3408      	adds	r4, #8
/home/yin/imx-optee/imx-optee-os/lib/libutee/arch/arm/user_ta_entry.c:69
    17a8:	f844 cc04 	str.w	ip, [r4, #-4]
/home/yin/imx-optee/imx-optee-os/lib/libutee/arch/arm/user_ta_entry.c:72
    17ac:	c40f      	stmia	r4!, {r0, r1, r2, r3}
    17ae:	e895 000f 	ldmia.w	r5, {r0, r1, r2, r3}
    17b2:	e884 000f 	stmia.w	r4, {r0, r1, r2, r3}
entry_open_session():
/home/yin/imx-optee/imx-optee-os/lib/libutee/arch/arm/user_ta_entry.c:154
    17b6:	f109 0204 	add.w	r2, r9, #4
    17ba:	4641      	mov	r1, r8
    17bc:	4660      	mov	r0, ip
    17be:	f7fe fc32 	bl	26 <TA_OpenSessionEntryPoint>
    17c2:	4604      	mov	r4, r0
/home/yin/imx-optee/imx-optee-os/lib/libutee/arch/arm/user_ta_entry.c:157
    17c4:	4642      	mov	r2, r8
    17c6:	9903      	ldr	r1, [sp, #12]
    17c8:	4630      	mov	r0, r6
    17ca:	f000 fd91 	bl	22f0 <__utee_from_param>
/home/yin/imx-optee/imx-optee-os/lib/libutee/arch/arm/user_ta_entry.c:159
    17ce:	2c00      	cmp	r4, #0
    17d0:	d0bf      	beq.n	1752 <__utee_entry+0x72>
/home/yin/imx-optee/imx-optee-os/lib/libutee/arch/arm/user_ta_entry.c:160
    17d2:	4638      	mov	r0, r7
    17d4:	f7ff ff50 	bl	1678 <ta_header_remove_session>
    17d8:	e7bb      	b.n	1752 <__utee_entry+0x72>
entry_close_session():
/home/yin/imx-optee/imx-optee-os/lib/libutee/arch/arm/user_ta_entry.c:166
    17da:	4608      	mov	r0, r1
    17dc:	f7ff ff3e 	bl	165c <ta_header_get_session>
/home/yin/imx-optee/imx-optee-os/lib/libutee/arch/arm/user_ta_entry.c:168
    17e0:	2800      	cmp	r0, #0
    17e2:	d0d1      	beq.n	1788 <__utee_entry+0xa8>
/home/yin/imx-optee/imx-optee-os/lib/libutee/arch/arm/user_ta_entry.c:171
    17e4:	6840      	ldr	r0, [r0, #4]
/home/yin/imx-optee/imx-optee-os/lib/libutee/arch/arm/user_ta_entry.c:174
    17e6:	2400      	movs	r4, #0
/home/yin/imx-optee/imx-optee-os/lib/libutee/arch/arm/user_ta_entry.c:171
    17e8:	f7fe fc24 	bl	34 <TA_CloseSessionEntryPoint>
/home/yin/imx-optee/imx-optee-os/lib/libutee/arch/arm/user_ta_entry.c:173
    17ec:	4638      	mov	r0, r7
    17ee:	f7ff ff43 	bl	1678 <ta_header_remove_session>
    17f2:	e7ae      	b.n	1752 <__utee_entry+0x72>
entry_invoke_command():
/home/yin/imx-optee/imx-optee-os/lib/libutee/arch/arm/user_ta_entry.c:183
    17f4:	4608      	mov	r0, r1
    17f6:	f7ff ff31 	bl	165c <ta_header_get_session>
/home/yin/imx-optee/imx-optee-os/lib/libutee/arch/arm/user_ta_entry.c:185
    17fa:	4681      	mov	r9, r0
    17fc:	2800      	cmp	r0, #0
    17fe:	d0c3      	beq.n	1788 <__utee_entry+0xa8>
/home/yin/imx-optee/imx-optee-os/lib/libutee/arch/arm/user_ta_entry.c:188
    1800:	af04      	add	r7, sp, #16
    1802:	4632      	mov	r2, r6
    1804:	a903      	add	r1, sp, #12
    1806:	4638      	mov	r0, r7
ta_header_save_params():
/home/yin/imx-optee/imx-optee-os/lib/libutee/arch/arm/user_ta_entry.c:72
    1808:	463d      	mov	r5, r7
/home/yin/imx-optee/imx-optee-os/lib/libutee/arch/arm/user_ta_entry.c:69
    180a:	4c17      	ldr	r4, [pc, #92]	; (1868 <__utee_entry+0x188>)
entry_invoke_command():
/home/yin/imx-optee/imx-optee-os/lib/libutee/arch/arm/user_ta_entry.c:188
    180c:	f000 fd99 	bl	2342 <__utee_to_param>
/home/yin/imx-optee/imx-optee-os/lib/libutee/arch/arm/user_ta_entry.c:189
    1810:	f8dd c00c 	ldr.w	ip, [sp, #12]
ta_header_save_params():
/home/yin/imx-optee/imx-optee-os/lib/libutee/arch/arm/user_ta_entry.c:72
    1814:	cd0f      	ldmia	r5!, {r0, r1, r2, r3}
/home/yin/imx-optee/imx-optee-os/lib/libutee/arch/arm/user_ta_entry.c:69
    1816:	447c      	add	r4, pc
/home/yin/imx-optee/imx-optee-os/lib/libutee/arch/arm/user_ta_entry.c:72
    1818:	3408      	adds	r4, #8
/home/yin/imx-optee/imx-optee-os/lib/libutee/arch/arm/user_ta_entry.c:69
    181a:	f844 cc04 	str.w	ip, [r4, #-4]
/home/yin/imx-optee/imx-optee-os/lib/libutee/arch/arm/user_ta_entry.c:72
    181e:	c40f      	stmia	r4!, {r0, r1, r2, r3}
    1820:	e895 000f 	ldmia.w	r5, {r0, r1, r2, r3}
    1824:	e884 000f 	stmia.w	r4, {r0, r1, r2, r3}
entry_invoke_command():
/home/yin/imx-optee/imx-optee-os/lib/libutee/arch/arm/user_ta_entry.c:191
    1828:	4662      	mov	r2, ip
    182a:	4641      	mov	r1, r8
    182c:	463b      	mov	r3, r7
    182e:	f8d9 0004 	ldr.w	r0, [r9, #4]
    1832:	f7fe fc00 	bl	36 <TA_InvokeCommandEntryPoint>
/home/yin/imx-optee/imx-optee-os/lib/libutee/arch/arm/user_ta_entry.c:194
    1836:	463a      	mov	r2, r7
/home/yin/imx-optee/imx-optee-os/lib/libutee/arch/arm/user_ta_entry.c:191
    1838:	4604      	mov	r4, r0
/home/yin/imx-optee/imx-optee-os/lib/libutee/arch/arm/user_ta_entry.c:194
    183a:	9903      	ldr	r1, [sp, #12]
    183c:	4630      	mov	r0, r6
    183e:	f000 fd57 	bl	22f0 <__utee_from_param>
    1842:	e786      	b.n	1752 <__utee_entry+0x72>
    1844:	ffff000c 	.word	0xffff000c
    1848:	ffff0007 	.word	0xffff0007
    184c:	000071a4 	.word	0x000071a4
    1850:	00007978 	.word	0x00007978
    1854:	0000000c 	.word	0x0000000c
    1858:	00000020 	.word	0x00000020
    185c:	00007930 	.word	0x00007930
    1860:	000078fe 	.word	0x000078fe
    1864:	000078e4 	.word	0x000078e4
    1868:	00007872 	.word	0x00007872

0000186c <utee_panic>:
utee_panic():
/home/yin/imx-optee/imx-optee-os/lib/libutee/arch/arm/utee_syscalls_a32.S:47
    186c:	e92d4fff 	push	{r0, r1, r2, r3, r4, r5, r6, r7, r8, r9, sl, fp, lr}
/home/yin/imx-optee/imx-optee-os/lib/libutee/arch/arm/utee_syscalls_a32.S:49
    1870:	e1a0e00f 	mov	lr, pc
/home/yin/imx-optee/imx-optee-os/lib/libutee/arch/arm/utee_syscalls_a32.S:50
    1874:	e52de004 	push	{lr}		; (str lr, [sp, #-4]!)
/home/yin/imx-optee/imx-optee-os/lib/libutee/arch/arm/utee_syscalls_a32.S:52
    1878:	e1a0100d 	mov	r1, sp
/home/yin/imx-optee/imx-optee-os/lib/libutee/arch/arm/utee_syscalls_a32.S:53
    187c:	eb000009 	bl	18a8 <__utee_panic>

00001880 <utee_return>:
utee_return():
/home/yin/imx-optee/imx-optee-os/lib/libutee/arch/arm/utee_syscalls_asm.S:8
    1880:	e92d40e0 	push	{r5, r6, r7, lr}
    1884:	e3a07000 	mov	r7, #0
    1888:	e3a06000 	mov	r6, #0
    188c:	ef000000 	svc	0x00000000
    1890:	e8bd80e0 	pop	{r5, r6, r7, pc}

00001894 <utee_log>:
utee_log():
/home/yin/imx-optee/imx-optee-os/lib/libutee/arch/arm/utee_syscalls_asm.S:10
    1894:	e92d40e0 	push	{r5, r6, r7, lr}
    1898:	e3a07001 	mov	r7, #1
    189c:	e3a06000 	mov	r6, #0
    18a0:	ef000000 	svc	0x00000000
    18a4:	e8bd80e0 	pop	{r5, r6, r7, pc}

000018a8 <__utee_panic>:
__utee_panic():
/home/yin/imx-optee/imx-optee-os/lib/libutee/arch/arm/utee_syscalls_asm.S:12
    18a8:	e92d40e0 	push	{r5, r6, r7, lr}
    18ac:	e3a07002 	mov	r7, #2
    18b0:	e3a06000 	mov	r6, #0
    18b4:	ef000000 	svc	0x00000000
    18b8:	e8bd80e0 	pop	{r5, r6, r7, pc}

000018bc <utee_get_property>:
utee_get_property():
/home/yin/imx-optee/imx-optee-os/lib/libutee/arch/arm/utee_syscalls_asm.S:14
    18bc:	e92d40e0 	push	{r5, r6, r7, lr}
    18c0:	e3a07003 	mov	r7, #3
    18c4:	e3a06003 	mov	r6, #3
    18c8:	e28d5010 	add	r5, sp, #16
    18cc:	ef000000 	svc	0x00000000
    18d0:	e8bd80e0 	pop	{r5, r6, r7, pc}

000018d4 <utee_get_property_name_to_index>:
utee_get_property_name_to_index():
/home/yin/imx-optee/imx-optee-os/lib/libutee/arch/arm/utee_syscalls_asm.S:16
    18d4:	e92d40e0 	push	{r5, r6, r7, lr}
    18d8:	e3a07004 	mov	r7, #4
    18dc:	e3a06000 	mov	r6, #0
    18e0:	ef000000 	svc	0x00000000
    18e4:	e8bd80e0 	pop	{r5, r6, r7, pc}

000018e8 <utee_open_ta_session>:
utee_open_ta_session():
/home/yin/imx-optee/imx-optee-os/lib/libutee/arch/arm/utee_syscalls_asm.S:19
    18e8:	e92d40e0 	push	{r5, r6, r7, lr}
    18ec:	e3a07005 	mov	r7, #5
    18f0:	e3a06001 	mov	r6, #1
    18f4:	e28d5010 	add	r5, sp, #16
    18f8:	ef000000 	svc	0x00000000
    18fc:	e8bd80e0 	pop	{r5, r6, r7, pc}

00001900 <utee_close_ta_session>:
utee_close_ta_session():
/home/yin/imx-optee/imx-optee-os/lib/libutee/arch/arm/utee_syscalls_asm.S:21
    1900:	e92d40e0 	push	{r5, r6, r7, lr}
    1904:	e3a07006 	mov	r7, #6
    1908:	e3a06000 	mov	r6, #0
    190c:	ef000000 	svc	0x00000000
    1910:	e8bd80e0 	pop	{r5, r6, r7, pc}

00001914 <utee_invoke_ta_command>:
utee_invoke_ta_command():
/home/yin/imx-optee/imx-optee-os/lib/libutee/arch/arm/utee_syscalls_asm.S:23
    1914:	e92d40e0 	push	{r5, r6, r7, lr}
    1918:	e3a07007 	mov	r7, #7
    191c:	e3a06001 	mov	r6, #1
    1920:	e28d5010 	add	r5, sp, #16
    1924:	ef000000 	svc	0x00000000
    1928:	e8bd80e0 	pop	{r5, r6, r7, pc}

0000192c <utee_get_cancellation_flag>:
utee_get_cancellation_flag():
/home/yin/imx-optee/imx-optee-os/lib/libutee/arch/arm/utee_syscalls_asm.S:25
    192c:	e92d40e0 	push	{r5, r6, r7, lr}
    1930:	e3a07009 	mov	r7, #9
    1934:	e3a06000 	mov	r6, #0
    1938:	ef000000 	svc	0x00000000
    193c:	e8bd80e0 	pop	{r5, r6, r7, pc}

00001940 <utee_check_access_rights>:
utee_check_access_rights():
/home/yin/imx-optee/imx-optee-os/lib/libutee/arch/arm/utee_syscalls_asm.S:28
    1940:	e92d40e0 	push	{r5, r6, r7, lr}
    1944:	e3a07008 	mov	r7, #8
    1948:	e3a06000 	mov	r6, #0
    194c:	ef000000 	svc	0x00000000
    1950:	e8bd80e0 	pop	{r5, r6, r7, pc}

00001954 <utee_unmask_cancellation>:
utee_unmask_cancellation():
/home/yin/imx-optee/imx-optee-os/lib/libutee/arch/arm/utee_syscalls_asm.S:30
    1954:	e92d40e0 	push	{r5, r6, r7, lr}
    1958:	e3a0700a 	mov	r7, #10
    195c:	e3a06000 	mov	r6, #0
    1960:	ef000000 	svc	0x00000000
    1964:	e8bd80e0 	pop	{r5, r6, r7, pc}

00001968 <utee_mask_cancellation>:
utee_mask_cancellation():
/home/yin/imx-optee/imx-optee-os/lib/libutee/arch/arm/utee_syscalls_asm.S:32
    1968:	e92d40e0 	push	{r5, r6, r7, lr}
    196c:	e3a0700b 	mov	r7, #11
    1970:	e3a06000 	mov	r6, #0
    1974:	ef000000 	svc	0x00000000
    1978:	e8bd80e0 	pop	{r5, r6, r7, pc}

0000197c <utee_wait>:
utee_wait():
/home/yin/imx-optee/imx-optee-os/lib/libutee/arch/arm/utee_syscalls_asm.S:34
    197c:	e92d40e0 	push	{r5, r6, r7, lr}
    1980:	e3a0700c 	mov	r7, #12
    1984:	e3a06000 	mov	r6, #0
    1988:	ef000000 	svc	0x00000000
    198c:	e8bd80e0 	pop	{r5, r6, r7, pc}

00001990 <utee_get_time>:
utee_get_time():
/home/yin/imx-optee/imx-optee-os/lib/libutee/arch/arm/utee_syscalls_asm.S:36
    1990:	e92d40e0 	push	{r5, r6, r7, lr}
    1994:	e3a0700d 	mov	r7, #13
    1998:	e3a06000 	mov	r6, #0
    199c:	ef000000 	svc	0x00000000
    19a0:	e8bd80e0 	pop	{r5, r6, r7, pc}

000019a4 <utee_set_ta_time>:
utee_set_ta_time():
/home/yin/imx-optee/imx-optee-os/lib/libutee/arch/arm/utee_syscalls_asm.S:38
    19a4:	e92d40e0 	push	{r5, r6, r7, lr}
    19a8:	e3a0700e 	mov	r7, #14
    19ac:	e3a06000 	mov	r6, #0
    19b0:	ef000000 	svc	0x00000000
    19b4:	e8bd80e0 	pop	{r5, r6, r7, pc}

000019b8 <utee_cryp_state_alloc>:
utee_cryp_state_alloc():
/home/yin/imx-optee/imx-optee-os/lib/libutee/arch/arm/utee_syscalls_asm.S:40
    19b8:	e92d40e0 	push	{r5, r6, r7, lr}
    19bc:	e3a0700f 	mov	r7, #15
    19c0:	e3a06001 	mov	r6, #1
    19c4:	e28d5010 	add	r5, sp, #16
    19c8:	ef000000 	svc	0x00000000
    19cc:	e8bd80e0 	pop	{r5, r6, r7, pc}

000019d0 <utee_cryp_state_copy>:
utee_cryp_state_copy():
/home/yin/imx-optee/imx-optee-os/lib/libutee/arch/arm/utee_syscalls_asm.S:42
    19d0:	e92d40e0 	push	{r5, r6, r7, lr}
    19d4:	e3a07010 	mov	r7, #16
    19d8:	e3a06000 	mov	r6, #0
    19dc:	ef000000 	svc	0x00000000
    19e0:	e8bd80e0 	pop	{r5, r6, r7, pc}

000019e4 <utee_cryp_state_free>:
utee_cryp_state_free():
/home/yin/imx-optee/imx-optee-os/lib/libutee/arch/arm/utee_syscalls_asm.S:44
    19e4:	e92d40e0 	push	{r5, r6, r7, lr}
    19e8:	e3a07011 	mov	r7, #17
    19ec:	e3a06000 	mov	r6, #0
    19f0:	ef000000 	svc	0x00000000
    19f4:	e8bd80e0 	pop	{r5, r6, r7, pc}

000019f8 <utee_hash_init>:
utee_hash_init():
/home/yin/imx-optee/imx-optee-os/lib/libutee/arch/arm/utee_syscalls_asm.S:46
    19f8:	e92d40e0 	push	{r5, r6, r7, lr}
    19fc:	e3a07012 	mov	r7, #18
    1a00:	e3a06000 	mov	r6, #0
    1a04:	ef000000 	svc	0x00000000
    1a08:	e8bd80e0 	pop	{r5, r6, r7, pc}

00001a0c <utee_hash_update>:
utee_hash_update():
/home/yin/imx-optee/imx-optee-os/lib/libutee/arch/arm/utee_syscalls_asm.S:48
    1a0c:	e92d40e0 	push	{r5, r6, r7, lr}
    1a10:	e3a07013 	mov	r7, #19
    1a14:	e3a06000 	mov	r6, #0
    1a18:	ef000000 	svc	0x00000000
    1a1c:	e8bd80e0 	pop	{r5, r6, r7, pc}

00001a20 <utee_hash_final>:
utee_hash_final():
/home/yin/imx-optee/imx-optee-os/lib/libutee/arch/arm/utee_syscalls_asm.S:50
    1a20:	e92d40e0 	push	{r5, r6, r7, lr}
    1a24:	e3a07014 	mov	r7, #20
    1a28:	e3a06001 	mov	r6, #1
    1a2c:	e28d5010 	add	r5, sp, #16
    1a30:	ef000000 	svc	0x00000000
    1a34:	e8bd80e0 	pop	{r5, r6, r7, pc}

00001a38 <utee_cipher_init>:
utee_cipher_init():
/home/yin/imx-optee/imx-optee-os/lib/libutee/arch/arm/utee_syscalls_asm.S:52
    1a38:	e92d40e0 	push	{r5, r6, r7, lr}
    1a3c:	e3a07015 	mov	r7, #21
    1a40:	e3a06000 	mov	r6, #0
    1a44:	ef000000 	svc	0x00000000
    1a48:	e8bd80e0 	pop	{r5, r6, r7, pc}

00001a4c <utee_cipher_update>:
utee_cipher_update():
/home/yin/imx-optee/imx-optee-os/lib/libutee/arch/arm/utee_syscalls_asm.S:54
    1a4c:	e92d40e0 	push	{r5, r6, r7, lr}
    1a50:	e3a07016 	mov	r7, #22
    1a54:	e3a06001 	mov	r6, #1
    1a58:	e28d5010 	add	r5, sp, #16
    1a5c:	ef000000 	svc	0x00000000
    1a60:	e8bd80e0 	pop	{r5, r6, r7, pc}

00001a64 <utee_cipher_final>:
utee_cipher_final():
/home/yin/imx-optee/imx-optee-os/lib/libutee/arch/arm/utee_syscalls_asm.S:56
    1a64:	e92d40e0 	push	{r5, r6, r7, lr}
    1a68:	e3a07017 	mov	r7, #23
    1a6c:	e3a06001 	mov	r6, #1
    1a70:	e28d5010 	add	r5, sp, #16
    1a74:	ef000000 	svc	0x00000000
    1a78:	e8bd80e0 	pop	{r5, r6, r7, pc}

00001a7c <utee_cryp_obj_get_info>:
utee_cryp_obj_get_info():
/home/yin/imx-optee/imx-optee-os/lib/libutee/arch/arm/utee_syscalls_asm.S:58
    1a7c:	e92d40e0 	push	{r5, r6, r7, lr}
    1a80:	e3a07018 	mov	r7, #24
    1a84:	e3a06000 	mov	r6, #0
    1a88:	ef000000 	svc	0x00000000
    1a8c:	e8bd80e0 	pop	{r5, r6, r7, pc}

00001a90 <utee_cryp_obj_restrict_usage>:
utee_cryp_obj_restrict_usage():
/home/yin/imx-optee/imx-optee-os/lib/libutee/arch/arm/utee_syscalls_asm.S:60
    1a90:	e92d40e0 	push	{r5, r6, r7, lr}
    1a94:	e3a07019 	mov	r7, #25
    1a98:	e3a06000 	mov	r6, #0
    1a9c:	ef000000 	svc	0x00000000
    1aa0:	e8bd80e0 	pop	{r5, r6, r7, pc}

00001aa4 <utee_cryp_obj_get_attr>:
utee_cryp_obj_get_attr():
/home/yin/imx-optee/imx-optee-os/lib/libutee/arch/arm/utee_syscalls_asm.S:63
    1aa4:	e92d40e0 	push	{r5, r6, r7, lr}
    1aa8:	e3a0701a 	mov	r7, #26
    1aac:	e3a06000 	mov	r6, #0
    1ab0:	ef000000 	svc	0x00000000
    1ab4:	e8bd80e0 	pop	{r5, r6, r7, pc}

00001ab8 <utee_cryp_obj_alloc>:
utee_cryp_obj_alloc():
/home/yin/imx-optee/imx-optee-os/lib/libutee/arch/arm/utee_syscalls_asm.S:65
    1ab8:	e92d40e0 	push	{r5, r6, r7, lr}
    1abc:	e3a0701b 	mov	r7, #27
    1ac0:	e3a06000 	mov	r6, #0
    1ac4:	ef000000 	svc	0x00000000
    1ac8:	e8bd80e0 	pop	{r5, r6, r7, pc}

00001acc <utee_cryp_obj_close>:
utee_cryp_obj_close():
/home/yin/imx-optee/imx-optee-os/lib/libutee/arch/arm/utee_syscalls_asm.S:67
    1acc:	e92d40e0 	push	{r5, r6, r7, lr}
    1ad0:	e3a0701c 	mov	r7, #28
    1ad4:	e3a06000 	mov	r6, #0
    1ad8:	ef000000 	svc	0x00000000
    1adc:	e8bd80e0 	pop	{r5, r6, r7, pc}

00001ae0 <utee_cryp_obj_reset>:
utee_cryp_obj_reset():
/home/yin/imx-optee/imx-optee-os/lib/libutee/arch/arm/utee_syscalls_asm.S:69
    1ae0:	e92d40e0 	push	{r5, r6, r7, lr}
    1ae4:	e3a0701d 	mov	r7, #29
    1ae8:	e3a06000 	mov	r6, #0
    1aec:	ef000000 	svc	0x00000000
    1af0:	e8bd80e0 	pop	{r5, r6, r7, pc}

00001af4 <utee_cryp_obj_populate>:
utee_cryp_obj_populate():
/home/yin/imx-optee/imx-optee-os/lib/libutee/arch/arm/utee_syscalls_asm.S:71
    1af4:	e92d40e0 	push	{r5, r6, r7, lr}
    1af8:	e3a0701e 	mov	r7, #30
    1afc:	e3a06000 	mov	r6, #0
    1b00:	ef000000 	svc	0x00000000
    1b04:	e8bd80e0 	pop	{r5, r6, r7, pc}

00001b08 <utee_cryp_obj_copy>:
utee_cryp_obj_copy():
/home/yin/imx-optee/imx-optee-os/lib/libutee/arch/arm/utee_syscalls_asm.S:73
    1b08:	e92d40e0 	push	{r5, r6, r7, lr}
    1b0c:	e3a0701f 	mov	r7, #31
    1b10:	e3a06000 	mov	r6, #0
    1b14:	ef000000 	svc	0x00000000
    1b18:	e8bd80e0 	pop	{r5, r6, r7, pc}

00001b1c <utee_cryp_derive_key>:
utee_cryp_derive_key():
/home/yin/imx-optee/imx-optee-os/lib/libutee/arch/arm/utee_syscalls_asm.S:75
    1b1c:	e92d40e0 	push	{r5, r6, r7, lr}
    1b20:	e3a07020 	mov	r7, #32
    1b24:	e3a06000 	mov	r6, #0
    1b28:	ef000000 	svc	0x00000000
    1b2c:	e8bd80e0 	pop	{r5, r6, r7, pc}

00001b30 <utee_cryp_random_number_generate>:
utee_cryp_random_number_generate():
/home/yin/imx-optee/imx-optee-os/lib/libutee/arch/arm/utee_syscalls_asm.S:77
    1b30:	e92d40e0 	push	{r5, r6, r7, lr}
    1b34:	e3a07021 	mov	r7, #33	; 0x21
    1b38:	e3a06000 	mov	r6, #0
    1b3c:	ef000000 	svc	0x00000000
    1b40:	e8bd80e0 	pop	{r5, r6, r7, pc}

00001b44 <utee_authenc_init>:
utee_authenc_init():
/home/yin/imx-optee/imx-optee-os/lib/libutee/arch/arm/utee_syscalls_asm.S:80
    1b44:	e92d40e0 	push	{r5, r6, r7, lr}
    1b48:	e3a07022 	mov	r7, #34	; 0x22
    1b4c:	e3a06002 	mov	r6, #2
    1b50:	e28d5010 	add	r5, sp, #16
    1b54:	ef000000 	svc	0x00000000
    1b58:	e8bd80e0 	pop	{r5, r6, r7, pc}

00001b5c <utee_authenc_update_aad>:
utee_authenc_update_aad():
/home/yin/imx-optee/imx-optee-os/lib/libutee/arch/arm/utee_syscalls_asm.S:82
    1b5c:	e92d40e0 	push	{r5, r6, r7, lr}
    1b60:	e3a07023 	mov	r7, #35	; 0x23
    1b64:	e3a06000 	mov	r6, #0
    1b68:	ef000000 	svc	0x00000000
    1b6c:	e8bd80e0 	pop	{r5, r6, r7, pc}

00001b70 <utee_authenc_update_payload>:
utee_authenc_update_payload():
/home/yin/imx-optee/imx-optee-os/lib/libutee/arch/arm/utee_syscalls_asm.S:84
    1b70:	e92d40e0 	push	{r5, r6, r7, lr}
    1b74:	e3a07024 	mov	r7, #36	; 0x24
    1b78:	e3a06001 	mov	r6, #1
    1b7c:	e28d5010 	add	r5, sp, #16
    1b80:	ef000000 	svc	0x00000000
    1b84:	e8bd80e0 	pop	{r5, r6, r7, pc}

00001b88 <utee_authenc_enc_final>:
utee_authenc_enc_final():
/home/yin/imx-optee/imx-optee-os/lib/libutee/arch/arm/utee_syscalls_asm.S:87
    1b88:	e92d40e0 	push	{r5, r6, r7, lr}
    1b8c:	e3a07025 	mov	r7, #37	; 0x25
    1b90:	e3a06003 	mov	r6, #3
    1b94:	e28d5010 	add	r5, sp, #16
    1b98:	ef000000 	svc	0x00000000
    1b9c:	e8bd80e0 	pop	{r5, r6, r7, pc}

00001ba0 <utee_authenc_dec_final>:
utee_authenc_dec_final():
/home/yin/imx-optee/imx-optee-os/lib/libutee/arch/arm/utee_syscalls_asm.S:89
    1ba0:	e92d40e0 	push	{r5, r6, r7, lr}
    1ba4:	e3a07026 	mov	r7, #38	; 0x26
    1ba8:	e3a06003 	mov	r6, #3
    1bac:	e28d5010 	add	r5, sp, #16
    1bb0:	ef000000 	svc	0x00000000
    1bb4:	e8bd80e0 	pop	{r5, r6, r7, pc}

00001bb8 <utee_asymm_operate>:
utee_asymm_operate():
/home/yin/imx-optee/imx-optee-os/lib/libutee/arch/arm/utee_syscalls_asm.S:91
    1bb8:	e92d40e0 	push	{r5, r6, r7, lr}
    1bbc:	e3a07027 	mov	r7, #39	; 0x27
    1bc0:	e3a06003 	mov	r6, #3
    1bc4:	e28d5010 	add	r5, sp, #16
    1bc8:	ef000000 	svc	0x00000000
    1bcc:	e8bd80e0 	pop	{r5, r6, r7, pc}

00001bd0 <utee_asymm_verify>:
utee_asymm_verify():
/home/yin/imx-optee/imx-optee-os/lib/libutee/arch/arm/utee_syscalls_asm.S:93
    1bd0:	e92d40e0 	push	{r5, r6, r7, lr}
    1bd4:	e3a07028 	mov	r7, #40	; 0x28
    1bd8:	e3a06003 	mov	r6, #3
    1bdc:	e28d5010 	add	r5, sp, #16
    1be0:	ef000000 	svc	0x00000000
    1be4:	e8bd80e0 	pop	{r5, r6, r7, pc}

00001be8 <utee_storage_obj_open>:
utee_storage_obj_open():
/home/yin/imx-optee/imx-optee-os/lib/libutee/arch/arm/utee_syscalls_asm.S:95
    1be8:	e92d40e0 	push	{r5, r6, r7, lr}
    1bec:	e3a07029 	mov	r7, #41	; 0x29
    1bf0:	e3a06001 	mov	r6, #1
    1bf4:	e28d5010 	add	r5, sp, #16
    1bf8:	ef000000 	svc	0x00000000
    1bfc:	e8bd80e0 	pop	{r5, r6, r7, pc}

00001c00 <utee_storage_obj_create>:
utee_storage_obj_create():
/home/yin/imx-optee/imx-optee-os/lib/libutee/arch/arm/utee_syscalls_asm.S:97
    1c00:	e92d40e0 	push	{r5, r6, r7, lr}
    1c04:	e3a0702a 	mov	r7, #42	; 0x2a
    1c08:	e3a06004 	mov	r6, #4
    1c0c:	e28d5010 	add	r5, sp, #16
    1c10:	ef000000 	svc	0x00000000
    1c14:	e8bd80e0 	pop	{r5, r6, r7, pc}

00001c18 <utee_storage_obj_del>:
utee_storage_obj_del():
/home/yin/imx-optee/imx-optee-os/lib/libutee/arch/arm/utee_syscalls_asm.S:99
    1c18:	e92d40e0 	push	{r5, r6, r7, lr}
    1c1c:	e3a0702b 	mov	r7, #43	; 0x2b
    1c20:	e3a06000 	mov	r6, #0
    1c24:	ef000000 	svc	0x00000000
    1c28:	e8bd80e0 	pop	{r5, r6, r7, pc}

00001c2c <utee_storage_obj_rename>:
utee_storage_obj_rename():
/home/yin/imx-optee/imx-optee-os/lib/libutee/arch/arm/utee_syscalls_asm.S:101
    1c2c:	e92d40e0 	push	{r5, r6, r7, lr}
    1c30:	e3a0702c 	mov	r7, #44	; 0x2c
    1c34:	e3a06000 	mov	r6, #0
    1c38:	ef000000 	svc	0x00000000
    1c3c:	e8bd80e0 	pop	{r5, r6, r7, pc}

00001c40 <utee_storage_alloc_enum>:
utee_storage_alloc_enum():
/home/yin/imx-optee/imx-optee-os/lib/libutee/arch/arm/utee_syscalls_asm.S:103
    1c40:	e92d40e0 	push	{r5, r6, r7, lr}
    1c44:	e3a0702d 	mov	r7, #45	; 0x2d
    1c48:	e3a06000 	mov	r6, #0
    1c4c:	ef000000 	svc	0x00000000
    1c50:	e8bd80e0 	pop	{r5, r6, r7, pc}

00001c54 <utee_storage_free_enum>:
utee_storage_free_enum():
/home/yin/imx-optee/imx-optee-os/lib/libutee/arch/arm/utee_syscalls_asm.S:105
    1c54:	e92d40e0 	push	{r5, r6, r7, lr}
    1c58:	e3a0702e 	mov	r7, #46	; 0x2e
    1c5c:	e3a06000 	mov	r6, #0
    1c60:	ef000000 	svc	0x00000000
    1c64:	e8bd80e0 	pop	{r5, r6, r7, pc}

00001c68 <utee_storage_reset_enum>:
utee_storage_reset_enum():
/home/yin/imx-optee/imx-optee-os/lib/libutee/arch/arm/utee_syscalls_asm.S:107
    1c68:	e92d40e0 	push	{r5, r6, r7, lr}
    1c6c:	e3a0702f 	mov	r7, #47	; 0x2f
    1c70:	e3a06000 	mov	r6, #0
    1c74:	ef000000 	svc	0x00000000
    1c78:	e8bd80e0 	pop	{r5, r6, r7, pc}

00001c7c <utee_storage_start_enum>:
utee_storage_start_enum():
/home/yin/imx-optee/imx-optee-os/lib/libutee/arch/arm/utee_syscalls_asm.S:109
    1c7c:	e92d40e0 	push	{r5, r6, r7, lr}
    1c80:	e3a07030 	mov	r7, #48	; 0x30
    1c84:	e3a06000 	mov	r6, #0
    1c88:	ef000000 	svc	0x00000000
    1c8c:	e8bd80e0 	pop	{r5, r6, r7, pc}

00001c90 <utee_storage_next_enum>:
utee_storage_next_enum():
/home/yin/imx-optee/imx-optee-os/lib/libutee/arch/arm/utee_syscalls_asm.S:111
    1c90:	e92d40e0 	push	{r5, r6, r7, lr}
    1c94:	e3a07031 	mov	r7, #49	; 0x31
    1c98:	e3a06000 	mov	r6, #0
    1c9c:	ef000000 	svc	0x00000000
    1ca0:	e8bd80e0 	pop	{r5, r6, r7, pc}

00001ca4 <utee_storage_obj_read>:
utee_storage_obj_read():
/home/yin/imx-optee/imx-optee-os/lib/libutee/arch/arm/utee_syscalls_asm.S:113
    1ca4:	e92d40e0 	push	{r5, r6, r7, lr}
    1ca8:	e3a07032 	mov	r7, #50	; 0x32
    1cac:	e3a06000 	mov	r6, #0
    1cb0:	ef000000 	svc	0x00000000
    1cb4:	e8bd80e0 	pop	{r5, r6, r7, pc}

00001cb8 <utee_storage_obj_write>:
utee_storage_obj_write():
/home/yin/imx-optee/imx-optee-os/lib/libutee/arch/arm/utee_syscalls_asm.S:115
    1cb8:	e92d40e0 	push	{r5, r6, r7, lr}
    1cbc:	e3a07033 	mov	r7, #51	; 0x33
    1cc0:	e3a06000 	mov	r6, #0
    1cc4:	ef000000 	svc	0x00000000
    1cc8:	e8bd80e0 	pop	{r5, r6, r7, pc}

00001ccc <utee_storage_obj_trunc>:
utee_storage_obj_trunc():
/home/yin/imx-optee/imx-optee-os/lib/libutee/arch/arm/utee_syscalls_asm.S:117
    1ccc:	e92d40e0 	push	{r5, r6, r7, lr}
    1cd0:	e3a07034 	mov	r7, #52	; 0x34
    1cd4:	e3a06000 	mov	r6, #0
    1cd8:	ef000000 	svc	0x00000000
    1cdc:	e8bd80e0 	pop	{r5, r6, r7, pc}

00001ce0 <utee_storage_obj_seek>:
utee_storage_obj_seek():
/home/yin/imx-optee/imx-optee-os/lib/libutee/arch/arm/utee_syscalls_asm.S:119
    1ce0:	e92d40e0 	push	{r5, r6, r7, lr}
    1ce4:	e3a07035 	mov	r7, #53	; 0x35
    1ce8:	e3a06000 	mov	r6, #0
    1cec:	ef000000 	svc	0x00000000
    1cf0:	e8bd80e0 	pop	{r5, r6, r7, pc}

00001cf4 <utee_cryp_obj_generate_key>:
utee_cryp_obj_generate_key():
/home/yin/imx-optee/imx-optee-os/lib/libutee/arch/arm/utee_syscalls_asm.S:121
    1cf4:	e92d40e0 	push	{r5, r6, r7, lr}
    1cf8:	e3a07036 	mov	r7, #54	; 0x36
    1cfc:	e3a06000 	mov	r6, #0
    1d00:	ef000000 	svc	0x00000000
    1d04:	e8bd80e0 	pop	{r5, r6, r7, pc}

00001d08 <utee_se_service_open>:
utee_se_service_open():
/home/yin/imx-optee/imx-optee-os/lib/libutee/arch/arm/utee_syscalls_asm.S:124
    1d08:	e92d40e0 	push	{r5, r6, r7, lr}
    1d0c:	e3a07037 	mov	r7, #55	; 0x37
    1d10:	e3a06000 	mov	r6, #0
    1d14:	ef000000 	svc	0x00000000
    1d18:	e8bd80e0 	pop	{r5, r6, r7, pc}

00001d1c <utee_se_service_close>:
utee_se_service_close():
/home/yin/imx-optee/imx-optee-os/lib/libutee/arch/arm/utee_syscalls_asm.S:126
    1d1c:	e92d40e0 	push	{r5, r6, r7, lr}
    1d20:	e3a07038 	mov	r7, #56	; 0x38
    1d24:	e3a06000 	mov	r6, #0
    1d28:	ef000000 	svc	0x00000000
    1d2c:	e8bd80e0 	pop	{r5, r6, r7, pc}

00001d30 <utee_se_service_get_readers>:
utee_se_service_get_readers():
/home/yin/imx-optee/imx-optee-os/lib/libutee/arch/arm/utee_syscalls_asm.S:128
    1d30:	e92d40e0 	push	{r5, r6, r7, lr}
    1d34:	e3a07039 	mov	r7, #57	; 0x39
    1d38:	e3a06000 	mov	r6, #0
    1d3c:	ef000000 	svc	0x00000000
    1d40:	e8bd80e0 	pop	{r5, r6, r7, pc}

00001d44 <utee_se_reader_get_prop>:
utee_se_reader_get_prop():
/home/yin/imx-optee/imx-optee-os/lib/libutee/arch/arm/utee_syscalls_asm.S:131
    1d44:	e92d40e0 	push	{r5, r6, r7, lr}
    1d48:	e3a0703a 	mov	r7, #58	; 0x3a
    1d4c:	e3a06000 	mov	r6, #0
    1d50:	ef000000 	svc	0x00000000
    1d54:	e8bd80e0 	pop	{r5, r6, r7, pc}

00001d58 <utee_se_reader_get_name>:
utee_se_reader_get_name():
/home/yin/imx-optee/imx-optee-os/lib/libutee/arch/arm/utee_syscalls_asm.S:134
    1d58:	e92d40e0 	push	{r5, r6, r7, lr}
    1d5c:	e3a0703b 	mov	r7, #59	; 0x3b
    1d60:	e3a06000 	mov	r6, #0
    1d64:	ef000000 	svc	0x00000000
    1d68:	e8bd80e0 	pop	{r5, r6, r7, pc}

00001d6c <utee_se_reader_open_session>:
utee_se_reader_open_session():
/home/yin/imx-optee/imx-optee-os/lib/libutee/arch/arm/utee_syscalls_asm.S:137
    1d6c:	e92d40e0 	push	{r5, r6, r7, lr}
    1d70:	e3a0703c 	mov	r7, #60	; 0x3c
    1d74:	e3a06000 	mov	r6, #0
    1d78:	ef000000 	svc	0x00000000
    1d7c:	e8bd80e0 	pop	{r5, r6, r7, pc}

00001d80 <utee_se_reader_close_sessions>:
utee_se_reader_close_sessions():
/home/yin/imx-optee/imx-optee-os/lib/libutee/arch/arm/utee_syscalls_asm.S:140
    1d80:	e92d40e0 	push	{r5, r6, r7, lr}
    1d84:	e3a0703d 	mov	r7, #61	; 0x3d
    1d88:	e3a06000 	mov	r6, #0
    1d8c:	ef000000 	svc	0x00000000
    1d90:	e8bd80e0 	pop	{r5, r6, r7, pc}

00001d94 <utee_se_session_is_closed>:
utee_se_session_is_closed():
/home/yin/imx-optee/imx-optee-os/lib/libutee/arch/arm/utee_syscalls_asm.S:143
    1d94:	e92d40e0 	push	{r5, r6, r7, lr}
    1d98:	e3a0703e 	mov	r7, #62	; 0x3e
    1d9c:	e3a06000 	mov	r6, #0
    1da0:	ef000000 	svc	0x00000000
    1da4:	e8bd80e0 	pop	{r5, r6, r7, pc}

00001da8 <utee_se_session_get_atr>:
utee_se_session_get_atr():
/home/yin/imx-optee/imx-optee-os/lib/libutee/arch/arm/utee_syscalls_asm.S:146
    1da8:	e92d40e0 	push	{r5, r6, r7, lr}
    1dac:	e3a0703f 	mov	r7, #63	; 0x3f
    1db0:	e3a06000 	mov	r6, #0
    1db4:	ef000000 	svc	0x00000000
    1db8:	e8bd80e0 	pop	{r5, r6, r7, pc}

00001dbc <utee_se_session_open_channel>:
utee_se_session_open_channel():
/home/yin/imx-optee/imx-optee-os/lib/libutee/arch/arm/utee_syscalls_asm.S:149
    1dbc:	e92d40e0 	push	{r5, r6, r7, lr}
    1dc0:	e3a07040 	mov	r7, #64	; 0x40
    1dc4:	e3a06001 	mov	r6, #1
    1dc8:	e28d5010 	add	r5, sp, #16
    1dcc:	ef000000 	svc	0x00000000
    1dd0:	e8bd80e0 	pop	{r5, r6, r7, pc}

00001dd4 <utee_se_session_close>:
utee_se_session_close():
/home/yin/imx-optee/imx-optee-os/lib/libutee/arch/arm/utee_syscalls_asm.S:152
    1dd4:	e92d40e0 	push	{r5, r6, r7, lr}
    1dd8:	e3a07041 	mov	r7, #65	; 0x41
    1ddc:	e3a06000 	mov	r6, #0
    1de0:	ef000000 	svc	0x00000000
    1de4:	e8bd80e0 	pop	{r5, r6, r7, pc}

00001de8 <utee_se_channel_select_next>:
utee_se_channel_select_next():
/home/yin/imx-optee/imx-optee-os/lib/libutee/arch/arm/utee_syscalls_asm.S:155
    1de8:	e92d40e0 	push	{r5, r6, r7, lr}
    1dec:	e3a07042 	mov	r7, #66	; 0x42
    1df0:	e3a06000 	mov	r6, #0
    1df4:	ef000000 	svc	0x00000000
    1df8:	e8bd80e0 	pop	{r5, r6, r7, pc}

00001dfc <utee_se_channel_get_select_resp>:
utee_se_channel_get_select_resp():
/home/yin/imx-optee/imx-optee-os/lib/libutee/arch/arm/utee_syscalls_asm.S:158
    1dfc:	e92d40e0 	push	{r5, r6, r7, lr}
    1e00:	e3a07043 	mov	r7, #67	; 0x43
    1e04:	e3a06000 	mov	r6, #0
    1e08:	ef000000 	svc	0x00000000
    1e0c:	e8bd80e0 	pop	{r5, r6, r7, pc}

00001e10 <utee_se_channel_transmit>:
utee_se_channel_transmit():
/home/yin/imx-optee/imx-optee-os/lib/libutee/arch/arm/utee_syscalls_asm.S:161
    1e10:	e92d40e0 	push	{r5, r6, r7, lr}
    1e14:	e3a07044 	mov	r7, #68	; 0x44
    1e18:	e3a06001 	mov	r6, #1
    1e1c:	e28d5010 	add	r5, sp, #16
    1e20:	ef000000 	svc	0x00000000
    1e24:	e8bd80e0 	pop	{r5, r6, r7, pc}

00001e28 <utee_se_channel_close>:
utee_se_channel_close():
/home/yin/imx-optee/imx-optee-os/lib/libutee/arch/arm/utee_syscalls_asm.S:164
    1e28:	e92d40e0 	push	{r5, r6, r7, lr}
    1e2c:	e3a07045 	mov	r7, #69	; 0x45
    1e30:	e3a06000 	mov	r6, #0
    1e34:	ef000000 	svc	0x00000000
    1e38:	e8bd80e0 	pop	{r5, r6, r7, pc}

00001e3c <utee_cache_operation>:
utee_cache_operation():
/home/yin/imx-optee/imx-optee-os/lib/libutee/arch/arm/utee_syscalls_asm.S:167
    1e3c:	e92d40e0 	push	{r5, r6, r7, lr}
    1e40:	e3a07046 	mov	r7, #70	; 0x46
    1e44:	e3a06000 	mov	r6, #0
    1e48:	ef000000 	svc	0x00000000
    1e4c:	e8bd80e0 	pop	{r5, r6, r7, pc}

00001e50 <__utee_mcount>:
__utee_mcount():
/home/yin/imx-optee/imx-optee-os/lib/libutee/arch/arm/gprof/gprof_a32.S:49
    1e50:	e52de004 	push	{lr}		; (str lr, [sp, #-4]!)
/home/yin/imx-optee/imx-optee-os/lib/libutee/arch/arm/gprof/gprof_a32.S:50
    1e54:	e8bd5000 	pop	{ip, lr}
/home/yin/imx-optee/imx-optee-os/lib/libutee/arch/arm/gprof/gprof_a32.S:51
    1e58:	e12fff1c 	bx	ip

00001e5c <_TEE_MathAPI_Init>:
_TEE_MathAPI_Init():
/home/yin/imx-optee/imx-optee-os/lib/libutee/tee_api_arith.c:53
    1e5c:	480a      	ldr	r0, [pc, #40]	; (1e88 <_TEE_MathAPI_Init+0x2c>)
    1e5e:	2200      	movs	r2, #0
/home/yin/imx-optee/imx-optee-os/lib/libutee/tee_api_arith.c:50
    1e60:	b508      	push	{r3, lr}
/home/yin/imx-optee/imx-optee-os/lib/libutee/tee_api_arith.c:53
    1e62:	f641 01f0 	movw	r1, #6384	; 0x18f0
    1e66:	4478      	add	r0, pc
    1e68:	f002 f9c2 	bl	41f0 <mempool_alloc_pool>
    1e6c:	4a07      	ldr	r2, [pc, #28]	; (1e8c <_TEE_MathAPI_Init+0x30>)
    1e6e:	447a      	add	r2, pc
    1e70:	6010      	str	r0, [r2, #0]
/home/yin/imx-optee/imx-optee-os/lib/libutee/tee_api_arith.c:54
    1e72:	b908      	cbnz	r0, 1e78 <_TEE_MathAPI_Init+0x1c>
/home/yin/imx-optee/imx-optee-os/lib/libutee/tee_api_arith.c:55
    1e74:	f003 f806 	bl	4e84 <TEE_Panic>
/home/yin/imx-optee/imx-optee-os/lib/libutee/tee_api_arith.c:61
    1e78:	4b05      	ldr	r3, [pc, #20]	; (1e90 <_TEE_MathAPI_Init+0x34>)
    1e7a:	f44f 5280 	mov.w	r2, #4096	; 0x1000
    1e7e:	447b      	add	r3, pc
    1e80:	605a      	str	r2, [r3, #4]
/home/yin/imx-optee/imx-optee-os/lib/libutee/tee_api_arith.c:62
    1e82:	609b      	str	r3, [r3, #8]
    1e84:	bd08      	pop	{r3, pc}
    1e86:	bf00      	nop
    1e88:	00007256 	.word	0x00007256
    1e8c:	00007242 	.word	0x00007242
    1e90:	00007232 	.word	0x00007232

00001e94 <TEE_BigIntInit>:
TEE_BigIntInit():
/home/yin/imx-optee/imx-optee-os/lib/libutee/tee_api_arith.c:70
    1e94:	f004 bda0 	b.w	69d8 <mpa_init_static>

00001e98 <TEE_BigIntInitFMM>:
TEE_BigIntInitFMM():
/home/yin/imx-optee/imx-optee-os/lib/libutee/tee_api_arith.c:80
    1e98:	0089      	lsls	r1, r1, #2
/home/yin/imx-optee/imx-optee-os/lib/libutee/tee_api_arith.c:81
    1e9a:	2300      	movs	r3, #0
    1e9c:	6043      	str	r3, [r0, #4]
/home/yin/imx-optee/imx-optee-os/lib/libutee/tee_api_arith.c:80
    1e9e:	3905      	subs	r1, #5
    1ea0:	0889      	lsrs	r1, r1, #2
    1ea2:	6001      	str	r1, [r0, #0]
/home/yin/imx-optee/imx-optee-os/lib/libutee/tee_api_arith.c:81
    1ea4:	4770      	bx	lr

00001ea6 <TEE_BigIntInitFMMContext>:
TEE_BigIntInitFMMContext():
/home/yin/imx-optee/imx-optee-os/lib/libutee/tee_api_arith.c:89
    1ea6:	b537      	push	{r0, r1, r2, r4, r5, lr}
    1ea8:	4604      	mov	r4, r0
    1eaa:	4615      	mov	r5, r2
/home/yin/imx-optee/imx-optee-os/lib/libutee/tee_api_arith.c:93
    1eac:	f004 fd9d 	bl	69ea <mpa_init_static_fmm_context>
/home/yin/imx-optee/imx-optee-os/lib/libutee/tee_api_arith.c:94
    1eb0:	4b06      	ldr	r3, [pc, #24]	; (1ecc <TEE_BigIntInitFMMContext+0x26>)
    1eb2:	4628      	mov	r0, r5
    1eb4:	e894 0006 	ldmia.w	r4, {r1, r2}
    1eb8:	447b      	add	r3, pc
    1eba:	689b      	ldr	r3, [r3, #8]
    1ebc:	9300      	str	r3, [sp, #0]
    1ebe:	f104 0308 	add.w	r3, r4, #8
    1ec2:	f002 fb2d 	bl	4520 <mpa_compute_fmm_context>
/home/yin/imx-optee/imx-optee-os/lib/libutee/tee_api_arith.c:97
    1ec6:	b003      	add	sp, #12
    1ec8:	bd30      	pop	{r4, r5, pc}
    1eca:	bf00      	nop
    1ecc:	000071f8 	.word	0x000071f8

00001ed0 <TEE_BigIntFMMSizeInU32>:
TEE_BigIntFMMSizeInU32():
/home/yin/imx-optee/imx-optee-os/lib/libutee/tee_api_arith.c:108
    1ed0:	301f      	adds	r0, #31
    1ed2:	0940      	lsrs	r0, r0, #5
/home/yin/imx-optee/imx-optee-os/lib/libutee/tee_api_arith.c:109
    1ed4:	3003      	adds	r0, #3
    1ed6:	4770      	bx	lr

00001ed8 <TEE_BigIntFMMContextSizeInU32>:
TEE_BigIntFMMContextSizeInU32():
/home/yin/imx-optee/imx-optee-os/lib/libutee/tee_api_arith.c:116
    1ed8:	301f      	adds	r0, #31
    1eda:	0940      	lsrs	r0, r0, #5
    1edc:	0040      	lsls	r0, r0, #1
/home/yin/imx-optee/imx-optee-os/lib/libutee/tee_api_arith.c:117
    1ede:	300b      	adds	r0, #11
    1ee0:	4770      	bx	lr

00001ee2 <TEE_BigIntConvertFromOctetString>:
TEE_BigIntConvertFromOctetString():
/home/yin/imx-optee/imx-optee-os/lib/libutee/tee_api_arith.c:130
    1ee2:	b508      	push	{r3, lr}
/home/yin/imx-optee/imx-optee-os/lib/libutee/tee_api_arith.c:135
    1ee4:	0fdb      	lsrs	r3, r3, #31
    1ee6:	f002 fef5 	bl	4cd4 <mpa_set_oct_str>
    1eea:	2800      	cmp	r0, #0
/home/yin/imx-optee/imx-optee-os/lib/libutee/tee_api_arith.c:145
    1eec:	4801      	ldr	r0, [pc, #4]	; (1ef4 <TEE_BigIntConvertFromOctetString+0x12>)
    1eee:	bf08      	it	eq
    1ef0:	2000      	moveq	r0, #0
    1ef2:	bd08      	pop	{r3, pc}
    1ef4:	ffff300f 	.word	0xffff300f

00001ef8 <TEE_BigIntConvertToOctetString>:
TEE_BigIntConvertToOctetString():
/home/yin/imx-optee/imx-optee-os/lib/libutee/tee_api_arith.c:155
    1ef8:	680b      	ldr	r3, [r1, #0]
/home/yin/imx-optee/imx-optee-os/lib/libutee/tee_api_arith.c:153
    1efa:	b537      	push	{r0, r1, r2, r4, r5, lr}
    1efc:	460d      	mov	r5, r1
/home/yin/imx-optee/imx-optee-os/lib/libutee/tee_api_arith.c:155
    1efe:	a902      	add	r1, sp, #8
    1f00:	f841 3d04 	str.w	r3, [r1, #-4]!
/home/yin/imx-optee/imx-optee-os/lib/libutee/tee_api_arith.c:158
    1f04:	f002 ff34 	bl	4d70 <mpa_get_oct_str>
/home/yin/imx-optee/imx-optee-os/lib/libutee/tee_api_arith.c:161
    1f08:	4b07      	ldr	r3, [pc, #28]	; (1f28 <TEE_BigIntConvertToOctetString+0x30>)
    1f0a:	2800      	cmp	r0, #0
/home/yin/imx-optee/imx-optee-os/lib/libutee/tee_api_arith.c:163
    1f0c:	9a01      	ldr	r2, [sp, #4]
/home/yin/imx-optee/imx-optee-os/lib/libutee/tee_api_arith.c:161
    1f0e:	bf0c      	ite	eq
    1f10:	2400      	moveq	r4, #0
    1f12:	461c      	movne	r4, r3
/home/yin/imx-optee/imx-optee-os/lib/libutee/tee_api_arith.c:163
    1f14:	602a      	str	r2, [r5, #0]
/home/yin/imx-optee/imx-optee-os/lib/libutee/tee_api_arith.c:165
    1f16:	b124      	cbz	r4, 1f22 <TEE_BigIntConvertToOctetString+0x2a>
/home/yin/imx-optee/imx-optee-os/lib/libutee/tee_api_arith.c:165 (discriminator 1)
    1f18:	429c      	cmp	r4, r3
    1f1a:	d002      	beq.n	1f22 <TEE_BigIntConvertToOctetString+0x2a>
/home/yin/imx-optee/imx-optee-os/lib/libutee/tee_api_arith.c:167
    1f1c:	4620      	mov	r0, r4
    1f1e:	f002 ffb1 	bl	4e84 <TEE_Panic>
/home/yin/imx-optee/imx-optee-os/lib/libutee/tee_api_arith.c:170
    1f22:	4620      	mov	r0, r4
    1f24:	b003      	add	sp, #12
    1f26:	bd30      	pop	{r4, r5, pc}
    1f28:	ffff0010 	.word	0xffff0010

00001f2c <TEE_BigIntConvertFromS32>:
TEE_BigIntConvertFromS32():
/home/yin/imx-optee/imx-optee-os/lib/libutee/tee_api_arith.c:180
    1f2c:	f003 b9b8 	b.w	52a0 <mpa_set_S32>

00001f30 <TEE_BigIntConvertToS32>:
TEE_BigIntConvertToS32():
/home/yin/imx-optee/imx-optee-os/lib/libutee/tee_api_arith.c:190
    1f30:	b508      	push	{r3, lr}
/home/yin/imx-optee/imx-optee-os/lib/libutee/tee_api_arith.c:194
    1f32:	f003 f9c3 	bl	52bc <mpa_get_S32>
    1f36:	2800      	cmp	r0, #0
/home/yin/imx-optee/imx-optee-os/lib/libutee/tee_api_arith.c:204
    1f38:	4801      	ldr	r0, [pc, #4]	; (1f40 <TEE_BigIntConvertToS32+0x10>)
    1f3a:	bf08      	it	eq
    1f3c:	2000      	moveq	r0, #0
    1f3e:	bd08      	pop	{r3, pc}
    1f40:	ffff300f 	.word	0xffff300f

00001f44 <TEE_BigIntCmp>:
TEE_BigIntCmp():
/home/yin/imx-optee/imx-optee-os/lib/libutee/tee_api_arith.c:218
    1f44:	f004 bcf8 	b.w	6938 <mpa_cmp>

00001f48 <TEE_BigIntCmpS32>:
TEE_BigIntCmpS32():
